
main.elf:     file format elf32-avr

Sections:
Idx Name          Size      VMA       LMA       File off  Algn
  0 .text         000056ba  00000000  00000000  00000094  2**1
                  CONTENTS, ALLOC, LOAD, READONLY, CODE
  1 .data         000001fc  00800060  000056ba  0000574e  2**0
                  CONTENTS, ALLOC, LOAD, DATA
  2 .bss          00000502  0080025c  0080025c  0000594a  2**0
                  ALLOC
  3 .debug_aranges 000000a0  00000000  00000000  0000594a  2**0
                  CONTENTS, READONLY, DEBUGGING
  4 .debug_pubnames 0000027c  00000000  00000000  000059ea  2**0
                  CONTENTS, READONLY, DEBUGGING
  5 .debug_info   0000367c  00000000  00000000  00005c66  2**0
                  CONTENTS, READONLY, DEBUGGING
  6 .debug_abbrev 00000990  00000000  00000000  000092e2  2**0
                  CONTENTS, READONLY, DEBUGGING
  7 .debug_line   00002f9d  00000000  00000000  00009c72  2**0
                  CONTENTS, READONLY, DEBUGGING
  8 .debug_frame  00000400  00000000  00000000  0000cc10  2**2
                  CONTENTS, READONLY, DEBUGGING
  9 .debug_str    00000811  00000000  00000000  0000d010  2**0
                  CONTENTS, READONLY, DEBUGGING
 10 .debug_loc    00004e14  00000000  00000000  0000d821  2**0
                  CONTENTS, READONLY, DEBUGGING
 11 .debug_ranges 00000248  00000000  00000000  00012635  2**0
                  CONTENTS, READONLY, DEBUGGING

Disassembly of section .text:

00000000 <__vectors>:
       0:	0c 94 41 00 	jmp	0x82	; 0x82 <__ctors_end>
       4:	0c 94 5e 00 	jmp	0xbc	; 0xbc <__bad_interrupt>
       8:	0c 94 5e 00 	jmp	0xbc	; 0xbc <__bad_interrupt>
       c:	0c 94 5e 00 	jmp	0xbc	; 0xbc <__bad_interrupt>
      10:	0c 94 5e 00 	jmp	0xbc	; 0xbc <__bad_interrupt>
      14:	0c 94 5e 00 	jmp	0xbc	; 0xbc <__bad_interrupt>
      18:	0c 94 5e 00 	jmp	0xbc	; 0xbc <__bad_interrupt>
      1c:	0c 94 5e 00 	jmp	0xbc	; 0xbc <__bad_interrupt>
      20:	0c 94 5e 00 	jmp	0xbc	; 0xbc <__bad_interrupt>
      24:	0c 94 5e 00 	jmp	0xbc	; 0xbc <__bad_interrupt>
      28:	0c 94 5e 00 	jmp	0xbc	; 0xbc <__bad_interrupt>
      2c:	0c 94 5e 00 	jmp	0xbc	; 0xbc <__bad_interrupt>
      30:	0c 94 5e 00 	jmp	0xbc	; 0xbc <__bad_interrupt>
      34:	0c 94 5e 00 	jmp	0xbc	; 0xbc <__bad_interrupt>
      38:	0c 94 5e 00 	jmp	0xbc	; 0xbc <__bad_interrupt>
      3c:	0c 94 5e 00 	jmp	0xbc	; 0xbc <__bad_interrupt>
      40:	0c 94 5e 00 	jmp	0xbc	; 0xbc <__bad_interrupt>
      44:	0c 94 5e 00 	jmp	0xbc	; 0xbc <__bad_interrupt>
      48:	0c 94 5e 00 	jmp	0xbc	; 0xbc <__bad_interrupt>
      4c:	0c 94 5e 00 	jmp	0xbc	; 0xbc <__bad_interrupt>
      50:	0c 94 5e 00 	jmp	0xbc	; 0xbc <__bad_interrupt>

00000054 <__c.1907>:
      54:	49 6e 69 74 69 61 6c 69 7a 61 74 69 6f 6e 20 66     Initialization f
      64:	61 69 6c 65 64 00                                   ailed.

0000006a <__c.1905>:
      6a:	45 6e 74 65 72 20 49 64 6c 65 20 73 74 61 74 65     Enter Idle state
      7a:	20 65 72 72 6f 72 00 00                              error..

00000082 <__ctors_end>:
      82:	11 24       	eor	r1, r1
      84:	1f be       	out	0x3f, r1	; 63
      86:	cf e5       	ldi	r28, 0x5F	; 95
      88:	d8 e0       	ldi	r29, 0x08	; 8
      8a:	de bf       	out	0x3e, r29	; 62
      8c:	cd bf       	out	0x3d, r28	; 61

0000008e <__do_copy_data>:
      8e:	12 e0       	ldi	r17, 0x02	; 2
      90:	a0 e6       	ldi	r26, 0x60	; 96
      92:	b0 e0       	ldi	r27, 0x00	; 0
      94:	ea eb       	ldi	r30, 0xBA	; 186
      96:	f6 e5       	ldi	r31, 0x56	; 86
      98:	02 c0       	rjmp	.+4      	; 0x9e <.do_copy_data_start>

0000009a <.do_copy_data_loop>:
      9a:	05 90       	lpm	r0, Z+
      9c:	0d 92       	st	X+, r0

0000009e <.do_copy_data_start>:
      9e:	ac 35       	cpi	r26, 0x5C	; 92
      a0:	b1 07       	cpc	r27, r17
      a2:	d9 f7       	brne	.-10     	; 0x9a <.do_copy_data_loop>

000000a4 <__do_clear_bss>:
      a4:	17 e0       	ldi	r17, 0x07	; 7
      a6:	ac e5       	ldi	r26, 0x5C	; 92
      a8:	b2 e0       	ldi	r27, 0x02	; 2
      aa:	01 c0       	rjmp	.+2      	; 0xae <.do_clear_bss_start>

000000ac <.do_clear_bss_loop>:
      ac:	1d 92       	st	X+, r1

000000ae <.do_clear_bss_start>:
      ae:	ae 35       	cpi	r26, 0x5E	; 94
      b0:	b1 07       	cpc	r27, r17
      b2:	e1 f7       	brne	.-8      	; 0xac <.do_clear_bss_loop>
      b4:	0e 94 65 00 	call	0xca	; 0xca <main>
      b8:	0c 94 5b 2b 	jmp	0x56b6	; 0x56b6 <_exit>

000000bc <__bad_interrupt>:
      bc:	0c 94 00 00 	jmp	0	; 0x0 <__vectors>

000000c0 <get_fattime>:
			| ((DWORD)/*rtc.month*/10 << 21)
			| ((DWORD)/*rtc.mday*/7 << 16)
			| ((DWORD)/*rtc.hour*/1 << 11)
			| ((DWORD)/*rtc.min*/26 << 5)
			| ((DWORD)/*rtc.sec*/6 >> 1);
}
      c0:	63 e4       	ldi	r22, 0x43	; 67
      c2:	7b e0       	ldi	r23, 0x0B	; 11
      c4:	87 e4       	ldi	r24, 0x47	; 71
      c6:	9d e3       	ldi	r25, 0x3D	; 61
      c8:	08 95       	ret

000000ca <main>:

int main(void)
{
      ca:	ef 92       	push	r14
      cc:	ff 92       	push	r15
      ce:	0f 93       	push	r16
      d0:	1f 93       	push	r17
      d2:	df 93       	push	r29
      d4:	cf 93       	push	r28
      d6:	cd b7       	in	r28, 0x3d	; 61
      d8:	de b7       	in	r29, 0x3e	; 62
      da:	a0 97       	sbiw	r28, 0x20	; 32
      dc:	0f b6       	in	r0, 0x3f	; 63
      de:	f8 94       	cli
      e0:	de bf       	out	0x3e, r29	; 62
      e2:	0f be       	out	0x3f, r0	; 63
      e4:	cd bf       	out	0x3d, r28	; 61
	uart0_init();
      e6:	0e 94 91 01 	call	0x322	; 0x322 <uart0_init>
	xmit("********FatFs: write data demo********"); 
      ea:	80 e6       	ldi	r24, 0x60	; 96
      ec:	90 e0       	ldi	r25, 0x00	; 0
      ee:	0e 94 ad 01 	call	0x35a	; 0x35a <transmitString>
      f2:	8d e0       	ldi	r24, 0x0D	; 13
      f4:	0e 94 9f 01 	call	0x33e	; 0x33e <transmitByte>
      f8:	8a e0       	ldi	r24, 0x0A	; 10
      fa:	0e 94 9f 01 	call	0x33e	; 0x33e <transmitByte>

	/*initialize and mount*/
	BYTE status = disk_initialize(0);
      fe:	80 e0       	ldi	r24, 0x00	; 0
     100:	0e 94 9d 05 	call	0xb3a	; 0xb3a <disk_initialize>

	sprintf((char*)buf,"initialize return: %X",status);
     104:	06 e9       	ldi	r16, 0x96	; 150
     106:	16 e0       	ldi	r17, 0x06	; 6
     108:	00 d0       	rcall	.+0      	; 0x10a <main+0x40>
     10a:	00 d0       	rcall	.+0      	; 0x10c <main+0x42>
     10c:	00 d0       	rcall	.+0      	; 0x10e <main+0x44>
     10e:	ed b7       	in	r30, 0x3d	; 61
     110:	fe b7       	in	r31, 0x3e	; 62
     112:	31 96       	adiw	r30, 0x01	; 1
     114:	ad b7       	in	r26, 0x3d	; 61
     116:	be b7       	in	r27, 0x3e	; 62
     118:	12 96       	adiw	r26, 0x02	; 2
     11a:	1c 93       	st	X, r17
     11c:	0e 93       	st	-X, r16
     11e:	11 97       	sbiw	r26, 0x01	; 1
     120:	27 e8       	ldi	r18, 0x87	; 135
     122:	30 e0       	ldi	r19, 0x00	; 0
     124:	33 83       	std	Z+3, r19	; 0x03
     126:	22 83       	std	Z+2, r18	; 0x02
     128:	84 83       	std	Z+4, r24	; 0x04
     12a:	15 82       	std	Z+5, r1	; 0x05
     12c:	0e 94 83 28 	call	0x5106	; 0x5106 <sprintf>
	xmit(buf);
     130:	2d b7       	in	r18, 0x3d	; 61
     132:	3e b7       	in	r19, 0x3e	; 62
     134:	2a 5f       	subi	r18, 0xFA	; 250
     136:	3f 4f       	sbci	r19, 0xFF	; 255
     138:	0f b6       	in	r0, 0x3f	; 63
     13a:	f8 94       	cli
     13c:	3e bf       	out	0x3e, r19	; 62
     13e:	0f be       	out	0x3f, r0	; 63
     140:	2d bf       	out	0x3d, r18	; 61
     142:	c8 01       	movw	r24, r16
     144:	0e 94 ad 01 	call	0x35a	; 0x35a <transmitString>
     148:	8d e0       	ldi	r24, 0x0D	; 13
     14a:	0e 94 9f 01 	call	0x33e	; 0x33e <transmitByte>
     14e:	8a e0       	ldi	r24, 0x0A	; 10
     150:	0e 94 9f 01 	call	0x33e	; 0x33e <transmitByte>

	f_err_code = f_mount(0, &FATFS_Obj);
     154:	80 e0       	ldi	r24, 0x00	; 0
     156:	6f e5       	ldi	r22, 0x5F	; 95
     158:	72 e0       	ldi	r23, 0x02	; 2
     15a:	0e 94 56 07 	call	0xeac	; 0xeac <f_mount>
     15e:	80 93 5e 02 	sts	0x025E, r24
	sprintf((char*)buf,"f_mount return: %X",f_err_code);
     162:	00 d0       	rcall	.+0      	; 0x164 <main+0x9a>
     164:	00 d0       	rcall	.+0      	; 0x166 <main+0x9c>
     166:	00 d0       	rcall	.+0      	; 0x168 <main+0x9e>
     168:	ed b7       	in	r30, 0x3d	; 61
     16a:	fe b7       	in	r31, 0x3e	; 62
     16c:	31 96       	adiw	r30, 0x01	; 1
     16e:	ad b7       	in	r26, 0x3d	; 61
     170:	be b7       	in	r27, 0x3e	; 62
     172:	12 96       	adiw	r26, 0x02	; 2
     174:	1c 93       	st	X, r17
     176:	0e 93       	st	-X, r16
     178:	11 97       	sbiw	r26, 0x01	; 1
     17a:	2d e9       	ldi	r18, 0x9D	; 157
     17c:	30 e0       	ldi	r19, 0x00	; 0
     17e:	33 83       	std	Z+3, r19	; 0x03
     180:	22 83       	std	Z+2, r18	; 0x02
     182:	84 83       	std	Z+4, r24	; 0x04
     184:	15 82       	std	Z+5, r1	; 0x05
     186:	0e 94 83 28 	call	0x5106	; 0x5106 <sprintf>
	xmit(buf);
     18a:	2d b7       	in	r18, 0x3d	; 61
     18c:	3e b7       	in	r19, 0x3e	; 62
     18e:	2a 5f       	subi	r18, 0xFA	; 250
     190:	3f 4f       	sbci	r19, 0xFF	; 255
     192:	0f b6       	in	r0, 0x3f	; 63
     194:	f8 94       	cli
     196:	3e bf       	out	0x3e, r19	; 62
     198:	0f be       	out	0x3f, r0	; 63
     19a:	2d bf       	out	0x3d, r18	; 61
     19c:	c8 01       	movw	r24, r16
     19e:	0e 94 ad 01 	call	0x35a	; 0x35a <transmitString>
     1a2:	8d e0       	ldi	r24, 0x0D	; 13
     1a4:	0e 94 9f 01 	call	0x33e	; 0x33e <transmitByte>
     1a8:	8a e0       	ldi	r24, 0x0A	; 10
     1aa:	0e 94 9f 01 	call	0x33e	; 0x33e <transmitByte>

	FIL fil_obj;

	/*open*/
	f_err_code = f_open(&fil_obj, "foo.txt", FA_WRITE);
     1ae:	7e 01       	movw	r14, r28
     1b0:	08 94       	sec
     1b2:	e1 1c       	adc	r14, r1
     1b4:	f1 1c       	adc	r15, r1
     1b6:	c7 01       	movw	r24, r14
     1b8:	60 eb       	ldi	r22, 0xB0	; 176
     1ba:	70 e0       	ldi	r23, 0x00	; 0
     1bc:	42 e0       	ldi	r20, 0x02	; 2
     1be:	0e 94 82 26 	call	0x4d04	; 0x4d04 <f_open>
     1c2:	80 93 5e 02 	sts	0x025E, r24
	sprintf((char*)buf,"f_open return: %X",f_err_code);
     1c6:	00 d0       	rcall	.+0      	; 0x1c8 <main+0xfe>
     1c8:	00 d0       	rcall	.+0      	; 0x1ca <main+0x100>
     1ca:	00 d0       	rcall	.+0      	; 0x1cc <main+0x102>
     1cc:	ed b7       	in	r30, 0x3d	; 61
     1ce:	fe b7       	in	r31, 0x3e	; 62
     1d0:	31 96       	adiw	r30, 0x01	; 1
     1d2:	ad b7       	in	r26, 0x3d	; 61
     1d4:	be b7       	in	r27, 0x3e	; 62
     1d6:	12 96       	adiw	r26, 0x02	; 2
     1d8:	1c 93       	st	X, r17
     1da:	0e 93       	st	-X, r16
     1dc:	11 97       	sbiw	r26, 0x01	; 1
     1de:	28 eb       	ldi	r18, 0xB8	; 184
     1e0:	30 e0       	ldi	r19, 0x00	; 0
     1e2:	33 83       	std	Z+3, r19	; 0x03
     1e4:	22 83       	std	Z+2, r18	; 0x02
     1e6:	84 83       	std	Z+4, r24	; 0x04
     1e8:	15 82       	std	Z+5, r1	; 0x05
     1ea:	0e 94 83 28 	call	0x5106	; 0x5106 <sprintf>
	xmit(buf);
     1ee:	2d b7       	in	r18, 0x3d	; 61
     1f0:	3e b7       	in	r19, 0x3e	; 62
     1f2:	2a 5f       	subi	r18, 0xFA	; 250
     1f4:	3f 4f       	sbci	r19, 0xFF	; 255
     1f6:	0f b6       	in	r0, 0x3f	; 63
     1f8:	f8 94       	cli
     1fa:	3e bf       	out	0x3e, r19	; 62
     1fc:	0f be       	out	0x3f, r0	; 63
     1fe:	2d bf       	out	0x3d, r18	; 61
     200:	c8 01       	movw	r24, r16
     202:	0e 94 ad 01 	call	0x35a	; 0x35a <transmitString>
     206:	8d e0       	ldi	r24, 0x0D	; 13
     208:	0e 94 9f 01 	call	0x33e	; 0x33e <transmitByte>
     20c:	8a e0       	ldi	r24, 0x0A	; 10
     20e:	0e 94 9f 01 	call	0x33e	; 0x33e <transmitByte>

	/*write*/
	f_err_code = f_lseek(&fil_obj,fil_obj.fsize);//смещаем указатель на кол-во байт, равное размеру файла. Т.е. переходим в конец файла.
     212:	4b 85       	ldd	r20, Y+11	; 0x0b
     214:	5c 85       	ldd	r21, Y+12	; 0x0c
     216:	6d 85       	ldd	r22, Y+13	; 0x0d
     218:	7e 85       	ldd	r23, Y+14	; 0x0e
     21a:	c7 01       	movw	r24, r14
     21c:	0e 94 c2 0f 	call	0x1f84	; 0x1f84 <f_lseek>
     220:	80 93 5e 02 	sts	0x025E, r24
	sprintf((char*)buf,"f_lseek return: %X, size of file: %d",f_err_code,(int)fil_obj.fsize); 
     224:	ad b7       	in	r26, 0x3d	; 61
     226:	be b7       	in	r27, 0x3e	; 62
     228:	18 97       	sbiw	r26, 0x08	; 8
     22a:	0f b6       	in	r0, 0x3f	; 63
     22c:	f8 94       	cli
     22e:	be bf       	out	0x3e, r27	; 62
     230:	0f be       	out	0x3f, r0	; 63
     232:	ad bf       	out	0x3d, r26	; 61
     234:	ed b7       	in	r30, 0x3d	; 61
     236:	fe b7       	in	r31, 0x3e	; 62
     238:	31 96       	adiw	r30, 0x01	; 1
     23a:	12 96       	adiw	r26, 0x02	; 2
     23c:	1c 93       	st	X, r17
     23e:	0e 93       	st	-X, r16
     240:	11 97       	sbiw	r26, 0x01	; 1
     242:	2a ec       	ldi	r18, 0xCA	; 202
     244:	30 e0       	ldi	r19, 0x00	; 0
     246:	33 83       	std	Z+3, r19	; 0x03
     248:	22 83       	std	Z+2, r18	; 0x02
     24a:	84 83       	std	Z+4, r24	; 0x04
     24c:	15 82       	std	Z+5, r1	; 0x05
     24e:	8b 85       	ldd	r24, Y+11	; 0x0b
     250:	9c 85       	ldd	r25, Y+12	; 0x0c
     252:	97 83       	std	Z+7, r25	; 0x07
     254:	86 83       	std	Z+6, r24	; 0x06
     256:	0e 94 83 28 	call	0x5106	; 0x5106 <sprintf>
	xmit(buf);
     25a:	2d b7       	in	r18, 0x3d	; 61
     25c:	3e b7       	in	r19, 0x3e	; 62
     25e:	28 5f       	subi	r18, 0xF8	; 248
     260:	3f 4f       	sbci	r19, 0xFF	; 255
     262:	0f b6       	in	r0, 0x3f	; 63
     264:	f8 94       	cli
     266:	3e bf       	out	0x3e, r19	; 62
     268:	0f be       	out	0x3f, r0	; 63
     26a:	2d bf       	out	0x3d, r18	; 61
     26c:	c8 01       	movw	r24, r16
     26e:	0e 94 ad 01 	call	0x35a	; 0x35a <transmitString>
     272:	8d e0       	ldi	r24, 0x0D	; 13
     274:	0e 94 9f 01 	call	0x33e	; 0x33e <transmitByte>
     278:	8a e0       	ldi	r24, 0x0A	; 10
     27a:	0e 94 9f 01 	call	0x33e	; 0x33e <transmitByte>

	f_err_code = f_write(&fil_obj,var,strlen(var),&ByteWrite); //записываем в конец файла строку var
     27e:	60 91 27 01 	lds	r22, 0x0127
     282:	70 91 28 01 	lds	r23, 0x0128
     286:	fb 01       	movw	r30, r22
     288:	df 01       	movw	r26, r30
     28a:	0d 90       	ld	r0, X+
     28c:	00 20       	and	r0, r0
     28e:	e9 f7       	brne	.-6      	; 0x28a <main+0x1c0>
     290:	11 97       	sbiw	r26, 0x01	; 1
     292:	ae 1b       	sub	r26, r30
     294:	bf 0b       	sbc	r27, r31
     296:	c7 01       	movw	r24, r14
     298:	ad 01       	movw	r20, r26
     29a:	2c e5       	ldi	r18, 0x5C	; 92
     29c:	32 e0       	ldi	r19, 0x02	; 2
     29e:	0e 94 de 1d 	call	0x3bbc	; 0x3bbc <f_write>
     2a2:	80 93 5e 02 	sts	0x025E, r24
	sprintf((char*)buf,"f_write return: %X, byte wrote: %d",f_err_code,ByteWrite); //возвратит FR_OK=0 в случае успеха, также выводим сколько байтов удалось записать
     2a6:	ad b7       	in	r26, 0x3d	; 61
     2a8:	be b7       	in	r27, 0x3e	; 62
     2aa:	18 97       	sbiw	r26, 0x08	; 8
     2ac:	0f b6       	in	r0, 0x3f	; 63
     2ae:	f8 94       	cli
     2b0:	be bf       	out	0x3e, r27	; 62
     2b2:	0f be       	out	0x3f, r0	; 63
     2b4:	ad bf       	out	0x3d, r26	; 61
     2b6:	ed b7       	in	r30, 0x3d	; 61
     2b8:	fe b7       	in	r31, 0x3e	; 62
     2ba:	31 96       	adiw	r30, 0x01	; 1
     2bc:	12 96       	adiw	r26, 0x02	; 2
     2be:	1c 93       	st	X, r17
     2c0:	0e 93       	st	-X, r16
     2c2:	11 97       	sbiw	r26, 0x01	; 1
     2c4:	2f ee       	ldi	r18, 0xEF	; 239
     2c6:	30 e0       	ldi	r19, 0x00	; 0
     2c8:	33 83       	std	Z+3, r19	; 0x03
     2ca:	22 83       	std	Z+2, r18	; 0x02
     2cc:	84 83       	std	Z+4, r24	; 0x04
     2ce:	15 82       	std	Z+5, r1	; 0x05
     2d0:	80 91 5c 02 	lds	r24, 0x025C
     2d4:	90 91 5d 02 	lds	r25, 0x025D
     2d8:	97 83       	std	Z+7, r25	; 0x07
     2da:	86 83       	std	Z+6, r24	; 0x06
     2dc:	0e 94 83 28 	call	0x5106	; 0x5106 <sprintf>
	xmit(buf);
     2e0:	2d b7       	in	r18, 0x3d	; 61
     2e2:	3e b7       	in	r19, 0x3e	; 62
     2e4:	28 5f       	subi	r18, 0xF8	; 248
     2e6:	3f 4f       	sbci	r19, 0xFF	; 255
     2e8:	0f b6       	in	r0, 0x3f	; 63
     2ea:	f8 94       	cli
     2ec:	3e bf       	out	0x3e, r19	; 62
     2ee:	0f be       	out	0x3f, r0	; 63
     2f0:	2d bf       	out	0x3d, r18	; 61
     2f2:	c8 01       	movw	r24, r16
     2f4:	0e 94 ad 01 	call	0x35a	; 0x35a <transmitString>
     2f8:	8d e0       	ldi	r24, 0x0D	; 13
     2fa:	0e 94 9f 01 	call	0x33e	; 0x33e <transmitByte>
     2fe:	8a e0       	ldi	r24, 0x0A	; 10
     300:	0e 94 9f 01 	call	0x33e	; 0x33e <transmitByte>

	/*close*/
	f_close(&fil_obj); //закрываем файл*/
     304:	c7 01       	movw	r24, r14
     306:	0e 94 76 26 	call	0x4cec	; 0x4cec <f_close>
     30a:	80 e1       	ldi	r24, 0x10	; 16
     30c:	97 e2       	ldi	r25, 0x27	; 39
    milliseconds can be achieved.
 */
void
_delay_loop_2(uint16_t __count)
{
	__asm__ volatile (
     30e:	24 e6       	ldi	r18, 0x64	; 100
     310:	30 e0       	ldi	r19, 0x00	; 0
     312:	f9 01       	movw	r30, r18
     314:	31 97       	sbiw	r30, 0x01	; 1
     316:	f1 f7       	brne	.-4      	; 0x314 <main+0x24a>
		__ticks = (uint16_t) (__ms * 10.0);
		while(__ticks)
		{
			// wait 1/10 ms
			_delay_loop_2(((F_CPU) / 4e3) / 10);
			__ticks --;
     318:	01 97       	sbiw	r24, 0x01	; 1
		__ticks = 1;
	else if (__tmp > 65535)
	{
		//	__ticks = requested delay in 1/10 ms
		__ticks = (uint16_t) (__ms * 10.0);
		while(__ticks)
     31a:	d9 f7       	brne	.-10     	; 0x312 <main+0x248>
     31c:	80 e1       	ldi	r24, 0x10	; 16
     31e:	97 e2       	ldi	r25, 0x27	; 39
     320:	f8 cf       	rjmp	.-16     	; 0x312 <main+0x248>

00000322 <uart0_init>:
#include <avr/pgmspace.h>
#include "UART_routines.h"

void uart0_init(void)
{
	UCSRA=0x00;
     322:	1b b8       	out	0x0b, r1	; 11
	UCSRB = (1<<RXEN)|(1<<TXEN);
     324:	88 e1       	ldi	r24, 0x18	; 24
     326:	8a b9       	out	0x0a, r24	; 10
	UCSRC = (1<<URSEL)|(1<<UCSZ0)|(1<<UCSZ1);
     328:	86 e8       	ldi	r24, 0x86	; 134
     32a:	80 bd       	out	0x20, r24	; 32
	UBRRH = HI(baud);
     32c:	10 bc       	out	0x20, r1	; 32
	UBRRL = LO(baud);
     32e:	8c e0       	ldi	r24, 0x0C	; 12
     330:	89 b9       	out	0x09, r24	; 9
}
     332:	08 95       	ret

00000334 <receiveByte>:
//*************************************************
unsigned char receiveByte( void )
{
	unsigned char data, status;
	
	while(!(UCSRA & (1<<RXC))); 	// Wait for incomming data
     334:	5f 9b       	sbis	0x0b, 7	; 11
     336:	fe cf       	rjmp	.-4      	; 0x334 <receiveByte>
	
	status = UCSRA;
     338:	8b b1       	in	r24, 0x0b	; 11
	data = UDR;
     33a:	8c b1       	in	r24, 0x0c	; 12
	
	return(data);
}
     33c:	08 95       	ret

0000033e <transmitByte>:
//***************************************************
//Function to transmit a single byte
//***************************************************
void transmitByte( unsigned char data )
{
	while ( !(UCSRA & (1<<UDRE)) )
     33e:	5d 9b       	sbis	0x0b, 5	; 11
     340:	fe cf       	rjmp	.-4      	; 0x33e <transmitByte>
		; 			                /* Wait for empty transmit buffer */
	UDR = data; 			        /* Start transmition */
     342:	8c b9       	out	0x0c, r24	; 12
}
     344:	08 95       	ret

00000346 <transmitString_F>:

//***************************************************
//Function to transmit a string in Flash
//***************************************************
void transmitString_F(char* string)
{
     346:	fc 01       	movw	r30, r24
     348:	04 c0       	rjmp	.+8      	; 0x352 <transmitString_F+0xc>
//***************************************************
//Function to transmit a single byte
//***************************************************
void transmitByte( unsigned char data )
{
	while ( !(UCSRA & (1<<UDRE)) )
     34a:	5d 9b       	sbis	0x0b, 5	; 11
     34c:	fe cf       	rjmp	.-4      	; 0x34a <transmitString_F+0x4>
//Function to transmit a string in Flash
//***************************************************
void transmitString_F(char* string)
{
  while (pgm_read_byte(&(*string)))
   transmitByte(pgm_read_byte(&(*string++)));
     34e:	31 96       	adiw	r30, 0x01	; 1
//***************************************************
void transmitByte( unsigned char data )
{
	while ( !(UCSRA & (1<<UDRE)) )
		; 			                /* Wait for empty transmit buffer */
	UDR = data; 			        /* Start transmition */
     350:	8c b9       	out	0x0c, r24	; 12
//***************************************************
//Function to transmit a string in Flash
//***************************************************
void transmitString_F(char* string)
{
  while (pgm_read_byte(&(*string)))
     352:	84 91       	lpm	r24, Z+
     354:	88 23       	and	r24, r24
     356:	c9 f7       	brne	.-14     	; 0x34a <transmitString_F+0x4>
   transmitByte(pgm_read_byte(&(*string++)));
}
     358:	08 95       	ret

0000035a <transmitString>:

//***************************************************
//Function to transmit a string in RAM
//***************************************************
void transmitString(unsigned char* string)
{
     35a:	fc 01       	movw	r30, r24
     35c:	04 c0       	rjmp	.+8      	; 0x366 <transmitString+0xc>
//***************************************************
//Function to transmit a single byte
//***************************************************
void transmitByte( unsigned char data )
{
	while ( !(UCSRA & (1<<UDRE)) )
     35e:	5d 9b       	sbis	0x0b, 5	; 11
     360:	fe cf       	rjmp	.-4      	; 0x35e <transmitString+0x4>
//Function to transmit a string in RAM
//***************************************************
void transmitString(unsigned char* string)
{
  while (*string)
   transmitByte(*string++);
     362:	31 96       	adiw	r30, 0x01	; 1
//***************************************************
void transmitByte( unsigned char data )
{
	while ( !(UCSRA & (1<<UDRE)) )
		; 			                /* Wait for empty transmit buffer */
	UDR = data; 			        /* Start transmition */
     364:	8c b9       	out	0x0c, r24	; 12
//***************************************************
//Function to transmit a string in RAM
//***************************************************
void transmitString(unsigned char* string)
{
  while (*string)
     366:	80 81       	ld	r24, Z
     368:	88 23       	and	r24, r24
     36a:	c9 f7       	brne	.-14     	; 0x35e <transmitString+0x4>
   transmitByte(*string++);
}
     36c:	08 95       	ret

0000036e <transmitHex>:
//Function to transmit hex format data
//first argument indicates type: CHAR, INT or LONG
//Second argument is the data to be displayed
//***************************************************
void transmitHex( unsigned char dataType, unsigned long data )
{
     36e:	df 93       	push	r29
     370:	cf 93       	push	r28
     372:	cd b7       	in	r28, 0x3d	; 61
     374:	de b7       	in	r29, 0x3e	; 62
     376:	2b 97       	sbiw	r28, 0x0b	; 11
     378:	0f b6       	in	r0, 0x3f	; 63
     37a:	f8 94       	cli
     37c:	de bf       	out	0x3e, r29	; 62
     37e:	0f be       	out	0x3f, r0	; 63
     380:	cd bf       	out	0x3d, r28	; 61
unsigned char count, i, temp;
unsigned char dataString[] = "0x        ";

if (dataType == CHAR) count = 2;
if (dataType == INT) count = 4;
     382:	81 30       	cpi	r24, 0x01	; 1
     384:	11 f4       	brne	.+4      	; 0x38a <transmitHex+0x1c>
     386:	94 e0       	ldi	r25, 0x04	; 4
     388:	05 c0       	rjmp	.+10     	; 0x394 <transmitHex+0x26>
if (dataType == LONG) count = 8;
     38a:	82 30       	cpi	r24, 0x02	; 2
     38c:	11 f4       	brne	.+4      	; 0x392 <transmitHex+0x24>
     38e:	98 e0       	ldi	r25, 0x08	; 8
     390:	01 c0       	rjmp	.+2      	; 0x394 <transmitHex+0x26>
     392:	92 e0       	ldi	r25, 0x02	; 2
//Second argument is the data to be displayed
//***************************************************
void transmitHex( unsigned char dataType, unsigned long data )
{
unsigned char count, i, temp;
unsigned char dataString[] = "0x        ";
     394:	de 01       	movw	r26, r28
     396:	11 96       	adiw	r26, 0x01	; 1
     398:	e9 e2       	ldi	r30, 0x29	; 41
     39a:	f1 e0       	ldi	r31, 0x01	; 1
     39c:	8b e0       	ldi	r24, 0x0B	; 11
     39e:	01 90       	ld	r0, Z+
     3a0:	0d 92       	st	X+, r0
     3a2:	81 50       	subi	r24, 0x01	; 1
     3a4:	e1 f7       	brne	.-8      	; 0x39e <transmitHex+0x30>
     3a6:	9e 01       	movw	r18, r28
     3a8:	2e 5f       	subi	r18, 0xFE	; 254
     3aa:	3f 4f       	sbci	r19, 0xFF	; 255
if (dataType == INT) count = 4;
if (dataType == LONG) count = 8;

for(i=count; i>0; i--)
{
  temp = data % 16;
     3ac:	84 2f       	mov	r24, r20
     3ae:	8f 70       	andi	r24, 0x0F	; 15
     3b0:	e9 2f       	mov	r30, r25
     3b2:	f0 e0       	ldi	r31, 0x00	; 0
  if((temp>=0) && (temp<10)) dataString [i+1] = temp + 0x30;
     3b4:	8a 30       	cpi	r24, 0x0A	; 10
     3b6:	20 f4       	brcc	.+8      	; 0x3c0 <transmitHex+0x52>
     3b8:	e2 0f       	add	r30, r18
     3ba:	f3 1f       	adc	r31, r19
     3bc:	80 5d       	subi	r24, 0xD0	; 208
     3be:	03 c0       	rjmp	.+6      	; 0x3c6 <transmitHex+0x58>
  else dataString [i+1] = (temp - 10) + 0x41;
     3c0:	e2 0f       	add	r30, r18
     3c2:	f3 1f       	adc	r31, r19
     3c4:	89 5c       	subi	r24, 0xC9	; 201
     3c6:	80 83       	st	Z, r24

if (dataType == CHAR) count = 2;
if (dataType == INT) count = 4;
if (dataType == LONG) count = 8;

for(i=count; i>0; i--)
     3c8:	91 50       	subi	r25, 0x01	; 1
     3ca:	41 f0       	breq	.+16     	; 0x3dc <transmitHex+0x6e>
{
  temp = data % 16;
  if((temp>=0) && (temp<10)) dataString [i+1] = temp + 0x30;
  else dataString [i+1] = (temp - 10) + 0x41;

  data = data/16;
     3cc:	84 e0       	ldi	r24, 0x04	; 4
     3ce:	76 95       	lsr	r23
     3d0:	67 95       	ror	r22
     3d2:	57 95       	ror	r21
     3d4:	47 95       	ror	r20
     3d6:	8a 95       	dec	r24
     3d8:	d1 f7       	brne	.-12     	; 0x3ce <transmitHex+0x60>
     3da:	e8 cf       	rjmp	.-48     	; 0x3ac <transmitHex+0x3e>
}

transmitString (dataString);
     3dc:	ce 01       	movw	r24, r28
     3de:	01 96       	adiw	r24, 0x01	; 1
     3e0:	0e 94 ad 01 	call	0x35a	; 0x35a <transmitString>
}
     3e4:	2b 96       	adiw	r28, 0x0b	; 11
     3e6:	0f b6       	in	r0, 0x3f	; 63
     3e8:	f8 94       	cli
     3ea:	de bf       	out	0x3e, r29	; 62
     3ec:	0f be       	out	0x3f, r0	; 63
     3ee:	cd bf       	out	0x3d, r28	; 61
     3f0:	cf 91       	pop	r28
     3f2:	df 91       	pop	r29
     3f4:	08 95       	ret

000003f6 <wait_ready>:
/*-----------------------------------------------------------------------*/

static
BYTE rcvr_spi (void)
{
	SPDR = 0xFF;
     3f6:	8f ef       	ldi	r24, 0xFF	; 255
     3f8:	8f b9       	out	0x0f, r24	; 15
	loop_until_bit_is_set(SPSR, SPIF);
     3fa:	77 9b       	sbis	0x0e, 7	; 14
     3fc:	fe cf       	rjmp	.-4      	; 0x3fa <wait_ready+0x4>
	return SPDR;
     3fe:	8f b1       	in	r24, 0x0f	; 15
     400:	20 e0       	ldi	r18, 0x00	; 0
     402:	30 e0       	ldi	r19, 0x00	; 0
/*-----------------------------------------------------------------------*/

static
BYTE rcvr_spi (void)
{
	SPDR = 0xFF;
     404:	6f ef       	ldi	r22, 0xFF	; 255
     406:	40 e1       	ldi	r20, 0x10	; 16
     408:	57 e2       	ldi	r21, 0x27	; 39
     40a:	6f b9       	out	0x0f, r22	; 15
	loop_until_bit_is_set(SPSR, SPIF);
     40c:	77 9b       	sbis	0x0e, 7	; 14
     40e:	fe cf       	rjmp	.-4      	; 0x40c <wait_ready+0x16>
	return SPDR;
     410:	8f b1       	in	r24, 0x0f	; 15
{
	int timer = 0;	/* Wait for ready in timeout of 500ms */
	rcvr_spi();
	do
	{
		if (rcvr_spi() == 0xFF) return 1;
     412:	8f 3f       	cpi	r24, 0xFF	; 255
     414:	19 f4       	brne	.+6      	; 0x41c <wait_ready+0x26>
     416:	21 e0       	ldi	r18, 0x01	; 1
     418:	30 e0       	ldi	r19, 0x00	; 0
     41a:	0a c0       	rjmp	.+20     	; 0x430 <wait_ready+0x3a>
     41c:	ca 01       	movw	r24, r20
     41e:	01 97       	sbiw	r24, 0x01	; 1
     420:	f1 f7       	brne	.-4      	; 0x41e <wait_ready+0x28>
		_delay_ms(10);
		timer++;
     422:	2f 5f       	subi	r18, 0xFF	; 255
     424:	3f 4f       	sbci	r19, 0xFF	; 255
	}
	while (timer<50);
     426:	22 33       	cpi	r18, 0x32	; 50
     428:	31 05       	cpc	r19, r1
     42a:	79 f7       	brne	.-34     	; 0x40a <wait_ready+0x14>
     42c:	20 e0       	ldi	r18, 0x00	; 0
     42e:	30 e0       	ldi	r19, 0x00	; 0

	return 0;
}
     430:	c9 01       	movw	r24, r18
     432:	08 95       	ret

00000434 <select>:
/*-----------------------------------------------------------------------*/

static
int select (void)	/* 1:Successful, 0:Timeout */
{
	CS_LOW();
     434:	c1 98       	cbi	0x18, 1	; 24
	if (!wait_ready()) {
     436:	0e 94 fb 01 	call	0x3f6	; 0x3f6 <wait_ready>
     43a:	89 2b       	or	r24, r25
     43c:	19 f0       	breq	.+6      	; 0x444 <select+0x10>
     43e:	21 e0       	ldi	r18, 0x01	; 1
     440:	30 e0       	ldi	r19, 0x00	; 0
     442:	08 c0       	rjmp	.+16     	; 0x454 <select+0x20>
/*-----------------------------------------------------------------------*/

static
void deselect (void)
{
	CS_HIGH();
     444:	c1 9a       	sbi	0x18, 1	; 24
/*-----------------------------------------------------------------------*/

static
BYTE rcvr_spi (void)
{
	SPDR = 0xFF;
     446:	8f ef       	ldi	r24, 0xFF	; 255
     448:	8f b9       	out	0x0f, r24	; 15
	loop_until_bit_is_set(SPSR, SPIF);
     44a:	77 9b       	sbis	0x0e, 7	; 14
     44c:	fe cf       	rjmp	.-4      	; 0x44a <select+0x16>
	return SPDR;
     44e:	8f b1       	in	r24, 0x0f	; 15
     450:	20 e0       	ldi	r18, 0x00	; 0
     452:	30 e0       	ldi	r19, 0x00	; 0
	if (!wait_ready()) {
		deselect();
		return 0;
	}
	return 1;
}
     454:	c9 01       	movw	r24, r18
     456:	08 95       	ret

00000458 <rcvr_datablock>:
static
int rcvr_datablock (
	BYTE *buff,			/* Data buffer to store received data */
	UINT btr			/* Byte count (must be multiple of 4) */
)
{
     458:	fc 01       	movw	r30, r24
     45a:	20 e0       	ldi	r18, 0x00	; 0
     45c:	30 e0       	ldi	r19, 0x00	; 0
/*-----------------------------------------------------------------------*/

static
BYTE rcvr_spi (void)
{
	SPDR = 0xFF;
     45e:	5f ef       	ldi	r21, 0xFF	; 255
     460:	a0 e1       	ldi	r26, 0x10	; 16
     462:	b7 e2       	ldi	r27, 0x27	; 39
     464:	5f b9       	out	0x0f, r21	; 15
	loop_until_bit_is_set(SPSR, SPIF);
     466:	77 9b       	sbis	0x0e, 7	; 14
     468:	fe cf       	rjmp	.-4      	; 0x466 <rcvr_datablock+0xe>
	return SPDR;
     46a:	4f b1       	in	r20, 0x0f	; 15
     46c:	cd 01       	movw	r24, r26
     46e:	01 97       	sbiw	r24, 0x01	; 1
     470:	f1 f7       	brne	.-4      	; 0x46e <rcvr_datablock+0x16>
{
	BYTE token;


	token = 0xFF;
	for (int i = 0; i < 20 && token == 0xFF; i++)
     472:	2f 5f       	subi	r18, 0xFF	; 255
     474:	3f 4f       	sbci	r19, 0xFF	; 255
     476:	24 31       	cpi	r18, 0x14	; 20
     478:	31 05       	cpc	r19, r1
     47a:	11 f0       	breq	.+4      	; 0x480 <rcvr_datablock+0x28>
     47c:	4f 3f       	cpi	r20, 0xFF	; 255
     47e:	91 f3       	breq	.-28     	; 0x464 <rcvr_datablock+0xc>
	{
	  token = rcvr_spi();
	  _delay_ms(10);
	}

	if(token != 0xFE) return 0;		/* If not valid data token, retutn with error */
     480:	4e 3f       	cpi	r20, 0xFE	; 254
     482:	19 f0       	breq	.+6      	; 0x48a <rcvr_datablock+0x32>
     484:	20 e0       	ldi	r18, 0x00	; 0
     486:	30 e0       	ldi	r19, 0x00	; 0
     488:	26 c0       	rjmp	.+76     	; 0x4d6 <rcvr_datablock+0x7e>

	do {							/* Receive the data block into buffer */
		rcvr_spi_m(buff++);
     48a:	9f ef       	ldi	r25, 0xFF	; 255
     48c:	9f b9       	out	0x0f, r25	; 15
     48e:	77 9b       	sbis	0x0e, 7	; 14
     490:	fe cf       	rjmp	.-4      	; 0x48e <rcvr_datablock+0x36>
     492:	8f b1       	in	r24, 0x0f	; 15
     494:	80 83       	st	Z, r24
		rcvr_spi_m(buff++);
     496:	9f b9       	out	0x0f, r25	; 15
     498:	77 9b       	sbis	0x0e, 7	; 14
     49a:	fe cf       	rjmp	.-4      	; 0x498 <rcvr_datablock+0x40>
     49c:	8f b1       	in	r24, 0x0f	; 15
     49e:	81 83       	std	Z+1, r24	; 0x01
		rcvr_spi_m(buff++);
     4a0:	9f b9       	out	0x0f, r25	; 15
     4a2:	77 9b       	sbis	0x0e, 7	; 14
     4a4:	fe cf       	rjmp	.-4      	; 0x4a2 <rcvr_datablock+0x4a>
     4a6:	8f b1       	in	r24, 0x0f	; 15
     4a8:	82 83       	std	Z+2, r24	; 0x02
		rcvr_spi_m(buff++);
     4aa:	9f b9       	out	0x0f, r25	; 15
     4ac:	77 9b       	sbis	0x0e, 7	; 14
     4ae:	fe cf       	rjmp	.-4      	; 0x4ac <rcvr_datablock+0x54>
     4b0:	8f b1       	in	r24, 0x0f	; 15
     4b2:	83 83       	std	Z+3, r24	; 0x03
	} while (btr -= 4);
     4b4:	64 50       	subi	r22, 0x04	; 4
     4b6:	70 40       	sbci	r23, 0x00	; 0
     4b8:	11 f0       	breq	.+4      	; 0x4be <rcvr_datablock+0x66>
static
int rcvr_datablock (
	BYTE *buff,			/* Data buffer to store received data */
	UINT btr			/* Byte count (must be multiple of 4) */
)
{
     4ba:	34 96       	adiw	r30, 0x04	; 4
     4bc:	e7 cf       	rjmp	.-50     	; 0x48c <rcvr_datablock+0x34>
/*-----------------------------------------------------------------------*/

static
BYTE rcvr_spi (void)
{
	SPDR = 0xFF;
     4be:	8f ef       	ldi	r24, 0xFF	; 255
     4c0:	8f b9       	out	0x0f, r24	; 15
	loop_until_bit_is_set(SPSR, SPIF);
     4c2:	77 9b       	sbis	0x0e, 7	; 14
     4c4:	fe cf       	rjmp	.-4      	; 0x4c2 <rcvr_datablock+0x6a>
	return SPDR;
     4c6:	8f b1       	in	r24, 0x0f	; 15
/*-----------------------------------------------------------------------*/

static
BYTE rcvr_spi (void)
{
	SPDR = 0xFF;
     4c8:	8f ef       	ldi	r24, 0xFF	; 255
     4ca:	8f b9       	out	0x0f, r24	; 15
	loop_until_bit_is_set(SPSR, SPIF);
     4cc:	77 9b       	sbis	0x0e, 7	; 14
     4ce:	fe cf       	rjmp	.-4      	; 0x4cc <rcvr_datablock+0x74>
	return SPDR;
     4d0:	8f b1       	in	r24, 0x0f	; 15
     4d2:	21 e0       	ldi	r18, 0x01	; 1
     4d4:	30 e0       	ldi	r19, 0x00	; 0
	} while (btr -= 4);
	rcvr_spi();						/* Discard CRC */
	rcvr_spi();

	return 1;						/* Return with success */
}
     4d6:	c9 01       	movw	r24, r18
     4d8:	08 95       	ret

000004da <xmit_datablock>:
static
int xmit_datablock (
	const BYTE *buff,	/* 512 byte data block to be transmitted */
	BYTE token			/* Data/Stop token */
)
{
     4da:	1f 93       	push	r17
     4dc:	cf 93       	push	r28
     4de:	df 93       	push	r29
     4e0:	ec 01       	movw	r28, r24
     4e2:	16 2f       	mov	r17, r22
	BYTE resp, wc;


	if (!wait_ready()) return 0;
     4e4:	0e 94 fb 01 	call	0x3f6	; 0x3f6 <wait_ready>
     4e8:	89 2b       	or	r24, r25
     4ea:	19 f4       	brne	.+6      	; 0x4f2 <xmit_datablock+0x18>
     4ec:	20 e0       	ldi	r18, 0x00	; 0
     4ee:	30 e0       	ldi	r19, 0x00	; 0
     4f0:	2b c0       	rjmp	.+86     	; 0x548 <xmit_datablock+0x6e>

	xmit_spi(token);					/* Xmit data token */
     4f2:	1f b9       	out	0x0f, r17	; 15
     4f4:	77 9b       	sbis	0x0e, 7	; 14
     4f6:	fe cf       	rjmp	.-4      	; 0x4f4 <xmit_datablock+0x1a>
	if (token != 0xFD) {	/* Is data token */
     4f8:	1d 3f       	cpi	r17, 0xFD	; 253
     4fa:	19 f4       	brne	.+6      	; 0x502 <xmit_datablock+0x28>
     4fc:	21 e0       	ldi	r18, 0x01	; 1
     4fe:	30 e0       	ldi	r19, 0x00	; 0
     500:	23 c0       	rjmp	.+70     	; 0x548 <xmit_datablock+0x6e>
     502:	90 e0       	ldi	r25, 0x00	; 0
		wc = 0;
		do {							/* Xmit the 512 byte data block to MMC */
			xmit_spi(*buff++);
     504:	88 81       	ld	r24, Y
     506:	8f b9       	out	0x0f, r24	; 15
     508:	77 9b       	sbis	0x0e, 7	; 14
     50a:	fe cf       	rjmp	.-4      	; 0x508 <xmit_datablock+0x2e>
			xmit_spi(*buff++);
     50c:	89 81       	ldd	r24, Y+1	; 0x01
     50e:	8f b9       	out	0x0f, r24	; 15
     510:	77 9b       	sbis	0x0e, 7	; 14
     512:	fe cf       	rjmp	.-4      	; 0x510 <xmit_datablock+0x36>
		} while (--wc);
     514:	91 50       	subi	r25, 0x01	; 1
     516:	11 f0       	breq	.+4      	; 0x51c <xmit_datablock+0x42>
static
int xmit_datablock (
	const BYTE *buff,	/* 512 byte data block to be transmitted */
	BYTE token			/* Data/Stop token */
)
{
     518:	22 96       	adiw	r28, 0x02	; 2
     51a:	f4 cf       	rjmp	.-24     	; 0x504 <xmit_datablock+0x2a>
		wc = 0;
		do {							/* Xmit the 512 byte data block to MMC */
			xmit_spi(*buff++);
			xmit_spi(*buff++);
		} while (--wc);
		xmit_spi(0xFF);					/* CRC (Dummy) */
     51c:	8f ef       	ldi	r24, 0xFF	; 255
     51e:	8f b9       	out	0x0f, r24	; 15
     520:	77 9b       	sbis	0x0e, 7	; 14
     522:	fe cf       	rjmp	.-4      	; 0x520 <xmit_datablock+0x46>
		xmit_spi(0xFF);
     524:	8f ef       	ldi	r24, 0xFF	; 255
     526:	8f b9       	out	0x0f, r24	; 15
     528:	77 9b       	sbis	0x0e, 7	; 14
     52a:	fe cf       	rjmp	.-4      	; 0x528 <xmit_datablock+0x4e>
/*-----------------------------------------------------------------------*/

static
BYTE rcvr_spi (void)
{
	SPDR = 0xFF;
     52c:	8f ef       	ldi	r24, 0xFF	; 255
     52e:	8f b9       	out	0x0f, r24	; 15
	loop_until_bit_is_set(SPSR, SPIF);
     530:	77 9b       	sbis	0x0e, 7	; 14
     532:	fe cf       	rjmp	.-4      	; 0x530 <xmit_datablock+0x56>
	return SPDR;
     534:	8f b1       	in	r24, 0x0f	; 15
     536:	90 e0       	ldi	r25, 0x00	; 0
     538:	8f 71       	andi	r24, 0x1F	; 31
     53a:	85 30       	cpi	r24, 0x05	; 5
     53c:	09 f0       	breq	.+2      	; 0x540 <xmit_datablock+0x66>
     53e:	91 e0       	ldi	r25, 0x01	; 1
     540:	81 e0       	ldi	r24, 0x01	; 1
     542:	98 27       	eor	r25, r24
     544:	29 2f       	mov	r18, r25
     546:	30 e0       	ldi	r19, 0x00	; 0
		if ((resp & 0x1F) != 0x05)		/* If not accepted, return with error */
			return 0;
	}

	return 1;
}
     548:	c9 01       	movw	r24, r18
     54a:	df 91       	pop	r29
     54c:	cf 91       	pop	r28
     54e:	1f 91       	pop	r17
     550:	08 95       	ret

00000552 <send_cmd>:
static
BYTE send_cmd (		/* Returns R1 resp (bit7==1:Send failed) */
	BYTE cmd,		/* Command index */
	DWORD arg		/* Argument */
)
{
     552:	df 92       	push	r13
     554:	ef 92       	push	r14
     556:	ff 92       	push	r15
     558:	0f 93       	push	r16
     55a:	1f 93       	push	r17
     55c:	d8 2e       	mov	r13, r24
     55e:	7a 01       	movw	r14, r20
     560:	8b 01       	movw	r16, r22
	BYTE n, res;


	if (cmd & 0x80) {	/* ACMD<n> is the command sequense of CMD55-CMD<n> */
     562:	87 ff       	sbrs	r24, 7
     564:	0c c0       	rjmp	.+24     	; 0x57e <send_cmd+0x2c>
		cmd &= 0x7F;
		res = send_cmd(CMD55, 0);
     566:	87 e3       	ldi	r24, 0x37	; 55
     568:	40 e0       	ldi	r20, 0x00	; 0
     56a:	50 e0       	ldi	r21, 0x00	; 0
     56c:	60 e0       	ldi	r22, 0x00	; 0
     56e:	70 e0       	ldi	r23, 0x00	; 0
     570:	0e 94 a9 02 	call	0x552	; 0x552 <send_cmd>
		if (res > 1) return res;
     574:	82 30       	cpi	r24, 0x02	; 2
     576:	08 f0       	brcs	.+2      	; 0x57a <send_cmd+0x28>
     578:	49 c0       	rjmp	.+146    	; 0x60c <send_cmd+0xba>
{
	BYTE n, res;


	if (cmd & 0x80) {	/* ACMD<n> is the command sequense of CMD55-CMD<n> */
		cmd &= 0x7F;
     57a:	8f e7       	ldi	r24, 0x7F	; 127
     57c:	d8 22       	and	r13, r24
/*-----------------------------------------------------------------------*/

static
void deselect (void)
{
	CS_HIGH();
     57e:	c1 9a       	sbi	0x18, 1	; 24
/*-----------------------------------------------------------------------*/

static
BYTE rcvr_spi (void)
{
	SPDR = 0xFF;
     580:	8f ef       	ldi	r24, 0xFF	; 255
     582:	8f b9       	out	0x0f, r24	; 15
	loop_until_bit_is_set(SPSR, SPIF);
     584:	77 9b       	sbis	0x0e, 7	; 14
     586:	fe cf       	rjmp	.-4      	; 0x584 <send_cmd+0x32>
	return SPDR;
     588:	8f b1       	in	r24, 0x0f	; 15
		if (res > 1) return res;
	}

	/* Select the card and wait for ready */
	deselect();
	if (!select()) return 0xFF;
     58a:	0e 94 1a 02 	call	0x434	; 0x434 <select>
     58e:	89 2b       	or	r24, r25
     590:	11 f4       	brne	.+4      	; 0x596 <send_cmd+0x44>
     592:	8f ef       	ldi	r24, 0xFF	; 255
     594:	3b c0       	rjmp	.+118    	; 0x60c <send_cmd+0xba>

	/* Send command packet */
	xmit_spi(0x40 | cmd);				/* Start + Command index */
     596:	8d 2d       	mov	r24, r13
     598:	80 64       	ori	r24, 0x40	; 64
     59a:	8f b9       	out	0x0f, r24	; 15
     59c:	77 9b       	sbis	0x0e, 7	; 14
     59e:	fe cf       	rjmp	.-4      	; 0x59c <send_cmd+0x4a>
	xmit_spi((BYTE)(arg >> 24));		/* Argument[31..24] */
     5a0:	81 2f       	mov	r24, r17
     5a2:	99 27       	eor	r25, r25
     5a4:	aa 27       	eor	r26, r26
     5a6:	bb 27       	eor	r27, r27
     5a8:	8f b9       	out	0x0f, r24	; 15
     5aa:	77 9b       	sbis	0x0e, 7	; 14
     5ac:	fe cf       	rjmp	.-4      	; 0x5aa <send_cmd+0x58>
	xmit_spi((BYTE)(arg >> 16));		/* Argument[23..16] */
     5ae:	c8 01       	movw	r24, r16
     5b0:	aa 27       	eor	r26, r26
     5b2:	bb 27       	eor	r27, r27
     5b4:	8f b9       	out	0x0f, r24	; 15
     5b6:	77 9b       	sbis	0x0e, 7	; 14
     5b8:	fe cf       	rjmp	.-4      	; 0x5b6 <send_cmd+0x64>
	xmit_spi((BYTE)(arg >> 8));			/* Argument[15..8] */
     5ba:	bb 27       	eor	r27, r27
     5bc:	a1 2f       	mov	r26, r17
     5be:	90 2f       	mov	r25, r16
     5c0:	8f 2d       	mov	r24, r15
     5c2:	8f b9       	out	0x0f, r24	; 15
     5c4:	77 9b       	sbis	0x0e, 7	; 14
     5c6:	fe cf       	rjmp	.-4      	; 0x5c4 <send_cmd+0x72>
	xmit_spi((BYTE)arg);				/* Argument[7..0] */
     5c8:	ef b8       	out	0x0f, r14	; 15
     5ca:	77 9b       	sbis	0x0e, 7	; 14
     5cc:	fe cf       	rjmp	.-4      	; 0x5ca <send_cmd+0x78>
	n = 0x01;							/* Dummy CRC + Stop */
	if (cmd == CMD0) n = 0x95;			/* Valid CRC for CMD0(0) */
     5ce:	dd 20       	and	r13, r13
     5d0:	11 f4       	brne	.+4      	; 0x5d6 <send_cmd+0x84>
     5d2:	85 e9       	ldi	r24, 0x95	; 149
     5d4:	06 c0       	rjmp	.+12     	; 0x5e2 <send_cmd+0x90>
	if (cmd == CMD8) n = 0x87;			/* Valid CRC for CMD8(0x1AA) */
     5d6:	88 e0       	ldi	r24, 0x08	; 8
     5d8:	d8 16       	cp	r13, r24
     5da:	11 f4       	brne	.+4      	; 0x5e0 <send_cmd+0x8e>
     5dc:	87 e8       	ldi	r24, 0x87	; 135
     5de:	01 c0       	rjmp	.+2      	; 0x5e2 <send_cmd+0x90>
     5e0:	81 e0       	ldi	r24, 0x01	; 1
	xmit_spi(n);
     5e2:	8f b9       	out	0x0f, r24	; 15
     5e4:	77 9b       	sbis	0x0e, 7	; 14
     5e6:	fe cf       	rjmp	.-4      	; 0x5e4 <send_cmd+0x92>

	/* Receive command response */
	if (cmd == CMD12) rcvr_spi();		/* Skip a stuff byte when stop reading */
     5e8:	8c e0       	ldi	r24, 0x0C	; 12
     5ea:	d8 16       	cp	r13, r24
     5ec:	29 f4       	brne	.+10     	; 0x5f8 <send_cmd+0xa6>
/*-----------------------------------------------------------------------*/

static
BYTE rcvr_spi (void)
{
	SPDR = 0xFF;
     5ee:	8f ef       	ldi	r24, 0xFF	; 255
     5f0:	8f b9       	out	0x0f, r24	; 15
	loop_until_bit_is_set(SPSR, SPIF);
     5f2:	77 9b       	sbis	0x0e, 7	; 14
     5f4:	fe cf       	rjmp	.-4      	; 0x5f2 <send_cmd+0xa0>
	return SPDR;
     5f6:	8f b1       	in	r24, 0x0f	; 15
     5f8:	9a e0       	ldi	r25, 0x0A	; 10
/*-----------------------------------------------------------------------*/

static
BYTE rcvr_spi (void)
{
	SPDR = 0xFF;
     5fa:	2f ef       	ldi	r18, 0xFF	; 255
     5fc:	2f b9       	out	0x0f, r18	; 15
	loop_until_bit_is_set(SPSR, SPIF);
     5fe:	77 9b       	sbis	0x0e, 7	; 14
     600:	fe cf       	rjmp	.-4      	; 0x5fe <send_cmd+0xac>
	return SPDR;
     602:	8f b1       	in	r24, 0x0f	; 15
	/* Receive command response */
	if (cmd == CMD12) rcvr_spi();		/* Skip a stuff byte when stop reading */
	n = 10;								/* Wait for a valid response in timeout of 10 attempts */
	do
		res = rcvr_spi();
	while ((res & 0x80) && --n);
     604:	87 ff       	sbrs	r24, 7
     606:	02 c0       	rjmp	.+4      	; 0x60c <send_cmd+0xba>
     608:	91 50       	subi	r25, 0x01	; 1
     60a:	c1 f7       	brne	.-16     	; 0x5fc <send_cmd+0xaa>

	return res;			/* Return with the response value */
}
     60c:	1f 91       	pop	r17
     60e:	0f 91       	pop	r16
     610:	ff 90       	pop	r15
     612:	ef 90       	pop	r14
     614:	df 90       	pop	r13
     616:	08 95       	ret

00000618 <disk_status>:

DSTATUS disk_status (
	BYTE drv		/* Physical drive nmuber (0) */
)
{
	if (drv) return STA_NOINIT;		/* Supports only single drive */
     618:	88 23       	and	r24, r24
     61a:	11 f0       	breq	.+4      	; 0x620 <disk_status+0x8>
     61c:	81 e0       	ldi	r24, 0x01	; 1
     61e:	08 95       	ret
	return Stat;
     620:	80 91 34 01 	lds	r24, 0x0134
}
     624:	08 95       	ret

00000626 <disk_read>:
	BYTE drv,			/* Physical drive nmuber (0) */
	BYTE *buff,			/* Pointer to the data buffer to store read data */
	DWORD sector,		/* Start sector number (LBA) */
	BYTE count			/* Sector count (1..255) */
)
{
     626:	0f 93       	push	r16
     628:	cf 93       	push	r28
     62a:	df 93       	push	r29
     62c:	eb 01       	movw	r28, r22
	if (drv || !count) return RES_PARERR;
     62e:	88 23       	and	r24, r24
     630:	09 f0       	breq	.+2      	; 0x634 <disk_read+0xe>
     632:	4b c0       	rjmp	.+150    	; 0x6ca <disk_read+0xa4>
     634:	00 23       	and	r16, r16
     636:	09 f4       	brne	.+2      	; 0x63a <disk_read+0x14>
     638:	48 c0       	rjmp	.+144    	; 0x6ca <disk_read+0xa4>
	if (Stat & STA_NOINIT) return RES_NOTRDY;
     63a:	80 91 34 01 	lds	r24, 0x0134
     63e:	80 ff       	sbrs	r24, 0
     640:	02 c0       	rjmp	.+4      	; 0x646 <disk_read+0x20>
     642:	03 e0       	ldi	r16, 0x03	; 3
     644:	43 c0       	rjmp	.+134    	; 0x6cc <disk_read+0xa6>

	if (!(CardType & CT_BLOCK)) sector *= 512;	/* Convert to byte address if needed */
     646:	80 91 91 04 	lds	r24, 0x0491
     64a:	83 fd       	sbrc	r24, 3
     64c:	07 c0       	rjmp	.+14     	; 0x65c <disk_read+0x36>
     64e:	69 e0       	ldi	r22, 0x09	; 9
     650:	22 0f       	add	r18, r18
     652:	33 1f       	adc	r19, r19
     654:	44 1f       	adc	r20, r20
     656:	55 1f       	adc	r21, r21
     658:	6a 95       	dec	r22
     65a:	d1 f7       	brne	.-12     	; 0x650 <disk_read+0x2a>

	if (count == 1) {	/* Single block read */
     65c:	01 30       	cpi	r16, 0x01	; 1
     65e:	89 f4       	brne	.+34     	; 0x682 <disk_read+0x5c>
		if ((send_cmd(CMD17, sector) == 0)	/* READ_SINGLE_BLOCK */
     660:	81 e1       	ldi	r24, 0x11	; 17
     662:	ba 01       	movw	r22, r20
     664:	a9 01       	movw	r20, r18
     666:	0e 94 a9 02 	call	0x552	; 0x552 <send_cmd>
     66a:	88 23       	and	r24, r24
     66c:	21 f5       	brne	.+72     	; 0x6b6 <disk_read+0x90>
     66e:	ce 01       	movw	r24, r28
     670:	60 e0       	ldi	r22, 0x00	; 0
     672:	72 e0       	ldi	r23, 0x02	; 2
     674:	0e 94 2c 02 	call	0x458	; 0x458 <rcvr_datablock>
     678:	00 e0       	ldi	r16, 0x00	; 0
     67a:	89 2b       	or	r24, r25
     67c:	e1 f4       	brne	.+56     	; 0x6b6 <disk_read+0x90>
     67e:	01 e0       	ldi	r16, 0x01	; 1
     680:	1a c0       	rjmp	.+52     	; 0x6b6 <disk_read+0x90>
			&& rcvr_datablock(buff, 512))
			count = 0;
	}
	else {				/* Multiple block read */
		if (send_cmd(CMD18, sector) == 0) {	/* READ_MULTIPLE_BLOCK */
     682:	82 e1       	ldi	r24, 0x12	; 18
     684:	ba 01       	movw	r22, r20
     686:	a9 01       	movw	r20, r18
     688:	0e 94 a9 02 	call	0x552	; 0x552 <send_cmd>
     68c:	88 23       	and	r24, r24
     68e:	99 f4       	brne	.+38     	; 0x6b6 <disk_read+0x90>
			do {
				if (!rcvr_datablock(buff, 512)) break;
     690:	ce 01       	movw	r24, r28
     692:	60 e0       	ldi	r22, 0x00	; 0
     694:	72 e0       	ldi	r23, 0x02	; 2
     696:	0e 94 2c 02 	call	0x458	; 0x458 <rcvr_datablock>
     69a:	89 2b       	or	r24, r25
     69c:	29 f0       	breq	.+10     	; 0x6a8 <disk_read+0x82>
				buff += 512;
			} while (--count);
     69e:	01 50       	subi	r16, 0x01	; 1
     6a0:	19 f0       	breq	.+6      	; 0x6a8 <disk_read+0x82>
	}
	else {				/* Multiple block read */
		if (send_cmd(CMD18, sector) == 0) {	/* READ_MULTIPLE_BLOCK */
			do {
				if (!rcvr_datablock(buff, 512)) break;
				buff += 512;
     6a2:	c0 50       	subi	r28, 0x00	; 0
     6a4:	de 4f       	sbci	r29, 0xFE	; 254
     6a6:	f4 cf       	rjmp	.-24     	; 0x690 <disk_read+0x6a>
			} while (--count);
			send_cmd(CMD12, 0);				/* STOP_TRANSMISSION */
     6a8:	8c e0       	ldi	r24, 0x0C	; 12
     6aa:	40 e0       	ldi	r20, 0x00	; 0
     6ac:	50 e0       	ldi	r21, 0x00	; 0
     6ae:	60 e0       	ldi	r22, 0x00	; 0
     6b0:	70 e0       	ldi	r23, 0x00	; 0
     6b2:	0e 94 a9 02 	call	0x552	; 0x552 <send_cmd>
/*-----------------------------------------------------------------------*/

static
void deselect (void)
{
	CS_HIGH();
     6b6:	c1 9a       	sbi	0x18, 1	; 24
/*-----------------------------------------------------------------------*/

static
BYTE rcvr_spi (void)
{
	SPDR = 0xFF;
     6b8:	8f ef       	ldi	r24, 0xFF	; 255
     6ba:	8f b9       	out	0x0f, r24	; 15
	loop_until_bit_is_set(SPSR, SPIF);
     6bc:	77 9b       	sbis	0x0e, 7	; 14
     6be:	fe cf       	rjmp	.-4      	; 0x6bc <disk_read+0x96>
	return SPDR;
     6c0:	8f b1       	in	r24, 0x0f	; 15
			send_cmd(CMD12, 0);				/* STOP_TRANSMISSION */
		}
	}
	deselect();

	return count ? RES_ERROR : RES_OK;
     6c2:	00 23       	and	r16, r16
     6c4:	19 f0       	breq	.+6      	; 0x6cc <disk_read+0xa6>
     6c6:	01 e0       	ldi	r16, 0x01	; 1
     6c8:	01 c0       	rjmp	.+2      	; 0x6cc <disk_read+0xa6>
     6ca:	04 e0       	ldi	r16, 0x04	; 4
}
     6cc:	80 2f       	mov	r24, r16
     6ce:	df 91       	pop	r29
     6d0:	cf 91       	pop	r28
     6d2:	0f 91       	pop	r16
     6d4:	08 95       	ret

000006d6 <disk_write>:
	BYTE drv,			/* Physical drive nmuber (0) */
	const BYTE *buff,	/* Pointer to the data to be written */
	DWORD sector,		/* Start sector number (LBA) */
	BYTE count			/* Sector count (1..255) */
)
{
     6d6:	cf 92       	push	r12
     6d8:	df 92       	push	r13
     6da:	ef 92       	push	r14
     6dc:	ff 92       	push	r15
     6de:	0f 93       	push	r16
     6e0:	cf 93       	push	r28
     6e2:	df 93       	push	r29
     6e4:	eb 01       	movw	r28, r22
     6e6:	69 01       	movw	r12, r18
     6e8:	7a 01       	movw	r14, r20
	if (drv || !count) return RES_PARERR;
     6ea:	88 23       	and	r24, r24
     6ec:	09 f0       	breq	.+2      	; 0x6f0 <disk_write+0x1a>
     6ee:	59 c0       	rjmp	.+178    	; 0x7a2 <disk_write+0xcc>
     6f0:	00 23       	and	r16, r16
     6f2:	09 f4       	brne	.+2      	; 0x6f6 <disk_write+0x20>
     6f4:	56 c0       	rjmp	.+172    	; 0x7a2 <disk_write+0xcc>
	if (Stat & STA_NOINIT) return RES_NOTRDY;
     6f6:	80 91 34 01 	lds	r24, 0x0134
     6fa:	80 ff       	sbrs	r24, 0
     6fc:	02 c0       	rjmp	.+4      	; 0x702 <disk_write+0x2c>
     6fe:	03 e0       	ldi	r16, 0x03	; 3
     700:	51 c0       	rjmp	.+162    	; 0x7a4 <disk_write+0xce>
	if (Stat & STA_PROTECT) return RES_WRPRT;
     702:	80 91 34 01 	lds	r24, 0x0134
     706:	82 ff       	sbrs	r24, 2
     708:	02 c0       	rjmp	.+4      	; 0x70e <disk_write+0x38>
     70a:	02 e0       	ldi	r16, 0x02	; 2
     70c:	4b c0       	rjmp	.+150    	; 0x7a4 <disk_write+0xce>

	if (!(CardType & CT_BLOCK)) sector *= 512;	/* Convert to byte address if needed */
     70e:	80 91 91 04 	lds	r24, 0x0491
     712:	90 e0       	ldi	r25, 0x00	; 0
     714:	83 fd       	sbrc	r24, 3
     716:	07 c0       	rjmp	.+14     	; 0x726 <disk_write+0x50>
     718:	79 e0       	ldi	r23, 0x09	; 9
     71a:	cc 0c       	add	r12, r12
     71c:	dd 1c       	adc	r13, r13
     71e:	ee 1c       	adc	r14, r14
     720:	ff 1c       	adc	r15, r15
     722:	7a 95       	dec	r23
     724:	d1 f7       	brne	.-12     	; 0x71a <disk_write+0x44>

	if (count == 1) {	/* Single block write */
     726:	01 30       	cpi	r16, 0x01	; 1
     728:	69 f4       	brne	.+26     	; 0x744 <disk_write+0x6e>
		if ((send_cmd(CMD24, sector) == 0)	/* WRITE_BLOCK */
     72a:	88 e1       	ldi	r24, 0x18	; 24
     72c:	b7 01       	movw	r22, r14
     72e:	a6 01       	movw	r20, r12
     730:	0e 94 a9 02 	call	0x552	; 0x552 <send_cmd>
     734:	88 23       	and	r24, r24
     736:	59 f5       	brne	.+86     	; 0x78e <disk_write+0xb8>
     738:	ce 01       	movw	r24, r28
     73a:	6e ef       	ldi	r22, 0xFE	; 254
     73c:	0e 94 6d 02 	call	0x4da	; 0x4da <xmit_datablock>
     740:	00 e0       	ldi	r16, 0x00	; 0
     742:	22 c0       	rjmp	.+68     	; 0x788 <disk_write+0xb2>
			&& xmit_datablock(buff, 0xFE))
			count = 0;
	}
	else {				/* Multiple block write */
		if (CardType & CT_SDC) send_cmd(ACMD23, count);
     744:	86 70       	andi	r24, 0x06	; 6
     746:	90 70       	andi	r25, 0x00	; 0
     748:	89 2b       	or	r24, r25
     74a:	39 f0       	breq	.+14     	; 0x75a <disk_write+0x84>
     74c:	40 2f       	mov	r20, r16
     74e:	50 e0       	ldi	r21, 0x00	; 0
     750:	60 e0       	ldi	r22, 0x00	; 0
     752:	70 e0       	ldi	r23, 0x00	; 0
     754:	87 e9       	ldi	r24, 0x97	; 151
     756:	0e 94 a9 02 	call	0x552	; 0x552 <send_cmd>
		if (send_cmd(CMD25, sector) == 0) {	/* WRITE_MULTIPLE_BLOCK */
     75a:	89 e1       	ldi	r24, 0x19	; 25
     75c:	b7 01       	movw	r22, r14
     75e:	a6 01       	movw	r20, r12
     760:	0e 94 a9 02 	call	0x552	; 0x552 <send_cmd>
     764:	88 23       	and	r24, r24
     766:	99 f4       	brne	.+38     	; 0x78e <disk_write+0xb8>
			do {
				if (!xmit_datablock(buff, 0xFC)) break;
     768:	ce 01       	movw	r24, r28
     76a:	6c ef       	ldi	r22, 0xFC	; 252
     76c:	0e 94 6d 02 	call	0x4da	; 0x4da <xmit_datablock>
     770:	89 2b       	or	r24, r25
     772:	29 f0       	breq	.+10     	; 0x77e <disk_write+0xa8>
				buff += 512;
			} while (--count);
     774:	01 50       	subi	r16, 0x01	; 1
     776:	19 f0       	breq	.+6      	; 0x77e <disk_write+0xa8>
	else {				/* Multiple block write */
		if (CardType & CT_SDC) send_cmd(ACMD23, count);
		if (send_cmd(CMD25, sector) == 0) {	/* WRITE_MULTIPLE_BLOCK */
			do {
				if (!xmit_datablock(buff, 0xFC)) break;
				buff += 512;
     778:	c0 50       	subi	r28, 0x00	; 0
     77a:	de 4f       	sbci	r29, 0xFE	; 254
     77c:	f5 cf       	rjmp	.-22     	; 0x768 <disk_write+0x92>
			} while (--count);
			if (!xmit_datablock(0, 0xFD))	/* STOP_TRAN token */
     77e:	80 e0       	ldi	r24, 0x00	; 0
     780:	90 e0       	ldi	r25, 0x00	; 0
     782:	6d ef       	ldi	r22, 0xFD	; 253
     784:	0e 94 6d 02 	call	0x4da	; 0x4da <xmit_datablock>
     788:	89 2b       	or	r24, r25
     78a:	09 f4       	brne	.+2      	; 0x78e <disk_write+0xb8>
     78c:	01 e0       	ldi	r16, 0x01	; 1
/*-----------------------------------------------------------------------*/

static
void deselect (void)
{
	CS_HIGH();
     78e:	c1 9a       	sbi	0x18, 1	; 24
/*-----------------------------------------------------------------------*/

static
BYTE rcvr_spi (void)
{
	SPDR = 0xFF;
     790:	8f ef       	ldi	r24, 0xFF	; 255
     792:	8f b9       	out	0x0f, r24	; 15
	loop_until_bit_is_set(SPSR, SPIF);
     794:	77 9b       	sbis	0x0e, 7	; 14
     796:	fe cf       	rjmp	.-4      	; 0x794 <disk_write+0xbe>
	return SPDR;
     798:	8f b1       	in	r24, 0x0f	; 15
				count = 1;
		}
	}
	deselect();

	return count ? RES_ERROR : RES_OK;
     79a:	00 23       	and	r16, r16
     79c:	19 f0       	breq	.+6      	; 0x7a4 <disk_write+0xce>
     79e:	01 e0       	ldi	r16, 0x01	; 1
     7a0:	01 c0       	rjmp	.+2      	; 0x7a4 <disk_write+0xce>
     7a2:	04 e0       	ldi	r16, 0x04	; 4
}
     7a4:	80 2f       	mov	r24, r16
     7a6:	df 91       	pop	r29
     7a8:	cf 91       	pop	r28
     7aa:	0f 91       	pop	r16
     7ac:	ff 90       	pop	r15
     7ae:	ef 90       	pop	r14
     7b0:	df 90       	pop	r13
     7b2:	cf 90       	pop	r12
     7b4:	08 95       	ret

000007b6 <disk_ioctl>:
DRESULT disk_ioctl (
	BYTE drv,		/* Physical drive nmuber (0) */
	BYTE ctrl,		/* Control code */
	void *buff		/* Buffer to send/receive control data */
)
{
     7b6:	ff 92       	push	r15
     7b8:	0f 93       	push	r16
     7ba:	1f 93       	push	r17
     7bc:	df 93       	push	r29
     7be:	cf 93       	push	r28
     7c0:	cd b7       	in	r28, 0x3d	; 61
     7c2:	de b7       	in	r29, 0x3e	; 62
     7c4:	60 97       	sbiw	r28, 0x10	; 16
     7c6:	0f b6       	in	r0, 0x3f	; 63
     7c8:	f8 94       	cli
     7ca:	de bf       	out	0x3e, r29	; 62
     7cc:	0f be       	out	0x3f, r0	; 63
     7ce:	cd bf       	out	0x3d, r28	; 61
     7d0:	8a 01       	movw	r16, r20
	DRESULT res;
	BYTE n, csd[16], *ptr = buff;
	WORD csize;


	if (drv) return RES_PARERR;
     7d2:	88 23       	and	r24, r24
     7d4:	09 f0       	breq	.+2      	; 0x7d8 <disk_ioctl+0x22>
     7d6:	92 c1       	rjmp	.+804    	; 0xafc <__stack+0x29d>

	res = RES_ERROR;

	if (ctrl == CTRL_POWER) {
     7d8:	64 30       	cpi	r22, 0x04	; 4
     7da:	d9 f4       	brne	.+54     	; 0x812 <disk_ioctl+0x5c>
		switch (ptr[0]) {
     7dc:	fa 01       	movw	r30, r20
     7de:	90 81       	ld	r25, Z
     7e0:	99 23       	and	r25, r25
     7e2:	21 f0       	breq	.+8      	; 0x7ec <disk_ioctl+0x36>
     7e4:	91 30       	cpi	r25, 0x01	; 1
     7e6:	09 f0       	breq	.+2      	; 0x7ea <disk_ioctl+0x34>
     7e8:	89 c1       	rjmp	.+786    	; 0xafc <__stack+0x29d>
     7ea:	0c c0       	rjmp	.+24     	; 0x804 <disk_ioctl+0x4e>


static
void power_off (void)
{
	SPCR = 0;				// Disable SPI function 
     7ec:	1d b8       	out	0x0d, r1	; 13
	DDRB  = 0b11000000;		//Disable drivers 
     7ee:	80 ec       	ldi	r24, 0xC0	; 192
     7f0:	87 bb       	out	0x17, r24	; 23
	PORTB = 0b10110000;
     7f2:	80 eb       	ldi	r24, 0xB0	; 176
     7f4:	88 bb       	out	0x18, r24	; 24

	PORTC |=  0x80;			// Socket power off 
     7f6:	af 9a       	sbi	0x15, 7	; 21
	Stat |= STA_NOINIT;
     7f8:	80 91 34 01 	lds	r24, 0x0134
     7fc:	81 60       	ori	r24, 0x01	; 1
     7fe:	80 93 34 01 	sts	0x0134, r24
     802:	05 c0       	rjmp	.+10     	; 0x80e <disk_ioctl+0x58>
/* is nothing to do in these functions and chk_power always returns 1.   */

static
int power_status(void)		// Socket power state: 0=off, 1=on 
{
	return (PORTC & 0x80) ? 0 : 1;
     804:	85 b3       	in	r24, 0x15	; 21
		case 0:		/* Sub control code (POWER_OFF) */
			power_off();		/* Power off */
			res = RES_OK;
			break;
		case 1:		/* Sub control code (POWER_GET) */
			ptr[1] = (BYTE)power_status();
     806:	fa 01       	movw	r30, r20
     808:	11 82       	std	Z+1, r1	; 0x01
     80a:	87 ff       	sbrs	r24, 7
     80c:	91 83       	std	Z+1, r25	; 0x01
     80e:	20 e0       	ldi	r18, 0x00	; 0
     810:	76 c1       	rjmp	.+748    	; 0xafe <__stack+0x29f>
		default :
			res = RES_PARERR;
		}
	}
	else {
		if (Stat & STA_NOINIT) return RES_NOTRDY;
     812:	80 91 34 01 	lds	r24, 0x0134
     816:	80 ff       	sbrs	r24, 0
     818:	02 c0       	rjmp	.+4      	; 0x81e <disk_ioctl+0x68>
     81a:	23 e0       	ldi	r18, 0x03	; 3
     81c:	70 c1       	rjmp	.+736    	; 0xafe <__stack+0x29f>

		switch (ctrl) {
     81e:	6a 30       	cpi	r22, 0x0A	; 10
     820:	09 f4       	brne	.+2      	; 0x824 <disk_ioctl+0x6e>
     822:	22 c1       	rjmp	.+580    	; 0xa68 <__stack+0x209>
     824:	6b 30       	cpi	r22, 0x0B	; 11
     826:	50 f4       	brcc	.+20     	; 0x83c <disk_ioctl+0x86>
     828:	61 30       	cpi	r22, 0x01	; 1
     82a:	11 f1       	breq	.+68     	; 0x870 <__stack+0x11>
     82c:	61 30       	cpi	r22, 0x01	; 1
     82e:	a0 f0       	brcs	.+40     	; 0x858 <disk_ioctl+0xa2>
     830:	62 30       	cpi	r22, 0x02	; 2
     832:	09 f4       	brne	.+2      	; 0x836 <disk_ioctl+0x80>
     834:	83 c0       	rjmp	.+262    	; 0x93c <__stack+0xdd>
     836:	63 30       	cpi	r22, 0x03	; 3
     838:	69 f4       	brne	.+26     	; 0x854 <disk_ioctl+0x9e>
     83a:	86 c0       	rjmp	.+268    	; 0x948 <__stack+0xe9>
     83c:	6c 30       	cpi	r22, 0x0C	; 12
     83e:	09 f4       	brne	.+2      	; 0x842 <disk_ioctl+0x8c>
     840:	1a c1       	rjmp	.+564    	; 0xa76 <__stack+0x217>
     842:	6c 30       	cpi	r22, 0x0C	; 12
     844:	08 f4       	brcc	.+2      	; 0x848 <disk_ioctl+0x92>
     846:	15 c1       	rjmp	.+554    	; 0xa72 <__stack+0x213>
     848:	6d 30       	cpi	r22, 0x0D	; 13
     84a:	09 f4       	brne	.+2      	; 0x84e <disk_ioctl+0x98>
     84c:	21 c1       	rjmp	.+578    	; 0xa90 <__stack+0x231>
     84e:	6e 30       	cpi	r22, 0x0E	; 14
     850:	09 f4       	brne	.+2      	; 0x854 <disk_ioctl+0x9e>
     852:	36 c1       	rjmp	.+620    	; 0xac0 <__stack+0x261>
     854:	24 e0       	ldi	r18, 0x04	; 4
     856:	4b c1       	rjmp	.+662    	; 0xaee <__stack+0x28f>
		case CTRL_SYNC :		/* Make sure that no pending write process. Do not remove this or written sector might not left updated. */
			if (select()) {
     858:	0e 94 1a 02 	call	0x434	; 0x434 <select>
     85c:	89 2b       	or	r24, r25
     85e:	09 f4       	brne	.+2      	; 0x862 <__stack+0x3>
     860:	45 c1       	rjmp	.+650    	; 0xaec <__stack+0x28d>
/*-----------------------------------------------------------------------*/

static
void deselect (void)
{
	CS_HIGH();
     862:	c1 9a       	sbi	0x18, 1	; 24
/*-----------------------------------------------------------------------*/

static
BYTE rcvr_spi (void)
{
	SPDR = 0xFF;
     864:	8f ef       	ldi	r24, 0xFF	; 255
     866:	8f b9       	out	0x0f, r24	; 15
	loop_until_bit_is_set(SPSR, SPIF);
     868:	77 9b       	sbis	0x0e, 7	; 14
     86a:	fe cf       	rjmp	.-4      	; 0x868 <__stack+0x9>
	return SPDR;
     86c:	8f b1       	in	r24, 0x0f	; 15
     86e:	fa c0       	rjmp	.+500    	; 0xa64 <__stack+0x205>
				res = RES_OK;
			}
			break;

		case GET_SECTOR_COUNT :	/* Get number of sectors on the disk (DWORD) */
			if ((send_cmd(CMD9, 0) == 0) && rcvr_datablock(csd, 16)) {
     870:	89 e0       	ldi	r24, 0x09	; 9
     872:	40 e0       	ldi	r20, 0x00	; 0
     874:	50 e0       	ldi	r21, 0x00	; 0
     876:	60 e0       	ldi	r22, 0x00	; 0
     878:	70 e0       	ldi	r23, 0x00	; 0
     87a:	0e 94 a9 02 	call	0x552	; 0x552 <send_cmd>
     87e:	88 23       	and	r24, r24
     880:	09 f0       	breq	.+2      	; 0x884 <__stack+0x25>
     882:	34 c1       	rjmp	.+616    	; 0xaec <__stack+0x28d>
     884:	ce 01       	movw	r24, r28
     886:	01 96       	adiw	r24, 0x01	; 1
     888:	60 e1       	ldi	r22, 0x10	; 16
     88a:	70 e0       	ldi	r23, 0x00	; 0
     88c:	0e 94 2c 02 	call	0x458	; 0x458 <rcvr_datablock>
     890:	89 2b       	or	r24, r25
     892:	09 f4       	brne	.+2      	; 0x896 <__stack+0x37>
     894:	2b c1       	rjmp	.+598    	; 0xaec <__stack+0x28d>
				if ((csd[0] >> 6) == 1) {	/* SDC ver 2.00 */
     896:	89 81       	ldd	r24, Y+1	; 0x01
     898:	82 95       	swap	r24
     89a:	86 95       	lsr	r24
     89c:	86 95       	lsr	r24
     89e:	83 70       	andi	r24, 0x03	; 3
     8a0:	7a 85       	ldd	r23, Y+10	; 0x0a
     8a2:	49 85       	ldd	r20, Y+9	; 0x09
     8a4:	81 30       	cpi	r24, 0x01	; 1
     8a6:	b1 f4       	brne	.+44     	; 0x8d4 <__stack+0x75>
					csize = csd[9] + ((WORD)csd[8] << 8) + 1;
					*(DWORD*)buff = (DWORD)csize << 10;
     8a8:	87 2f       	mov	r24, r23
     8aa:	90 e0       	ldi	r25, 0x00	; 0
     8ac:	01 96       	adiw	r24, 0x01	; 1
     8ae:	34 2f       	mov	r19, r20
     8b0:	20 e0       	ldi	r18, 0x00	; 0
     8b2:	82 0f       	add	r24, r18
     8b4:	93 1f       	adc	r25, r19
     8b6:	a0 e0       	ldi	r26, 0x00	; 0
     8b8:	b0 e0       	ldi	r27, 0x00	; 0
     8ba:	3a e0       	ldi	r19, 0x0A	; 10
     8bc:	88 0f       	add	r24, r24
     8be:	99 1f       	adc	r25, r25
     8c0:	aa 1f       	adc	r26, r26
     8c2:	bb 1f       	adc	r27, r27
     8c4:	3a 95       	dec	r19
     8c6:	d1 f7       	brne	.-12     	; 0x8bc <__stack+0x5d>
     8c8:	f8 01       	movw	r30, r16
     8ca:	80 83       	st	Z, r24
     8cc:	91 83       	std	Z+1, r25	; 0x01
     8ce:	a2 83       	std	Z+2, r26	; 0x02
     8d0:	b3 83       	std	Z+3, r27	; 0x03
     8d2:	0d c1       	rjmp	.+538    	; 0xaee <__stack+0x28f>
				} else {					/* SDC ver 1.XX or MMC*/
					n = (csd[5] & 15) + ((csd[10] & 128) >> 7) + ((csd[9] & 3) << 1) + 2;
					csize = (csd[8] >> 6) + ((WORD)csd[7] << 2) + ((WORD)(csd[6] & 3) << 10) + 1;
					*(DWORD*)buff = (DWORD)csize << (n - 9);
     8d4:	42 95       	swap	r20
     8d6:	46 95       	lsr	r20
     8d8:	46 95       	lsr	r20
     8da:	43 70       	andi	r20, 0x03	; 3
     8dc:	28 85       	ldd	r18, Y+8	; 0x08
     8de:	30 e0       	ldi	r19, 0x00	; 0
     8e0:	22 0f       	add	r18, r18
     8e2:	33 1f       	adc	r19, r19
     8e4:	22 0f       	add	r18, r18
     8e6:	33 1f       	adc	r19, r19
     8e8:	24 0f       	add	r18, r20
     8ea:	31 1d       	adc	r19, r1
     8ec:	2f 5f       	subi	r18, 0xFF	; 255
     8ee:	3f 4f       	sbci	r19, 0xFF	; 255
     8f0:	8f 81       	ldd	r24, Y+7	; 0x07
     8f2:	90 e0       	ldi	r25, 0x00	; 0
     8f4:	83 70       	andi	r24, 0x03	; 3
     8f6:	90 70       	andi	r25, 0x00	; 0
     8f8:	98 2f       	mov	r25, r24
     8fa:	88 27       	eor	r24, r24
     8fc:	99 0f       	add	r25, r25
     8fe:	99 0f       	add	r25, r25
     900:	28 0f       	add	r18, r24
     902:	39 1f       	adc	r19, r25
     904:	40 e0       	ldi	r20, 0x00	; 0
     906:	50 e0       	ldi	r21, 0x00	; 0
     908:	8e 81       	ldd	r24, Y+6	; 0x06
     90a:	8f 70       	andi	r24, 0x0F	; 15
     90c:	6b 85       	ldd	r22, Y+11	; 0x0b
     90e:	66 1f       	adc	r22, r22
     910:	66 27       	eor	r22, r22
     912:	66 1f       	adc	r22, r22
     914:	86 0f       	add	r24, r22
     916:	8e 5f       	subi	r24, 0xFE	; 254
     918:	73 70       	andi	r23, 0x03	; 3
     91a:	77 0f       	add	r23, r23
     91c:	87 0f       	add	r24, r23
     91e:	90 e0       	ldi	r25, 0x00	; 0
     920:	09 97       	sbiw	r24, 0x09	; 9
     922:	04 c0       	rjmp	.+8      	; 0x92c <__stack+0xcd>
     924:	22 0f       	add	r18, r18
     926:	33 1f       	adc	r19, r19
     928:	44 1f       	adc	r20, r20
     92a:	55 1f       	adc	r21, r21
     92c:	8a 95       	dec	r24
     92e:	d2 f7       	brpl	.-12     	; 0x924 <__stack+0xc5>
     930:	f8 01       	movw	r30, r16
     932:	20 83       	st	Z, r18
     934:	31 83       	std	Z+1, r19	; 0x01
     936:	42 83       	std	Z+2, r20	; 0x02
     938:	53 83       	std	Z+3, r21	; 0x03
     93a:	94 c0       	rjmp	.+296    	; 0xa64 <__stack+0x205>
				res = RES_OK;
			}
			break;

		case GET_SECTOR_SIZE :	/* Get R/W sector size (WORD) */
			*(WORD*)buff = 512;
     93c:	80 e0       	ldi	r24, 0x00	; 0
     93e:	92 e0       	ldi	r25, 0x02	; 2
     940:	fa 01       	movw	r30, r20
     942:	91 83       	std	Z+1, r25	; 0x01
     944:	80 83       	st	Z, r24
     946:	8e c0       	rjmp	.+284    	; 0xa64 <__stack+0x205>
			res = RES_OK;
			break;

		case GET_BLOCK_SIZE :	/* Get erase block size in unit of sector (DWORD) */
			if (CardType & CT_SD2) {	/* SDv2? */
     948:	80 91 91 04 	lds	r24, 0x0491
     94c:	f8 2e       	mov	r15, r24
     94e:	82 ff       	sbrs	r24, 2
     950:	2f c0       	rjmp	.+94     	; 0x9b0 <__stack+0x151>
				if (send_cmd(ACMD13, 0) == 0) {	/* Read SD status */
     952:	8d e8       	ldi	r24, 0x8D	; 141
     954:	40 e0       	ldi	r20, 0x00	; 0
     956:	50 e0       	ldi	r21, 0x00	; 0
     958:	60 e0       	ldi	r22, 0x00	; 0
     95a:	70 e0       	ldi	r23, 0x00	; 0
     95c:	0e 94 a9 02 	call	0x552	; 0x552 <send_cmd>
     960:	88 23       	and	r24, r24
     962:	09 f0       	breq	.+2      	; 0x966 <__stack+0x107>
     964:	c3 c0       	rjmp	.+390    	; 0xaec <__stack+0x28d>
/*-----------------------------------------------------------------------*/

static
BYTE rcvr_spi (void)
{
	SPDR = 0xFF;
     966:	8f ef       	ldi	r24, 0xFF	; 255
     968:	8f b9       	out	0x0f, r24	; 15
	loop_until_bit_is_set(SPSR, SPIF);
     96a:	77 9b       	sbis	0x0e, 7	; 14
     96c:	fe cf       	rjmp	.-4      	; 0x96a <__stack+0x10b>
	return SPDR;
     96e:	8f b1       	in	r24, 0x0f	; 15

		case GET_BLOCK_SIZE :	/* Get erase block size in unit of sector (DWORD) */
			if (CardType & CT_SD2) {	/* SDv2? */
				if (send_cmd(ACMD13, 0) == 0) {	/* Read SD status */
					rcvr_spi();
					if (rcvr_datablock(csd, 16)) {				/* Read partial block */
     970:	ce 01       	movw	r24, r28
     972:	01 96       	adiw	r24, 0x01	; 1
     974:	60 e1       	ldi	r22, 0x10	; 16
     976:	70 e0       	ldi	r23, 0x00	; 0
     978:	0e 94 2c 02 	call	0x458	; 0x458 <rcvr_datablock>
     97c:	89 2b       	or	r24, r25
     97e:	09 f4       	brne	.+2      	; 0x982 <__stack+0x123>
     980:	b5 c0       	rjmp	.+362    	; 0xaec <__stack+0x28d>
     982:	80 e3       	ldi	r24, 0x30	; 48
/*-----------------------------------------------------------------------*/

static
BYTE rcvr_spi (void)
{
	SPDR = 0xFF;
     984:	9f ef       	ldi	r25, 0xFF	; 255
     986:	9f b9       	out	0x0f, r25	; 15
	loop_until_bit_is_set(SPSR, SPIF);
     988:	77 9b       	sbis	0x0e, 7	; 14
     98a:	fe cf       	rjmp	.-4      	; 0x988 <__stack+0x129>
	return SPDR;
     98c:	2f b1       	in	r18, 0x0f	; 15
		case GET_BLOCK_SIZE :	/* Get erase block size in unit of sector (DWORD) */
			if (CardType & CT_SD2) {	/* SDv2? */
				if (send_cmd(ACMD13, 0) == 0) {	/* Read SD status */
					rcvr_spi();
					if (rcvr_datablock(csd, 16)) {				/* Read partial block */
						for (n = 64 - 16; n; n--) rcvr_spi();	/* Purge trailing data */
     98e:	81 50       	subi	r24, 0x01	; 1
     990:	d1 f7       	brne	.-12     	; 0x986 <__stack+0x127>
						*(DWORD*)buff = 16UL << (csd[10] >> 4);
     992:	2b 85       	ldd	r18, Y+11	; 0x0b
     994:	22 95       	swap	r18
     996:	2f 70       	andi	r18, 0x0F	; 15
     998:	80 e1       	ldi	r24, 0x10	; 16
     99a:	90 e0       	ldi	r25, 0x00	; 0
     99c:	a0 e0       	ldi	r26, 0x00	; 0
     99e:	b0 e0       	ldi	r27, 0x00	; 0
     9a0:	04 c0       	rjmp	.+8      	; 0x9aa <__stack+0x14b>
     9a2:	88 0f       	add	r24, r24
     9a4:	99 1f       	adc	r25, r25
     9a6:	aa 1f       	adc	r26, r26
     9a8:	bb 1f       	adc	r27, r27
     9aa:	2a 95       	dec	r18
     9ac:	d2 f7       	brpl	.-12     	; 0x9a2 <__stack+0x143>
     9ae:	55 c0       	rjmp	.+170    	; 0xa5a <__stack+0x1fb>
						res = RES_OK;
					}
				}
			} else {					/* SDv1 or MMCv3 */
				if ((send_cmd(CMD9, 0) == 0) && rcvr_datablock(csd, 16)) {	/* Read CSD */
     9b0:	89 e0       	ldi	r24, 0x09	; 9
     9b2:	40 e0       	ldi	r20, 0x00	; 0
     9b4:	50 e0       	ldi	r21, 0x00	; 0
     9b6:	60 e0       	ldi	r22, 0x00	; 0
     9b8:	70 e0       	ldi	r23, 0x00	; 0
     9ba:	0e 94 a9 02 	call	0x552	; 0x552 <send_cmd>
     9be:	88 23       	and	r24, r24
     9c0:	09 f0       	breq	.+2      	; 0x9c4 <__stack+0x165>
     9c2:	94 c0       	rjmp	.+296    	; 0xaec <__stack+0x28d>
     9c4:	ce 01       	movw	r24, r28
     9c6:	01 96       	adiw	r24, 0x01	; 1
     9c8:	60 e1       	ldi	r22, 0x10	; 16
     9ca:	70 e0       	ldi	r23, 0x00	; 0
     9cc:	0e 94 2c 02 	call	0x458	; 0x458 <rcvr_datablock>
     9d0:	89 2b       	or	r24, r25
     9d2:	09 f4       	brne	.+2      	; 0x9d6 <__stack+0x177>
     9d4:	8b c0       	rjmp	.+278    	; 0xaec <__stack+0x28d>
     9d6:	4b 85       	ldd	r20, Y+11	; 0x0b
     9d8:	8c 85       	ldd	r24, Y+12	; 0x0c
					if (CardType & CT_SD1) {	/* SDv1 */
     9da:	f1 fe       	sbrs	r15, 1
     9dc:	1b c0       	rjmp	.+54     	; 0xa14 <__stack+0x1b5>
						*(DWORD*)buff = (((csd[10] & 63) << 1) + ((WORD)(csd[11] & 128) >> 7) + 1) << ((csd[13] >> 6) - 1);
     9de:	88 1f       	adc	r24, r24
     9e0:	88 27       	eor	r24, r24
     9e2:	88 1f       	adc	r24, r24
     9e4:	90 e0       	ldi	r25, 0x00	; 0
     9e6:	01 96       	adiw	r24, 0x01	; 1
     9e8:	24 2f       	mov	r18, r20
     9ea:	30 e0       	ldi	r19, 0x00	; 0
     9ec:	2f 73       	andi	r18, 0x3F	; 63
     9ee:	30 70       	andi	r19, 0x00	; 0
     9f0:	22 0f       	add	r18, r18
     9f2:	33 1f       	adc	r19, r19
     9f4:	82 0f       	add	r24, r18
     9f6:	93 1f       	adc	r25, r19
     9f8:	2e 85       	ldd	r18, Y+14	; 0x0e
     9fa:	22 95       	swap	r18
     9fc:	26 95       	lsr	r18
     9fe:	26 95       	lsr	r18
     a00:	23 70       	andi	r18, 0x03	; 3
     a02:	30 e0       	ldi	r19, 0x00	; 0
     a04:	21 50       	subi	r18, 0x01	; 1
     a06:	30 40       	sbci	r19, 0x00	; 0
     a08:	02 c0       	rjmp	.+4      	; 0xa0e <__stack+0x1af>
     a0a:	88 0f       	add	r24, r24
     a0c:	99 1f       	adc	r25, r25
     a0e:	2a 95       	dec	r18
     a10:	e2 f7       	brpl	.-8      	; 0xa0a <__stack+0x1ab>
     a12:	21 c0       	rjmp	.+66     	; 0xa56 <__stack+0x1f7>
					} else {					/* MMCv3 */
						*(DWORD*)buff = ((WORD)((csd[10] & 124) >> 2) + 1) * (((csd[11] & 3) << 3) + ((csd[11] & 224) >> 5) + 1);
     a14:	28 2f       	mov	r18, r24
     a16:	30 e0       	ldi	r19, 0x00	; 0
     a18:	23 70       	andi	r18, 0x03	; 3
     a1a:	30 70       	andi	r19, 0x00	; 0
     a1c:	f3 e0       	ldi	r31, 0x03	; 3
     a1e:	22 0f       	add	r18, r18
     a20:	33 1f       	adc	r19, r19
     a22:	fa 95       	dec	r31
     a24:	e1 f7       	brne	.-8      	; 0xa1e <__stack+0x1bf>
     a26:	82 95       	swap	r24
     a28:	86 95       	lsr	r24
     a2a:	87 70       	andi	r24, 0x07	; 7
     a2c:	28 0f       	add	r18, r24
     a2e:	31 1d       	adc	r19, r1
     a30:	2f 5f       	subi	r18, 0xFF	; 255
     a32:	3f 4f       	sbci	r19, 0xFF	; 255
     a34:	84 2f       	mov	r24, r20
     a36:	90 e0       	ldi	r25, 0x00	; 0
     a38:	8c 77       	andi	r24, 0x7C	; 124
     a3a:	90 70       	andi	r25, 0x00	; 0
     a3c:	95 95       	asr	r25
     a3e:	87 95       	ror	r24
     a40:	95 95       	asr	r25
     a42:	87 95       	ror	r24
     a44:	01 96       	adiw	r24, 0x01	; 1
     a46:	ac 01       	movw	r20, r24
     a48:	24 9f       	mul	r18, r20
     a4a:	c0 01       	movw	r24, r0
     a4c:	25 9f       	mul	r18, r21
     a4e:	90 0d       	add	r25, r0
     a50:	34 9f       	mul	r19, r20
     a52:	90 0d       	add	r25, r0
     a54:	11 24       	eor	r1, r1
     a56:	a0 e0       	ldi	r26, 0x00	; 0
     a58:	b0 e0       	ldi	r27, 0x00	; 0
     a5a:	f8 01       	movw	r30, r16
     a5c:	80 83       	st	Z, r24
     a5e:	91 83       	std	Z+1, r25	; 0x01
     a60:	a2 83       	std	Z+2, r26	; 0x02
     a62:	b3 83       	std	Z+3, r27	; 0x03
     a64:	20 e0       	ldi	r18, 0x00	; 0
     a66:	43 c0       	rjmp	.+134    	; 0xaee <__stack+0x28f>
				}
			}
			break;

		case MMC_GET_TYPE :		/* Get card type flags (1 byte) */
			*ptr = CardType;
     a68:	80 91 91 04 	lds	r24, 0x0491
     a6c:	fa 01       	movw	r30, r20
     a6e:	80 83       	st	Z, r24
     a70:	f9 cf       	rjmp	.-14     	; 0xa64 <__stack+0x205>
			res = RES_OK;
			break;

		case MMC_GET_CSD :		/* Receive CSD as a data block (16 bytes) */
			if (send_cmd(CMD9, 0) == 0		/* READ_CSD */
     a72:	89 e0       	ldi	r24, 0x09	; 9
     a74:	01 c0       	rjmp	.+2      	; 0xa78 <__stack+0x219>
				&& rcvr_datablock(ptr, 16))
				res = RES_OK;
			break;

		case MMC_GET_CID :		/* Receive CID as a data block (16 bytes) */
			if (send_cmd(CMD10, 0) == 0		/* READ_CID */
     a76:	8a e0       	ldi	r24, 0x0A	; 10
     a78:	40 e0       	ldi	r20, 0x00	; 0
     a7a:	50 e0       	ldi	r21, 0x00	; 0
     a7c:	60 e0       	ldi	r22, 0x00	; 0
     a7e:	70 e0       	ldi	r23, 0x00	; 0
     a80:	0e 94 a9 02 	call	0x552	; 0x552 <send_cmd>
     a84:	88 23       	and	r24, r24
     a86:	91 f5       	brne	.+100    	; 0xaec <__stack+0x28d>
     a88:	c8 01       	movw	r24, r16
     a8a:	60 e1       	ldi	r22, 0x10	; 16
     a8c:	70 e0       	ldi	r23, 0x00	; 0
     a8e:	29 c0       	rjmp	.+82     	; 0xae2 <__stack+0x283>
				&& rcvr_datablock(ptr, 16))
				res = RES_OK;
			break;

		case MMC_GET_OCR :		/* Receive OCR as an R3 resp (4 bytes) */
			if (send_cmd(CMD58, 0) == 0) {	/* READ_OCR */
     a90:	8a e3       	ldi	r24, 0x3A	; 58
     a92:	40 e0       	ldi	r20, 0x00	; 0
     a94:	50 e0       	ldi	r21, 0x00	; 0
     a96:	60 e0       	ldi	r22, 0x00	; 0
     a98:	70 e0       	ldi	r23, 0x00	; 0
     a9a:	0e 94 a9 02 	call	0x552	; 0x552 <send_cmd>
     a9e:	88 23       	and	r24, r24
     aa0:	29 f5       	brne	.+74     	; 0xaec <__stack+0x28d>
     aa2:	f8 01       	movw	r30, r16
/*-----------------------------------------------------------------------*/

static
BYTE rcvr_spi (void)
{
	SPDR = 0xFF;
     aa4:	9f ef       	ldi	r25, 0xFF	; 255
				res = RES_OK;
			break;

		case MMC_GET_OCR :		/* Receive OCR as an R3 resp (4 bytes) */
			if (send_cmd(CMD58, 0) == 0) {	/* READ_OCR */
				for (n = 4; n; n--) *ptr++ = rcvr_spi();
     aa6:	98 01       	movw	r18, r16
     aa8:	2d 5f       	subi	r18, 0xFD	; 253
     aaa:	3f 4f       	sbci	r19, 0xFF	; 255
/*-----------------------------------------------------------------------*/

static
BYTE rcvr_spi (void)
{
	SPDR = 0xFF;
     aac:	9f b9       	out	0x0f, r25	; 15
	loop_until_bit_is_set(SPSR, SPIF);
     aae:	77 9b       	sbis	0x0e, 7	; 14
     ab0:	fe cf       	rjmp	.-4      	; 0xaae <__stack+0x24f>
	return SPDR;
     ab2:	8f b1       	in	r24, 0x0f	; 15
				res = RES_OK;
			break;

		case MMC_GET_OCR :		/* Receive OCR as an R3 resp (4 bytes) */
			if (send_cmd(CMD58, 0) == 0) {	/* READ_OCR */
				for (n = 4; n; n--) *ptr++ = rcvr_spi();
     ab4:	80 83       	st	Z, r24
     ab6:	e2 17       	cp	r30, r18
     ab8:	f3 07       	cpc	r31, r19
     aba:	a1 f2       	breq	.-88     	; 0xa64 <__stack+0x205>
     abc:	31 96       	adiw	r30, 0x01	; 1
     abe:	f6 cf       	rjmp	.-20     	; 0xaac <__stack+0x24d>
				res = RES_OK;
			}
			break;

		case MMC_GET_SDSTAT :	/* Receive SD statsu as a data block (64 bytes) */
			if (send_cmd(ACMD13, 0) == 0) {	/* SD_STATUS */
     ac0:	8d e8       	ldi	r24, 0x8D	; 141
     ac2:	40 e0       	ldi	r20, 0x00	; 0
     ac4:	50 e0       	ldi	r21, 0x00	; 0
     ac6:	60 e0       	ldi	r22, 0x00	; 0
     ac8:	70 e0       	ldi	r23, 0x00	; 0
     aca:	0e 94 a9 02 	call	0x552	; 0x552 <send_cmd>
     ace:	88 23       	and	r24, r24
     ad0:	69 f4       	brne	.+26     	; 0xaec <__stack+0x28d>
/*-----------------------------------------------------------------------*/

static
BYTE rcvr_spi (void)
{
	SPDR = 0xFF;
     ad2:	8f ef       	ldi	r24, 0xFF	; 255
     ad4:	8f b9       	out	0x0f, r24	; 15
	loop_until_bit_is_set(SPSR, SPIF);
     ad6:	77 9b       	sbis	0x0e, 7	; 14
     ad8:	fe cf       	rjmp	.-4      	; 0xad6 <__stack+0x277>
	return SPDR;
     ada:	8f b1       	in	r24, 0x0f	; 15
			break;

		case MMC_GET_SDSTAT :	/* Receive SD statsu as a data block (64 bytes) */
			if (send_cmd(ACMD13, 0) == 0) {	/* SD_STATUS */
				rcvr_spi();
				if (rcvr_datablock(ptr, 64))
     adc:	c8 01       	movw	r24, r16
     ade:	60 e4       	ldi	r22, 0x40	; 64
     ae0:	70 e0       	ldi	r23, 0x00	; 0
     ae2:	0e 94 2c 02 	call	0x458	; 0x458 <rcvr_datablock>
     ae6:	20 e0       	ldi	r18, 0x00	; 0
     ae8:	89 2b       	or	r24, r25
     aea:	09 f4       	brne	.+2      	; 0xaee <__stack+0x28f>
     aec:	21 e0       	ldi	r18, 0x01	; 1
/*-----------------------------------------------------------------------*/

static
void deselect (void)
{
	CS_HIGH();
     aee:	c1 9a       	sbi	0x18, 1	; 24
/*-----------------------------------------------------------------------*/

static
BYTE rcvr_spi (void)
{
	SPDR = 0xFF;
     af0:	8f ef       	ldi	r24, 0xFF	; 255
     af2:	8f b9       	out	0x0f, r24	; 15
	loop_until_bit_is_set(SPSR, SPIF);
     af4:	77 9b       	sbis	0x0e, 7	; 14
     af6:	fe cf       	rjmp	.-4      	; 0xaf4 <__stack+0x295>
	return SPDR;
     af8:	8f b1       	in	r24, 0x0f	; 15
     afa:	01 c0       	rjmp	.+2      	; 0xafe <__stack+0x29f>
     afc:	24 e0       	ldi	r18, 0x04	; 4

		deselect();
	}

	return res;
}
     afe:	82 2f       	mov	r24, r18
     b00:	60 96       	adiw	r28, 0x10	; 16
     b02:	0f b6       	in	r0, 0x3f	; 63
     b04:	f8 94       	cli
     b06:	de bf       	out	0x3e, r29	; 62
     b08:	0f be       	out	0x3f, r0	; 63
     b0a:	cd bf       	out	0x3d, r28	; 61
     b0c:	cf 91       	pop	r28
     b0e:	df 91       	pop	r29
     b10:	1f 91       	pop	r17
     b12:	0f 91       	pop	r16
     b14:	ff 90       	pop	r15
     b16:	08 95       	ret

00000b18 <disk_timerproc>:
void disk_timerproc (void)
{
	BYTE n, s=0;


	n = Timer1;						/* 100Hz decrement timer */
     b18:	80 91 8f 04 	lds	r24, 0x048F
	if (n) Timer1 = --n;
     b1c:	88 23       	and	r24, r24
     b1e:	19 f0       	breq	.+6      	; 0xb26 <disk_timerproc+0xe>
     b20:	81 50       	subi	r24, 0x01	; 1
     b22:	80 93 8f 04 	sts	0x048F, r24
	n = Timer2;
     b26:	80 91 90 04 	lds	r24, 0x0490
	if (n) Timer2 = --n;
     b2a:	88 23       	and	r24, r24
     b2c:	19 f0       	breq	.+6      	; 0xb34 <disk_timerproc+0x1c>
     b2e:	81 50       	subi	r24, 0x01	; 1
     b30:	80 93 90 04 	sts	0x0490, r24
	//if (SOCKINS)			/* Card inserted */
		s &= ~STA_NODISK;
	//else					/* Socket empty */
	//	s |= (STA_NODISK | STA_NOINIT);

	Stat = s;
     b34:	10 92 34 01 	sts	0x0134, r1
}
     b38:	08 95       	ret

00000b3a <disk_initialize>:
/*-----------------------------------------------------------------------*/

DSTATUS disk_initialize (
	BYTE drv		/* Physical drive nmuber (0) */
)
{
     b3a:	af 92       	push	r10
     b3c:	bf 92       	push	r11
     b3e:	cf 92       	push	r12
     b40:	df 92       	push	r13
     b42:	ef 92       	push	r14
     b44:	ff 92       	push	r15
     b46:	0f 93       	push	r16
     b48:	1f 93       	push	r17
     b4a:	df 93       	push	r29
     b4c:	cf 93       	push	r28
     b4e:	00 d0       	rcall	.+0      	; 0xb50 <disk_initialize+0x16>
     b50:	00 d0       	rcall	.+0      	; 0xb52 <disk_initialize+0x18>
     b52:	cd b7       	in	r28, 0x3d	; 61
     b54:	de b7       	in	r29, 0x3e	; 62
	BYTE n, cmd, ty, ocr[4];
	
	//sendStr0("disk_initialize start");

	if (drv) return STA_NOINIT;			/* Supports only single drive */
     b56:	88 23       	and	r24, r24
     b58:	11 f0       	breq	.+4      	; 0xb5e <disk_initialize+0x24>
     b5a:	81 e0       	ldi	r24, 0x01	; 1
     b5c:	f3 c0       	rjmp	.+486    	; 0xd44 <disk_initialize+0x20a>
	//sendStr0("Supports only single drive -complete");

	if (Stat & STA_NODISK) return Stat;	/* No card in the socket */
     b5e:	80 91 34 01 	lds	r24, 0x0134
     b62:	81 fd       	sbrc	r24, 1
     b64:	ed c0       	rjmp	.+474    	; 0xd40 <disk_initialize+0x206>


static
void power_on (void)
{
	PORTC &= ~0x80;				// Socket power on 
     b66:	af 98       	cbi	0x15, 7	; 21
     b68:	80 e2       	ldi	r24, 0x20	; 32
     b6a:	9e e4       	ldi	r25, 0x4E	; 78
     b6c:	01 97       	sbiw	r24, 0x01	; 1
     b6e:	f1 f7       	brne	.-4      	; 0xb6c <disk_initialize+0x32>
	//for (Timer1 = 2; Timer1; );	// Wait for 20ms 
	_delay_ms(20);
	//PORTB = 0b10110101;			// Enable drivers 
	//DDRB  = 0b11000111;

	PORTB = 0xFF;
     b70:	8f ef       	ldi	r24, 0xFF	; 255
     b72:	88 bb       	out	0x18, r24	; 24
	DDRB  = 0xBF; //MISO line i/p, rest o/p
     b74:	8f eb       	ldi	r24, 0xBF	; 191
     b76:	87 bb       	out	0x17, r24	; 23

	SPCR = 0x52;			// Enable SPI function in mode 0 
     b78:	92 e5       	ldi	r25, 0x52	; 82
     b7a:	9d b9       	out	0x0d, r25	; 13
	SPSR = 0x01;			// SPI 2x mode 
     b7c:	81 e0       	ldi	r24, 0x01	; 1
     b7e:	8e b9       	out	0x0e, r24	; 14
	//sendStr0("Card in the socket");
	
	power_on();							/* Force socket power on */
	//sendStr0("power_on...");

	FCLK_SLOW();
     b80:	9d b9       	out	0x0d, r25	; 13
     b82:	8a e0       	ldi	r24, 0x0A	; 10
/*-----------------------------------------------------------------------*/

static
BYTE rcvr_spi (void)
{
	SPDR = 0xFF;
     b84:	9f ef       	ldi	r25, 0xFF	; 255
     b86:	9f b9       	out	0x0f, r25	; 15
	loop_until_bit_is_set(SPSR, SPIF);
     b88:	77 9b       	sbis	0x0e, 7	; 14
     b8a:	fe cf       	rjmp	.-4      	; 0xb88 <disk_initialize+0x4e>
	return SPDR;
     b8c:	2f b1       	in	r18, 0x0f	; 15
	
	power_on();							/* Force socket power on */
	//sendStr0("power_on...");

	FCLK_SLOW();
	for (n = 10; n; n--) rcvr_spi();	/* 80 dummy clocks */
     b8e:	81 50       	subi	r24, 0x01	; 1
     b90:	d1 f7       	brne	.-12     	; 0xb86 <disk_initialize+0x4c>
     b92:	00 e0       	ldi	r16, 0x00	; 0
     b94:	10 e0       	ldi	r17, 0x00	; 0
	int retry=0;
	int reset_complete = 1;
	BYTE response = 0x00;
	do
	{
		response = send_cmd(CMD0, 0); //send 'reset & go idle' command
     b96:	80 e0       	ldi	r24, 0x00	; 0
     b98:	40 e0       	ldi	r20, 0x00	; 0
     b9a:	50 e0       	ldi	r21, 0x00	; 0
     b9c:	60 e0       	ldi	r22, 0x00	; 0
     b9e:	70 e0       	ldi	r23, 0x00	; 0
     ba0:	0e 94 a9 02 	call	0x552	; 0x552 <send_cmd>
		retry++;
     ba4:	0f 5f       	subi	r16, 0xFF	; 255
     ba6:	1f 4f       	sbci	r17, 0xFF	; 255
		if(retry>0x20) 
     ba8:	01 32       	cpi	r16, 0x21	; 33
     baa:	11 05       	cpc	r17, r1
     bac:	19 f0       	breq	.+6      	; 0xbb4 <disk_initialize+0x7a>
		{
			reset_complete = 0;   //time out, card not detected
			break;
		}
	} while(response != 0x01);
     bae:	81 30       	cpi	r24, 0x01	; 1
     bb0:	91 f7       	brne	.-28     	; 0xb96 <disk_initialize+0x5c>
     bb2:	d7 c0       	rjmp	.+430    	; 0xd62 <disk_initialize+0x228>
				ty = 0;
		}
	}
	else
	{
		sendStr0("Enter Idle state error");
     bb4:	8a e6       	ldi	r24, 0x6A	; 106
     bb6:	90 e0       	ldi	r25, 0x00	; 0
     bb8:	0e 94 a3 01 	call	0x346	; 0x346 <transmitString_F>
     bbc:	8d e0       	ldi	r24, 0x0D	; 13
     bbe:	0e 94 9f 01 	call	0x33e	; 0x33e <transmitByte>
     bc2:	8a e0       	ldi	r24, 0x0A	; 10
     bc4:	0e 94 9f 01 	call	0x33e	; 0x33e <transmitByte>
     bc8:	20 e1       	ldi	r18, 0x10	; 16
     bca:	37 e2       	ldi	r19, 0x27	; 39
     bcc:	44 e6       	ldi	r20, 0x64	; 100
     bce:	50 e0       	ldi	r21, 0x00	; 0
     bd0:	80 c0       	rjmp	.+256    	; 0xcd2 <disk_initialize+0x198>
/*-----------------------------------------------------------------------*/

static
BYTE rcvr_spi (void)
{
	SPDR = 0xFF;
     bd2:	9f b9       	out	0x0f, r25	; 15
	loop_until_bit_is_set(SPSR, SPIF);
     bd4:	77 9b       	sbis	0x0e, 7	; 14
     bd6:	fe cf       	rjmp	.-4      	; 0xbd4 <disk_initialize+0x9a>
	return SPDR;
     bd8:	8f b1       	in	r24, 0x0f	; 15
	{			
		//sendStr0("Enter Idle state complite");
		//Timer1 = 100;						/* Initialization timeout of 1000 msec */
		//_delay_ms(100);
		if (send_cmd(CMD8, 0x1AA) == 1) {	/* SDv2? */
			for (n = 0; n < 4; n++) ocr[n] = rcvr_spi();		/* Get trailing return value of R7 resp */
     bda:	f7 01       	movw	r30, r14
     bdc:	81 93       	st	Z+, r24
     bde:	7f 01       	movw	r14, r30
     be0:	e2 17       	cp	r30, r18
     be2:	f3 07       	cpc	r31, r19
     be4:	b1 f7       	brne	.-20     	; 0xbd2 <disk_initialize+0x98>
			if (ocr[2] == 0x01 && ocr[3] == 0xAA)
     be6:	8b 81       	ldd	r24, Y+3	; 0x03
     be8:	81 30       	cpi	r24, 0x01	; 1
     bea:	09 f0       	breq	.+2      	; 0xbee <disk_initialize+0xb4>
     bec:	78 c0       	rjmp	.+240    	; 0xcde <disk_initialize+0x1a4>
     bee:	8c 81       	ldd	r24, Y+4	; 0x04
     bf0:	8a 3a       	cpi	r24, 0xAA	; 170
     bf2:	09 f0       	breq	.+2      	; 0xbf6 <disk_initialize+0xbc>
     bf4:	74 c0       	rjmp	.+232    	; 0xcde <disk_initialize+0x1a4>
     bf6:	00 e0       	ldi	r16, 0x00	; 0
     bf8:	10 e0       	ldi	r17, 0x00	; 0
     bfa:	f0 e1       	ldi	r31, 0x10	; 16
     bfc:	af 2e       	mov	r10, r31
     bfe:	f7 e2       	ldi	r31, 0x27	; 39
     c00:	bf 2e       	mov	r11, r31
     c02:	08 c0       	rjmp	.+16     	; 0xc14 <disk_initialize+0xda>
     c04:	c5 01       	movw	r24, r10
     c06:	01 97       	sbiw	r24, 0x01	; 1
     c08:	f1 f7       	brne	.-4      	; 0xc06 <disk_initialize+0xcc>
			   {				/* The card can work at vdd range of 2.7-3.6V */
				//while (Timer1 && send_cmd(ACMD41, 1UL << 30));	/* Wait for leaving idle state (ACMD41 with HCS bit) */
				int counter1 = 0;
				char buff[100];
				for (int i = 0; i < 10 && send_cmd(ACMD41, 1UL << 30); i++)
     c0a:	0f 5f       	subi	r16, 0xFF	; 255
     c0c:	1f 4f       	sbci	r17, 0xFF	; 255
     c0e:	0a 30       	cpi	r16, 0x0A	; 10
     c10:	11 05       	cpc	r17, r1
     c12:	49 f0       	breq	.+18     	; 0xc26 <disk_initialize+0xec>
     c14:	89 ea       	ldi	r24, 0xA9	; 169
     c16:	40 e0       	ldi	r20, 0x00	; 0
     c18:	50 e0       	ldi	r21, 0x00	; 0
     c1a:	60 e0       	ldi	r22, 0x00	; 0
     c1c:	70 e4       	ldi	r23, 0x40	; 64
     c1e:	0e 94 a9 02 	call	0x552	; 0x552 <send_cmd>
     c22:	88 23       	and	r24, r24
     c24:	79 f7       	brne	.-34     	; 0xc04 <disk_initialize+0xca>
				}

				//sprintf(buff,"delaying %d ms",counter1);
				//transmitString_F(buff);
				//_delay_ms(10);
				if (/*Timer1 && */send_cmd(CMD58, 0) == 0)
     c26:	8a e3       	ldi	r24, 0x3A	; 58
     c28:	40 e0       	ldi	r20, 0x00	; 0
     c2a:	50 e0       	ldi	r21, 0x00	; 0
     c2c:	60 e0       	ldi	r22, 0x00	; 0
     c2e:	70 e0       	ldi	r23, 0x00	; 0
     c30:	0e 94 a9 02 	call	0x552	; 0x552 <send_cmd>
     c34:	88 23       	and	r24, r24
     c36:	09 f0       	breq	.+2      	; 0xc3a <disk_initialize+0x100>
     c38:	52 c0       	rjmp	.+164    	; 0xcde <disk_initialize+0x1a4>
/*-----------------------------------------------------------------------*/

static
BYTE rcvr_spi (void)
{
	SPDR = 0xFF;
     c3a:	9f ef       	ldi	r25, 0xFF	; 255
     c3c:	9f b9       	out	0x0f, r25	; 15
	loop_until_bit_is_set(SPSR, SPIF);
     c3e:	77 9b       	sbis	0x0e, 7	; 14
     c40:	fe cf       	rjmp	.-4      	; 0xc3e <disk_initialize+0x104>
	return SPDR;
     c42:	8f b1       	in	r24, 0x0f	; 15
				//sprintf(buff,"delaying %d ms",counter1);
				//transmitString_F(buff);
				//_delay_ms(10);
				if (/*Timer1 && */send_cmd(CMD58, 0) == 0)
				{		/* Check CCS bit in the OCR */
					for (n = 0; n < 4; n++) ocr[n] = rcvr_spi();
     c44:	f6 01       	movw	r30, r12
     c46:	81 93       	st	Z+, r24
     c48:	6f 01       	movw	r12, r30
     c4a:	ee 15       	cp	r30, r14
     c4c:	ff 05       	cpc	r31, r15
     c4e:	b1 f7       	brne	.-20     	; 0xc3c <disk_initialize+0x102>
					ty = (ocr[0] & 0x40) ? CT_SD2 | CT_BLOCK : CT_SD2;	/* SDv2 */
     c50:	89 81       	ldd	r24, Y+1	; 0x01
     c52:	86 fd       	sbrc	r24, 6
     c54:	03 c0       	rjmp	.+6      	; 0xc5c <disk_initialize+0x122>
     c56:	e4 e0       	ldi	r30, 0x04	; 4
     c58:	fe 2e       	mov	r15, r30
     c5a:	42 c0       	rjmp	.+132    	; 0xce0 <disk_initialize+0x1a6>
     c5c:	7c e0       	ldi	r23, 0x0C	; 12
     c5e:	f7 2e       	mov	r15, r23
     c60:	3f c0       	rjmp	.+126    	; 0xce0 <disk_initialize+0x1a6>
				}
			}
		} else {							/* SDv1 or MMCv3 */
			if (send_cmd(ACMD41, 0) <= 1) 	{
     c62:	89 ea       	ldi	r24, 0xA9	; 169
     c64:	40 e0       	ldi	r20, 0x00	; 0
     c66:	50 e0       	ldi	r21, 0x00	; 0
     c68:	60 e0       	ldi	r22, 0x00	; 0
     c6a:	70 e0       	ldi	r23, 0x00	; 0
     c6c:	0e 94 a9 02 	call	0x552	; 0x552 <send_cmd>
     c70:	82 30       	cpi	r24, 0x02	; 2
     c72:	28 f0       	brcs	.+10     	; 0xc7e <disk_initialize+0x144>
     c74:	ee 24       	eor	r14, r14
     c76:	e3 94       	inc	r14
     c78:	ff 24       	eor	r15, r15
     c7a:	f3 94       	inc	r15
     c7c:	04 c0       	rjmp	.+8      	; 0xc86 <disk_initialize+0x14c>
     c7e:	69 ea       	ldi	r22, 0xA9	; 169
     c80:	e6 2e       	mov	r14, r22
     c82:	52 e0       	ldi	r21, 0x02	; 2
     c84:	f5 2e       	mov	r15, r21
     c86:	00 e0       	ldi	r16, 0x00	; 0
     c88:	10 e0       	ldi	r17, 0x00	; 0
     c8a:	40 e1       	ldi	r20, 0x10	; 16
     c8c:	c4 2e       	mov	r12, r20
     c8e:	47 e2       	ldi	r20, 0x27	; 39
     c90:	d4 2e       	mov	r13, r20
     c92:	08 c0       	rjmp	.+16     	; 0xca4 <disk_initialize+0x16a>
     c94:	c6 01       	movw	r24, r12
     c96:	01 97       	sbiw	r24, 0x01	; 1
     c98:	f1 f7       	brne	.-4      	; 0xc96 <disk_initialize+0x15c>
				ty = CT_SD1; cmd = ACMD41;	/* SDv1 */
			} else {
				ty = CT_MMC; cmd = CMD1;	/* MMCv3 */
			}
			//while (Timer1 && send_cmd(cmd, 0));			/* Wait for leaving idle state */
			for (int i = 0; i < 10 && send_cmd(cmd, 0); i++)
     c9a:	0f 5f       	subi	r16, 0xFF	; 255
     c9c:	1f 4f       	sbci	r17, 0xFF	; 255
     c9e:	0a 30       	cpi	r16, 0x0A	; 10
     ca0:	11 05       	cpc	r17, r1
     ca2:	49 f0       	breq	.+18     	; 0xcb6 <disk_initialize+0x17c>
     ca4:	8e 2d       	mov	r24, r14
     ca6:	40 e0       	ldi	r20, 0x00	; 0
     ca8:	50 e0       	ldi	r21, 0x00	; 0
     caa:	60 e0       	ldi	r22, 0x00	; 0
     cac:	70 e0       	ldi	r23, 0x00	; 0
     cae:	0e 94 a9 02 	call	0x552	; 0x552 <send_cmd>
     cb2:	88 23       	and	r24, r24
     cb4:	79 f7       	brne	.-34     	; 0xc94 <disk_initialize+0x15a>
     cb6:	80 e1       	ldi	r24, 0x10	; 16
     cb8:	97 e2       	ldi	r25, 0x27	; 39
     cba:	01 97       	sbiw	r24, 0x01	; 1
     cbc:	f1 f7       	brne	.-4      	; 0xcba <disk_initialize+0x180>
  				_delay_ms(10);

			_delay_ms(10);
			if (/*!Timer1 || */send_cmd(CMD16, 512) != 0)	/* Set R/W block length to 512 */
     cbe:	80 e1       	ldi	r24, 0x10	; 16
     cc0:	40 e0       	ldi	r20, 0x00	; 0
     cc2:	52 e0       	ldi	r21, 0x02	; 2
     cc4:	60 e0       	ldi	r22, 0x00	; 0
     cc6:	70 e0       	ldi	r23, 0x00	; 0
     cc8:	0e 94 a9 02 	call	0x552	; 0x552 <send_cmd>
     ccc:	88 23       	and	r24, r24
     cce:	39 f4       	brne	.+14     	; 0xcde <disk_initialize+0x1a4>
     cd0:	07 c0       	rjmp	.+14     	; 0xce0 <disk_initialize+0x1a6>
     cd2:	ca 01       	movw	r24, r20
     cd4:	01 97       	sbiw	r24, 0x01	; 1
     cd6:	f1 f7       	brne	.-4      	; 0xcd4 <disk_initialize+0x19a>
		{
			// wait 1/10 ms
			_delay_loop_2(((F_CPU) / 4e3) / 10);
			__ticks --;
     cd8:	21 50       	subi	r18, 0x01	; 1
     cda:	30 40       	sbci	r19, 0x00	; 0
		__ticks = 1;
	else if (__tmp > 65535)
	{
		//	__ticks = requested delay in 1/10 ms
		__ticks = (uint16_t) (__ms * 10.0);
		while(__ticks)
     cdc:	d1 f7       	brne	.-12     	; 0xcd2 <disk_initialize+0x198>
     cde:	ff 24       	eor	r15, r15
	{
		sendStr0("Enter Idle state error");
		_delay_ms(1000);
	}

	CardType = ty;
     ce0:	f0 92 91 04 	sts	0x0491, r15
/*-----------------------------------------------------------------------*/

static
void deselect (void)
{
	CS_HIGH();
     ce4:	c1 9a       	sbi	0x18, 1	; 24
/*-----------------------------------------------------------------------*/

static
BYTE rcvr_spi (void)
{
	SPDR = 0xFF;
     ce6:	8f ef       	ldi	r24, 0xFF	; 255
     ce8:	8f b9       	out	0x0f, r24	; 15
	loop_until_bit_is_set(SPSR, SPIF);
     cea:	77 9b       	sbis	0x0e, 7	; 14
     cec:	fe cf       	rjmp	.-4      	; 0xcea <disk_initialize+0x1b0>
	return SPDR;
     cee:	8f b1       	in	r24, 0x0f	; 15
	}

	CardType = ty;
	deselect();

	if (ty) {			/* Initialization succeded */
     cf0:	ff 20       	and	r15, r15
     cf2:	41 f0       	breq	.+16     	; 0xd04 <disk_initialize+0x1ca>
		//sendStr0("Initialization succeded");
		//_delay_ms(1000);
		Stat &= ~STA_NOINIT;		/* Clear STA_NOINIT */
     cf4:	80 91 34 01 	lds	r24, 0x0134
     cf8:	8e 7f       	andi	r24, 0xFE	; 254
     cfa:	80 93 34 01 	sts	0x0134, r24
		FCLK_FAST();
     cfe:	80 e5       	ldi	r24, 0x50	; 80
     d00:	8d b9       	out	0x0d, r24	; 13
     d02:	1e c0       	rjmp	.+60     	; 0xd40 <disk_initialize+0x206>


static
void power_off (void)
{
	SPCR = 0;				// Disable SPI function 
     d04:	1d b8       	out	0x0d, r1	; 13
	DDRB  = 0b11000000;		//Disable drivers 
     d06:	80 ec       	ldi	r24, 0xC0	; 192
     d08:	87 bb       	out	0x17, r24	; 23
	PORTB = 0b10110000;
     d0a:	80 eb       	ldi	r24, 0xB0	; 176
     d0c:	88 bb       	out	0x18, r24	; 24

	PORTC |=  0x80;			// Socket power off 
     d0e:	af 9a       	sbi	0x15, 7	; 21
	Stat |= STA_NOINIT;
     d10:	80 91 34 01 	lds	r24, 0x0134
     d14:	81 60       	ori	r24, 0x01	; 1
     d16:	80 93 34 01 	sts	0x0134, r24
		//_delay_ms(1000);
		Stat &= ~STA_NOINIT;		/* Clear STA_NOINIT */
		FCLK_FAST();
	} else {			/* Initialization failed */
		power_off();
		sendStr0("Initialization failed");
     d1a:	84 e5       	ldi	r24, 0x54	; 84
     d1c:	90 e0       	ldi	r25, 0x00	; 0
     d1e:	0e 94 a3 01 	call	0x346	; 0x346 <transmitString_F>
     d22:	8d e0       	ldi	r24, 0x0D	; 13
     d24:	0e 94 9f 01 	call	0x33e	; 0x33e <transmitByte>
     d28:	8a e0       	ldi	r24, 0x0A	; 10
     d2a:	0e 94 9f 01 	call	0x33e	; 0x33e <transmitByte>
     d2e:	80 e1       	ldi	r24, 0x10	; 16
     d30:	97 e2       	ldi	r25, 0x27	; 39
     d32:	24 e6       	ldi	r18, 0x64	; 100
     d34:	30 e0       	ldi	r19, 0x00	; 0
     d36:	f9 01       	movw	r30, r18
     d38:	31 97       	sbiw	r30, 0x01	; 1
     d3a:	f1 f7       	brne	.-4      	; 0xd38 <disk_initialize+0x1fe>
		{
			// wait 1/10 ms
			_delay_loop_2(((F_CPU) / 4e3) / 10);
			__ticks --;
     d3c:	01 97       	sbiw	r24, 0x01	; 1
		__ticks = 1;
	else if (__tmp > 65535)
	{
		//	__ticks = requested delay in 1/10 ms
		__ticks = (uint16_t) (__ms * 10.0);
		while(__ticks)
     d3e:	d9 f7       	brne	.-10     	; 0xd36 <disk_initialize+0x1fc>
		_delay_ms(1000);
	}

	return Stat;
     d40:	80 91 34 01 	lds	r24, 0x0134
}
     d44:	0f 90       	pop	r0
     d46:	0f 90       	pop	r0
     d48:	0f 90       	pop	r0
     d4a:	0f 90       	pop	r0
     d4c:	cf 91       	pop	r28
     d4e:	df 91       	pop	r29
     d50:	1f 91       	pop	r17
     d52:	0f 91       	pop	r16
     d54:	ff 90       	pop	r15
     d56:	ef 90       	pop	r14
     d58:	df 90       	pop	r13
     d5a:	cf 90       	pop	r12
     d5c:	bf 90       	pop	r11
     d5e:	af 90       	pop	r10
     d60:	08 95       	ret
	if (reset_complete == 1/*send_cmd(CMD0, 0) == 1*/) /* Enter Idle state */
	{			
		//sendStr0("Enter Idle state complite");
		//Timer1 = 100;						/* Initialization timeout of 1000 msec */
		//_delay_ms(100);
		if (send_cmd(CMD8, 0x1AA) == 1) {	/* SDv2? */
     d62:	88 e0       	ldi	r24, 0x08	; 8
     d64:	4a ea       	ldi	r20, 0xAA	; 170
     d66:	51 e0       	ldi	r21, 0x01	; 1
     d68:	60 e0       	ldi	r22, 0x00	; 0
     d6a:	70 e0       	ldi	r23, 0x00	; 0
     d6c:	0e 94 a9 02 	call	0x552	; 0x552 <send_cmd>
     d70:	81 30       	cpi	r24, 0x01	; 1
     d72:	09 f0       	breq	.+2      	; 0xd76 <disk_initialize+0x23c>
     d74:	76 cf       	rjmp	.-276    	; 0xc62 <disk_initialize+0x128>
     d76:	6e 01       	movw	r12, r28
     d78:	08 94       	sec
     d7a:	c1 1c       	adc	r12, r1
     d7c:	d1 1c       	adc	r13, r1
     d7e:	76 01       	movw	r14, r12
/*-----------------------------------------------------------------------*/

static
BYTE rcvr_spi (void)
{
	SPDR = 0xFF;
     d80:	9f ef       	ldi	r25, 0xFF	; 255
	{			
		//sendStr0("Enter Idle state complite");
		//Timer1 = 100;						/* Initialization timeout of 1000 msec */
		//_delay_ms(100);
		if (send_cmd(CMD8, 0x1AA) == 1) {	/* SDv2? */
			for (n = 0; n < 4; n++) ocr[n] = rcvr_spi();		/* Get trailing return value of R7 resp */
     d82:	9e 01       	movw	r18, r28
     d84:	2b 5f       	subi	r18, 0xFB	; 251
     d86:	3f 4f       	sbci	r19, 0xFF	; 255
     d88:	24 cf       	rjmp	.-440    	; 0xbd2 <disk_initialize+0x98>

00000d8a <gen_numname>:
	BYTE *dst,			/* Pointer to genartated SFN */
	const BYTE *src,	/* Pointer to source SFN to be modified */
	const WCHAR *lfn,	/* Pointer to LFN */
	WORD num			/* Sequense number */
)
{
     d8a:	cf 92       	push	r12
     d8c:	df 92       	push	r13
     d8e:	ef 92       	push	r14
     d90:	ff 92       	push	r15
     d92:	0f 93       	push	r16
     d94:	1f 93       	push	r17
     d96:	df 93       	push	r29
     d98:	cf 93       	push	r28
     d9a:	cd b7       	in	r28, 0x3d	; 61
     d9c:	de b7       	in	r29, 0x3e	; 62
     d9e:	28 97       	sbiw	r28, 0x08	; 8
     da0:	0f b6       	in	r0, 0x3f	; 63
     da2:	f8 94       	cli
     da4:	de bf       	out	0x3e, r29	; 62
     da6:	0f be       	out	0x3f, r0	; 63
     da8:	cd bf       	out	0x3d, r28	; 61
     daa:	6c 01       	movw	r12, r24
     dac:	da 01       	movw	r26, r20
     dae:	8c 01       	movw	r16, r24
     db0:	4b e0       	ldi	r20, 0x0B	; 11
     db2:	50 e0       	ldi	r21, 0x00	; 0
     db4:	06 c0       	rjmp	.+12     	; 0xdc2 <gen_numname+0x38>
/* Copy memory to memory */
static
void mem_cpy (void* dst, const void* src, int cnt) {
	char *d = (char*)dst;
	const char *s = (const char *)src;
	while (cnt--) *d++ = *s++;
     db6:	fb 01       	movw	r30, r22
     db8:	81 91       	ld	r24, Z+
     dba:	bf 01       	movw	r22, r30
     dbc:	f8 01       	movw	r30, r16
     dbe:	81 93       	st	Z+, r24
     dc0:	8f 01       	movw	r16, r30
     dc2:	41 50       	subi	r20, 0x01	; 1
     dc4:	50 40       	sbci	r21, 0x00	; 0
     dc6:	ff ef       	ldi	r31, 0xFF	; 255
     dc8:	4f 3f       	cpi	r20, 0xFF	; 255
     dca:	5f 07       	cpc	r21, r31
     dcc:	a1 f7       	brne	.-24     	; 0xdb6 <gen_numname+0x2c>
	int i, j;


	mem_cpy(dst, src, 11);

	if (num > 5) {	/* On many collisions, generate a hash number instead of sequencial number */
     dce:	26 30       	cpi	r18, 0x06	; 6
     dd0:	31 05       	cpc	r19, r1
     dd2:	c8 f0       	brcs	.+50     	; 0xe06 <gen_numname+0x7c>
		do num = (num >> 1) + (num << 15) + (WORD)*lfn++; while (*lfn);
     dd4:	93 2f       	mov	r25, r19
     dd6:	97 95       	ror	r25
     dd8:	99 27       	eor	r25, r25
     dda:	97 95       	ror	r25
     ddc:	82 2f       	mov	r24, r18
     dde:	86 95       	lsr	r24
     de0:	49 2f       	mov	r20, r25
     de2:	48 2b       	or	r20, r24
     de4:	92 2f       	mov	r25, r18
     de6:	97 95       	ror	r25
     de8:	99 27       	eor	r25, r25
     dea:	97 95       	ror	r25
     dec:	83 2f       	mov	r24, r19
     dee:	86 95       	lsr	r24
     df0:	59 2f       	mov	r21, r25
     df2:	58 2b       	or	r21, r24
     df4:	2d 91       	ld	r18, X+
     df6:	3d 91       	ld	r19, X+
     df8:	24 0f       	add	r18, r20
     dfa:	35 1f       	adc	r19, r21
     dfc:	8d 91       	ld	r24, X+
     dfe:	9c 91       	ld	r25, X
     e00:	11 97       	sbiw	r26, 0x01	; 1
     e02:	89 2b       	or	r24, r25
     e04:	39 f7       	brne	.-50     	; 0xdd4 <gen_numname+0x4a>
     e06:	07 e0       	ldi	r16, 0x07	; 7
     e08:	10 e0       	ldi	r17, 0x00	; 0
	}

	/* itoa */
	i = 7;
	do {
		ns[i--] = (num % 10) + '0';
     e0a:	7e 01       	movw	r14, r28
     e0c:	08 94       	sec
     e0e:	e1 1c       	adc	r14, r1
     e10:	f1 1c       	adc	r15, r1
     e12:	f7 01       	movw	r30, r14
     e14:	e0 0f       	add	r30, r16
     e16:	f1 1f       	adc	r31, r17
     e18:	c9 01       	movw	r24, r18
     e1a:	6a e0       	ldi	r22, 0x0A	; 10
     e1c:	70 e0       	ldi	r23, 0x00	; 0
     e1e:	0e 94 4d 28 	call	0x509a	; 0x509a <__udivmodhi4>
     e22:	80 5d       	subi	r24, 0xD0	; 208
     e24:	80 83       	st	Z, r24
     e26:	01 50       	subi	r16, 0x01	; 1
     e28:	10 40       	sbci	r17, 0x00	; 0
		num /= 10;
     e2a:	c9 01       	movw	r24, r18
     e2c:	6a e0       	ldi	r22, 0x0A	; 10
     e2e:	70 e0       	ldi	r23, 0x00	; 0
     e30:	0e 94 4d 28 	call	0x509a	; 0x509a <__udivmodhi4>
     e34:	9b 01       	movw	r18, r22
	} while (num);
     e36:	61 15       	cp	r22, r1
     e38:	71 05       	cpc	r23, r1
     e3a:	59 f7       	brne	.-42     	; 0xe12 <gen_numname+0x88>
	ns[i] = '~';
     e3c:	e0 0e       	add	r14, r16
     e3e:	f1 1e       	adc	r15, r17
     e40:	8e e7       	ldi	r24, 0x7E	; 126
     e42:	f7 01       	movw	r30, r14
     e44:	80 83       	st	Z, r24
     e46:	20 e0       	ldi	r18, 0x00	; 0
     e48:	30 e0       	ldi	r19, 0x00	; 0
     e4a:	02 c0       	rjmp	.+4      	; 0xe50 <gen_numname+0xc6>

	/* Append the number */
	for (j = 0; j < i && dst[j] != ' '; j++) {
     e4c:	2f 5f       	subi	r18, 0xFF	; 255
     e4e:	3f 4f       	sbci	r19, 0xFF	; 255
     e50:	20 17       	cp	r18, r16
     e52:	31 07       	cpc	r19, r17
     e54:	34 f4       	brge	.+12     	; 0xe62 <gen_numname+0xd8>
     e56:	f6 01       	movw	r30, r12
     e58:	e2 0f       	add	r30, r18
     e5a:	f3 1f       	adc	r31, r19
     e5c:	80 81       	ld	r24, Z
     e5e:	80 32       	cpi	r24, 0x20	; 32
     e60:	a9 f7       	brne	.-22     	; 0xe4c <gen_numname+0xc2>
     e62:	d6 01       	movw	r26, r12
     e64:	a2 0f       	add	r26, r18
     e66:	b3 1f       	adc	r27, r19
			if (j == i - 1) break;
			j++;
		}
	}
	do {
		dst[j++] = (i < 8) ? ns[i++] : ' ';
     e68:	ce 01       	movw	r24, r28
     e6a:	01 96       	adiw	r24, 0x01	; 1
     e6c:	08 30       	cpi	r16, 0x08	; 8
     e6e:	11 05       	cpc	r17, r1
     e70:	14 f0       	brlt	.+4      	; 0xe76 <gen_numname+0xec>
     e72:	e0 e2       	ldi	r30, 0x20	; 32
     e74:	06 c0       	rjmp	.+12     	; 0xe82 <gen_numname+0xf8>
     e76:	fc 01       	movw	r30, r24
     e78:	e0 0f       	add	r30, r16
     e7a:	f1 1f       	adc	r31, r17
     e7c:	e0 81       	ld	r30, Z
     e7e:	0f 5f       	subi	r16, 0xFF	; 255
     e80:	1f 4f       	sbci	r17, 0xFF	; 255
     e82:	ed 93       	st	X+, r30
     e84:	2f 5f       	subi	r18, 0xFF	; 255
     e86:	3f 4f       	sbci	r19, 0xFF	; 255
	} while (j < 8);
     e88:	28 30       	cpi	r18, 0x08	; 8
     e8a:	31 05       	cpc	r19, r1
     e8c:	7c f3       	brlt	.-34     	; 0xe6c <gen_numname+0xe2>
}
     e8e:	28 96       	adiw	r28, 0x08	; 8
     e90:	0f b6       	in	r0, 0x3f	; 63
     e92:	f8 94       	cli
     e94:	de bf       	out	0x3e, r29	; 62
     e96:	0f be       	out	0x3f, r0	; 63
     e98:	cd bf       	out	0x3d, r28	; 61
     e9a:	cf 91       	pop	r28
     e9c:	df 91       	pop	r29
     e9e:	1f 91       	pop	r17
     ea0:	0f 91       	pop	r16
     ea2:	ff 90       	pop	r15
     ea4:	ef 90       	pop	r14
     ea6:	df 90       	pop	r13
     ea8:	cf 90       	pop	r12
     eaa:	08 95       	ret

00000eac <f_mount>:

FRESULT f_mount (
	BYTE vol,		/* Logical drive number to be mounted/unmounted */
	FATFS *fs		/* Pointer to new file system object (NULL for unmount)*/
)
{
     eac:	db 01       	movw	r26, r22
	FATFS *rfs;


	if (vol >= _DRIVES)				/* Check if the drive number is valid */
     eae:	88 23       	and	r24, r24
     eb0:	11 f0       	breq	.+4      	; 0xeb6 <f_mount+0xa>
     eb2:	8b e0       	ldi	r24, 0x0B	; 11
     eb4:	08 95       	ret
		return FR_INVALID_DRIVE;
	rfs = FatFs[vol];				/* Get current state */
     eb6:	e0 91 92 04 	lds	r30, 0x0492
     eba:	f0 91 93 04 	lds	r31, 0x0493

	if (rfs) {
     ebe:	30 97       	sbiw	r30, 0x00	; 0
     ec0:	09 f0       	breq	.+2      	; 0xec4 <f_mount+0x18>
#if _FS_REENTRANT					/* Discard sync object of the current volume */
		if (!ff_del_syncobj(fs->sobj)) return FR_INT_ERR;
#endif
		rfs->fs_type = 0;			/* Clear old fs object */
     ec2:	10 82       	st	Z, r1
	}

	if (fs) {
     ec4:	10 97       	sbiw	r26, 0x00	; 0
     ec6:	09 f0       	breq	.+2      	; 0xeca <f_mount+0x1e>
		fs->fs_type = 0;			/* Clear new fs object */
     ec8:	1c 92       	st	X, r1
#if _FS_REENTRANT					/* Create sync object for the new volume */
		if (!ff_cre_syncobj(vol, &fs->sobj)) return FR_INT_ERR;
#endif
	}
	FatFs[vol] = fs;				/* Register new fs object */
     eca:	b0 93 93 04 	sts	0x0493, r27
     ece:	a0 93 92 04 	sts	0x0492, r26
     ed2:	80 e0       	ldi	r24, 0x00	; 0

	return FR_OK;
}
     ed4:	08 95       	ret

00000ed6 <validate>:
static
FRESULT validate (	/* FR_OK(0): The object is valid, !=0: Invalid */
	FATFS *fs,		/* Pointer to the file system object */
	WORD id			/* Member id of the target object to be checked */
)
{
     ed6:	fc 01       	movw	r30, r24
	if (!fs || !fs->fs_type || fs->id != id)
     ed8:	00 97       	sbiw	r24, 0x00	; 0
     eda:	89 f0       	breq	.+34     	; 0xefe <validate+0x28>
     edc:	80 81       	ld	r24, Z
     ede:	88 23       	and	r24, r24
     ee0:	71 f0       	breq	.+28     	; 0xefe <validate+0x28>
     ee2:	86 81       	ldd	r24, Z+6	; 0x06
     ee4:	97 81       	ldd	r25, Z+7	; 0x07
     ee6:	86 17       	cp	r24, r22
     ee8:	97 07       	cpc	r25, r23
     eea:	49 f4       	brne	.+18     	; 0xefe <validate+0x28>
		return FR_INVALID_OBJECT;

	ENTER_FF(fs);		/* Lock file system */

	if (disk_status(fs->drive) & STA_NOINIT)
     eec:	81 81       	ldd	r24, Z+1	; 0x01
     eee:	0e 94 0c 03 	call	0x618	; 0x618 <disk_status>
     ef2:	80 fd       	sbrc	r24, 0
     ef4:	02 c0       	rjmp	.+4      	; 0xefa <validate+0x24>
     ef6:	80 e0       	ldi	r24, 0x00	; 0
     ef8:	08 95       	ret
     efa:	83 e0       	ldi	r24, 0x03	; 3
     efc:	08 95       	ret
     efe:	89 e0       	ldi	r24, 0x09	; 9
		return FR_NOT_READY;

	return FR_OK;
}
     f00:	08 95       	ret

00000f02 <check_fs>:
static
BYTE check_fs (	/* 0:The FAT boot record, 1:Valid boot record but not an FAT, 2:Not a boot record, 3:Error */
	FATFS *fs,	/* File system object */
	DWORD sect	/* Sector# (lba) to check if it is an FAT boot record or not */
)
{
     f02:	0f 93       	push	r16
     f04:	cf 93       	push	r28
     f06:	df 93       	push	r29
     f08:	ec 01       	movw	r28, r24
     f0a:	9a 01       	movw	r18, r20
     f0c:	ab 01       	movw	r20, r22
	if (disk_read(fs->drive, fs->win, sect, 1) != RES_OK)	/* Load boot record */
     f0e:	bc 01       	movw	r22, r24
     f10:	60 5d       	subi	r22, 0xD0	; 208
     f12:	7f 4f       	sbci	r23, 0xFF	; 255
     f14:	89 81       	ldd	r24, Y+1	; 0x01
     f16:	01 e0       	ldi	r16, 0x01	; 1
     f18:	0e 94 13 03 	call	0x626	; 0x626 <disk_read>
     f1c:	88 23       	and	r24, r24
     f1e:	11 f0       	breq	.+4      	; 0xf24 <check_fs+0x22>
     f20:	23 e0       	ldi	r18, 0x03	; 3
     f22:	3b c0       	rjmp	.+118    	; 0xf9a <check_fs+0x98>
		return 3;
	if (LD_WORD(&fs->win[BS_55AA]) != 0xAA55)				/* Check record signature (always placed at offset 510 even if the sector size is >512) */
     f24:	c1 5d       	subi	r28, 0xD1	; 209
     f26:	dd 4f       	sbci	r29, 0xFD	; 253
     f28:	98 81       	ld	r25, Y
     f2a:	80 e0       	ldi	r24, 0x00	; 0
     f2c:	2a 91       	ld	r18, -Y
     f2e:	ce 52       	subi	r28, 0x2E	; 46
     f30:	d2 40       	sbci	r29, 0x02	; 2
     f32:	30 e0       	ldi	r19, 0x00	; 0
     f34:	82 2b       	or	r24, r18
     f36:	93 2b       	or	r25, r19
     f38:	85 55       	subi	r24, 0x55	; 85
     f3a:	9a 4a       	sbci	r25, 0xAA	; 170
     f3c:	11 f0       	breq	.+4      	; 0xf42 <check_fs+0x40>
     f3e:	22 e0       	ldi	r18, 0x02	; 2
     f40:	2c c0       	rjmp	.+88     	; 0xf9a <check_fs+0x98>
}

/* Compare memory to memory */
static
int mem_cmp (const void* dst, const void* src, int cnt) {
	const char *d = (const char *)dst, *s = (const char *)src;
     f42:	de 01       	movw	r26, r28
     f44:	aa 59       	subi	r26, 0x9A	; 154
     f46:	bf 4f       	sbci	r27, 0xFF	; 255
     f48:	e5 e3       	ldi	r30, 0x35	; 53
     f4a:	f1 e0       	ldi	r31, 0x01	; 1
	int r = 0;
	while (cnt-- && (r = *d++ - *s++) == 0) ;
     f4c:	81 e0       	ldi	r24, 0x01	; 1
     f4e:	e8 33       	cpi	r30, 0x38	; 56
     f50:	f8 07       	cpc	r31, r24
     f52:	11 f4       	brne	.+4      	; 0xf58 <check_fs+0x56>
     f54:	20 e0       	ldi	r18, 0x00	; 0
     f56:	21 c0       	rjmp	.+66     	; 0xf9a <check_fs+0x98>
     f58:	9c 91       	ld	r25, X
     f5a:	80 81       	ld	r24, Z
     f5c:	98 17       	cp	r25, r24
     f5e:	19 f4       	brne	.+6      	; 0xf66 <check_fs+0x64>
     f60:	11 96       	adiw	r26, 0x01	; 1
     f62:	31 96       	adiw	r30, 0x01	; 1
     f64:	f3 cf       	rjmp	.-26     	; 0xf4c <check_fs+0x4a>
}

/* Compare memory to memory */
static
int mem_cmp (const void* dst, const void* src, int cnt) {
	const char *d = (const char *)dst, *s = (const char *)src;
     f66:	de 01       	movw	r26, r28
     f68:	ae 57       	subi	r26, 0x7E	; 126
     f6a:	bf 4f       	sbci	r27, 0xFF	; 255
     f6c:	e9 e3       	ldi	r30, 0x39	; 57
     f6e:	f1 e0       	ldi	r31, 0x01	; 1
	int r = 0;
	while (cnt-- && (r = *d++ - *s++) == 0) ;
     f70:	21 e0       	ldi	r18, 0x01	; 1
     f72:	ee 33       	cpi	r30, 0x3E	; 62
     f74:	f2 07       	cpc	r31, r18
     f76:	49 f0       	breq	.+18     	; 0xf8a <check_fs+0x88>
     f78:	9c 91       	ld	r25, X
     f7a:	80 81       	ld	r24, Z
     f7c:	98 17       	cp	r25, r24
     f7e:	11 f0       	breq	.+4      	; 0xf84 <check_fs+0x82>
     f80:	21 e0       	ldi	r18, 0x01	; 1
     f82:	0b c0       	rjmp	.+22     	; 0xf9a <check_fs+0x98>
     f84:	11 96       	adiw	r26, 0x01	; 1
     f86:	31 96       	adiw	r30, 0x01	; 1
     f88:	f3 cf       	rjmp	.-26     	; 0xf70 <check_fs+0x6e>
     f8a:	20 e0       	ldi	r18, 0x00	; 0
     f8c:	c8 5a       	subi	r28, 0xA8	; 168
     f8e:	df 4f       	sbci	r29, 0xFF	; 255
     f90:	88 81       	ld	r24, Y
     f92:	87 ff       	sbrs	r24, 7
     f94:	21 e0       	ldi	r18, 0x01	; 1
     f96:	81 e0       	ldi	r24, 0x01	; 1
     f98:	28 27       	eor	r18, r24
		return 0;
	if (!mem_cmp(&fs->win[BS_FilSysType32], "FAT32", 5) && !(fs->win[BPB_ExtFlags] & 0x80))
		return 0;

	return 1;
}
     f9a:	82 2f       	mov	r24, r18
     f9c:	df 91       	pop	r29
     f9e:	cf 91       	pop	r28
     fa0:	0f 91       	pop	r16
     fa2:	08 95       	ret

00000fa4 <auto_mount>:
FRESULT auto_mount (	/* FR_OK(0): successful, !=0: any error occured */
	const char **path,	/* Pointer to pointer to the path name (drive number) */
	FATFS **rfs,		/* Pointer to pointer to the found file system object */
	BYTE chk_wp			/* !=0: Check media write protection for write access */
)
{
     fa4:	6f 92       	push	r6
     fa6:	7f 92       	push	r7
     fa8:	8f 92       	push	r8
     faa:	9f 92       	push	r9
     fac:	af 92       	push	r10
     fae:	bf 92       	push	r11
     fb0:	cf 92       	push	r12
     fb2:	df 92       	push	r13
     fb4:	ef 92       	push	r14
     fb6:	ff 92       	push	r15
     fb8:	0f 93       	push	r16
     fba:	1f 93       	push	r17
     fbc:	cf 93       	push	r28
     fbe:	df 93       	push	r29
     fc0:	dc 01       	movw	r26, r24
     fc2:	9b 01       	movw	r18, r22
     fc4:	14 2f       	mov	r17, r20
	FRESULT res;
	BYTE vol, fmt, *tbl;
	DSTATUS stat;
	DWORD bsect, fsize, tsect, mclst;
	const char *p = *path;
     fc6:	ed 91       	ld	r30, X+
     fc8:	fc 91       	ld	r31, X
     fca:	11 97       	sbiw	r26, 0x01	; 1
	FATFS *fs;


	/* Get logical drive number from the path name */
	vol = p[0] - '0';			/* Is there a drive number? */
     fcc:	90 81       	ld	r25, Z
     fce:	90 53       	subi	r25, 0x30	; 48
	if (vol <= 9 && p[1] == ':') {
     fd0:	9a 30       	cpi	r25, 0x0A	; 10
     fd2:	50 f4       	brcc	.+20     	; 0xfe8 <auto_mount+0x44>
     fd4:	81 81       	ldd	r24, Z+1	; 0x01
     fd6:	8a 33       	cpi	r24, 0x3A	; 58
     fd8:	39 f4       	brne	.+14     	; 0xfe8 <auto_mount+0x44>
		p += 2;					/* Found a drive number, get and strip it */
		*path = p;				/* Return pointer to the path name */
     fda:	32 96       	adiw	r30, 0x02	; 2
     fdc:	ed 93       	st	X+, r30
     fde:	fc 93       	st	X, r31
	} else {
		vol = 0;				/* No drive number is given, use drive number 0 as default */
	}

	/* Check if the logical drive number is valid or not */
	if (vol >= _DRIVES) return FR_INVALID_DRIVE;	/* Is the drive number valid? */
     fe0:	99 23       	and	r25, r25
     fe2:	11 f0       	breq	.+4      	; 0xfe8 <auto_mount+0x44>
     fe4:	8b e0       	ldi	r24, 0x0B	; 11
     fe6:	79 c2       	rjmp	.+1266   	; 0x14da <auto_mount+0x536>
	*rfs = fs = FatFs[vol];					/* Returen pointer to the corresponding file system object */
     fe8:	c0 91 92 04 	lds	r28, 0x0492
     fec:	d0 91 93 04 	lds	r29, 0x0493
     ff0:	f9 01       	movw	r30, r18
     ff2:	d1 83       	std	Z+1, r29	; 0x01
     ff4:	c0 83       	st	Z, r28
	if (!fs) return FR_NOT_ENABLED;			/* Is the file system object registered? */
     ff6:	20 97       	sbiw	r28, 0x00	; 0
     ff8:	11 f4       	brne	.+4      	; 0xffe <auto_mount+0x5a>
     ffa:	8c e0       	ldi	r24, 0x0C	; 12
     ffc:	6e c2       	rjmp	.+1244   	; 0x14da <auto_mount+0x536>

	ENTER_FF(fs);				/* Lock file system */

	if (fs->fs_type) {						/* If the logical drive has been mounted */
     ffe:	88 81       	ld	r24, Y
    1000:	88 23       	and	r24, r24
    1002:	59 f0       	breq	.+22     	; 0x101a <auto_mount+0x76>
		stat = disk_status(fs->drive);
    1004:	89 81       	ldd	r24, Y+1	; 0x01
    1006:	0e 94 0c 03 	call	0x618	; 0x618 <disk_status>
		if (!(stat & STA_NOINIT)) {			/* and physical drive is kept initialized (has not been changed), */
    100a:	80 fd       	sbrc	r24, 0
    100c:	06 c0       	rjmp	.+12     	; 0x101a <auto_mount+0x76>
#if !_FS_READONLY
			if (chk_wp && (stat & STA_PROTECT))	/* Check write protection if needed */
    100e:	11 23       	and	r17, r17
    1010:	09 f4       	brne	.+2      	; 0x1014 <auto_mount+0x70>
    1012:	60 c2       	rjmp	.+1216   	; 0x14d4 <auto_mount+0x530>
    1014:	82 fd       	sbrc	r24, 2
    1016:	5c c2       	rjmp	.+1208   	; 0x14d0 <auto_mount+0x52c>
    1018:	5d c2       	rjmp	.+1210   	; 0x14d4 <auto_mount+0x530>
		}
	}

	/* The logical drive must be re-mounted. Following code attempts to mount the volume */

	fs->fs_type = 0;					/* Clear the file system object */
    101a:	18 82       	st	Y, r1
	fs->drive = LD2PD(vol);				/* Bind the logical drive and a physical drive */
    101c:	19 82       	std	Y+1, r1	; 0x01
	stat = disk_initialize(fs->drive);	/* Initialize low level disk I/O layer */
    101e:	80 e0       	ldi	r24, 0x00	; 0
    1020:	0e 94 9d 05 	call	0xb3a	; 0xb3a <disk_initialize>
	if (stat & STA_NOINIT)				/* Check if the drive is ready */
    1024:	80 ff       	sbrs	r24, 0
    1026:	02 c0       	rjmp	.+4      	; 0x102c <auto_mount+0x88>
    1028:	83 e0       	ldi	r24, 0x03	; 3
    102a:	57 c2       	rjmp	.+1198   	; 0x14da <auto_mount+0x536>
#if _MAX_SS != 512						/* Get disk sector size if needed */
	if (disk_ioctl(fs->drive, GET_SECTOR_SIZE, &SS(fs)) != RES_OK || SS(fs) > _MAX_SS)
		return FR_NO_FILESYSTEM;
#endif
#if !_FS_READONLY
	if (chk_wp && (stat & STA_PROTECT))	/* Check write protection if needed */
    102c:	11 23       	and	r17, r17
    102e:	11 f0       	breq	.+4      	; 0x1034 <auto_mount+0x90>
    1030:	82 fd       	sbrc	r24, 2
    1032:	4e c2       	rjmp	.+1180   	; 0x14d0 <auto_mount+0x52c>
		return FR_WRITE_PROTECTED;
#endif
	/* Search FAT partition on the drive */
	fmt = check_fs(fs, bsect = 0);		/* Check sector 0 as an SFD format */
    1034:	ce 01       	movw	r24, r28
    1036:	40 e0       	ldi	r20, 0x00	; 0
    1038:	50 e0       	ldi	r21, 0x00	; 0
    103a:	60 e0       	ldi	r22, 0x00	; 0
    103c:	70 e0       	ldi	r23, 0x00	; 0
    103e:	0e 94 81 07 	call	0xf02	; 0xf02 <check_fs>
	if (fmt == 1) {						/* Not an FAT boot record, it may be patitioned */
    1042:	81 30       	cpi	r24, 0x01	; 1
    1044:	21 f0       	breq	.+8      	; 0x104e <auto_mount+0xaa>
    1046:	aa 24       	eor	r10, r10
    1048:	bb 24       	eor	r11, r11
    104a:	65 01       	movw	r12, r10
    104c:	2f c0       	rjmp	.+94     	; 0x10ac <auto_mount+0x108>
		/* Check a partition listed in top of the partition table */
		tbl = &fs->win[MBR_Table + LD2PT(vol) * 16];	/* Partition table */
    104e:	fe 01       	movw	r30, r28
    1050:	e2 51       	subi	r30, 0x12	; 18
    1052:	fe 4f       	sbci	r31, 0xFE	; 254
		if (tbl[4]) {									/* Is the partition existing? */
    1054:	84 81       	ldd	r24, Z+4	; 0x04
    1056:	88 23       	and	r24, r24
    1058:	09 f4       	brne	.+2      	; 0x105c <auto_mount+0xb8>
    105a:	3e c2       	rjmp	.+1148   	; 0x14d8 <auto_mount+0x534>
			bsect = LD_DWORD(&tbl[8]);					/* Partition offset in LBA */
    105c:	83 85       	ldd	r24, Z+11	; 0x0b
    105e:	90 e0       	ldi	r25, 0x00	; 0
    1060:	a0 e0       	ldi	r26, 0x00	; 0
    1062:	b0 e0       	ldi	r27, 0x00	; 0
    1064:	d8 2e       	mov	r13, r24
    1066:	cc 24       	eor	r12, r12
    1068:	bb 24       	eor	r11, r11
    106a:	aa 24       	eor	r10, r10
    106c:	82 85       	ldd	r24, Z+10	; 0x0a
    106e:	90 e0       	ldi	r25, 0x00	; 0
    1070:	a0 e0       	ldi	r26, 0x00	; 0
    1072:	b0 e0       	ldi	r27, 0x00	; 0
    1074:	dc 01       	movw	r26, r24
    1076:	99 27       	eor	r25, r25
    1078:	88 27       	eor	r24, r24
    107a:	a8 2a       	or	r10, r24
    107c:	b9 2a       	or	r11, r25
    107e:	ca 2a       	or	r12, r26
    1080:	db 2a       	or	r13, r27
    1082:	80 85       	ldd	r24, Z+8	; 0x08
    1084:	90 e0       	ldi	r25, 0x00	; 0
    1086:	a0 e0       	ldi	r26, 0x00	; 0
    1088:	b0 e0       	ldi	r27, 0x00	; 0
    108a:	a8 2a       	or	r10, r24
    108c:	b9 2a       	or	r11, r25
    108e:	ca 2a       	or	r12, r26
    1090:	db 2a       	or	r13, r27
    1092:	91 85       	ldd	r25, Z+9	; 0x09
    1094:	80 e0       	ldi	r24, 0x00	; 0
    1096:	a0 e0       	ldi	r26, 0x00	; 0
    1098:	b0 e0       	ldi	r27, 0x00	; 0
    109a:	a8 2a       	or	r10, r24
    109c:	b9 2a       	or	r11, r25
    109e:	ca 2a       	or	r12, r26
    10a0:	db 2a       	or	r13, r27
			fmt = check_fs(fs, bsect);					/* Check the partition */
    10a2:	ce 01       	movw	r24, r28
    10a4:	b6 01       	movw	r22, r12
    10a6:	a5 01       	movw	r20, r10
    10a8:	0e 94 81 07 	call	0xf02	; 0xf02 <check_fs>
		}
	}
	if (fmt == 3) return FR_DISK_ERR;
    10ac:	83 30       	cpi	r24, 0x03	; 3
    10ae:	11 f4       	brne	.+4      	; 0x10b4 <auto_mount+0x110>
    10b0:	81 e0       	ldi	r24, 0x01	; 1
    10b2:	13 c2       	rjmp	.+1062   	; 0x14da <auto_mount+0x536>
	if (fmt || LD_WORD(fs->win+BPB_BytsPerSec) != SS(fs))	/* No valid FAT patition is found */
    10b4:	88 23       	and	r24, r24
    10b6:	09 f0       	breq	.+2      	; 0x10ba <auto_mount+0x116>
    10b8:	0f c2       	rjmp	.+1054   	; 0x14d8 <auto_mount+0x534>
    10ba:	9c ad       	ldd	r25, Y+60	; 0x3c
    10bc:	80 e0       	ldi	r24, 0x00	; 0
    10be:	2b ad       	ldd	r18, Y+59	; 0x3b
    10c0:	30 e0       	ldi	r19, 0x00	; 0
    10c2:	82 2b       	or	r24, r18
    10c4:	93 2b       	or	r25, r19
    10c6:	80 50       	subi	r24, 0x00	; 0
    10c8:	92 40       	sbci	r25, 0x02	; 2
    10ca:	09 f0       	breq	.+2      	; 0x10ce <auto_mount+0x12a>
    10cc:	05 c2       	rjmp	.+1034   	; 0x14d8 <auto_mount+0x534>
		return FR_NO_FILESYSTEM;

	/* Initialize the file system object */
	fsize = LD_WORD(fs->win+BPB_FATSz16);				/* Number of sectors per FAT */
    10ce:	c9 5b       	subi	r28, 0xB9	; 185
    10d0:	df 4f       	sbci	r29, 0xFF	; 255
    10d2:	98 81       	ld	r25, Y
    10d4:	80 e0       	ldi	r24, 0x00	; 0
    10d6:	2a 91       	ld	r18, -Y
    10d8:	c6 54       	subi	r28, 0x46	; 70
    10da:	d0 40       	sbci	r29, 0x00	; 0
    10dc:	30 e0       	ldi	r19, 0x00	; 0
    10de:	82 2b       	or	r24, r18
    10e0:	93 2b       	or	r25, r19
    10e2:	7c 01       	movw	r14, r24
    10e4:	00 e0       	ldi	r16, 0x00	; 0
    10e6:	10 e0       	ldi	r17, 0x00	; 0
	if (!fsize) fsize = LD_DWORD(fs->win+BPB_FATSz32);
    10e8:	e1 14       	cp	r14, r1
    10ea:	f1 04       	cpc	r15, r1
    10ec:	01 05       	cpc	r16, r1
    10ee:	11 05       	cpc	r17, r1
    10f0:	41 f5       	brne	.+80     	; 0x1142 <auto_mount+0x19e>
    10f2:	c9 5a       	subi	r28, 0xA9	; 169
    10f4:	df 4f       	sbci	r29, 0xFF	; 255
    10f6:	88 81       	ld	r24, Y
    10f8:	90 e0       	ldi	r25, 0x00	; 0
    10fa:	a0 e0       	ldi	r26, 0x00	; 0
    10fc:	b0 e0       	ldi	r27, 0x00	; 0
    10fe:	18 2f       	mov	r17, r24
    1100:	00 27       	eor	r16, r16
    1102:	ff 24       	eor	r15, r15
    1104:	ee 24       	eor	r14, r14
    1106:	8a 91       	ld	r24, -Y
    1108:	90 e0       	ldi	r25, 0x00	; 0
    110a:	a0 e0       	ldi	r26, 0x00	; 0
    110c:	b0 e0       	ldi	r27, 0x00	; 0
    110e:	dc 01       	movw	r26, r24
    1110:	99 27       	eor	r25, r25
    1112:	88 27       	eor	r24, r24
    1114:	e8 2a       	or	r14, r24
    1116:	f9 2a       	or	r15, r25
    1118:	0a 2b       	or	r16, r26
    111a:	1b 2b       	or	r17, r27
    111c:	22 97       	sbiw	r28, 0x02	; 2
    111e:	89 91       	ld	r24, Y+
    1120:	90 e0       	ldi	r25, 0x00	; 0
    1122:	a0 e0       	ldi	r26, 0x00	; 0
    1124:	b0 e0       	ldi	r27, 0x00	; 0
    1126:	e8 2a       	or	r14, r24
    1128:	f9 2a       	or	r15, r25
    112a:	0a 2b       	or	r16, r26
    112c:	1b 2b       	or	r17, r27
    112e:	98 81       	ld	r25, Y
    1130:	c5 55       	subi	r28, 0x55	; 85
    1132:	d0 40       	sbci	r29, 0x00	; 0
    1134:	80 e0       	ldi	r24, 0x00	; 0
    1136:	a0 e0       	ldi	r26, 0x00	; 0
    1138:	b0 e0       	ldi	r27, 0x00	; 0
    113a:	e8 2a       	or	r14, r24
    113c:	f9 2a       	or	r15, r25
    113e:	0a 2b       	or	r16, r26
    1140:	1b 2b       	or	r17, r27
	fs->sects_fat = fsize;
    1142:	e8 8e       	std	Y+24, r14	; 0x18
    1144:	f9 8e       	std	Y+25, r15	; 0x19
    1146:	0a 8f       	std	Y+26, r16	; 0x1a
    1148:	1b 8f       	std	Y+27, r17	; 0x1b
	fs->n_fats = fs->win[BPB_NumFATs];					/* Number of FAT copies */
    114a:	c0 5c       	subi	r28, 0xC0	; 192
    114c:	df 4f       	sbci	r29, 0xFF	; 255
    114e:	28 81       	ld	r18, Y
    1150:	c0 54       	subi	r28, 0x40	; 64
    1152:	d0 40       	sbci	r29, 0x00	; 0
    1154:	2b 83       	std	Y+3, r18	; 0x03
	fsize *= fs->n_fats;								/* (Number of sectors in FAT area) */
    1156:	30 e0       	ldi	r19, 0x00	; 0
    1158:	40 e0       	ldi	r20, 0x00	; 0
    115a:	50 e0       	ldi	r21, 0x00	; 0
    115c:	c8 01       	movw	r24, r16
    115e:	b7 01       	movw	r22, r14
    1160:	0e 94 2e 28 	call	0x505c	; 0x505c <__mulsi3>
    1164:	3b 01       	movw	r6, r22
    1166:	4c 01       	movw	r8, r24
	fs->fatbase = bsect + LD_WORD(fs->win+BPB_RsvdSecCnt); /* FAT start sector (lba) */
    1168:	9f ad       	ldd	r25, Y+63	; 0x3f
    116a:	80 e0       	ldi	r24, 0x00	; 0
    116c:	2e ad       	ldd	r18, Y+62	; 0x3e
    116e:	30 e0       	ldi	r19, 0x00	; 0
    1170:	82 2b       	or	r24, r18
    1172:	93 2b       	or	r25, r19
    1174:	a0 e0       	ldi	r26, 0x00	; 0
    1176:	b0 e0       	ldi	r27, 0x00	; 0
    1178:	8a 0d       	add	r24, r10
    117a:	9b 1d       	adc	r25, r11
    117c:	ac 1d       	adc	r26, r12
    117e:	bd 1d       	adc	r27, r13
    1180:	88 a3       	std	Y+32, r24	; 0x20
    1182:	99 a3       	std	Y+33, r25	; 0x21
    1184:	aa a3       	std	Y+34, r26	; 0x22
    1186:	bb a3       	std	Y+35, r27	; 0x23
	fs->csize = fs->win[BPB_SecPerClus];				/* Number of sectors per cluster */
    1188:	8d ad       	ldd	r24, Y+61	; 0x3d
    118a:	8a 83       	std	Y+2, r24	; 0x02
	fs->n_rootdir = LD_WORD(fs->win+BPB_RootEntCnt);	/* Nmuber of root directory entries */
    118c:	ce 5b       	subi	r28, 0xBE	; 190
    118e:	df 4f       	sbci	r29, 0xFF	; 255
    1190:	98 81       	ld	r25, Y
    1192:	80 e0       	ldi	r24, 0x00	; 0
    1194:	2a 91       	ld	r18, -Y
    1196:	c1 54       	subi	r28, 0x41	; 65
    1198:	d0 40       	sbci	r29, 0x00	; 0
    119a:	42 2f       	mov	r20, r18
    119c:	50 e0       	ldi	r21, 0x00	; 0
    119e:	48 2b       	or	r20, r24
    11a0:	59 2b       	or	r21, r25
    11a2:	59 87       	std	Y+9, r21	; 0x09
    11a4:	48 87       	std	Y+8, r20	; 0x08
	tsect = LD_WORD(fs->win+BPB_TotSec16);				/* Number of sectors on the file system */
    11a6:	cc 5b       	subi	r28, 0xBC	; 188
    11a8:	df 4f       	sbci	r29, 0xFF	; 255
    11aa:	98 81       	ld	r25, Y
    11ac:	80 e0       	ldi	r24, 0x00	; 0
    11ae:	2a 91       	ld	r18, -Y
    11b0:	c3 54       	subi	r28, 0x43	; 67
    11b2:	d0 40       	sbci	r29, 0x00	; 0
    11b4:	30 e0       	ldi	r19, 0x00	; 0
    11b6:	82 2b       	or	r24, r18
    11b8:	93 2b       	or	r25, r19
    11ba:	7c 01       	movw	r14, r24
    11bc:	00 e0       	ldi	r16, 0x00	; 0
    11be:	10 e0       	ldi	r17, 0x00	; 0
	if (!tsect) tsect = LD_DWORD(fs->win+BPB_TotSec32);
    11c0:	e1 14       	cp	r14, r1
    11c2:	f1 04       	cpc	r15, r1
    11c4:	01 05       	cpc	r16, r1
    11c6:	11 05       	cpc	r17, r1
    11c8:	41 f5       	brne	.+80     	; 0x121a <auto_mount+0x276>
    11ca:	cd 5a       	subi	r28, 0xAD	; 173
    11cc:	df 4f       	sbci	r29, 0xFF	; 255
    11ce:	88 81       	ld	r24, Y
    11d0:	90 e0       	ldi	r25, 0x00	; 0
    11d2:	a0 e0       	ldi	r26, 0x00	; 0
    11d4:	b0 e0       	ldi	r27, 0x00	; 0
    11d6:	18 2f       	mov	r17, r24
    11d8:	00 27       	eor	r16, r16
    11da:	ff 24       	eor	r15, r15
    11dc:	ee 24       	eor	r14, r14
    11de:	8a 91       	ld	r24, -Y
    11e0:	90 e0       	ldi	r25, 0x00	; 0
    11e2:	a0 e0       	ldi	r26, 0x00	; 0
    11e4:	b0 e0       	ldi	r27, 0x00	; 0
    11e6:	dc 01       	movw	r26, r24
    11e8:	99 27       	eor	r25, r25
    11ea:	88 27       	eor	r24, r24
    11ec:	e8 2a       	or	r14, r24
    11ee:	f9 2a       	or	r15, r25
    11f0:	0a 2b       	or	r16, r26
    11f2:	1b 2b       	or	r17, r27
    11f4:	22 97       	sbiw	r28, 0x02	; 2
    11f6:	89 91       	ld	r24, Y+
    11f8:	90 e0       	ldi	r25, 0x00	; 0
    11fa:	a0 e0       	ldi	r26, 0x00	; 0
    11fc:	b0 e0       	ldi	r27, 0x00	; 0
    11fe:	e8 2a       	or	r14, r24
    1200:	f9 2a       	or	r15, r25
    1202:	0a 2b       	or	r16, r26
    1204:	1b 2b       	or	r17, r27
    1206:	98 81       	ld	r25, Y
    1208:	c1 55       	subi	r28, 0x51	; 81
    120a:	d0 40       	sbci	r29, 0x00	; 0
    120c:	80 e0       	ldi	r24, 0x00	; 0
    120e:	a0 e0       	ldi	r26, 0x00	; 0
    1210:	b0 e0       	ldi	r27, 0x00	; 0
    1212:	e8 2a       	or	r14, r24
    1214:	f9 2a       	or	r15, r25
    1216:	0a 2b       	or	r16, r26
    1218:	1b 2b       	or	r17, r27
	fs->max_clust = mclst = (tsect						/* Last cluster# + 1 */
    121a:	9f ad       	ldd	r25, Y+63	; 0x3f
    121c:	80 e0       	ldi	r24, 0x00	; 0
    121e:	2e ad       	ldd	r18, Y+62	; 0x3e
    1220:	30 e0       	ldi	r19, 0x00	; 0
    1222:	82 2b       	or	r24, r18
    1224:	93 2b       	or	r25, r19
    1226:	a0 e0       	ldi	r26, 0x00	; 0
    1228:	b0 e0       	ldi	r27, 0x00	; 0
    122a:	e8 1a       	sub	r14, r24
    122c:	f9 0a       	sbc	r15, r25
    122e:	0a 0b       	sbc	r16, r26
    1230:	1b 0b       	sbc	r17, r27
    1232:	e6 18       	sub	r14, r6
    1234:	f7 08       	sbc	r15, r7
    1236:	08 09       	sbc	r16, r8
    1238:	19 09       	sbc	r17, r9
    123a:	b4 e0       	ldi	r27, 0x04	; 4
    123c:	56 95       	lsr	r21
    123e:	47 95       	ror	r20
    1240:	ba 95       	dec	r27
    1242:	e1 f7       	brne	.-8      	; 0x123c <auto_mount+0x298>
    1244:	ca 01       	movw	r24, r20
    1246:	a0 e0       	ldi	r26, 0x00	; 0
    1248:	b0 e0       	ldi	r27, 0x00	; 0
    124a:	e8 1a       	sub	r14, r24
    124c:	f9 0a       	sbc	r15, r25
    124e:	0a 0b       	sbc	r16, r26
    1250:	1b 0b       	sbc	r17, r27
    1252:	2a 81       	ldd	r18, Y+2	; 0x02
    1254:	30 e0       	ldi	r19, 0x00	; 0
    1256:	40 e0       	ldi	r20, 0x00	; 0
    1258:	50 e0       	ldi	r21, 0x00	; 0
    125a:	c8 01       	movw	r24, r16
    125c:	b7 01       	movw	r22, r14
    125e:	0e 94 61 28 	call	0x50c2	; 0x50c2 <__udivmodsi4>
    1262:	2e 5f       	subi	r18, 0xFE	; 254
    1264:	3f 4f       	sbci	r19, 0xFF	; 255
    1266:	4f 4f       	sbci	r20, 0xFF	; 255
    1268:	5f 4f       	sbci	r21, 0xFF	; 255
    126a:	2c 8f       	std	Y+28, r18	; 0x1c
    126c:	3d 8f       	std	Y+29, r19	; 0x1d
    126e:	4e 8f       	std	Y+30, r20	; 0x1e
    1270:	5f 8f       	std	Y+31, r21	; 0x1f
		- LD_WORD(fs->win+BPB_RsvdSecCnt) - fsize - fs->n_rootdir / (SS(fs)/32)
		) / fs->csize + 2;

	fmt = FS_FAT12;										/* Determine the FAT sub type */
	if (mclst >= 0xFF7) fmt = FS_FAT16;				/* Number of clusters >= 0xFF5 */
    1272:	27 3f       	cpi	r18, 0xF7	; 247
    1274:	8f e0       	ldi	r24, 0x0F	; 15
    1276:	38 07       	cpc	r19, r24
    1278:	80 e0       	ldi	r24, 0x00	; 0
    127a:	48 07       	cpc	r20, r24
    127c:	80 e0       	ldi	r24, 0x00	; 0
    127e:	58 07       	cpc	r21, r24
    1280:	10 f4       	brcc	.+4      	; 0x1286 <auto_mount+0x2e2>
    1282:	11 e0       	ldi	r17, 0x01	; 1
    1284:	07 c0       	rjmp	.+14     	; 0x1294 <auto_mount+0x2f0>
	if (mclst >= 0xFFF7) fmt = FS_FAT32;			/* Number of clusters >= 0xFFF5 */
    1286:	27 5f       	subi	r18, 0xF7	; 247
    1288:	3f 4f       	sbci	r19, 0xFF	; 255
    128a:	40 40       	sbci	r20, 0x00	; 0
    128c:	50 40       	sbci	r21, 0x00	; 0
    128e:	08 f0       	brcs	.+2      	; 0x1292 <auto_mount+0x2ee>
    1290:	33 c1       	rjmp	.+614    	; 0x14f8 <auto_mount+0x554>
    1292:	12 e0       	ldi	r17, 0x02	; 2

	if (fmt == FS_FAT32)
		fs->dirbase = LD_DWORD(fs->win+BPB_RootClus);	/* Root directory start cluster */
	else
		fs->dirbase = fs->fatbase + fsize;				/* Root directory start sector (lba) */
    1294:	88 a1       	ldd	r24, Y+32	; 0x20
    1296:	99 a1       	ldd	r25, Y+33	; 0x21
    1298:	aa a1       	ldd	r26, Y+34	; 0x22
    129a:	bb a1       	ldd	r27, Y+35	; 0x23
    129c:	86 0d       	add	r24, r6
    129e:	97 1d       	adc	r25, r7
    12a0:	a8 1d       	adc	r26, r8
    12a2:	b9 1d       	adc	r27, r9
    12a4:	8c a3       	std	Y+36, r24	; 0x24
    12a6:	9d a3       	std	Y+37, r25	; 0x25
    12a8:	ae a3       	std	Y+38, r26	; 0x26
    12aa:	bf a3       	std	Y+39, r27	; 0x27
	fs->database = fs->fatbase + fsize + fs->n_rootdir / (SS(fs)/32);	/* Data start sector (lba) */
    12ac:	88 85       	ldd	r24, Y+8	; 0x08
    12ae:	99 85       	ldd	r25, Y+9	; 0x09
    12b0:	a4 e0       	ldi	r26, 0x04	; 4
    12b2:	96 95       	lsr	r25
    12b4:	87 95       	ror	r24
    12b6:	aa 95       	dec	r26
    12b8:	e1 f7       	brne	.-8      	; 0x12b2 <auto_mount+0x30e>
    12ba:	a0 e0       	ldi	r26, 0x00	; 0
    12bc:	b0 e0       	ldi	r27, 0x00	; 0
    12be:	28 a1       	ldd	r18, Y+32	; 0x20
    12c0:	39 a1       	ldd	r19, Y+33	; 0x21
    12c2:	4a a1       	ldd	r20, Y+34	; 0x22
    12c4:	5b a1       	ldd	r21, Y+35	; 0x23
    12c6:	82 0f       	add	r24, r18
    12c8:	93 1f       	adc	r25, r19
    12ca:	a4 1f       	adc	r26, r20
    12cc:	b5 1f       	adc	r27, r21
    12ce:	86 0d       	add	r24, r6
    12d0:	97 1d       	adc	r25, r7
    12d2:	a8 1d       	adc	r26, r8
    12d4:	b9 1d       	adc	r27, r9
    12d6:	88 a7       	std	Y+40, r24	; 0x28
    12d8:	99 a7       	std	Y+41, r25	; 0x29
    12da:	aa a7       	std	Y+42, r26	; 0x2a
    12dc:	bb a7       	std	Y+43, r27	; 0x2b

#if !_FS_READONLY
	/* Initialize allocation information */
	fs->free_clust = 0xFFFFFFFF;
    12de:	8f ef       	ldi	r24, 0xFF	; 255
    12e0:	9f ef       	ldi	r25, 0xFF	; 255
    12e2:	af ef       	ldi	r26, 0xFF	; 255
    12e4:	bf ef       	ldi	r27, 0xFF	; 255
    12e6:	88 8b       	std	Y+16, r24	; 0x10
    12e8:	99 8b       	std	Y+17, r25	; 0x11
    12ea:	aa 8b       	std	Y+18, r26	; 0x12
    12ec:	bb 8b       	std	Y+19, r27	; 0x13
	fs->wflag = 0;
    12ee:	1c 82       	std	Y+4, r1	; 0x04
	/* Get fsinfo if needed */
	if (fmt == FS_FAT32) {
    12f0:	13 30       	cpi	r17, 0x03	; 3
    12f2:	09 f0       	breq	.+2      	; 0x12f6 <auto_mount+0x352>
    12f4:	dc c0       	rjmp	.+440    	; 0x14ae <auto_mount+0x50a>
		fs->fsi_sector = bsect + LD_WORD(fs->win+BPB_FSInfo);
    12f6:	cf 59       	subi	r28, 0x9F	; 159
    12f8:	df 4f       	sbci	r29, 0xFF	; 255
    12fa:	38 81       	ld	r19, Y
    12fc:	20 e0       	ldi	r18, 0x00	; 0
    12fe:	8a 91       	ld	r24, -Y
    1300:	c0 56       	subi	r28, 0x60	; 96
    1302:	d0 40       	sbci	r29, 0x00	; 0
    1304:	90 e0       	ldi	r25, 0x00	; 0
    1306:	28 2b       	or	r18, r24
    1308:	39 2b       	or	r19, r25
    130a:	40 e0       	ldi	r20, 0x00	; 0
    130c:	50 e0       	ldi	r21, 0x00	; 0
    130e:	2a 0d       	add	r18, r10
    1310:	3b 1d       	adc	r19, r11
    1312:	4c 1d       	adc	r20, r12
    1314:	5d 1d       	adc	r21, r13
    1316:	2c 8b       	std	Y+20, r18	; 0x14
    1318:	3d 8b       	std	Y+21, r19	; 0x15
    131a:	4e 8b       	std	Y+22, r20	; 0x16
    131c:	5f 8b       	std	Y+23, r21	; 0x17
		fs->fsi_flag = 0;
    131e:	1a 86       	std	Y+10, r1	; 0x0a
		if (disk_read(fs->drive, fs->win, fs->fsi_sector, 1) == RES_OK &&
    1320:	be 01       	movw	r22, r28
    1322:	60 5d       	subi	r22, 0xD0	; 208
    1324:	7f 4f       	sbci	r23, 0xFF	; 255
    1326:	89 81       	ldd	r24, Y+1	; 0x01
    1328:	01 e0       	ldi	r16, 0x01	; 1
    132a:	0e 94 13 03 	call	0x626	; 0x626 <disk_read>
    132e:	88 23       	and	r24, r24
    1330:	09 f0       	breq	.+2      	; 0x1334 <auto_mount+0x390>
    1332:	bd c0       	rjmp	.+378    	; 0x14ae <auto_mount+0x50a>
    1334:	c1 5d       	subi	r28, 0xD1	; 209
    1336:	dd 4f       	sbci	r29, 0xFD	; 253
    1338:	98 81       	ld	r25, Y
    133a:	80 e0       	ldi	r24, 0x00	; 0
    133c:	2a 91       	ld	r18, -Y
    133e:	ce 52       	subi	r28, 0x2E	; 46
    1340:	d2 40       	sbci	r29, 0x02	; 2
    1342:	30 e0       	ldi	r19, 0x00	; 0
    1344:	82 2b       	or	r24, r18
    1346:	93 2b       	or	r25, r19
    1348:	85 55       	subi	r24, 0x55	; 85
    134a:	9a 4a       	sbci	r25, 0xAA	; 170
    134c:	09 f0       	breq	.+2      	; 0x1350 <auto_mount+0x3ac>
    134e:	af c0       	rjmp	.+350    	; 0x14ae <auto_mount+0x50a>
    1350:	2b a9       	ldd	r18, Y+51	; 0x33
    1352:	30 e0       	ldi	r19, 0x00	; 0
    1354:	40 e0       	ldi	r20, 0x00	; 0
    1356:	50 e0       	ldi	r21, 0x00	; 0
    1358:	52 2f       	mov	r21, r18
    135a:	44 27       	eor	r20, r20
    135c:	33 27       	eor	r19, r19
    135e:	22 27       	eor	r18, r18
    1360:	8a a9       	ldd	r24, Y+50	; 0x32
    1362:	90 e0       	ldi	r25, 0x00	; 0
    1364:	a0 e0       	ldi	r26, 0x00	; 0
    1366:	b0 e0       	ldi	r27, 0x00	; 0
    1368:	dc 01       	movw	r26, r24
    136a:	99 27       	eor	r25, r25
    136c:	88 27       	eor	r24, r24
    136e:	28 2b       	or	r18, r24
    1370:	39 2b       	or	r19, r25
    1372:	4a 2b       	or	r20, r26
    1374:	5b 2b       	or	r21, r27
    1376:	88 a9       	ldd	r24, Y+48	; 0x30
    1378:	90 e0       	ldi	r25, 0x00	; 0
    137a:	a0 e0       	ldi	r26, 0x00	; 0
    137c:	b0 e0       	ldi	r27, 0x00	; 0
    137e:	28 2b       	or	r18, r24
    1380:	39 2b       	or	r19, r25
    1382:	4a 2b       	or	r20, r26
    1384:	5b 2b       	or	r21, r27
    1386:	99 a9       	ldd	r25, Y+49	; 0x31
    1388:	80 e0       	ldi	r24, 0x00	; 0
    138a:	a0 e0       	ldi	r26, 0x00	; 0
    138c:	b0 e0       	ldi	r27, 0x00	; 0
    138e:	28 2b       	or	r18, r24
    1390:	39 2b       	or	r19, r25
    1392:	4a 2b       	or	r20, r26
    1394:	5b 2b       	or	r21, r27
    1396:	22 55       	subi	r18, 0x52	; 82
    1398:	32 45       	sbci	r19, 0x52	; 82
    139a:	41 46       	sbci	r20, 0x61	; 97
    139c:	51 44       	sbci	r21, 0x41	; 65
    139e:	09 f0       	breq	.+2      	; 0x13a2 <auto_mount+0x3fe>
    13a0:	86 c0       	rjmp	.+268    	; 0x14ae <auto_mount+0x50a>
    13a2:	c9 5e       	subi	r28, 0xE9	; 233
    13a4:	dd 4f       	sbci	r29, 0xFD	; 253
    13a6:	28 81       	ld	r18, Y
    13a8:	30 e0       	ldi	r19, 0x00	; 0
    13aa:	40 e0       	ldi	r20, 0x00	; 0
    13ac:	50 e0       	ldi	r21, 0x00	; 0
    13ae:	52 2f       	mov	r21, r18
    13b0:	44 27       	eor	r20, r20
    13b2:	33 27       	eor	r19, r19
    13b4:	22 27       	eor	r18, r18
    13b6:	8a 91       	ld	r24, -Y
    13b8:	90 e0       	ldi	r25, 0x00	; 0
    13ba:	a0 e0       	ldi	r26, 0x00	; 0
    13bc:	b0 e0       	ldi	r27, 0x00	; 0
    13be:	dc 01       	movw	r26, r24
    13c0:	99 27       	eor	r25, r25
    13c2:	88 27       	eor	r24, r24
    13c4:	28 2b       	or	r18, r24
    13c6:	39 2b       	or	r19, r25
    13c8:	4a 2b       	or	r20, r26
    13ca:	5b 2b       	or	r21, r27
    13cc:	22 97       	sbiw	r28, 0x02	; 2
    13ce:	89 91       	ld	r24, Y+
    13d0:	90 e0       	ldi	r25, 0x00	; 0
    13d2:	a0 e0       	ldi	r26, 0x00	; 0
    13d4:	b0 e0       	ldi	r27, 0x00	; 0
    13d6:	28 2b       	or	r18, r24
    13d8:	39 2b       	or	r19, r25
    13da:	4a 2b       	or	r20, r26
    13dc:	5b 2b       	or	r21, r27
    13de:	98 81       	ld	r25, Y
    13e0:	c5 51       	subi	r28, 0x15	; 21
    13e2:	d2 40       	sbci	r29, 0x02	; 2
    13e4:	80 e0       	ldi	r24, 0x00	; 0
    13e6:	a0 e0       	ldi	r26, 0x00	; 0
    13e8:	b0 e0       	ldi	r27, 0x00	; 0
    13ea:	28 2b       	or	r18, r24
    13ec:	39 2b       	or	r19, r25
    13ee:	4a 2b       	or	r20, r26
    13f0:	5b 2b       	or	r21, r27
    13f2:	22 57       	subi	r18, 0x72	; 114
    13f4:	32 47       	sbci	r19, 0x72	; 114
    13f6:	41 44       	sbci	r20, 0x41	; 65
    13f8:	51 46       	sbci	r21, 0x61	; 97
    13fa:	09 f0       	breq	.+2      	; 0x13fe <auto_mount+0x45a>
    13fc:	58 c0       	rjmp	.+176    	; 0x14ae <auto_mount+0x50a>
			LD_WORD(fs->win+BS_55AA) == 0xAA55 &&
			LD_DWORD(fs->win+FSI_LeadSig) == 0x41615252 &&
			LD_DWORD(fs->win+FSI_StrucSig) == 0x61417272) {
			fs->last_clust = LD_DWORD(fs->win+FSI_Nxt_Free);
    13fe:	c1 5e       	subi	r28, 0xE1	; 225
    1400:	dd 4f       	sbci	r29, 0xFD	; 253
    1402:	28 81       	ld	r18, Y
    1404:	30 e0       	ldi	r19, 0x00	; 0
    1406:	40 e0       	ldi	r20, 0x00	; 0
    1408:	50 e0       	ldi	r21, 0x00	; 0
    140a:	52 2f       	mov	r21, r18
    140c:	44 27       	eor	r20, r20
    140e:	33 27       	eor	r19, r19
    1410:	22 27       	eor	r18, r18
    1412:	8a 91       	ld	r24, -Y
    1414:	90 e0       	ldi	r25, 0x00	; 0
    1416:	a0 e0       	ldi	r26, 0x00	; 0
    1418:	b0 e0       	ldi	r27, 0x00	; 0
    141a:	dc 01       	movw	r26, r24
    141c:	99 27       	eor	r25, r25
    141e:	88 27       	eor	r24, r24
    1420:	28 2b       	or	r18, r24
    1422:	39 2b       	or	r19, r25
    1424:	4a 2b       	or	r20, r26
    1426:	5b 2b       	or	r21, r27
    1428:	22 97       	sbiw	r28, 0x02	; 2
    142a:	89 91       	ld	r24, Y+
    142c:	90 e0       	ldi	r25, 0x00	; 0
    142e:	a0 e0       	ldi	r26, 0x00	; 0
    1430:	b0 e0       	ldi	r27, 0x00	; 0
    1432:	28 2b       	or	r18, r24
    1434:	39 2b       	or	r19, r25
    1436:	4a 2b       	or	r20, r26
    1438:	5b 2b       	or	r21, r27
    143a:	98 81       	ld	r25, Y
    143c:	cd 51       	subi	r28, 0x1D	; 29
    143e:	d2 40       	sbci	r29, 0x02	; 2
    1440:	80 e0       	ldi	r24, 0x00	; 0
    1442:	a0 e0       	ldi	r26, 0x00	; 0
    1444:	b0 e0       	ldi	r27, 0x00	; 0
    1446:	28 2b       	or	r18, r24
    1448:	39 2b       	or	r19, r25
    144a:	4a 2b       	or	r20, r26
    144c:	5b 2b       	or	r21, r27
    144e:	2c 87       	std	Y+12, r18	; 0x0c
    1450:	3d 87       	std	Y+13, r19	; 0x0d
    1452:	4e 87       	std	Y+14, r20	; 0x0e
    1454:	5f 87       	std	Y+15, r21	; 0x0f
			fs->free_clust = LD_DWORD(fs->win+FSI_Free_Count);
    1456:	c5 5e       	subi	r28, 0xE5	; 229
    1458:	dd 4f       	sbci	r29, 0xFD	; 253
    145a:	28 81       	ld	r18, Y
    145c:	30 e0       	ldi	r19, 0x00	; 0
    145e:	40 e0       	ldi	r20, 0x00	; 0
    1460:	50 e0       	ldi	r21, 0x00	; 0
    1462:	52 2f       	mov	r21, r18
    1464:	44 27       	eor	r20, r20
    1466:	33 27       	eor	r19, r19
    1468:	22 27       	eor	r18, r18
    146a:	8a 91       	ld	r24, -Y
    146c:	90 e0       	ldi	r25, 0x00	; 0
    146e:	a0 e0       	ldi	r26, 0x00	; 0
    1470:	b0 e0       	ldi	r27, 0x00	; 0
    1472:	dc 01       	movw	r26, r24
    1474:	99 27       	eor	r25, r25
    1476:	88 27       	eor	r24, r24
    1478:	28 2b       	or	r18, r24
    147a:	39 2b       	or	r19, r25
    147c:	4a 2b       	or	r20, r26
    147e:	5b 2b       	or	r21, r27
    1480:	22 97       	sbiw	r28, 0x02	; 2
    1482:	89 91       	ld	r24, Y+
    1484:	90 e0       	ldi	r25, 0x00	; 0
    1486:	a0 e0       	ldi	r26, 0x00	; 0
    1488:	b0 e0       	ldi	r27, 0x00	; 0
    148a:	28 2b       	or	r18, r24
    148c:	39 2b       	or	r19, r25
    148e:	4a 2b       	or	r20, r26
    1490:	5b 2b       	or	r21, r27
    1492:	98 81       	ld	r25, Y
    1494:	c9 51       	subi	r28, 0x19	; 25
    1496:	d2 40       	sbci	r29, 0x02	; 2
    1498:	80 e0       	ldi	r24, 0x00	; 0
    149a:	a0 e0       	ldi	r26, 0x00	; 0
    149c:	b0 e0       	ldi	r27, 0x00	; 0
    149e:	28 2b       	or	r18, r24
    14a0:	39 2b       	or	r19, r25
    14a2:	4a 2b       	or	r20, r26
    14a4:	5b 2b       	or	r21, r27
    14a6:	28 8b       	std	Y+16, r18	; 0x10
    14a8:	39 8b       	std	Y+17, r19	; 0x11
    14aa:	4a 8b       	std	Y+18, r20	; 0x12
    14ac:	5b 8b       	std	Y+19, r21	; 0x13
		}
	}
#endif
	fs->winsect = 0;
    14ae:	1c a6       	std	Y+44, r1	; 0x2c
    14b0:	1d a6       	std	Y+45, r1	; 0x2d
    14b2:	1e a6       	std	Y+46, r1	; 0x2e
    14b4:	1f a6       	std	Y+47, r1	; 0x2f
	fs->fs_type = fmt;			/* FAT syb-type */
    14b6:	18 83       	st	Y, r17
	fs->id = ++Fsid;			/* File system mount ID */
    14b8:	80 91 94 04 	lds	r24, 0x0494
    14bc:	90 91 95 04 	lds	r25, 0x0495
    14c0:	01 96       	adiw	r24, 0x01	; 1
    14c2:	90 93 95 04 	sts	0x0495, r25
    14c6:	80 93 94 04 	sts	0x0494, r24
    14ca:	9f 83       	std	Y+7, r25	; 0x07
    14cc:	8e 83       	std	Y+6, r24	; 0x06
    14ce:	02 c0       	rjmp	.+4      	; 0x14d4 <auto_mount+0x530>
	res = FR_OK;

	return res;
    14d0:	8a e0       	ldi	r24, 0x0A	; 10
    14d2:	03 c0       	rjmp	.+6      	; 0x14da <auto_mount+0x536>
    14d4:	80 e0       	ldi	r24, 0x00	; 0
    14d6:	01 c0       	rjmp	.+2      	; 0x14da <auto_mount+0x536>
    14d8:	8d e0       	ldi	r24, 0x0D	; 13
}
    14da:	df 91       	pop	r29
    14dc:	cf 91       	pop	r28
    14de:	1f 91       	pop	r17
    14e0:	0f 91       	pop	r16
    14e2:	ff 90       	pop	r15
    14e4:	ef 90       	pop	r14
    14e6:	df 90       	pop	r13
    14e8:	cf 90       	pop	r12
    14ea:	bf 90       	pop	r11
    14ec:	af 90       	pop	r10
    14ee:	9f 90       	pop	r9
    14f0:	8f 90       	pop	r8
    14f2:	7f 90       	pop	r7
    14f4:	6f 90       	pop	r6
    14f6:	08 95       	ret
	fmt = FS_FAT12;										/* Determine the FAT sub type */
	if (mclst >= 0xFF7) fmt = FS_FAT16;				/* Number of clusters >= 0xFF5 */
	if (mclst >= 0xFFF7) fmt = FS_FAT32;			/* Number of clusters >= 0xFFF5 */

	if (fmt == FS_FAT32)
		fs->dirbase = LD_DWORD(fs->win+BPB_RootClus);	/* Root directory start cluster */
    14f8:	c1 5a       	subi	r28, 0xA1	; 161
    14fa:	df 4f       	sbci	r29, 0xFF	; 255
    14fc:	28 81       	ld	r18, Y
    14fe:	30 e0       	ldi	r19, 0x00	; 0
    1500:	40 e0       	ldi	r20, 0x00	; 0
    1502:	50 e0       	ldi	r21, 0x00	; 0
    1504:	52 2f       	mov	r21, r18
    1506:	44 27       	eor	r20, r20
    1508:	33 27       	eor	r19, r19
    150a:	22 27       	eor	r18, r18
    150c:	8a 91       	ld	r24, -Y
    150e:	90 e0       	ldi	r25, 0x00	; 0
    1510:	a0 e0       	ldi	r26, 0x00	; 0
    1512:	b0 e0       	ldi	r27, 0x00	; 0
    1514:	dc 01       	movw	r26, r24
    1516:	99 27       	eor	r25, r25
    1518:	88 27       	eor	r24, r24
    151a:	28 2b       	or	r18, r24
    151c:	39 2b       	or	r19, r25
    151e:	4a 2b       	or	r20, r26
    1520:	5b 2b       	or	r21, r27
    1522:	22 97       	sbiw	r28, 0x02	; 2
    1524:	89 91       	ld	r24, Y+
    1526:	90 e0       	ldi	r25, 0x00	; 0
    1528:	a0 e0       	ldi	r26, 0x00	; 0
    152a:	b0 e0       	ldi	r27, 0x00	; 0
    152c:	28 2b       	or	r18, r24
    152e:	39 2b       	or	r19, r25
    1530:	4a 2b       	or	r20, r26
    1532:	5b 2b       	or	r21, r27
    1534:	98 81       	ld	r25, Y
    1536:	cd 55       	subi	r28, 0x5D	; 93
    1538:	d0 40       	sbci	r29, 0x00	; 0
    153a:	80 e0       	ldi	r24, 0x00	; 0
    153c:	a0 e0       	ldi	r26, 0x00	; 0
    153e:	b0 e0       	ldi	r27, 0x00	; 0
    1540:	28 2b       	or	r18, r24
    1542:	39 2b       	or	r19, r25
    1544:	4a 2b       	or	r20, r26
    1546:	5b 2b       	or	r21, r27
    1548:	2c a3       	std	Y+36, r18	; 0x24
    154a:	3d a3       	std	Y+37, r19	; 0x25
    154c:	4e a3       	std	Y+38, r20	; 0x26
    154e:	5f a3       	std	Y+39, r21	; 0x27
    1550:	13 e0       	ldi	r17, 0x03	; 3
    1552:	ac ce       	rjmp	.-680    	; 0x12ac <auto_mount+0x308>

00001554 <get_fileinfo>:
static
void get_fileinfo (		/* No return code */
	DIR *dj,			/* Pointer to the directory object */
	FILINFO *fno	 	/* Pointer to store the file information */
)
{
    1554:	cf 92       	push	r12
    1556:	df 92       	push	r13
    1558:	ef 92       	push	r14
    155a:	ff 92       	push	r15
    155c:	0f 93       	push	r16
    155e:	1f 93       	push	r17
    1560:	cf 93       	push	r28
    1562:	df 93       	push	r29
    1564:	6c 01       	movw	r12, r24
    1566:	7b 01       	movw	r14, r22
	int i;
	BYTE c, nt, *dir;
	char *p;


	p = fno->fname;
    1568:	eb 01       	movw	r28, r22
    156a:	29 96       	adiw	r28, 0x09	; 9
	if (dj->sect) {
    156c:	fc 01       	movw	r30, r24
    156e:	86 85       	ldd	r24, Z+14	; 0x0e
    1570:	97 85       	ldd	r25, Z+15	; 0x0f
    1572:	a0 89       	ldd	r26, Z+16	; 0x10
    1574:	b1 89       	ldd	r27, Z+17	; 0x11
    1576:	00 97       	sbiw	r24, 0x00	; 0
    1578:	a1 05       	cpc	r26, r1
    157a:	b1 05       	cpc	r27, r1
    157c:	09 f4       	brne	.+2      	; 0x1580 <get_fileinfo+0x2c>
    157e:	8c c0       	rjmp	.+280    	; 0x1698 <get_fileinfo+0x144>
		dir = dj->dir;
    1580:	62 89       	ldd	r22, Z+18	; 0x12
    1582:	73 89       	ldd	r23, Z+19	; 0x13
		nt = dir[DIR_NTres];		/* NT flag */
    1584:	db 01       	movw	r26, r22
    1586:	1c 96       	adiw	r26, 0x0c	; 12
    1588:	9c 91       	ld	r25, X
    158a:	20 e0       	ldi	r18, 0x00	; 0
    158c:	30 e0       	ldi	r19, 0x00	; 0
		for (i = 0; i < 8; i++) {	/* Copy file name body */
			c = dir[i];
			if (c == ' ') break;
			if (c == 0x05) c = 0xE5;
			if ((nt & 0x08) && IsUpper(c)) c += 0x20;
    158e:	49 2f       	mov	r20, r25
    1590:	50 e0       	ldi	r21, 0x00	; 0
    1592:	48 70       	andi	r20, 0x08	; 8
    1594:	50 70       	andi	r21, 0x00	; 0
	p = fno->fname;
	if (dj->sect) {
		dir = dj->dir;
		nt = dir[DIR_NTres];		/* NT flag */
		for (i = 0; i < 8; i++) {	/* Copy file name body */
			c = dir[i];
    1596:	fb 01       	movw	r30, r22
    1598:	e2 0f       	add	r30, r18
    159a:	f3 1f       	adc	r31, r19
    159c:	e0 81       	ld	r30, Z
			if (c == ' ') break;
    159e:	e0 32       	cpi	r30, 0x20	; 32
    15a0:	89 f0       	breq	.+34     	; 0x15c4 <get_fileinfo+0x70>
			if (c == 0x05) c = 0xE5;
    15a2:	e5 30       	cpi	r30, 0x05	; 5
    15a4:	09 f4       	brne	.+2      	; 0x15a8 <get_fileinfo+0x54>
    15a6:	e5 ee       	ldi	r30, 0xE5	; 229
			if ((nt & 0x08) && IsUpper(c)) c += 0x20;
    15a8:	41 15       	cp	r20, r1
    15aa:	51 05       	cpc	r21, r1
    15ac:	29 f0       	breq	.+10     	; 0x15b8 <get_fileinfo+0x64>
    15ae:	8e 2f       	mov	r24, r30
    15b0:	81 54       	subi	r24, 0x41	; 65
    15b2:	8a 31       	cpi	r24, 0x1A	; 26
    15b4:	08 f4       	brcc	.+2      	; 0x15b8 <get_fileinfo+0x64>
    15b6:	e0 5e       	subi	r30, 0xE0	; 224
			*p++ = c;
    15b8:	e9 93       	st	Y+, r30

	p = fno->fname;
	if (dj->sect) {
		dir = dj->dir;
		nt = dir[DIR_NTres];		/* NT flag */
		for (i = 0; i < 8; i++) {	/* Copy file name body */
    15ba:	2f 5f       	subi	r18, 0xFF	; 255
    15bc:	3f 4f       	sbci	r19, 0xFF	; 255
    15be:	28 30       	cpi	r18, 0x08	; 8
    15c0:	31 05       	cpc	r19, r1
    15c2:	49 f7       	brne	.-46     	; 0x1596 <get_fileinfo+0x42>
			if (c == ' ') break;
			if (c == 0x05) c = 0xE5;
			if ((nt & 0x08) && IsUpper(c)) c += 0x20;
			*p++ = c;
		}
		if (dir[8] != ' ') {		/* Copy file name extension */
    15c4:	fb 01       	movw	r30, r22
    15c6:	80 85       	ldd	r24, Z+8	; 0x08
    15c8:	80 32       	cpi	r24, 0x20	; 32
    15ca:	11 f4       	brne	.+4      	; 0x15d0 <get_fileinfo+0x7c>
    15cc:	8e 01       	movw	r16, r28
    15ce:	1e c0       	rjmp	.+60     	; 0x160c <get_fileinfo+0xb8>
			*p++ = '.';
    15d0:	8e e2       	ldi	r24, 0x2E	; 46
    15d2:	de 01       	movw	r26, r28
    15d4:	8d 93       	st	X+, r24
    15d6:	8d 01       	movw	r16, r26
    15d8:	fb 01       	movw	r30, r22
			for (i = 8; i < 11; i++) {
				c = dir[i];
				if (c == ' ') break;
				if ((nt & 0x10) && IsUpper(c)) c += 0x20;
    15da:	29 2f       	mov	r18, r25
    15dc:	30 e0       	ldi	r19, 0x00	; 0
    15de:	20 71       	andi	r18, 0x10	; 16
    15e0:	30 70       	andi	r19, 0x00	; 0
			if ((nt & 0x08) && IsUpper(c)) c += 0x20;
			*p++ = c;
		}
		if (dir[8] != ' ') {		/* Copy file name extension */
			*p++ = '.';
			for (i = 8; i < 11; i++) {
    15e2:	ae 01       	movw	r20, r28
    15e4:	4c 5f       	subi	r20, 0xFC	; 252
    15e6:	5f 4f       	sbci	r21, 0xFF	; 255
				c = dir[i];
    15e8:	90 85       	ldd	r25, Z+8	; 0x08
				if (c == ' ') break;
    15ea:	90 32       	cpi	r25, 0x20	; 32
    15ec:	79 f0       	breq	.+30     	; 0x160c <get_fileinfo+0xb8>
				if ((nt & 0x10) && IsUpper(c)) c += 0x20;
    15ee:	21 15       	cp	r18, r1
    15f0:	31 05       	cpc	r19, r1
    15f2:	29 f0       	breq	.+10     	; 0x15fe <get_fileinfo+0xaa>
    15f4:	89 2f       	mov	r24, r25
    15f6:	81 54       	subi	r24, 0x41	; 65
    15f8:	8a 31       	cpi	r24, 0x1A	; 26
    15fa:	08 f4       	brcc	.+2      	; 0x15fe <get_fileinfo+0xaa>
    15fc:	90 5e       	subi	r25, 0xE0	; 224
				*p++ = c;
    15fe:	d8 01       	movw	r26, r16
    1600:	9d 93       	st	X+, r25
    1602:	8d 01       	movw	r16, r26
    1604:	31 96       	adiw	r30, 0x01	; 1
			if ((nt & 0x08) && IsUpper(c)) c += 0x20;
			*p++ = c;
		}
		if (dir[8] != ' ') {		/* Copy file name extension */
			*p++ = '.';
			for (i = 8; i < 11; i++) {
    1606:	a4 17       	cp	r26, r20
    1608:	b5 07       	cpc	r27, r21
    160a:	71 f7       	brne	.-36     	; 0x15e8 <get_fileinfo+0x94>
				if (c == ' ') break;
				if ((nt & 0x10) && IsUpper(c)) c += 0x20;
				*p++ = c;
			}
		}
		fno->fattrib = dir[DIR_Attr];				/* Attribute */
    160c:	fb 01       	movw	r30, r22
    160e:	83 85       	ldd	r24, Z+11	; 0x0b
    1610:	d7 01       	movw	r26, r14
    1612:	18 96       	adiw	r26, 0x08	; 8
    1614:	8c 93       	st	X, r24
		fno->fsize = LD_DWORD(dir+DIR_FileSize);	/* Size */
    1616:	27 8d       	ldd	r18, Z+31	; 0x1f
    1618:	30 e0       	ldi	r19, 0x00	; 0
    161a:	40 e0       	ldi	r20, 0x00	; 0
    161c:	50 e0       	ldi	r21, 0x00	; 0
    161e:	52 2f       	mov	r21, r18
    1620:	44 27       	eor	r20, r20
    1622:	33 27       	eor	r19, r19
    1624:	22 27       	eor	r18, r18
    1626:	86 8d       	ldd	r24, Z+30	; 0x1e
    1628:	90 e0       	ldi	r25, 0x00	; 0
    162a:	a0 e0       	ldi	r26, 0x00	; 0
    162c:	b0 e0       	ldi	r27, 0x00	; 0
    162e:	dc 01       	movw	r26, r24
    1630:	99 27       	eor	r25, r25
    1632:	88 27       	eor	r24, r24
    1634:	28 2b       	or	r18, r24
    1636:	39 2b       	or	r19, r25
    1638:	4a 2b       	or	r20, r26
    163a:	5b 2b       	or	r21, r27
    163c:	84 8d       	ldd	r24, Z+28	; 0x1c
    163e:	90 e0       	ldi	r25, 0x00	; 0
    1640:	a0 e0       	ldi	r26, 0x00	; 0
    1642:	b0 e0       	ldi	r27, 0x00	; 0
    1644:	28 2b       	or	r18, r24
    1646:	39 2b       	or	r19, r25
    1648:	4a 2b       	or	r20, r26
    164a:	5b 2b       	or	r21, r27
    164c:	95 8d       	ldd	r25, Z+29	; 0x1d
    164e:	80 e0       	ldi	r24, 0x00	; 0
    1650:	a0 e0       	ldi	r26, 0x00	; 0
    1652:	b0 e0       	ldi	r27, 0x00	; 0
    1654:	28 2b       	or	r18, r24
    1656:	39 2b       	or	r19, r25
    1658:	4a 2b       	or	r20, r26
    165a:	5b 2b       	or	r21, r27
    165c:	f7 01       	movw	r30, r14
    165e:	20 83       	st	Z, r18
    1660:	31 83       	std	Z+1, r19	; 0x01
    1662:	42 83       	std	Z+2, r20	; 0x02
    1664:	53 83       	std	Z+3, r21	; 0x03
		fno->fdate = LD_WORD(dir+DIR_WrtDate);		/* Date */
    1666:	db 01       	movw	r26, r22
    1668:	59 96       	adiw	r26, 0x19	; 25
    166a:	9c 91       	ld	r25, X
    166c:	59 97       	sbiw	r26, 0x19	; 25
    166e:	80 e0       	ldi	r24, 0x00	; 0
    1670:	58 96       	adiw	r26, 0x18	; 24
    1672:	2c 91       	ld	r18, X
    1674:	58 97       	sbiw	r26, 0x18	; 24
    1676:	30 e0       	ldi	r19, 0x00	; 0
    1678:	82 2b       	or	r24, r18
    167a:	93 2b       	or	r25, r19
    167c:	95 83       	std	Z+5, r25	; 0x05
    167e:	84 83       	std	Z+4, r24	; 0x04
		fno->ftime = LD_WORD(dir+DIR_WrtTime);		/* Time */
    1680:	57 96       	adiw	r26, 0x17	; 23
    1682:	9c 91       	ld	r25, X
    1684:	57 97       	sbiw	r26, 0x17	; 23
    1686:	80 e0       	ldi	r24, 0x00	; 0
    1688:	56 96       	adiw	r26, 0x16	; 22
    168a:	2c 91       	ld	r18, X
    168c:	30 e0       	ldi	r19, 0x00	; 0
    168e:	82 2b       	or	r24, r18
    1690:	93 2b       	or	r25, r19
    1692:	97 83       	std	Z+7, r25	; 0x07
    1694:	86 83       	std	Z+6, r24	; 0x06
    1696:	e8 01       	movw	r28, r16
	}
	*p = 0;
    1698:	18 82       	st	Y, r1

#if _USE_LFN
	p = fno->lfname;
    169a:	f7 01       	movw	r30, r14
    169c:	06 89       	ldd	r16, Z+22	; 0x16
    169e:	17 89       	ldd	r17, Z+23	; 0x17
	if (p) {
    16a0:	01 15       	cp	r16, r1
    16a2:	11 05       	cpc	r17, r1
    16a4:	a1 f1       	breq	.+104    	; 0x170e <get_fileinfo+0x1ba>
		WCHAR wchr, *lfn;

		i = 0;
		if (dj->sect && dj->lfn_idx != 0xFFFF) {/* Get LFN if available */
    16a6:	f6 01       	movw	r30, r12
    16a8:	86 85       	ldd	r24, Z+14	; 0x0e
    16aa:	97 85       	ldd	r25, Z+15	; 0x0f
    16ac:	a0 89       	ldd	r26, Z+16	; 0x10
    16ae:	b1 89       	ldd	r27, Z+17	; 0x11
    16b0:	00 97       	sbiw	r24, 0x00	; 0
    16b2:	a1 05       	cpc	r26, r1
    16b4:	b1 05       	cpc	r27, r1
    16b6:	29 f1       	breq	.+74     	; 0x1702 <get_fileinfo+0x1ae>
    16b8:	80 8d       	ldd	r24, Z+24	; 0x18
    16ba:	91 8d       	ldd	r25, Z+25	; 0x19
    16bc:	8f 5f       	subi	r24, 0xFF	; 255
    16be:	9f 4f       	sbci	r25, 0xFF	; 255
    16c0:	01 f1       	breq	.+64     	; 0x1702 <get_fileinfo+0x1ae>
			lfn = dj->lfn;
    16c2:	d6 01       	movw	r26, r12
    16c4:	56 96       	adiw	r26, 0x16	; 22
    16c6:	cd 90       	ld	r12, X+
    16c8:	dc 90       	ld	r13, X
    16ca:	57 97       	sbiw	r26, 0x17	; 23
    16cc:	c0 e0       	ldi	r28, 0x00	; 0
    16ce:	d0 e0       	ldi	r29, 0x00	; 0
    16d0:	11 c0       	rjmp	.+34     	; 0x16f4 <get_fileinfo+0x1a0>
			while ((wchr = *lfn++) != 0) {		/* Get an LFN char */
				wchr = ff_convert(wchr, 0);		/* Unicode -> OEM code */
    16d2:	60 e0       	ldi	r22, 0x00	; 0
    16d4:	70 e0       	ldi	r23, 0x00	; 0
    16d6:	0e 94 03 28 	call	0x5006	; 0x5006 <ff_convert>
				if (!wchr) { i = 0; break; }	/* Conversion error, no LFN */
    16da:	00 97       	sbiw	r24, 0x00	; 0
    16dc:	91 f0       	breq	.+36     	; 0x1702 <get_fileinfo+0x1ae>
				if (_DF1S && wchr >= 0x100)		/* Put 1st byte if it is a DBC */
					p[i++] = (char)(wchr >> 8);
				p[i++] = (char)wchr;
    16de:	f8 01       	movw	r30, r16
    16e0:	ec 0f       	add	r30, r28
    16e2:	fd 1f       	adc	r31, r29
    16e4:	80 83       	st	Z, r24
    16e6:	21 96       	adiw	r28, 0x01	; 1
				if (i >= fno->lfsize) { i = 0; break; }	/* Buffer overrun, no LFN */
    16e8:	f7 01       	movw	r30, r14
    16ea:	80 8d       	ldd	r24, Z+24	; 0x18
    16ec:	91 8d       	ldd	r25, Z+25	; 0x19
    16ee:	c8 17       	cp	r28, r24
    16f0:	d9 07       	cpc	r29, r25
    16f2:	3c f4       	brge	.+14     	; 0x1702 <get_fileinfo+0x1ae>
		WCHAR wchr, *lfn;

		i = 0;
		if (dj->sect && dj->lfn_idx != 0xFFFF) {/* Get LFN if available */
			lfn = dj->lfn;
			while ((wchr = *lfn++) != 0) {		/* Get an LFN char */
    16f4:	d6 01       	movw	r26, r12
    16f6:	8d 91       	ld	r24, X+
    16f8:	9d 91       	ld	r25, X+
    16fa:	6d 01       	movw	r12, r26
    16fc:	00 97       	sbiw	r24, 0x00	; 0
    16fe:	49 f7       	brne	.-46     	; 0x16d2 <get_fileinfo+0x17e>
    1700:	02 c0       	rjmp	.+4      	; 0x1706 <get_fileinfo+0x1b2>
    1702:	c0 e0       	ldi	r28, 0x00	; 0
    1704:	d0 e0       	ldi	r29, 0x00	; 0
					p[i++] = (char)(wchr >> 8);
				p[i++] = (char)wchr;
				if (i >= fno->lfsize) { i = 0; break; }	/* Buffer overrun, no LFN */
			}
		}
		p[i] = 0;	/* Terminator */
    1706:	0c 0f       	add	r16, r28
    1708:	1d 1f       	adc	r17, r29
    170a:	f8 01       	movw	r30, r16
    170c:	10 82       	st	Z, r1
	}
#endif
}
    170e:	df 91       	pop	r29
    1710:	cf 91       	pop	r28
    1712:	1f 91       	pop	r17
    1714:	0f 91       	pop	r16
    1716:	ff 90       	pop	r15
    1718:	ef 90       	pop	r14
    171a:	df 90       	pop	r13
    171c:	cf 90       	pop	r12
    171e:	08 95       	ret

00001720 <move_window>:
static
FRESULT move_window (
	FATFS *fs,		/* File system object */
	DWORD sector	/* Sector number to make apperance in the fs->win[] */
)					/* Move to zero only writes back dirty window */
{
    1720:	6f 92       	push	r6
    1722:	7f 92       	push	r7
    1724:	8f 92       	push	r8
    1726:	9f 92       	push	r9
    1728:	af 92       	push	r10
    172a:	bf 92       	push	r11
    172c:	cf 92       	push	r12
    172e:	df 92       	push	r13
    1730:	ef 92       	push	r14
    1732:	ff 92       	push	r15
    1734:	0f 93       	push	r16
    1736:	1f 93       	push	r17
    1738:	cf 93       	push	r28
    173a:	df 93       	push	r29
    173c:	ec 01       	movw	r28, r24
    173e:	4a 01       	movw	r8, r20
    1740:	5b 01       	movw	r10, r22
	DWORD wsect;


	wsect = fs->winsect;
    1742:	cc a4       	ldd	r12, Y+44	; 0x2c
    1744:	dd a4       	ldd	r13, Y+45	; 0x2d
    1746:	ee a4       	ldd	r14, Y+46	; 0x2e
    1748:	ff a4       	ldd	r15, Y+47	; 0x2f
	if (wsect != sector) {	/* Changed current window */
    174a:	c4 16       	cp	r12, r20
    174c:	d5 06       	cpc	r13, r21
    174e:	e6 06       	cpc	r14, r22
    1750:	f7 06       	cpc	r15, r23
    1752:	09 f4       	brne	.+2      	; 0x1756 <move_window+0x36>
    1754:	4e c0       	rjmp	.+156    	; 0x17f2 <move_window+0xd2>
#if !_FS_READONLY
		if (fs->wflag) {	/* Write back dirty window if needed */
    1756:	8c 81       	ldd	r24, Y+4	; 0x04
    1758:	88 23       	and	r24, r24
    175a:	a1 f1       	breq	.+104    	; 0x17c4 <move_window+0xa4>
			if (disk_write(fs->drive, fs->win, wsect, 1) != RES_OK)
    175c:	90 e3       	ldi	r25, 0x30	; 48
    175e:	69 2e       	mov	r6, r25
    1760:	71 2c       	mov	r7, r1
    1762:	6c 0e       	add	r6, r28
    1764:	7d 1e       	adc	r7, r29
    1766:	89 81       	ldd	r24, Y+1	; 0x01
    1768:	b3 01       	movw	r22, r6
    176a:	a7 01       	movw	r20, r14
    176c:	96 01       	movw	r18, r12
    176e:	01 e0       	ldi	r16, 0x01	; 1
    1770:	0e 94 6b 03 	call	0x6d6	; 0x6d6 <disk_write>
    1774:	88 23       	and	r24, r24
    1776:	d9 f5       	brne	.+118    	; 0x17ee <move_window+0xce>
				return FR_DISK_ERR;
			fs->wflag = 0;
    1778:	1c 82       	std	Y+4, r1	; 0x04
			if (wsect < (fs->fatbase + fs->sects_fat)) {	/* In FAT area */
    177a:	88 8d       	ldd	r24, Y+24	; 0x18
    177c:	99 8d       	ldd	r25, Y+25	; 0x19
    177e:	aa 8d       	ldd	r26, Y+26	; 0x1a
    1780:	bb 8d       	ldd	r27, Y+27	; 0x1b
    1782:	28 a1       	ldd	r18, Y+32	; 0x20
    1784:	39 a1       	ldd	r19, Y+33	; 0x21
    1786:	4a a1       	ldd	r20, Y+34	; 0x22
    1788:	5b a1       	ldd	r21, Y+35	; 0x23
    178a:	82 0f       	add	r24, r18
    178c:	93 1f       	adc	r25, r19
    178e:	a4 1f       	adc	r26, r20
    1790:	b5 1f       	adc	r27, r21
    1792:	c8 16       	cp	r12, r24
    1794:	d9 06       	cpc	r13, r25
    1796:	ea 06       	cpc	r14, r26
    1798:	fb 06       	cpc	r15, r27
    179a:	a0 f4       	brcc	.+40     	; 0x17c4 <move_window+0xa4>
				BYTE nf;
				for (nf = fs->n_fats; nf >= 2; nf--) {	/* Refrect the change to FAT copy */
    179c:	1b 81       	ldd	r17, Y+3	; 0x03
    179e:	10 c0       	rjmp	.+32     	; 0x17c0 <move_window+0xa0>
					wsect += fs->sects_fat;
    17a0:	88 8d       	ldd	r24, Y+24	; 0x18
    17a2:	99 8d       	ldd	r25, Y+25	; 0x19
    17a4:	aa 8d       	ldd	r26, Y+26	; 0x1a
    17a6:	bb 8d       	ldd	r27, Y+27	; 0x1b
    17a8:	c8 0e       	add	r12, r24
    17aa:	d9 1e       	adc	r13, r25
    17ac:	ea 1e       	adc	r14, r26
    17ae:	fb 1e       	adc	r15, r27
					disk_write(fs->drive, fs->win, wsect, 1);
    17b0:	89 81       	ldd	r24, Y+1	; 0x01
    17b2:	b3 01       	movw	r22, r6
    17b4:	a7 01       	movw	r20, r14
    17b6:	96 01       	movw	r18, r12
    17b8:	01 e0       	ldi	r16, 0x01	; 1
    17ba:	0e 94 6b 03 	call	0x6d6	; 0x6d6 <disk_write>
			if (disk_write(fs->drive, fs->win, wsect, 1) != RES_OK)
				return FR_DISK_ERR;
			fs->wflag = 0;
			if (wsect < (fs->fatbase + fs->sects_fat)) {	/* In FAT area */
				BYTE nf;
				for (nf = fs->n_fats; nf >= 2; nf--) {	/* Refrect the change to FAT copy */
    17be:	11 50       	subi	r17, 0x01	; 1
    17c0:	12 30       	cpi	r17, 0x02	; 2
    17c2:	70 f7       	brcc	.-36     	; 0x17a0 <move_window+0x80>
					disk_write(fs->drive, fs->win, wsect, 1);
				}
			}
		}
#endif
		if (sector) {
    17c4:	81 14       	cp	r8, r1
    17c6:	91 04       	cpc	r9, r1
    17c8:	a1 04       	cpc	r10, r1
    17ca:	b1 04       	cpc	r11, r1
    17cc:	91 f0       	breq	.+36     	; 0x17f2 <move_window+0xd2>
			if (disk_read(fs->drive, fs->win, sector, 1) != RES_OK)
    17ce:	be 01       	movw	r22, r28
    17d0:	60 5d       	subi	r22, 0xD0	; 208
    17d2:	7f 4f       	sbci	r23, 0xFF	; 255
    17d4:	89 81       	ldd	r24, Y+1	; 0x01
    17d6:	a5 01       	movw	r20, r10
    17d8:	94 01       	movw	r18, r8
    17da:	01 e0       	ldi	r16, 0x01	; 1
    17dc:	0e 94 13 03 	call	0x626	; 0x626 <disk_read>
    17e0:	88 23       	and	r24, r24
    17e2:	29 f4       	brne	.+10     	; 0x17ee <move_window+0xce>
				return FR_DISK_ERR;
			fs->winsect = sector;
    17e4:	8c a6       	std	Y+44, r8	; 0x2c
    17e6:	9d a6       	std	Y+45, r9	; 0x2d
    17e8:	ae a6       	std	Y+46, r10	; 0x2e
    17ea:	bf a6       	std	Y+47, r11	; 0x2f
    17ec:	03 c0       	rjmp	.+6      	; 0x17f4 <move_window+0xd4>
    17ee:	81 e0       	ldi	r24, 0x01	; 1
    17f0:	01 c0       	rjmp	.+2      	; 0x17f4 <move_window+0xd4>
    17f2:	80 e0       	ldi	r24, 0x00	; 0
		}
	}

	return FR_OK;
}
    17f4:	df 91       	pop	r29
    17f6:	cf 91       	pop	r28
    17f8:	1f 91       	pop	r17
    17fa:	0f 91       	pop	r16
    17fc:	ff 90       	pop	r15
    17fe:	ef 90       	pop	r14
    1800:	df 90       	pop	r13
    1802:	cf 90       	pop	r12
    1804:	bf 90       	pop	r11
    1806:	af 90       	pop	r10
    1808:	9f 90       	pop	r9
    180a:	8f 90       	pop	r8
    180c:	7f 90       	pop	r7
    180e:	6f 90       	pop	r6
    1810:	08 95       	ret

00001812 <get_cluster>:
static
DWORD get_cluster (	/* 0xFFFFFFFF:Disk error, 1:Interal error, Else:Cluster status */
	FATFS *fs,		/* File system object */
	DWORD clst		/* Cluster# to get the link information */
)
{
    1812:	7f 92       	push	r7
    1814:	8f 92       	push	r8
    1816:	9f 92       	push	r9
    1818:	af 92       	push	r10
    181a:	bf 92       	push	r11
    181c:	cf 92       	push	r12
    181e:	df 92       	push	r13
    1820:	ef 92       	push	r14
    1822:	ff 92       	push	r15
    1824:	0f 93       	push	r16
    1826:	1f 93       	push	r17
    1828:	cf 93       	push	r28
    182a:	df 93       	push	r29
    182c:	4c 01       	movw	r8, r24
    182e:	7a 01       	movw	r14, r20
    1830:	8b 01       	movw	r16, r22
	WORD wc, bc;
	DWORD fsect;


	if (clst < 2 || clst >= fs->max_clust)	/* Check cluster address range */
    1832:	42 30       	cpi	r20, 0x02	; 2
    1834:	51 05       	cpc	r21, r1
    1836:	61 05       	cpc	r22, r1
    1838:	71 05       	cpc	r23, r1
    183a:	08 f4       	brcc	.+2      	; 0x183e <get_cluster+0x2c>
    183c:	bd c0       	rjmp	.+378    	; 0x19b8 <get_cluster+0x1a6>
    183e:	f4 01       	movw	r30, r8
    1840:	84 8d       	ldd	r24, Z+28	; 0x1c
    1842:	95 8d       	ldd	r25, Z+29	; 0x1d
    1844:	a6 8d       	ldd	r26, Z+30	; 0x1e
    1846:	b7 8d       	ldd	r27, Z+31	; 0x1f
    1848:	48 17       	cp	r20, r24
    184a:	59 07       	cpc	r21, r25
    184c:	6a 07       	cpc	r22, r26
    184e:	7b 07       	cpc	r23, r27
    1850:	08 f0       	brcs	.+2      	; 0x1854 <get_cluster+0x42>
    1852:	b2 c0       	rjmp	.+356    	; 0x19b8 <get_cluster+0x1a6>
		return 1;

	fsect = fs->fatbase;
    1854:	a0 a0       	ldd	r10, Z+32	; 0x20
    1856:	b1 a0       	ldd	r11, Z+33	; 0x21
    1858:	c2 a0       	ldd	r12, Z+34	; 0x22
    185a:	d3 a0       	ldd	r13, Z+35	; 0x23
	switch (fs->fs_type) {
    185c:	80 81       	ld	r24, Z
    185e:	82 30       	cpi	r24, 0x02	; 2
    1860:	09 f4       	brne	.+2      	; 0x1864 <get_cluster+0x52>
    1862:	4f c0       	rjmp	.+158    	; 0x1902 <get_cluster+0xf0>
    1864:	83 30       	cpi	r24, 0x03	; 3
    1866:	09 f4       	brne	.+2      	; 0x186a <get_cluster+0x58>
    1868:	6a c0       	rjmp	.+212    	; 0x193e <get_cluster+0x12c>
    186a:	81 30       	cpi	r24, 0x01	; 1
    186c:	09 f0       	breq	.+2      	; 0x1870 <get_cluster+0x5e>
    186e:	a9 c0       	rjmp	.+338    	; 0x19c2 <get_cluster+0x1b0>
	case FS_FAT12 :
		bc = (WORD)clst * 3 / 2;
    1870:	ea 01       	movw	r28, r20
    1872:	cc 0f       	add	r28, r28
    1874:	dd 1f       	adc	r29, r29
    1876:	ce 0d       	add	r28, r14
    1878:	df 1d       	adc	r29, r15
    187a:	d6 95       	lsr	r29
    187c:	c7 95       	ror	r28
		if (move_window(fs, fsect + (bc / SS(fs)))) break;
    187e:	ae 01       	movw	r20, r28
    1880:	45 2f       	mov	r20, r21
    1882:	55 27       	eor	r21, r21
    1884:	46 95       	lsr	r20
    1886:	60 e0       	ldi	r22, 0x00	; 0
    1888:	70 e0       	ldi	r23, 0x00	; 0
    188a:	4a 0d       	add	r20, r10
    188c:	5b 1d       	adc	r21, r11
    188e:	6c 1d       	adc	r22, r12
    1890:	7d 1d       	adc	r23, r13
    1892:	c4 01       	movw	r24, r8
    1894:	0e 94 90 0b 	call	0x1720	; 0x1720 <move_window>
    1898:	88 23       	and	r24, r24
    189a:	09 f0       	breq	.+2      	; 0x189e <get_cluster+0x8c>
    189c:	92 c0       	rjmp	.+292    	; 0x19c2 <get_cluster+0x1b0>
		wc = fs->win[bc & (SS(fs) - 1)]; bc++;
    189e:	fe 01       	movw	r30, r28
    18a0:	f1 70       	andi	r31, 0x01	; 1
    18a2:	e8 0d       	add	r30, r8
    18a4:	f9 1d       	adc	r31, r9
    18a6:	70 a8       	ldd	r7, Z+48	; 0x30
    18a8:	21 96       	adiw	r28, 0x01	; 1
		if (move_window(fs, fsect + (bc / SS(fs)))) break;
    18aa:	ae 01       	movw	r20, r28
    18ac:	45 2f       	mov	r20, r21
    18ae:	55 27       	eor	r21, r21
    18b0:	46 95       	lsr	r20
    18b2:	60 e0       	ldi	r22, 0x00	; 0
    18b4:	70 e0       	ldi	r23, 0x00	; 0
    18b6:	4a 0d       	add	r20, r10
    18b8:	5b 1d       	adc	r21, r11
    18ba:	6c 1d       	adc	r22, r12
    18bc:	7d 1d       	adc	r23, r13
    18be:	c4 01       	movw	r24, r8
    18c0:	0e 94 90 0b 	call	0x1720	; 0x1720 <move_window>
    18c4:	88 23       	and	r24, r24
    18c6:	09 f0       	breq	.+2      	; 0x18ca <get_cluster+0xb8>
    18c8:	7c c0       	rjmp	.+248    	; 0x19c2 <get_cluster+0x1b0>
	fsect = fs->fatbase;
	switch (fs->fs_type) {
	case FS_FAT12 :
		bc = (WORD)clst * 3 / 2;
		if (move_window(fs, fsect + (bc / SS(fs)))) break;
		wc = fs->win[bc & (SS(fs) - 1)]; bc++;
    18ca:	67 2d       	mov	r22, r7
    18cc:	70 e0       	ldi	r23, 0x00	; 0
		if (move_window(fs, fsect + (bc / SS(fs)))) break;
		wc |= (WORD)fs->win[bc & (SS(fs) - 1)] << 8;
    18ce:	d1 70       	andi	r29, 0x01	; 1
    18d0:	c8 0d       	add	r28, r8
    18d2:	d9 1d       	adc	r29, r9
    18d4:	98 a9       	ldd	r25, Y+48	; 0x30
    18d6:	80 e0       	ldi	r24, 0x00	; 0
    18d8:	68 2b       	or	r22, r24
    18da:	79 2b       	or	r23, r25
		return (clst & 1) ? (wc >> 4) : (wc & 0xFFF);
    18dc:	c7 01       	movw	r24, r14
    18de:	81 70       	andi	r24, 0x01	; 1
    18e0:	90 70       	andi	r25, 0x00	; 0
    18e2:	89 2b       	or	r24, r25
    18e4:	39 f0       	breq	.+14     	; 0x18f4 <get_cluster+0xe2>
    18e6:	94 e0       	ldi	r25, 0x04	; 4
    18e8:	76 95       	lsr	r23
    18ea:	67 95       	ror	r22
    18ec:	9a 95       	dec	r25
    18ee:	e1 f7       	brne	.-8      	; 0x18e8 <get_cluster+0xd6>
    18f0:	9b 01       	movw	r18, r22
    18f2:	22 c0       	rjmp	.+68     	; 0x1938 <get_cluster+0x126>
    18f4:	9b 01       	movw	r18, r22
    18f6:	40 e0       	ldi	r20, 0x00	; 0
    18f8:	50 e0       	ldi	r21, 0x00	; 0
    18fa:	3f 70       	andi	r19, 0x0F	; 15
    18fc:	40 70       	andi	r20, 0x00	; 0
    18fe:	50 70       	andi	r21, 0x00	; 0
    1900:	64 c0       	rjmp	.+200    	; 0x19ca <get_cluster+0x1b8>

	case FS_FAT16 :
		if (move_window(fs, fsect + (clst / (SS(fs) / 2)))) break;
    1902:	45 2f       	mov	r20, r21
    1904:	56 2f       	mov	r21, r22
    1906:	67 2f       	mov	r22, r23
    1908:	77 27       	eor	r23, r23
    190a:	4a 0d       	add	r20, r10
    190c:	5b 1d       	adc	r21, r11
    190e:	6c 1d       	adc	r22, r12
    1910:	7d 1d       	adc	r23, r13
    1912:	c4 01       	movw	r24, r8
    1914:	0e 94 90 0b 	call	0x1720	; 0x1720 <move_window>
    1918:	88 23       	and	r24, r24
    191a:	09 f0       	breq	.+2      	; 0x191e <get_cluster+0x10c>
    191c:	52 c0       	rjmp	.+164    	; 0x19c2 <get_cluster+0x1b0>
		return LD_WORD(&fs->win[((WORD)clst * 2) & (SS(fs) - 1)]);
    191e:	f7 01       	movw	r30, r14
    1920:	ee 0f       	add	r30, r30
    1922:	ff 1f       	adc	r31, r31
    1924:	f1 70       	andi	r31, 0x01	; 1
    1926:	e8 0d       	add	r30, r8
    1928:	f9 1d       	adc	r31, r9
    192a:	91 a9       	ldd	r25, Z+49	; 0x31
    192c:	80 e0       	ldi	r24, 0x00	; 0
    192e:	20 a9       	ldd	r18, Z+48	; 0x30
    1930:	30 e0       	ldi	r19, 0x00	; 0
    1932:	82 2b       	or	r24, r18
    1934:	93 2b       	or	r25, r19
    1936:	9c 01       	movw	r18, r24
    1938:	40 e0       	ldi	r20, 0x00	; 0
    193a:	50 e0       	ldi	r21, 0x00	; 0
    193c:	46 c0       	rjmp	.+140    	; 0x19ca <get_cluster+0x1b8>

	case FS_FAT32 :
		if (move_window(fs, fsect + (clst / (SS(fs) / 4)))) break;
    193e:	b7 e0       	ldi	r27, 0x07	; 7
    1940:	76 95       	lsr	r23
    1942:	67 95       	ror	r22
    1944:	57 95       	ror	r21
    1946:	47 95       	ror	r20
    1948:	ba 95       	dec	r27
    194a:	d1 f7       	brne	.-12     	; 0x1940 <get_cluster+0x12e>
    194c:	4a 0d       	add	r20, r10
    194e:	5b 1d       	adc	r21, r11
    1950:	6c 1d       	adc	r22, r12
    1952:	7d 1d       	adc	r23, r13
    1954:	c4 01       	movw	r24, r8
    1956:	0e 94 90 0b 	call	0x1720	; 0x1720 <move_window>
    195a:	88 23       	and	r24, r24
    195c:	91 f5       	brne	.+100    	; 0x19c2 <get_cluster+0x1b0>
		return LD_DWORD(&fs->win[((WORD)clst * 4) & (SS(fs) - 1)]) & 0x0FFFFFFF;
    195e:	f7 01       	movw	r30, r14
    1960:	ee 0f       	add	r30, r30
    1962:	ff 1f       	adc	r31, r31
    1964:	ee 0f       	add	r30, r30
    1966:	ff 1f       	adc	r31, r31
    1968:	f1 70       	andi	r31, 0x01	; 1
    196a:	e8 0d       	add	r30, r8
    196c:	f9 1d       	adc	r31, r9
    196e:	83 a9       	ldd	r24, Z+51	; 0x33
    1970:	90 e0       	ldi	r25, 0x00	; 0
    1972:	a0 e0       	ldi	r26, 0x00	; 0
    1974:	b0 e0       	ldi	r27, 0x00	; 0
    1976:	58 2f       	mov	r21, r24
    1978:	44 27       	eor	r20, r20
    197a:	33 27       	eor	r19, r19
    197c:	22 27       	eor	r18, r18
    197e:	82 a9       	ldd	r24, Z+50	; 0x32
    1980:	90 e0       	ldi	r25, 0x00	; 0
    1982:	a0 e0       	ldi	r26, 0x00	; 0
    1984:	b0 e0       	ldi	r27, 0x00	; 0
    1986:	dc 01       	movw	r26, r24
    1988:	99 27       	eor	r25, r25
    198a:	88 27       	eor	r24, r24
    198c:	28 2b       	or	r18, r24
    198e:	39 2b       	or	r19, r25
    1990:	4a 2b       	or	r20, r26
    1992:	5b 2b       	or	r21, r27
    1994:	80 a9       	ldd	r24, Z+48	; 0x30
    1996:	90 e0       	ldi	r25, 0x00	; 0
    1998:	a0 e0       	ldi	r26, 0x00	; 0
    199a:	b0 e0       	ldi	r27, 0x00	; 0
    199c:	28 2b       	or	r18, r24
    199e:	39 2b       	or	r19, r25
    19a0:	4a 2b       	or	r20, r26
    19a2:	5b 2b       	or	r21, r27
    19a4:	91 a9       	ldd	r25, Z+49	; 0x31
    19a6:	80 e0       	ldi	r24, 0x00	; 0
    19a8:	a0 e0       	ldi	r26, 0x00	; 0
    19aa:	b0 e0       	ldi	r27, 0x00	; 0
    19ac:	28 2b       	or	r18, r24
    19ae:	39 2b       	or	r19, r25
    19b0:	4a 2b       	or	r20, r26
    19b2:	5b 2b       	or	r21, r27
    19b4:	5f 70       	andi	r21, 0x0F	; 15
    19b6:	09 c0       	rjmp	.+18     	; 0x19ca <get_cluster+0x1b8>
    19b8:	21 e0       	ldi	r18, 0x01	; 1
    19ba:	30 e0       	ldi	r19, 0x00	; 0
    19bc:	40 e0       	ldi	r20, 0x00	; 0
    19be:	50 e0       	ldi	r21, 0x00	; 0
    19c0:	04 c0       	rjmp	.+8      	; 0x19ca <get_cluster+0x1b8>
    19c2:	2f ef       	ldi	r18, 0xFF	; 255
    19c4:	3f ef       	ldi	r19, 0xFF	; 255
    19c6:	4f ef       	ldi	r20, 0xFF	; 255
    19c8:	5f ef       	ldi	r21, 0xFF	; 255
	}

	return 0xFFFFFFFF;	/* An error occured at the disk I/O layer */
}
    19ca:	b9 01       	movw	r22, r18
    19cc:	ca 01       	movw	r24, r20
    19ce:	df 91       	pop	r29
    19d0:	cf 91       	pop	r28
    19d2:	1f 91       	pop	r17
    19d4:	0f 91       	pop	r16
    19d6:	ff 90       	pop	r15
    19d8:	ef 90       	pop	r14
    19da:	df 90       	pop	r13
    19dc:	cf 90       	pop	r12
    19de:	bf 90       	pop	r11
    19e0:	af 90       	pop	r10
    19e2:	9f 90       	pop	r9
    19e4:	8f 90       	pop	r8
    19e6:	7f 90       	pop	r7
    19e8:	08 95       	ret

000019ea <dir_seek>:
static
FRESULT dir_seek (
	DIR *dj,		/* Pointer to directory object */
	WORD idx		/* Directory index number */
)
{
    19ea:	af 92       	push	r10
    19ec:	bf 92       	push	r11
    19ee:	cf 92       	push	r12
    19f0:	df 92       	push	r13
    19f2:	ef 92       	push	r14
    19f4:	ff 92       	push	r15
    19f6:	0f 93       	push	r16
    19f8:	1f 93       	push	r17
    19fa:	cf 93       	push	r28
    19fc:	df 93       	push	r29
    19fe:	5c 01       	movw	r10, r24
    1a00:	eb 01       	movw	r28, r22
	DWORD clst;
	WORD ic;


	dj->index = idx;
    1a02:	dc 01       	movw	r26, r24
    1a04:	13 96       	adiw	r26, 0x03	; 3
    1a06:	7c 93       	st	X, r23
    1a08:	6e 93       	st	-X, r22
    1a0a:	12 97       	sbiw	r26, 0x02	; 2
	clst = dj->sclust;
    1a0c:	16 96       	adiw	r26, 0x06	; 6
    1a0e:	4d 91       	ld	r20, X+
    1a10:	5d 91       	ld	r21, X+
    1a12:	6d 91       	ld	r22, X+
    1a14:	7c 91       	ld	r23, X
    1a16:	19 97       	sbiw	r26, 0x09	; 9
	if (clst == 1 || clst >= dj->fs->max_clust)	/* Check start cluster range */
    1a18:	41 30       	cpi	r20, 0x01	; 1
    1a1a:	51 05       	cpc	r21, r1
    1a1c:	61 05       	cpc	r22, r1
    1a1e:	71 05       	cpc	r23, r1
    1a20:	09 f4       	brne	.+2      	; 0x1a24 <dir_seek+0x3a>
    1a22:	c2 c0       	rjmp	.+388    	; 0x1ba8 <dir_seek+0x1be>
    1a24:	14 96       	adiw	r26, 0x04	; 4
    1a26:	ed 91       	ld	r30, X+
    1a28:	fc 91       	ld	r31, X
    1a2a:	15 97       	sbiw	r26, 0x05	; 5
    1a2c:	84 8d       	ldd	r24, Z+28	; 0x1c
    1a2e:	95 8d       	ldd	r25, Z+29	; 0x1d
    1a30:	a6 8d       	ldd	r26, Z+30	; 0x1e
    1a32:	b7 8d       	ldd	r27, Z+31	; 0x1f
    1a34:	48 17       	cp	r20, r24
    1a36:	59 07       	cpc	r21, r25
    1a38:	6a 07       	cpc	r22, r26
    1a3a:	7b 07       	cpc	r23, r27
    1a3c:	08 f0       	brcs	.+2      	; 0x1a40 <dir_seek+0x56>
    1a3e:	b4 c0       	rjmp	.+360    	; 0x1ba8 <dir_seek+0x1be>
		return FR_INT_ERR;

	if (clst == 0) {	/* Static table */
    1a40:	41 15       	cp	r20, r1
    1a42:	51 05       	cpc	r21, r1
    1a44:	61 05       	cpc	r22, r1
    1a46:	71 05       	cpc	r23, r1
    1a48:	e1 f4       	brne	.+56     	; 0x1a82 <dir_seek+0x98>
		if (idx >= dj->fs->n_rootdir)		/* Index is out of range */
    1a4a:	80 85       	ldd	r24, Z+8	; 0x08
    1a4c:	91 85       	ldd	r25, Z+9	; 0x09
    1a4e:	c8 17       	cp	r28, r24
    1a50:	d9 07       	cpc	r29, r25
    1a52:	08 f0       	brcs	.+2      	; 0x1a56 <dir_seek+0x6c>
    1a54:	a9 c0       	rjmp	.+338    	; 0x1ba8 <dir_seek+0x1be>
			return FR_INT_ERR;
		dj->sect = dj->fs->dirbase + idx / (SS(dj->fs) / 32);
    1a56:	ce 01       	movw	r24, r28
    1a58:	a4 e0       	ldi	r26, 0x04	; 4
    1a5a:	96 95       	lsr	r25
    1a5c:	87 95       	ror	r24
    1a5e:	aa 95       	dec	r26
    1a60:	e1 f7       	brne	.-8      	; 0x1a5a <dir_seek+0x70>
    1a62:	a0 e0       	ldi	r26, 0x00	; 0
    1a64:	b0 e0       	ldi	r27, 0x00	; 0
    1a66:	24 a1       	ldd	r18, Z+36	; 0x24
    1a68:	35 a1       	ldd	r19, Z+37	; 0x25
    1a6a:	46 a1       	ldd	r20, Z+38	; 0x26
    1a6c:	57 a1       	ldd	r21, Z+39	; 0x27
    1a6e:	82 0f       	add	r24, r18
    1a70:	93 1f       	adc	r25, r19
    1a72:	a4 1f       	adc	r26, r20
    1a74:	b5 1f       	adc	r27, r21
    1a76:	f5 01       	movw	r30, r10
    1a78:	86 87       	std	Z+14, r24	; 0x0e
    1a7a:	97 87       	std	Z+15, r25	; 0x0f
    1a7c:	a0 8b       	std	Z+16, r26	; 0x10
    1a7e:	b1 8b       	std	Z+17, r27	; 0x11
    1a80:	82 c0       	rjmp	.+260    	; 0x1b86 <dir_seek+0x19c>
	}
	else {				/* Dynamic table */
		ic = SS(dj->fs) / 32 * dj->fs->csize;	/* Indexes per cluster */
    1a82:	82 81       	ldd	r24, Z+2	; 0x02
    1a84:	08 2f       	mov	r16, r24
    1a86:	10 e0       	ldi	r17, 0x00	; 0
    1a88:	f4 e0       	ldi	r31, 0x04	; 4
    1a8a:	00 0f       	add	r16, r16
    1a8c:	11 1f       	adc	r17, r17
    1a8e:	fa 95       	dec	r31
    1a90:	e1 f7       	brne	.-8      	; 0x1a8a <dir_seek+0xa0>
    1a92:	26 c0       	rjmp	.+76     	; 0x1ae0 <dir_seek+0xf6>
		while (idx >= ic) {	/* Follow cluster chain */
			clst = get_cluster(dj->fs, clst);			/* Get next cluster */
    1a94:	c6 01       	movw	r24, r12
    1a96:	0e 94 09 0c 	call	0x1812	; 0x1812 <get_cluster>
    1a9a:	ab 01       	movw	r20, r22
    1a9c:	bc 01       	movw	r22, r24
			if (clst == 0xFFFFFFFF) return FR_DISK_ERR;	/* Disk error */
    1a9e:	4f 3f       	cpi	r20, 0xFF	; 255
    1aa0:	ff ef       	ldi	r31, 0xFF	; 255
    1aa2:	5f 07       	cpc	r21, r31
    1aa4:	ff ef       	ldi	r31, 0xFF	; 255
    1aa6:	6f 07       	cpc	r22, r31
    1aa8:	ff ef       	ldi	r31, 0xFF	; 255
    1aaa:	7f 07       	cpc	r23, r31
    1aac:	11 f4       	brne	.+4      	; 0x1ab2 <dir_seek+0xc8>
    1aae:	81 e0       	ldi	r24, 0x01	; 1
    1ab0:	7c c0       	rjmp	.+248    	; 0x1baa <dir_seek+0x1c0>
			if (clst < 2 || clst >= dj->fs->max_clust)	/* Reached to end of table or int error */
    1ab2:	42 30       	cpi	r20, 0x02	; 2
    1ab4:	51 05       	cpc	r21, r1
    1ab6:	61 05       	cpc	r22, r1
    1ab8:	71 05       	cpc	r23, r1
    1aba:	08 f4       	brcc	.+2      	; 0x1abe <dir_seek+0xd4>
    1abc:	75 c0       	rjmp	.+234    	; 0x1ba8 <dir_seek+0x1be>
    1abe:	d5 01       	movw	r26, r10
    1ac0:	14 96       	adiw	r26, 0x04	; 4
    1ac2:	ed 91       	ld	r30, X+
    1ac4:	fc 91       	ld	r31, X
    1ac6:	15 97       	sbiw	r26, 0x05	; 5
    1ac8:	84 8d       	ldd	r24, Z+28	; 0x1c
    1aca:	95 8d       	ldd	r25, Z+29	; 0x1d
    1acc:	a6 8d       	ldd	r26, Z+30	; 0x1e
    1ace:	b7 8d       	ldd	r27, Z+31	; 0x1f
    1ad0:	48 17       	cp	r20, r24
    1ad2:	59 07       	cpc	r21, r25
    1ad4:	6a 07       	cpc	r22, r26
    1ad6:	7b 07       	cpc	r23, r27
    1ad8:	08 f0       	brcs	.+2      	; 0x1adc <dir_seek+0xf2>
    1ada:	66 c0       	rjmp	.+204    	; 0x1ba8 <dir_seek+0x1be>
				return FR_INT_ERR;
			idx -= ic;
    1adc:	c0 1b       	sub	r28, r16
    1ade:	d1 0b       	sbc	r29, r17
    1ae0:	f5 01       	movw	r30, r10
    1ae2:	c4 80       	ldd	r12, Z+4	; 0x04
    1ae4:	d5 80       	ldd	r13, Z+5	; 0x05
			return FR_INT_ERR;
		dj->sect = dj->fs->dirbase + idx / (SS(dj->fs) / 32);
	}
	else {				/* Dynamic table */
		ic = SS(dj->fs) / 32 * dj->fs->csize;	/* Indexes per cluster */
		while (idx >= ic) {	/* Follow cluster chain */
    1ae6:	c0 17       	cp	r28, r16
    1ae8:	d1 07       	cpc	r29, r17
    1aea:	a0 f6       	brcc	.-88     	; 0x1a94 <dir_seek+0xaa>
			if (clst == 0xFFFFFFFF) return FR_DISK_ERR;	/* Disk error */
			if (clst < 2 || clst >= dj->fs->max_clust)	/* Reached to end of table or int error */
				return FR_INT_ERR;
			idx -= ic;
		}
		dj->clust = clst;
    1aec:	d5 01       	movw	r26, r10
    1aee:	1a 96       	adiw	r26, 0x0a	; 10
    1af0:	4d 93       	st	X+, r20
    1af2:	5d 93       	st	X+, r21
    1af4:	6d 93       	st	X+, r22
    1af6:	7c 93       	st	X, r23
    1af8:	1d 97       	sbiw	r26, 0x0d	; 13
DWORD clust2sect (	/* !=0: sector number, 0: failed - invalid cluster# */
	FATFS *fs,		/* File system object */
	DWORD clst		/* Cluster# to be converted */
)
{
	clst -= 2;
    1afa:	ee ef       	ldi	r30, 0xFE	; 254
    1afc:	ee 2e       	mov	r14, r30
    1afe:	ef ef       	ldi	r30, 0xFF	; 255
    1b00:	fe 2e       	mov	r15, r30
    1b02:	ef ef       	ldi	r30, 0xFF	; 255
    1b04:	0e 2f       	mov	r16, r30
    1b06:	ef ef       	ldi	r30, 0xFF	; 255
    1b08:	1e 2f       	mov	r17, r30
    1b0a:	e4 0e       	add	r14, r20
    1b0c:	f5 1e       	adc	r15, r21
    1b0e:	06 1f       	adc	r16, r22
    1b10:	17 1f       	adc	r17, r23
	if (clst >= (fs->max_clust - 2)) return 0;		/* Invalid cluster# */
    1b12:	f6 01       	movw	r30, r12
    1b14:	84 8d       	ldd	r24, Z+28	; 0x1c
    1b16:	95 8d       	ldd	r25, Z+29	; 0x1d
    1b18:	a6 8d       	ldd	r26, Z+30	; 0x1e
    1b1a:	b7 8d       	ldd	r27, Z+31	; 0x1f
    1b1c:	02 97       	sbiw	r24, 0x02	; 2
    1b1e:	a1 09       	sbc	r26, r1
    1b20:	b1 09       	sbc	r27, r1
    1b22:	e8 16       	cp	r14, r24
    1b24:	f9 06       	cpc	r15, r25
    1b26:	0a 07       	cpc	r16, r26
    1b28:	1b 07       	cpc	r17, r27
    1b2a:	28 f0       	brcs	.+10     	; 0x1b36 <dir_seek+0x14c>
    1b2c:	20 e0       	ldi	r18, 0x00	; 0
    1b2e:	30 e0       	ldi	r19, 0x00	; 0
    1b30:	40 e0       	ldi	r20, 0x00	; 0
    1b32:	50 e0       	ldi	r21, 0x00	; 0
    1b34:	15 c0       	rjmp	.+42     	; 0x1b60 <dir_seek+0x176>
	return clst * fs->csize + fs->database;
    1b36:	d6 01       	movw	r26, r12
    1b38:	12 96       	adiw	r26, 0x02	; 2
    1b3a:	2c 91       	ld	r18, X
    1b3c:	30 e0       	ldi	r19, 0x00	; 0
    1b3e:	40 e0       	ldi	r20, 0x00	; 0
    1b40:	50 e0       	ldi	r21, 0x00	; 0
    1b42:	c8 01       	movw	r24, r16
    1b44:	b7 01       	movw	r22, r14
    1b46:	0e 94 2e 28 	call	0x505c	; 0x505c <__mulsi3>
    1b4a:	9b 01       	movw	r18, r22
    1b4c:	ac 01       	movw	r20, r24
    1b4e:	f6 01       	movw	r30, r12
    1b50:	80 a5       	ldd	r24, Z+40	; 0x28
    1b52:	91 a5       	ldd	r25, Z+41	; 0x29
    1b54:	a2 a5       	ldd	r26, Z+42	; 0x2a
    1b56:	b3 a5       	ldd	r27, Z+43	; 0x2b
    1b58:	28 0f       	add	r18, r24
    1b5a:	39 1f       	adc	r19, r25
    1b5c:	4a 1f       	adc	r20, r26
    1b5e:	5b 1f       	adc	r21, r27
			if (clst < 2 || clst >= dj->fs->max_clust)	/* Reached to end of table or int error */
				return FR_INT_ERR;
			idx -= ic;
		}
		dj->clust = clst;
		dj->sect = clust2sect(dj->fs, clst) + idx / (SS(dj->fs) / 32);
    1b60:	ce 01       	movw	r24, r28
    1b62:	74 e0       	ldi	r23, 0x04	; 4
    1b64:	96 95       	lsr	r25
    1b66:	87 95       	ror	r24
    1b68:	7a 95       	dec	r23
    1b6a:	e1 f7       	brne	.-8      	; 0x1b64 <dir_seek+0x17a>
    1b6c:	a0 e0       	ldi	r26, 0x00	; 0
    1b6e:	b0 e0       	ldi	r27, 0x00	; 0
    1b70:	28 0f       	add	r18, r24
    1b72:	39 1f       	adc	r19, r25
    1b74:	4a 1f       	adc	r20, r26
    1b76:	5b 1f       	adc	r21, r27
    1b78:	d5 01       	movw	r26, r10
    1b7a:	1e 96       	adiw	r26, 0x0e	; 14
    1b7c:	2d 93       	st	X+, r18
    1b7e:	3d 93       	st	X+, r19
    1b80:	4d 93       	st	X+, r20
    1b82:	5c 93       	st	X, r21
    1b84:	51 97       	sbiw	r26, 0x11	; 17
	}
	dj->dir = dj->fs->win + (idx % (SS(dj->fs) / 32)) * 32;
    1b86:	cf 70       	andi	r28, 0x0F	; 15
    1b88:	d0 70       	andi	r29, 0x00	; 0
    1b8a:	65 e0       	ldi	r22, 0x05	; 5
    1b8c:	cc 0f       	add	r28, r28
    1b8e:	dd 1f       	adc	r29, r29
    1b90:	6a 95       	dec	r22
    1b92:	e1 f7       	brne	.-8      	; 0x1b8c <dir_seek+0x1a2>
    1b94:	e0 96       	adiw	r28, 0x30	; 48
    1b96:	f5 01       	movw	r30, r10
    1b98:	84 81       	ldd	r24, Z+4	; 0x04
    1b9a:	95 81       	ldd	r25, Z+5	; 0x05
    1b9c:	8c 0f       	add	r24, r28
    1b9e:	9d 1f       	adc	r25, r29
    1ba0:	93 8b       	std	Z+19, r25	; 0x13
    1ba2:	82 8b       	std	Z+18, r24	; 0x12
    1ba4:	80 e0       	ldi	r24, 0x00	; 0
    1ba6:	01 c0       	rjmp	.+2      	; 0x1baa <dir_seek+0x1c0>

	return FR_OK;	/* Seek succeeded */
    1ba8:	82 e0       	ldi	r24, 0x02	; 2
}
    1baa:	df 91       	pop	r29
    1bac:	cf 91       	pop	r28
    1bae:	1f 91       	pop	r17
    1bb0:	0f 91       	pop	r16
    1bb2:	ff 90       	pop	r15
    1bb4:	ef 90       	pop	r14
    1bb6:	df 90       	pop	r13
    1bb8:	cf 90       	pop	r12
    1bba:	bf 90       	pop	r11
    1bbc:	af 90       	pop	r10
    1bbe:	08 95       	ret

00001bc0 <put_cluster>:
FRESULT put_cluster (
	FATFS *fs,		/* File system object */
	DWORD clst,		/* Cluster# to be changed (must be 2 to fs->max_clust-1) */
	DWORD val		/* New value to mark the cluster */
)
{
    1bc0:	2f 92       	push	r2
    1bc2:	3f 92       	push	r3
    1bc4:	4f 92       	push	r4
    1bc6:	5f 92       	push	r5
    1bc8:	6f 92       	push	r6
    1bca:	7f 92       	push	r7
    1bcc:	8f 92       	push	r8
    1bce:	9f 92       	push	r9
    1bd0:	af 92       	push	r10
    1bd2:	bf 92       	push	r11
    1bd4:	cf 92       	push	r12
    1bd6:	df 92       	push	r13
    1bd8:	ef 92       	push	r14
    1bda:	ff 92       	push	r15
    1bdc:	0f 93       	push	r16
    1bde:	1f 93       	push	r17
    1be0:	cf 93       	push	r28
    1be2:	df 93       	push	r29
    1be4:	3c 01       	movw	r6, r24
    1be6:	6a 01       	movw	r12, r20
    1be8:	7b 01       	movw	r14, r22
    1bea:	48 01       	movw	r8, r16
    1bec:	59 01       	movw	r10, r18
	BYTE *p;
	DWORD fsect;
	FRESULT res;


	if (clst < 2 || clst >= fs->max_clust) {	/* Check cluster address range */
    1bee:	42 30       	cpi	r20, 0x02	; 2
    1bf0:	51 05       	cpc	r21, r1
    1bf2:	61 05       	cpc	r22, r1
    1bf4:	71 05       	cpc	r23, r1
    1bf6:	08 f4       	brcc	.+2      	; 0x1bfa <put_cluster+0x3a>
    1bf8:	bc c0       	rjmp	.+376    	; 0x1d72 <put_cluster+0x1b2>
    1bfa:	f3 01       	movw	r30, r6
    1bfc:	84 8d       	ldd	r24, Z+28	; 0x1c
    1bfe:	95 8d       	ldd	r25, Z+29	; 0x1d
    1c00:	a6 8d       	ldd	r26, Z+30	; 0x1e
    1c02:	b7 8d       	ldd	r27, Z+31	; 0x1f
    1c04:	48 17       	cp	r20, r24
    1c06:	59 07       	cpc	r21, r25
    1c08:	6a 07       	cpc	r22, r26
    1c0a:	7b 07       	cpc	r23, r27
    1c0c:	08 f0       	brcs	.+2      	; 0x1c10 <put_cluster+0x50>
    1c0e:	b1 c0       	rjmp	.+354    	; 0x1d72 <put_cluster+0x1b2>
		res = FR_INT_ERR;

	} else {
		fsect = fs->fatbase;
    1c10:	20 a0       	ldd	r2, Z+32	; 0x20
    1c12:	31 a0       	ldd	r3, Z+33	; 0x21
    1c14:	42 a0       	ldd	r4, Z+34	; 0x22
    1c16:	53 a0       	ldd	r5, Z+35	; 0x23
		switch (fs->fs_type) {
    1c18:	80 81       	ld	r24, Z
    1c1a:	82 30       	cpi	r24, 0x02	; 2
    1c1c:	09 f4       	brne	.+2      	; 0x1c20 <put_cluster+0x60>
    1c1e:	66 c0       	rjmp	.+204    	; 0x1cec <put_cluster+0x12c>
    1c20:	83 30       	cpi	r24, 0x03	; 3
    1c22:	09 f4       	brne	.+2      	; 0x1c26 <put_cluster+0x66>
    1c24:	7c c0       	rjmp	.+248    	; 0x1d1e <put_cluster+0x15e>
    1c26:	81 30       	cpi	r24, 0x01	; 1
    1c28:	11 f0       	breq	.+4      	; 0x1c2e <put_cluster+0x6e>
    1c2a:	22 e0       	ldi	r18, 0x02	; 2
    1c2c:	9e c0       	rjmp	.+316    	; 0x1d6a <put_cluster+0x1aa>
		case FS_FAT12 :
			bc = (WORD)clst * 3 / 2;
    1c2e:	ea 01       	movw	r28, r20
    1c30:	cc 0f       	add	r28, r28
    1c32:	dd 1f       	adc	r29, r29
    1c34:	c4 0f       	add	r28, r20
    1c36:	d5 1f       	adc	r29, r21
    1c38:	d6 95       	lsr	r29
    1c3a:	c7 95       	ror	r28
			res = move_window(fs, fsect + (bc / SS(fs)));
    1c3c:	ae 01       	movw	r20, r28
    1c3e:	45 2f       	mov	r20, r21
    1c40:	55 27       	eor	r21, r21
    1c42:	46 95       	lsr	r20
    1c44:	60 e0       	ldi	r22, 0x00	; 0
    1c46:	70 e0       	ldi	r23, 0x00	; 0
    1c48:	42 0d       	add	r20, r2
    1c4a:	53 1d       	adc	r21, r3
    1c4c:	64 1d       	adc	r22, r4
    1c4e:	75 1d       	adc	r23, r5
    1c50:	c3 01       	movw	r24, r6
    1c52:	0e 94 90 0b 	call	0x1720	; 0x1720 <move_window>
    1c56:	28 2f       	mov	r18, r24
			if (res != FR_OK) break;
    1c58:	88 23       	and	r24, r24
    1c5a:	09 f0       	breq	.+2      	; 0x1c5e <put_cluster+0x9e>
    1c5c:	86 c0       	rjmp	.+268    	; 0x1d6a <put_cluster+0x1aa>
			p = &fs->win[bc & (SS(fs) - 1)];
    1c5e:	de 01       	movw	r26, r28
    1c60:	b1 70       	andi	r27, 0x01	; 1
			*p = (clst & 1) ? ((*p & 0x0F) | ((BYTE)val << 4)) : (BYTE)val;
    1c62:	86 01       	movw	r16, r12
    1c64:	01 70       	andi	r16, 0x01	; 1
    1c66:	10 70       	andi	r17, 0x00	; 0
    1c68:	01 15       	cp	r16, r1
    1c6a:	11 05       	cpc	r17, r1
    1c6c:	51 f0       	breq	.+20     	; 0x1c82 <put_cluster+0xc2>
    1c6e:	f3 01       	movw	r30, r6
    1c70:	ea 0f       	add	r30, r26
    1c72:	fb 1f       	adc	r31, r27
    1c74:	80 a9       	ldd	r24, Z+48	; 0x30
    1c76:	8f 70       	andi	r24, 0x0F	; 15
    1c78:	98 2d       	mov	r25, r8
    1c7a:	92 95       	swap	r25
    1c7c:	90 7f       	andi	r25, 0xF0	; 240
    1c7e:	98 2b       	or	r25, r24
    1c80:	01 c0       	rjmp	.+2      	; 0x1c84 <put_cluster+0xc4>
    1c82:	98 2d       	mov	r25, r8
    1c84:	a6 0d       	add	r26, r6
    1c86:	b7 1d       	adc	r27, r7
    1c88:	d0 96       	adiw	r26, 0x30	; 48
    1c8a:	9c 93       	st	X, r25
			bc++;
    1c8c:	21 96       	adiw	r28, 0x01	; 1
			fs->wflag = 1;
    1c8e:	81 e0       	ldi	r24, 0x01	; 1
    1c90:	f3 01       	movw	r30, r6
    1c92:	84 83       	std	Z+4, r24	; 0x04
			res = move_window(fs, fsect + (bc / SS(fs)));
    1c94:	ae 01       	movw	r20, r28
    1c96:	45 2f       	mov	r20, r21
    1c98:	55 27       	eor	r21, r21
    1c9a:	46 95       	lsr	r20
    1c9c:	60 e0       	ldi	r22, 0x00	; 0
    1c9e:	70 e0       	ldi	r23, 0x00	; 0
    1ca0:	42 0d       	add	r20, r2
    1ca2:	53 1d       	adc	r21, r3
    1ca4:	64 1d       	adc	r22, r4
    1ca6:	75 1d       	adc	r23, r5
    1ca8:	c3 01       	movw	r24, r6
    1caa:	0e 94 90 0b 	call	0x1720	; 0x1720 <move_window>
    1cae:	28 2f       	mov	r18, r24
			if (res != FR_OK) break;
    1cb0:	88 23       	and	r24, r24
    1cb2:	09 f0       	breq	.+2      	; 0x1cb6 <put_cluster+0xf6>
    1cb4:	5a c0       	rjmp	.+180    	; 0x1d6a <put_cluster+0x1aa>
			p = &fs->win[bc & (SS(fs) - 1)];
    1cb6:	d1 70       	andi	r29, 0x01	; 1
			*p = (clst & 1) ? (BYTE)(val >> 4) : ((*p & 0xF0) | ((BYTE)(val >> 8) & 0x0F));
    1cb8:	01 2b       	or	r16, r17
    1cba:	49 f0       	breq	.+18     	; 0x1cce <put_cluster+0x10e>
    1cbc:	74 e0       	ldi	r23, 0x04	; 4
    1cbe:	b6 94       	lsr	r11
    1cc0:	a7 94       	ror	r10
    1cc2:	97 94       	ror	r9
    1cc4:	87 94       	ror	r8
    1cc6:	7a 95       	dec	r23
    1cc8:	d1 f7       	brne	.-12     	; 0x1cbe <put_cluster+0xfe>
    1cca:	48 2d       	mov	r20, r8
    1ccc:	0b c0       	rjmp	.+22     	; 0x1ce4 <put_cluster+0x124>
    1cce:	f3 01       	movw	r30, r6
    1cd0:	ec 0f       	add	r30, r28
    1cd2:	fd 1f       	adc	r31, r29
    1cd4:	40 a9       	ldd	r20, Z+48	; 0x30
    1cd6:	40 7f       	andi	r20, 0xF0	; 240
    1cd8:	bb 27       	eor	r27, r27
    1cda:	ab 2d       	mov	r26, r11
    1cdc:	9a 2d       	mov	r25, r10
    1cde:	89 2d       	mov	r24, r9
    1ce0:	8f 70       	andi	r24, 0x0F	; 15
    1ce2:	48 2b       	or	r20, r24
    1ce4:	c6 0d       	add	r28, r6
    1ce6:	d7 1d       	adc	r29, r7
    1ce8:	48 ab       	std	Y+48, r20	; 0x30
    1cea:	3f c0       	rjmp	.+126    	; 0x1d6a <put_cluster+0x1aa>
			break;

		case FS_FAT16 :
			res = move_window(fs, fsect + (clst / (SS(fs) / 2)));
    1cec:	77 27       	eor	r23, r23
    1cee:	6f 2d       	mov	r22, r15
    1cf0:	5e 2d       	mov	r21, r14
    1cf2:	4d 2d       	mov	r20, r13
    1cf4:	42 0d       	add	r20, r2
    1cf6:	53 1d       	adc	r21, r3
    1cf8:	64 1d       	adc	r22, r4
    1cfa:	75 1d       	adc	r23, r5
    1cfc:	c3 01       	movw	r24, r6
    1cfe:	0e 94 90 0b 	call	0x1720	; 0x1720 <move_window>
    1d02:	28 2f       	mov	r18, r24
			if (res != FR_OK) break;
    1d04:	88 23       	and	r24, r24
    1d06:	89 f5       	brne	.+98     	; 0x1d6a <put_cluster+0x1aa>
			ST_WORD(&fs->win[((WORD)clst * 2) & (SS(fs) - 1)], (WORD)val);
    1d08:	f6 01       	movw	r30, r12
    1d0a:	ee 0f       	add	r30, r30
    1d0c:	ff 1f       	adc	r31, r31
    1d0e:	f1 70       	andi	r31, 0x01	; 1
    1d10:	e6 0d       	add	r30, r6
    1d12:	f7 1d       	adc	r31, r7
    1d14:	80 aa       	std	Z+48, r8	; 0x30
    1d16:	89 2d       	mov	r24, r9
    1d18:	99 27       	eor	r25, r25
    1d1a:	81 ab       	std	Z+49, r24	; 0x31
    1d1c:	26 c0       	rjmp	.+76     	; 0x1d6a <put_cluster+0x1aa>
			break;

		case FS_FAT32 :
			res = move_window(fs, fsect + (clst / (SS(fs) / 4)));
    1d1e:	97 e0       	ldi	r25, 0x07	; 7
    1d20:	76 95       	lsr	r23
    1d22:	67 95       	ror	r22
    1d24:	57 95       	ror	r21
    1d26:	47 95       	ror	r20
    1d28:	9a 95       	dec	r25
    1d2a:	d1 f7       	brne	.-12     	; 0x1d20 <put_cluster+0x160>
    1d2c:	42 0d       	add	r20, r2
    1d2e:	53 1d       	adc	r21, r3
    1d30:	64 1d       	adc	r22, r4
    1d32:	75 1d       	adc	r23, r5
    1d34:	c3 01       	movw	r24, r6
    1d36:	0e 94 90 0b 	call	0x1720	; 0x1720 <move_window>
    1d3a:	28 2f       	mov	r18, r24
			if (res != FR_OK) break;
    1d3c:	88 23       	and	r24, r24
    1d3e:	a9 f4       	brne	.+42     	; 0x1d6a <put_cluster+0x1aa>
			ST_DWORD(&fs->win[((WORD)clst * 4) & (SS(fs) - 1)], val);
    1d40:	f6 01       	movw	r30, r12
    1d42:	ee 0f       	add	r30, r30
    1d44:	ff 1f       	adc	r31, r31
    1d46:	ee 0f       	add	r30, r30
    1d48:	ff 1f       	adc	r31, r31
    1d4a:	f1 70       	andi	r31, 0x01	; 1
    1d4c:	e6 0d       	add	r30, r6
    1d4e:	f7 1d       	adc	r31, r7
    1d50:	80 aa       	std	Z+48, r8	; 0x30
    1d52:	89 2d       	mov	r24, r9
    1d54:	99 27       	eor	r25, r25
    1d56:	81 ab       	std	Z+49, r24	; 0x31
    1d58:	c5 01       	movw	r24, r10
    1d5a:	aa 27       	eor	r26, r26
    1d5c:	bb 27       	eor	r27, r27
    1d5e:	82 ab       	std	Z+50, r24	; 0x32
    1d60:	8b 2d       	mov	r24, r11
    1d62:	99 27       	eor	r25, r25
    1d64:	aa 27       	eor	r26, r26
    1d66:	bb 27       	eor	r27, r27
    1d68:	83 ab       	std	Z+51, r24	; 0x33
			break;

		default :
			res = FR_INT_ERR;
		}
		fs->wflag = 1;
    1d6a:	81 e0       	ldi	r24, 0x01	; 1
    1d6c:	f3 01       	movw	r30, r6
    1d6e:	84 83       	std	Z+4, r24	; 0x04
    1d70:	01 c0       	rjmp	.+2      	; 0x1d74 <put_cluster+0x1b4>
    1d72:	22 e0       	ldi	r18, 0x02	; 2
	}

	return res;
}
    1d74:	82 2f       	mov	r24, r18
    1d76:	df 91       	pop	r29
    1d78:	cf 91       	pop	r28
    1d7a:	1f 91       	pop	r17
    1d7c:	0f 91       	pop	r16
    1d7e:	ff 90       	pop	r15
    1d80:	ef 90       	pop	r14
    1d82:	df 90       	pop	r13
    1d84:	cf 90       	pop	r12
    1d86:	bf 90       	pop	r11
    1d88:	af 90       	pop	r10
    1d8a:	9f 90       	pop	r9
    1d8c:	8f 90       	pop	r8
    1d8e:	7f 90       	pop	r7
    1d90:	6f 90       	pop	r6
    1d92:	5f 90       	pop	r5
    1d94:	4f 90       	pop	r4
    1d96:	3f 90       	pop	r3
    1d98:	2f 90       	pop	r2
    1d9a:	08 95       	ret

00001d9c <create_chain>:
static
DWORD create_chain (	/* 0:No free cluster, 1:Internal error, 0xFFFFFFFF:Disk error, >=2:New cluster# */
	FATFS *fs,			/* File system object */
	DWORD clst			/* Cluster# to stretch. 0 means create a new chain. */
)
{
    1d9c:	2f 92       	push	r2
    1d9e:	3f 92       	push	r3
    1da0:	4f 92       	push	r4
    1da2:	5f 92       	push	r5
    1da4:	6f 92       	push	r6
    1da6:	7f 92       	push	r7
    1da8:	8f 92       	push	r8
    1daa:	9f 92       	push	r9
    1dac:	af 92       	push	r10
    1dae:	bf 92       	push	r11
    1db0:	cf 92       	push	r12
    1db2:	df 92       	push	r13
    1db4:	ef 92       	push	r14
    1db6:	ff 92       	push	r15
    1db8:	0f 93       	push	r16
    1dba:	1f 93       	push	r17
    1dbc:	df 93       	push	r29
    1dbe:	cf 93       	push	r28
    1dc0:	00 d0       	rcall	.+0      	; 0x1dc2 <create_chain+0x26>
    1dc2:	00 d0       	rcall	.+0      	; 0x1dc4 <create_chain+0x28>
    1dc4:	cd b7       	in	r28, 0x3d	; 61
    1dc6:	de b7       	in	r29, 0x3e	; 62
    1dc8:	1c 01       	movw	r2, r24
    1dca:	2a 01       	movw	r4, r20
    1dcc:	3b 01       	movw	r6, r22
	DWORD cs, ncl, scl, mcl;


	mcl = fs->max_clust;
    1dce:	dc 01       	movw	r26, r24
    1dd0:	5c 96       	adiw	r26, 0x1c	; 28
    1dd2:	8d 91       	ld	r24, X+
    1dd4:	9d 91       	ld	r25, X+
    1dd6:	0d 90       	ld	r0, X+
    1dd8:	bc 91       	ld	r27, X
    1dda:	a0 2d       	mov	r26, r0
    1ddc:	89 83       	std	Y+1, r24	; 0x01
    1dde:	9a 83       	std	Y+2, r25	; 0x02
    1de0:	ab 83       	std	Y+3, r26	; 0x03
    1de2:	bc 83       	std	Y+4, r27	; 0x04
	if (clst == 0) {		/* Create new chain */
    1de4:	41 15       	cp	r20, r1
    1de6:	51 05       	cpc	r21, r1
    1de8:	61 05       	cpc	r22, r1
    1dea:	71 05       	cpc	r23, r1
    1dec:	81 f4       	brne	.+32     	; 0x1e0e <create_chain+0x72>
		scl = fs->last_clust;			/* Get suggested start point */
    1dee:	f1 01       	movw	r30, r2
    1df0:	84 84       	ldd	r8, Z+12	; 0x0c
    1df2:	95 84       	ldd	r9, Z+13	; 0x0d
    1df4:	a6 84       	ldd	r10, Z+14	; 0x0e
    1df6:	b7 84       	ldd	r11, Z+15	; 0x0f
		if (scl == 0 || scl >= mcl) scl = 1;
    1df8:	81 14       	cp	r8, r1
    1dfa:	91 04       	cpc	r9, r1
    1dfc:	a1 04       	cpc	r10, r1
    1dfe:	b1 04       	cpc	r11, r1
    1e00:	11 f1       	breq	.+68     	; 0x1e46 <create_chain+0xaa>
    1e02:	88 16       	cp	r8, r24
    1e04:	99 06       	cpc	r9, r25
    1e06:	aa 06       	cpc	r10, r26
    1e08:	bb 06       	cpc	r11, r27
    1e0a:	e8 f4       	brcc	.+58     	; 0x1e46 <create_chain+0xaa>
    1e0c:	21 c0       	rjmp	.+66     	; 0x1e50 <create_chain+0xb4>
	}
	else {					/* Stretch existing chain */
		cs = get_cluster(fs, clst);		/* Check the cluster status */
    1e0e:	c1 01       	movw	r24, r2
    1e10:	0e 94 09 0c 	call	0x1812	; 0x1812 <get_cluster>
    1e14:	9b 01       	movw	r18, r22
    1e16:	ac 01       	movw	r20, r24
		if (cs < 2) return 1;			/* It is an invalid cluster */
    1e18:	62 30       	cpi	r22, 0x02	; 2
    1e1a:	71 05       	cpc	r23, r1
    1e1c:	81 05       	cpc	r24, r1
    1e1e:	91 05       	cpc	r25, r1
    1e20:	28 f4       	brcc	.+10     	; 0x1e2c <create_chain+0x90>
    1e22:	21 e0       	ldi	r18, 0x01	; 1
    1e24:	30 e0       	ldi	r19, 0x00	; 0
    1e26:	40 e0       	ldi	r20, 0x00	; 0
    1e28:	50 e0       	ldi	r21, 0x00	; 0
    1e2a:	93 c0       	rjmp	.+294    	; 0x1f52 <create_chain+0x1b6>
		if (cs < mcl) return cs;		/* It is already followed by next cluster */
    1e2c:	89 81       	ldd	r24, Y+1	; 0x01
    1e2e:	9a 81       	ldd	r25, Y+2	; 0x02
    1e30:	ab 81       	ldd	r26, Y+3	; 0x03
    1e32:	bc 81       	ldd	r27, Y+4	; 0x04
    1e34:	28 17       	cp	r18, r24
    1e36:	39 07       	cpc	r19, r25
    1e38:	4a 07       	cpc	r20, r26
    1e3a:	5b 07       	cpc	r21, r27
    1e3c:	08 f4       	brcc	.+2      	; 0x1e40 <create_chain+0xa4>
    1e3e:	89 c0       	rjmp	.+274    	; 0x1f52 <create_chain+0x1b6>
    1e40:	53 01       	movw	r10, r6
    1e42:	42 01       	movw	r8, r4
    1e44:	05 c0       	rjmp	.+10     	; 0x1e50 <create_chain+0xb4>
    1e46:	01 e0       	ldi	r16, 0x01	; 1
    1e48:	80 2e       	mov	r8, r16
    1e4a:	91 2c       	mov	r9, r1
    1e4c:	a1 2c       	mov	r10, r1
    1e4e:	b1 2c       	mov	r11, r1
    1e50:	75 01       	movw	r14, r10
    1e52:	64 01       	movw	r12, r8
		scl = clst;
	}

	ncl = scl;				/* Start cluster */
	for (;;) {
		ncl++;							/* Next cluster */
    1e54:	08 94       	sec
    1e56:	c1 1c       	adc	r12, r1
    1e58:	d1 1c       	adc	r13, r1
    1e5a:	e1 1c       	adc	r14, r1
    1e5c:	f1 1c       	adc	r15, r1
		if (ncl >= mcl) {				/* Wrap around */
    1e5e:	89 81       	ldd	r24, Y+1	; 0x01
    1e60:	9a 81       	ldd	r25, Y+2	; 0x02
    1e62:	ab 81       	ldd	r26, Y+3	; 0x03
    1e64:	bc 81       	ldd	r27, Y+4	; 0x04
    1e66:	c8 16       	cp	r12, r24
    1e68:	d9 06       	cpc	r13, r25
    1e6a:	ea 06       	cpc	r14, r26
    1e6c:	fb 06       	cpc	r15, r27
    1e6e:	60 f0       	brcs	.+24     	; 0x1e88 <create_chain+0xec>
			ncl = 2;
			if (ncl > scl) return 0;	/* No free custer */
    1e70:	92 e0       	ldi	r25, 0x02	; 2
    1e72:	89 16       	cp	r8, r25
    1e74:	91 04       	cpc	r9, r1
    1e76:	a1 04       	cpc	r10, r1
    1e78:	b1 04       	cpc	r11, r1
    1e7a:	08 f4       	brcc	.+2      	; 0x1e7e <create_chain+0xe2>
    1e7c:	61 c0       	rjmp	.+194    	; 0x1f40 <create_chain+0x1a4>
    1e7e:	12 e0       	ldi	r17, 0x02	; 2
    1e80:	c1 2e       	mov	r12, r17
    1e82:	d1 2c       	mov	r13, r1
    1e84:	e1 2c       	mov	r14, r1
    1e86:	f1 2c       	mov	r15, r1
		}
		cs = get_cluster(fs, ncl);		/* Get the cluster status */
    1e88:	c1 01       	movw	r24, r2
    1e8a:	b7 01       	movw	r22, r14
    1e8c:	a6 01       	movw	r20, r12
    1e8e:	0e 94 09 0c 	call	0x1812	; 0x1812 <get_cluster>
    1e92:	9b 01       	movw	r18, r22
    1e94:	ac 01       	movw	r20, r24
		if (cs == 0) break;				/* Found a free cluster */
    1e96:	61 15       	cp	r22, r1
    1e98:	71 05       	cpc	r23, r1
    1e9a:	81 05       	cpc	r24, r1
    1e9c:	91 05       	cpc	r25, r1
    1e9e:	a9 f0       	breq	.+42     	; 0x1eca <create_chain+0x12e>
		if (cs == 0xFFFFFFFF || cs == 1)/* An error occured */
    1ea0:	6f 3f       	cpi	r22, 0xFF	; 255
    1ea2:	af ef       	ldi	r26, 0xFF	; 255
    1ea4:	7a 07       	cpc	r23, r26
    1ea6:	af ef       	ldi	r26, 0xFF	; 255
    1ea8:	8a 07       	cpc	r24, r26
    1eaa:	af ef       	ldi	r26, 0xFF	; 255
    1eac:	9a 07       	cpc	r25, r26
    1eae:	09 f4       	brne	.+2      	; 0x1eb2 <create_chain+0x116>
    1eb0:	50 c0       	rjmp	.+160    	; 0x1f52 <create_chain+0x1b6>
    1eb2:	61 30       	cpi	r22, 0x01	; 1
    1eb4:	71 05       	cpc	r23, r1
    1eb6:	81 05       	cpc	r24, r1
    1eb8:	91 05       	cpc	r25, r1
    1eba:	09 f4       	brne	.+2      	; 0x1ebe <create_chain+0x122>
    1ebc:	4a c0       	rjmp	.+148    	; 0x1f52 <create_chain+0x1b6>
			return cs;
		if (ncl == scl) return 0;		/* No free custer */
    1ebe:	c8 14       	cp	r12, r8
    1ec0:	d9 04       	cpc	r13, r9
    1ec2:	ea 04       	cpc	r14, r10
    1ec4:	fb 04       	cpc	r15, r11
    1ec6:	31 f6       	brne	.-116    	; 0x1e54 <create_chain+0xb8>
    1ec8:	3b c0       	rjmp	.+118    	; 0x1f40 <create_chain+0x1a4>
    1eca:	bc 2c       	mov	r11, r12
    1ecc:	ad 2c       	mov	r10, r13
    1ece:	9e 2c       	mov	r9, r14
    1ed0:	8f 2c       	mov	r8, r15
	}

	if (put_cluster(fs, ncl, 0x0FFFFFFF))	/* Mark the new cluster "in use" */
    1ed2:	c1 01       	movw	r24, r2
    1ed4:	a6 01       	movw	r20, r12
    1ed6:	b7 01       	movw	r22, r14
    1ed8:	0f ef       	ldi	r16, 0xFF	; 255
    1eda:	1f ef       	ldi	r17, 0xFF	; 255
    1edc:	2f ef       	ldi	r18, 0xFF	; 255
    1ede:	3f e0       	ldi	r19, 0x0F	; 15
    1ee0:	0e 94 e0 0d 	call	0x1bc0	; 0x1bc0 <put_cluster>
    1ee4:	88 23       	and	r24, r24
    1ee6:	89 f5       	brne	.+98     	; 0x1f4a <create_chain+0x1ae>
		return 0xFFFFFFFF;
	if (clst != 0) {						/* Link it to previous one if needed */
    1ee8:	41 14       	cp	r4, r1
    1eea:	51 04       	cpc	r5, r1
    1eec:	61 04       	cpc	r6, r1
    1eee:	71 04       	cpc	r7, r1
    1ef0:	49 f0       	breq	.+18     	; 0x1f04 <create_chain+0x168>
		if (put_cluster(fs, clst, ncl))
    1ef2:	c1 01       	movw	r24, r2
    1ef4:	b3 01       	movw	r22, r6
    1ef6:	a2 01       	movw	r20, r4
    1ef8:	86 01       	movw	r16, r12
    1efa:	97 01       	movw	r18, r14
    1efc:	0e 94 e0 0d 	call	0x1bc0	; 0x1bc0 <put_cluster>
    1f00:	88 23       	and	r24, r24
    1f02:	19 f5       	brne	.+70     	; 0x1f4a <create_chain+0x1ae>
			return 0xFFFFFFFF;
	}

	fs->last_clust = ncl;				/* Update FSINFO */
    1f04:	f1 01       	movw	r30, r2
    1f06:	b4 86       	std	Z+12, r11	; 0x0c
    1f08:	a5 86       	std	Z+13, r10	; 0x0d
    1f0a:	96 86       	std	Z+14, r9	; 0x0e
    1f0c:	87 86       	std	Z+15, r8	; 0x0f
	if (fs->free_clust != 0xFFFFFFFF) {
    1f0e:	80 89       	ldd	r24, Z+16	; 0x10
    1f10:	91 89       	ldd	r25, Z+17	; 0x11
    1f12:	a2 89       	ldd	r26, Z+18	; 0x12
    1f14:	b3 89       	ldd	r27, Z+19	; 0x13
    1f16:	8f 3f       	cpi	r24, 0xFF	; 255
    1f18:	ff ef       	ldi	r31, 0xFF	; 255
    1f1a:	9f 07       	cpc	r25, r31
    1f1c:	ff ef       	ldi	r31, 0xFF	; 255
    1f1e:	af 07       	cpc	r26, r31
    1f20:	ff ef       	ldi	r31, 0xFF	; 255
    1f22:	bf 07       	cpc	r27, r31
    1f24:	51 f0       	breq	.+20     	; 0x1f3a <create_chain+0x19e>
		fs->free_clust--;
    1f26:	01 97       	sbiw	r24, 0x01	; 1
    1f28:	a1 09       	sbc	r26, r1
    1f2a:	b1 09       	sbc	r27, r1
    1f2c:	f1 01       	movw	r30, r2
    1f2e:	80 8b       	std	Z+16, r24	; 0x10
    1f30:	91 8b       	std	Z+17, r25	; 0x11
    1f32:	a2 8b       	std	Z+18, r26	; 0x12
    1f34:	b3 8b       	std	Z+19, r27	; 0x13
		fs->fsi_flag = 1;
    1f36:	81 e0       	ldi	r24, 0x01	; 1
    1f38:	82 87       	std	Z+10, r24	; 0x0a
    1f3a:	a7 01       	movw	r20, r14
    1f3c:	96 01       	movw	r18, r12
    1f3e:	09 c0       	rjmp	.+18     	; 0x1f52 <create_chain+0x1b6>
    1f40:	20 e0       	ldi	r18, 0x00	; 0
    1f42:	30 e0       	ldi	r19, 0x00	; 0
    1f44:	40 e0       	ldi	r20, 0x00	; 0
    1f46:	50 e0       	ldi	r21, 0x00	; 0
    1f48:	04 c0       	rjmp	.+8      	; 0x1f52 <create_chain+0x1b6>
    1f4a:	2f ef       	ldi	r18, 0xFF	; 255
    1f4c:	3f ef       	ldi	r19, 0xFF	; 255
    1f4e:	4f ef       	ldi	r20, 0xFF	; 255
    1f50:	5f ef       	ldi	r21, 0xFF	; 255
	}

	return ncl;		/* Return new cluster number */
}
    1f52:	b9 01       	movw	r22, r18
    1f54:	ca 01       	movw	r24, r20
    1f56:	0f 90       	pop	r0
    1f58:	0f 90       	pop	r0
    1f5a:	0f 90       	pop	r0
    1f5c:	0f 90       	pop	r0
    1f5e:	cf 91       	pop	r28
    1f60:	df 91       	pop	r29
    1f62:	1f 91       	pop	r17
    1f64:	0f 91       	pop	r16
    1f66:	ff 90       	pop	r15
    1f68:	ef 90       	pop	r14
    1f6a:	df 90       	pop	r13
    1f6c:	cf 90       	pop	r12
    1f6e:	bf 90       	pop	r11
    1f70:	af 90       	pop	r10
    1f72:	9f 90       	pop	r9
    1f74:	8f 90       	pop	r8
    1f76:	7f 90       	pop	r7
    1f78:	6f 90       	pop	r6
    1f7a:	5f 90       	pop	r5
    1f7c:	4f 90       	pop	r4
    1f7e:	3f 90       	pop	r3
    1f80:	2f 90       	pop	r2
    1f82:	08 95       	ret

00001f84 <f_lseek>:

FRESULT f_lseek (
	FIL *fp,		/* Pointer to the file object */
	DWORD ofs		/* File pointer from top of file */
)
{
    1f84:	2f 92       	push	r2
    1f86:	3f 92       	push	r3
    1f88:	4f 92       	push	r4
    1f8a:	5f 92       	push	r5
    1f8c:	6f 92       	push	r6
    1f8e:	7f 92       	push	r7
    1f90:	8f 92       	push	r8
    1f92:	9f 92       	push	r9
    1f94:	af 92       	push	r10
    1f96:	bf 92       	push	r11
    1f98:	cf 92       	push	r12
    1f9a:	df 92       	push	r13
    1f9c:	ef 92       	push	r14
    1f9e:	ff 92       	push	r15
    1fa0:	0f 93       	push	r16
    1fa2:	1f 93       	push	r17
    1fa4:	df 93       	push	r29
    1fa6:	cf 93       	push	r28
    1fa8:	00 d0       	rcall	.+0      	; 0x1faa <f_lseek+0x26>
    1faa:	00 d0       	rcall	.+0      	; 0x1fac <f_lseek+0x28>
    1fac:	0f 92       	push	r0
    1fae:	cd b7       	in	r28, 0x3d	; 61
    1fb0:	de b7       	in	r29, 0x3e	; 62
    1fb2:	9d 83       	std	Y+5, r25	; 0x05
    1fb4:	8c 83       	std	Y+4, r24	; 0x04
    1fb6:	3a 01       	movw	r6, r20
    1fb8:	4b 01       	movw	r8, r22
	FRESULT res;
	DWORD clst, bcs, nsect, ifptr;


	res = validate(fp->fs, fp->id);		/* Check validity of the object */
    1fba:	dc 01       	movw	r26, r24
    1fbc:	12 96       	adiw	r26, 0x02	; 2
    1fbe:	6d 91       	ld	r22, X+
    1fc0:	7c 91       	ld	r23, X
    1fc2:	13 97       	sbiw	r26, 0x03	; 3
    1fc4:	8d 91       	ld	r24, X+
    1fc6:	9c 91       	ld	r25, X
    1fc8:	0e 94 6b 07 	call	0xed6	; 0xed6 <validate>
    1fcc:	8b 83       	std	Y+3, r24	; 0x03
	if (res != FR_OK) LEAVE_FF(fp->fs, res);
    1fce:	88 23       	and	r24, r24
    1fd0:	09 f0       	breq	.+2      	; 0x1fd4 <f_lseek+0x50>
    1fd2:	be c1       	rjmp	.+892    	; 0x2350 <f_lseek+0x3cc>
	if (fp->flag & FA__ERROR)			/* Check abort flag */
    1fd4:	ec 81       	ldd	r30, Y+4	; 0x04
    1fd6:	fd 81       	ldd	r31, Y+5	; 0x05
    1fd8:	84 81       	ldd	r24, Z+4	; 0x04
    1fda:	87 fd       	sbrc	r24, 7
    1fdc:	92 c0       	rjmp	.+292    	; 0x2102 <f_lseek+0x17e>
		LEAVE_FF(fp->fs, FR_INT_ERR);
	if (ofs > fp->fsize					/* In read-only mode, clip offset with the file size */
    1fde:	ac 81       	ldd	r26, Y+4	; 0x04
    1fe0:	bd 81       	ldd	r27, Y+5	; 0x05
    1fe2:	1a 96       	adiw	r26, 0x0a	; 10
    1fe4:	ad 90       	ld	r10, X+
    1fe6:	bd 90       	ld	r11, X+
    1fe8:	cd 90       	ld	r12, X+
    1fea:	dc 90       	ld	r13, X
    1fec:	1d 97       	sbiw	r26, 0x0d	; 13
    1fee:	a6 14       	cp	r10, r6
    1ff0:	b7 04       	cpc	r11, r7
    1ff2:	c8 04       	cpc	r12, r8
    1ff4:	d9 04       	cpc	r13, r9
    1ff6:	10 f4       	brcc	.+4      	; 0x1ffc <f_lseek+0x78>
    1ff8:	81 ff       	sbrs	r24, 1
    1ffa:	02 c0       	rjmp	.+4      	; 0x2000 <f_lseek+0x7c>
    1ffc:	64 01       	movw	r12, r8
    1ffe:	53 01       	movw	r10, r6
#if !_FS_READONLY
		 && !(fp->flag & FA_WRITE)
#endif
		) ofs = fp->fsize;

	ifptr = fp->fptr;
    2000:	ec 81       	ldd	r30, Y+4	; 0x04
    2002:	fd 81       	ldd	r31, Y+5	; 0x05
    2004:	26 81       	ldd	r18, Z+6	; 0x06
    2006:	37 81       	ldd	r19, Z+7	; 0x07
    2008:	40 85       	ldd	r20, Z+8	; 0x08
    200a:	51 85       	ldd	r21, Z+9	; 0x09
	fp->fptr = 0; fp->csect = 255;
    200c:	16 82       	std	Z+6, r1	; 0x06
    200e:	17 82       	std	Z+7, r1	; 0x07
    2010:	10 86       	std	Z+8, r1	; 0x08
    2012:	11 86       	std	Z+9, r1	; 0x09
    2014:	8f ef       	ldi	r24, 0xFF	; 255
    2016:	85 83       	std	Z+5, r24	; 0x05
	nsect = 0;
	if (ofs > 0) {
    2018:	a1 14       	cp	r10, r1
    201a:	b1 04       	cpc	r11, r1
    201c:	c1 04       	cpc	r12, r1
    201e:	d1 04       	cpc	r13, r1
    2020:	09 f4       	brne	.+2      	; 0x2024 <f_lseek+0xa0>
    2022:	80 c1       	rjmp	.+768    	; 0x2324 <f_lseek+0x3a0>
		bcs = (DWORD)fp->fs->csize * SS(fp->fs);	/* Cluster size (byte) */
    2024:	01 90       	ld	r0, Z+
    2026:	f0 81       	ld	r31, Z
    2028:	e0 2d       	mov	r30, r0
    202a:	fa 83       	std	Y+2, r31	; 0x02
    202c:	e9 83       	std	Y+1, r30	; 0x01
    202e:	82 81       	ldd	r24, Z+2	; 0x02
    2030:	68 2e       	mov	r6, r24
    2032:	77 24       	eor	r7, r7
    2034:	88 24       	eor	r8, r8
    2036:	99 24       	eor	r9, r9
    2038:	69 e0       	ldi	r22, 0x09	; 9
    203a:	66 0c       	add	r6, r6
    203c:	77 1c       	adc	r7, r7
    203e:	88 1c       	adc	r8, r8
    2040:	99 1c       	adc	r9, r9
    2042:	6a 95       	dec	r22
    2044:	d1 f7       	brne	.-12     	; 0x203a <f_lseek+0xb6>
		if (ifptr > 0 &&
    2046:	21 15       	cp	r18, r1
    2048:	31 05       	cpc	r19, r1
    204a:	41 05       	cpc	r20, r1
    204c:	51 05       	cpc	r21, r1
    204e:	c1 f1       	breq	.+112    	; 0x20c0 <f_lseek+0x13c>
    2050:	19 01       	movw	r2, r18
    2052:	2a 01       	movw	r4, r20
    2054:	08 94       	sec
    2056:	21 08       	sbc	r2, r1
    2058:	31 08       	sbc	r3, r1
    205a:	41 08       	sbc	r4, r1
    205c:	51 08       	sbc	r5, r1
    205e:	c6 01       	movw	r24, r12
    2060:	b5 01       	movw	r22, r10
    2062:	61 50       	subi	r22, 0x01	; 1
    2064:	70 40       	sbci	r23, 0x00	; 0
    2066:	80 40       	sbci	r24, 0x00	; 0
    2068:	90 40       	sbci	r25, 0x00	; 0
    206a:	a4 01       	movw	r20, r8
    206c:	93 01       	movw	r18, r6
    206e:	0e 94 61 28 	call	0x50c2	; 0x50c2 <__udivmodsi4>
    2072:	79 01       	movw	r14, r18
    2074:	8a 01       	movw	r16, r20
    2076:	c2 01       	movw	r24, r4
    2078:	b1 01       	movw	r22, r2
    207a:	a4 01       	movw	r20, r8
    207c:	93 01       	movw	r18, r6
    207e:	0e 94 61 28 	call	0x50c2	; 0x50c2 <__udivmodsi4>
    2082:	e2 16       	cp	r14, r18
    2084:	f3 06       	cpc	r15, r19
    2086:	04 07       	cpc	r16, r20
    2088:	15 07       	cpc	r17, r21
    208a:	d0 f0       	brcs	.+52     	; 0x20c0 <f_lseek+0x13c>
			(ofs - 1) / bcs >= (ifptr - 1) / bcs) {	/* When seek to same or following cluster, */
			fp->fptr = (ifptr - 1) & ~(bcs - 1);	/* start from the current cluster */
    208c:	88 27       	eor	r24, r24
    208e:	99 27       	eor	r25, r25
    2090:	dc 01       	movw	r26, r24
    2092:	86 19       	sub	r24, r6
    2094:	97 09       	sbc	r25, r7
    2096:	a8 09       	sbc	r26, r8
    2098:	b9 09       	sbc	r27, r9
    209a:	82 21       	and	r24, r2
    209c:	93 21       	and	r25, r3
    209e:	a4 21       	and	r26, r4
    20a0:	b5 21       	and	r27, r5
    20a2:	ec 81       	ldd	r30, Y+4	; 0x04
    20a4:	fd 81       	ldd	r31, Y+5	; 0x05
    20a6:	86 83       	std	Z+6, r24	; 0x06
    20a8:	97 83       	std	Z+7, r25	; 0x07
    20aa:	a0 87       	std	Z+8, r26	; 0x08
    20ac:	b1 87       	std	Z+9, r27	; 0x09
			ofs -= fp->fptr;
    20ae:	a8 1a       	sub	r10, r24
    20b0:	b9 0a       	sbc	r11, r25
    20b2:	ca 0a       	sbc	r12, r26
    20b4:	db 0a       	sbc	r13, r27
			clst = fp->curr_clust;
    20b6:	42 89       	ldd	r20, Z+18	; 0x12
    20b8:	53 89       	ldd	r21, Z+19	; 0x13
    20ba:	64 89       	ldd	r22, Z+20	; 0x14
    20bc:	75 89       	ldd	r23, Z+21	; 0x15
    20be:	3a c0       	rjmp	.+116    	; 0x2134 <f_lseek+0x1b0>
		} else {									/* When seek to back cluster, */
			clst = fp->org_clust;					/* start from the first cluster */
    20c0:	ac 81       	ldd	r26, Y+4	; 0x04
    20c2:	bd 81       	ldd	r27, Y+5	; 0x05
    20c4:	1e 96       	adiw	r26, 0x0e	; 14
    20c6:	4d 91       	ld	r20, X+
    20c8:	5d 91       	ld	r21, X+
    20ca:	6d 91       	ld	r22, X+
    20cc:	7c 91       	ld	r23, X
    20ce:	51 97       	sbiw	r26, 0x11	; 17
#if !_FS_READONLY
			if (clst == 0) {						/* If no cluster chain, create a new chain */
    20d0:	41 15       	cp	r20, r1
    20d2:	51 05       	cpc	r21, r1
    20d4:	61 05       	cpc	r22, r1
    20d6:	71 05       	cpc	r23, r1
    20d8:	29 f5       	brne	.+74     	; 0x2124 <f_lseek+0x1a0>
				clst = create_chain(fp->fs, 0);
    20da:	89 81       	ldd	r24, Y+1	; 0x01
    20dc:	9a 81       	ldd	r25, Y+2	; 0x02
    20de:	40 e0       	ldi	r20, 0x00	; 0
    20e0:	50 e0       	ldi	r21, 0x00	; 0
    20e2:	60 e0       	ldi	r22, 0x00	; 0
    20e4:	70 e0       	ldi	r23, 0x00	; 0
    20e6:	0e 94 ce 0e 	call	0x1d9c	; 0x1d9c <create_chain>
    20ea:	ab 01       	movw	r20, r22
    20ec:	bc 01       	movw	r22, r24
				if (clst == 1) ABORT(fp->fs, FR_INT_ERR);
    20ee:	41 30       	cpi	r20, 0x01	; 1
    20f0:	51 05       	cpc	r21, r1
    20f2:	61 05       	cpc	r22, r1
    20f4:	71 05       	cpc	r23, r1
    20f6:	41 f4       	brne	.+16     	; 0x2108 <f_lseek+0x184>
    20f8:	ec 81       	ldd	r30, Y+4	; 0x04
    20fa:	fd 81       	ldd	r31, Y+5	; 0x05
    20fc:	84 81       	ldd	r24, Z+4	; 0x04
    20fe:	80 68       	ori	r24, 0x80	; 128
    2100:	84 83       	std	Z+4, r24	; 0x04
    2102:	f2 e0       	ldi	r31, 0x02	; 2
    2104:	fb 83       	std	Y+3, r31	; 0x03
    2106:	24 c1       	rjmp	.+584    	; 0x2350 <f_lseek+0x3cc>
				if (clst == 0xFFFFFFFF) ABORT(fp->fs, FR_DISK_ERR);
    2108:	4f 3f       	cpi	r20, 0xFF	; 255
    210a:	8f ef       	ldi	r24, 0xFF	; 255
    210c:	58 07       	cpc	r21, r24
    210e:	8f ef       	ldi	r24, 0xFF	; 255
    2110:	68 07       	cpc	r22, r24
    2112:	8f ef       	ldi	r24, 0xFF	; 255
    2114:	78 07       	cpc	r23, r24
    2116:	b1 f1       	breq	.+108    	; 0x2184 <f_lseek+0x200>
				fp->org_clust = clst;
    2118:	ec 81       	ldd	r30, Y+4	; 0x04
    211a:	fd 81       	ldd	r31, Y+5	; 0x05
    211c:	46 87       	std	Z+14, r20	; 0x0e
    211e:	57 87       	std	Z+15, r21	; 0x0f
    2120:	60 8b       	std	Z+16, r22	; 0x10
    2122:	71 8b       	std	Z+17, r23	; 0x11
			}
#endif
			fp->curr_clust = clst;
    2124:	ac 81       	ldd	r26, Y+4	; 0x04
    2126:	bd 81       	ldd	r27, Y+5	; 0x05
    2128:	52 96       	adiw	r26, 0x12	; 18
    212a:	4d 93       	st	X+, r20
    212c:	5d 93       	st	X+, r21
    212e:	6d 93       	st	X+, r22
    2130:	7c 93       	st	X, r23
    2132:	55 97       	sbiw	r26, 0x15	; 21
		}
		if (clst != 0) {
    2134:	41 15       	cp	r20, r1
    2136:	51 05       	cpc	r21, r1
    2138:	61 05       	cpc	r22, r1
    213a:	71 05       	cpc	r23, r1
    213c:	09 f0       	breq	.+2      	; 0x2140 <f_lseek+0x1bc>
    213e:	59 c0       	rjmp	.+178    	; 0x21f2 <f_lseek+0x26e>
    2140:	f1 c0       	rjmp	.+482    	; 0x2324 <f_lseek+0x3a0>
			while (ofs > bcs) {						/* Cluster following loop */
#if !_FS_READONLY
				if (fp->flag & FA_WRITE) {			/* Check if in write mode or not */
    2142:	ec 81       	ldd	r30, Y+4	; 0x04
    2144:	fd 81       	ldd	r31, Y+5	; 0x05
    2146:	84 81       	ldd	r24, Z+4	; 0x04
    2148:	20 81       	ld	r18, Z
    214a:	31 81       	ldd	r19, Z+1	; 0x01
    214c:	81 ff       	sbrs	r24, 1
    214e:	0d c0       	rjmp	.+26     	; 0x216a <f_lseek+0x1e6>
					clst = create_chain(fp->fs, clst);	/* Force streached if in write mode */
    2150:	c9 01       	movw	r24, r18
    2152:	0e 94 ce 0e 	call	0x1d9c	; 0x1d9c <create_chain>
    2156:	ab 01       	movw	r20, r22
    2158:	bc 01       	movw	r22, r24
					if (clst == 0) {				/* When disk gets full, clip file size */
    215a:	41 15       	cp	r20, r1
    215c:	51 05       	cpc	r21, r1
    215e:	61 05       	cpc	r22, r1
    2160:	71 05       	cpc	r23, r1
    2162:	41 f4       	brne	.+16     	; 0x2174 <f_lseek+0x1f0>
    2164:	64 01       	movw	r12, r8
    2166:	53 01       	movw	r10, r6
    2168:	4a c0       	rjmp	.+148    	; 0x21fe <f_lseek+0x27a>
						ofs = bcs; break;
					}
				} else
#endif
					clst = get_cluster(fp->fs, clst);	/* Follow cluster chain if not in write mode */
    216a:	c9 01       	movw	r24, r18
    216c:	0e 94 09 0c 	call	0x1812	; 0x1812 <get_cluster>
    2170:	ab 01       	movw	r20, r22
    2172:	bc 01       	movw	r22, r24
				if (clst == 0xFFFFFFFF) ABORT(fp->fs, FR_DISK_ERR);
    2174:	4f 3f       	cpi	r20, 0xFF	; 255
    2176:	ff ef       	ldi	r31, 0xFF	; 255
    2178:	5f 07       	cpc	r21, r31
    217a:	ff ef       	ldi	r31, 0xFF	; 255
    217c:	6f 07       	cpc	r22, r31
    217e:	ff ef       	ldi	r31, 0xFF	; 255
    2180:	7f 07       	cpc	r23, r31
    2182:	51 f4       	brne	.+20     	; 0x2198 <f_lseek+0x214>
    2184:	ac 81       	ldd	r26, Y+4	; 0x04
    2186:	bd 81       	ldd	r27, Y+5	; 0x05
    2188:	14 96       	adiw	r26, 0x04	; 4
    218a:	8c 91       	ld	r24, X
    218c:	14 97       	sbiw	r26, 0x04	; 4
    218e:	80 68       	ori	r24, 0x80	; 128
    2190:	14 96       	adiw	r26, 0x04	; 4
    2192:	8c 93       	st	X, r24
    2194:	b1 e0       	ldi	r27, 0x01	; 1
    2196:	99 c0       	rjmp	.+306    	; 0x22ca <f_lseek+0x346>
				if (clst <= 1 || clst >= fp->fs->max_clust) ABORT(fp->fs, FR_INT_ERR);
    2198:	42 30       	cpi	r20, 0x02	; 2
    219a:	51 05       	cpc	r21, r1
    219c:	61 05       	cpc	r22, r1
    219e:	71 05       	cpc	r23, r1
    21a0:	08 f4       	brcc	.+2      	; 0x21a4 <f_lseek+0x220>
    21a2:	aa cf       	rjmp	.-172    	; 0x20f8 <f_lseek+0x174>
    21a4:	ac 81       	ldd	r26, Y+4	; 0x04
    21a6:	bd 81       	ldd	r27, Y+5	; 0x05
    21a8:	ed 91       	ld	r30, X+
    21aa:	fc 91       	ld	r31, X
    21ac:	84 8d       	ldd	r24, Z+28	; 0x1c
    21ae:	95 8d       	ldd	r25, Z+29	; 0x1d
    21b0:	a6 8d       	ldd	r26, Z+30	; 0x1e
    21b2:	b7 8d       	ldd	r27, Z+31	; 0x1f
    21b4:	48 17       	cp	r20, r24
    21b6:	59 07       	cpc	r21, r25
    21b8:	6a 07       	cpc	r22, r26
    21ba:	7b 07       	cpc	r23, r27
    21bc:	08 f0       	brcs	.+2      	; 0x21c0 <f_lseek+0x23c>
    21be:	9c cf       	rjmp	.-200    	; 0x20f8 <f_lseek+0x174>
				fp->curr_clust = clst;
    21c0:	ac 81       	ldd	r26, Y+4	; 0x04
    21c2:	bd 81       	ldd	r27, Y+5	; 0x05
    21c4:	52 96       	adiw	r26, 0x12	; 18
    21c6:	4d 93       	st	X+, r20
    21c8:	5d 93       	st	X+, r21
    21ca:	6d 93       	st	X+, r22
    21cc:	7c 93       	st	X, r23
    21ce:	55 97       	sbiw	r26, 0x15	; 21
				fp->fptr += bcs;
    21d0:	fd 01       	movw	r30, r26
    21d2:	86 81       	ldd	r24, Z+6	; 0x06
    21d4:	97 81       	ldd	r25, Z+7	; 0x07
    21d6:	a0 85       	ldd	r26, Z+8	; 0x08
    21d8:	b1 85       	ldd	r27, Z+9	; 0x09
    21da:	86 0d       	add	r24, r6
    21dc:	97 1d       	adc	r25, r7
    21de:	a8 1d       	adc	r26, r8
    21e0:	b9 1d       	adc	r27, r9
    21e2:	86 83       	std	Z+6, r24	; 0x06
    21e4:	97 83       	std	Z+7, r25	; 0x07
    21e6:	a0 87       	std	Z+8, r26	; 0x08
    21e8:	b1 87       	std	Z+9, r27	; 0x09
				ofs -= bcs;
    21ea:	a6 18       	sub	r10, r6
    21ec:	b7 08       	sbc	r11, r7
    21ee:	c8 08       	sbc	r12, r8
    21f0:	d9 08       	sbc	r13, r9
			}
#endif
			fp->curr_clust = clst;
		}
		if (clst != 0) {
			while (ofs > bcs) {						/* Cluster following loop */
    21f2:	6a 14       	cp	r6, r10
    21f4:	7b 04       	cpc	r7, r11
    21f6:	8c 04       	cpc	r8, r12
    21f8:	9d 04       	cpc	r9, r13
    21fa:	08 f4       	brcc	.+2      	; 0x21fe <f_lseek+0x27a>
    21fc:	a2 cf       	rjmp	.-188    	; 0x2142 <f_lseek+0x1be>
				if (clst <= 1 || clst >= fp->fs->max_clust) ABORT(fp->fs, FR_INT_ERR);
				fp->curr_clust = clst;
				fp->fptr += bcs;
				ofs -= bcs;
			}
			fp->fptr += ofs;
    21fe:	ac 81       	ldd	r26, Y+4	; 0x04
    2200:	bd 81       	ldd	r27, Y+5	; 0x05
    2202:	16 96       	adiw	r26, 0x06	; 6
    2204:	6d 90       	ld	r6, X+
    2206:	7d 90       	ld	r7, X+
    2208:	8d 90       	ld	r8, X+
    220a:	9c 90       	ld	r9, X
    220c:	19 97       	sbiw	r26, 0x09	; 9
    220e:	6a 0c       	add	r6, r10
    2210:	7b 1c       	adc	r7, r11
    2212:	8c 1c       	adc	r8, r12
    2214:	9d 1c       	adc	r9, r13
    2216:	fd 01       	movw	r30, r26
    2218:	66 82       	std	Z+6, r6	; 0x06
    221a:	77 82       	std	Z+7, r7	; 0x07
    221c:	80 86       	std	Z+8, r8	; 0x08
    221e:	91 86       	std	Z+9, r9	; 0x09
			fp->csect = (BYTE)(ofs / SS(fp->fs));	/* Sector offset in the cluster */
    2220:	d6 01       	movw	r26, r12
    2222:	c5 01       	movw	r24, r10
    2224:	29 e0       	ldi	r18, 0x09	; 9
    2226:	b6 95       	lsr	r27
    2228:	a7 95       	ror	r26
    222a:	97 95       	ror	r25
    222c:	87 95       	ror	r24
    222e:	2a 95       	dec	r18
    2230:	d1 f7       	brne	.-12     	; 0x2226 <f_lseek+0x2a2>
    2232:	e8 2e       	mov	r14, r24
    2234:	85 83       	std	Z+5, r24	; 0x05
			if (ofs % SS(fp->fs)) {
    2236:	8f ef       	ldi	r24, 0xFF	; 255
    2238:	91 e0       	ldi	r25, 0x01	; 1
    223a:	a0 e0       	ldi	r26, 0x00	; 0
    223c:	b0 e0       	ldi	r27, 0x00	; 0
    223e:	a8 22       	and	r10, r24
    2240:	b9 22       	and	r11, r25
    2242:	ca 22       	and	r12, r26
    2244:	db 22       	and	r13, r27
    2246:	a1 14       	cp	r10, r1
    2248:	b1 04       	cpc	r11, r1
    224a:	c1 04       	cpc	r12, r1
    224c:	d1 04       	cpc	r13, r1
    224e:	09 f4       	brne	.+2      	; 0x2252 <f_lseek+0x2ce>
    2250:	69 c0       	rjmp	.+210    	; 0x2324 <f_lseek+0x3a0>
				nsect = clust2sect(fp->fs, clst);	/* Current sector */
    2252:	00 81       	ld	r16, Z
    2254:	11 81       	ldd	r17, Z+1	; 0x01
DWORD clust2sect (	/* !=0: sector number, 0: failed - invalid cluster# */
	FATFS *fs,		/* File system object */
	DWORD clst		/* Cluster# to be converted */
)
{
	clst -= 2;
    2256:	8e ef       	ldi	r24, 0xFE	; 254
    2258:	a8 2e       	mov	r10, r24
    225a:	8f ef       	ldi	r24, 0xFF	; 255
    225c:	b8 2e       	mov	r11, r24
    225e:	8f ef       	ldi	r24, 0xFF	; 255
    2260:	c8 2e       	mov	r12, r24
    2262:	8f ef       	ldi	r24, 0xFF	; 255
    2264:	d8 2e       	mov	r13, r24
    2266:	a4 0e       	add	r10, r20
    2268:	b5 1e       	adc	r11, r21
    226a:	c6 1e       	adc	r12, r22
    226c:	d7 1e       	adc	r13, r23
	if (clst >= (fs->max_clust - 2)) return 0;		/* Invalid cluster# */
    226e:	f8 01       	movw	r30, r16
    2270:	84 8d       	ldd	r24, Z+28	; 0x1c
    2272:	95 8d       	ldd	r25, Z+29	; 0x1d
    2274:	a6 8d       	ldd	r26, Z+30	; 0x1e
    2276:	b7 8d       	ldd	r27, Z+31	; 0x1f
    2278:	02 97       	sbiw	r24, 0x02	; 2
    227a:	a1 09       	sbc	r26, r1
    227c:	b1 09       	sbc	r27, r1
    227e:	a8 16       	cp	r10, r24
    2280:	b9 06       	cpc	r11, r25
    2282:	ca 06       	cpc	r12, r26
    2284:	db 06       	cpc	r13, r27
    2286:	c0 f4       	brcc	.+48     	; 0x22b8 <f_lseek+0x334>
	return clst * fs->csize + fs->database;
    2288:	22 81       	ldd	r18, Z+2	; 0x02
    228a:	30 e0       	ldi	r19, 0x00	; 0
    228c:	40 e0       	ldi	r20, 0x00	; 0
    228e:	50 e0       	ldi	r21, 0x00	; 0
    2290:	c6 01       	movw	r24, r12
    2292:	b5 01       	movw	r22, r10
    2294:	0e 94 2e 28 	call	0x505c	; 0x505c <__mulsi3>
    2298:	9b 01       	movw	r18, r22
    229a:	ac 01       	movw	r20, r24
    229c:	f8 01       	movw	r30, r16
    229e:	80 a5       	ldd	r24, Z+40	; 0x28
    22a0:	91 a5       	ldd	r25, Z+41	; 0x29
    22a2:	a2 a5       	ldd	r26, Z+42	; 0x2a
    22a4:	b3 a5       	ldd	r27, Z+43	; 0x2b
    22a6:	28 0f       	add	r18, r24
    22a8:	39 1f       	adc	r19, r25
    22aa:	4a 1f       	adc	r20, r26
    22ac:	5b 1f       	adc	r21, r27
			}
			fp->fptr += ofs;
			fp->csect = (BYTE)(ofs / SS(fp->fs));	/* Sector offset in the cluster */
			if (ofs % SS(fp->fs)) {
				nsect = clust2sect(fp->fs, clst);	/* Current sector */
				if (!nsect) ABORT(fp->fs, FR_INT_ERR);
    22ae:	21 15       	cp	r18, r1
    22b0:	31 05       	cpc	r19, r1
    22b2:	41 05       	cpc	r20, r1
    22b4:	51 05       	cpc	r21, r1
    22b6:	59 f4       	brne	.+22     	; 0x22ce <f_lseek+0x34a>
    22b8:	ac 81       	ldd	r26, Y+4	; 0x04
    22ba:	bd 81       	ldd	r27, Y+5	; 0x05
    22bc:	14 96       	adiw	r26, 0x04	; 4
    22be:	8c 91       	ld	r24, X
    22c0:	14 97       	sbiw	r26, 0x04	; 4
    22c2:	80 68       	ori	r24, 0x80	; 128
    22c4:	14 96       	adiw	r26, 0x04	; 4
    22c6:	8c 93       	st	X, r24
    22c8:	b2 e0       	ldi	r27, 0x02	; 2
    22ca:	bb 83       	std	Y+3, r27	; 0x03
    22cc:	41 c0       	rjmp	.+130    	; 0x2350 <f_lseek+0x3cc>
				nsect += fp->csect;
    22ce:	2e 0d       	add	r18, r14
    22d0:	31 1d       	adc	r19, r1
    22d2:	41 1d       	adc	r20, r1
    22d4:	51 1d       	adc	r21, r1
				fp->csect++;
    22d6:	e3 94       	inc	r14
    22d8:	ec 81       	ldd	r30, Y+4	; 0x04
    22da:	fd 81       	ldd	r31, Y+5	; 0x05
    22dc:	e5 82       	std	Z+5, r14	; 0x05
			}
		}
	}
	if (nsect && nsect != fp->dsect && fp->fptr % SS(fp->fs)) {
    22de:	21 15       	cp	r18, r1
    22e0:	31 05       	cpc	r19, r1
    22e2:	41 05       	cpc	r20, r1
    22e4:	51 05       	cpc	r21, r1
    22e6:	f1 f0       	breq	.+60     	; 0x2324 <f_lseek+0x3a0>
    22e8:	86 89       	ldd	r24, Z+22	; 0x16
    22ea:	97 89       	ldd	r25, Z+23	; 0x17
    22ec:	a0 8d       	ldd	r26, Z+24	; 0x18
    22ee:	b1 8d       	ldd	r27, Z+25	; 0x19
    22f0:	28 17       	cp	r18, r24
    22f2:	39 07       	cpc	r19, r25
    22f4:	4a 07       	cpc	r20, r26
    22f6:	5b 07       	cpc	r21, r27
    22f8:	a9 f0       	breq	.+42     	; 0x2324 <f_lseek+0x3a0>
    22fa:	8f ef       	ldi	r24, 0xFF	; 255
    22fc:	91 e0       	ldi	r25, 0x01	; 1
    22fe:	a0 e0       	ldi	r26, 0x00	; 0
    2300:	b0 e0       	ldi	r27, 0x00	; 0
    2302:	68 22       	and	r6, r24
    2304:	79 22       	and	r7, r25
    2306:	8a 22       	and	r8, r26
    2308:	9b 22       	and	r9, r27
    230a:	61 14       	cp	r6, r1
    230c:	71 04       	cpc	r7, r1
    230e:	81 04       	cpc	r8, r1
    2310:	91 04       	cpc	r9, r1
    2312:	41 f0       	breq	.+16     	; 0x2324 <f_lseek+0x3a0>
		}
#endif
		if (disk_read(fp->fs->drive, fp->buf, nsect, 1) != RES_OK)
			ABORT(fp->fs, FR_DISK_ERR);
#endif
		fp->dsect = nsect;
    2314:	ac 81       	ldd	r26, Y+4	; 0x04
    2316:	bd 81       	ldd	r27, Y+5	; 0x05
    2318:	56 96       	adiw	r26, 0x16	; 22
    231a:	2d 93       	st	X+, r18
    231c:	3d 93       	st	X+, r19
    231e:	4d 93       	st	X+, r20
    2320:	5c 93       	st	X, r21
    2322:	59 97       	sbiw	r26, 0x19	; 25
	}
#if !_FS_READONLY
	if (fp->fptr > fp->fsize) {			/* Set changed flag if the file size is extended */
    2324:	ec 81       	ldd	r30, Y+4	; 0x04
    2326:	fd 81       	ldd	r31, Y+5	; 0x05
    2328:	26 81       	ldd	r18, Z+6	; 0x06
    232a:	37 81       	ldd	r19, Z+7	; 0x07
    232c:	40 85       	ldd	r20, Z+8	; 0x08
    232e:	51 85       	ldd	r21, Z+9	; 0x09
    2330:	82 85       	ldd	r24, Z+10	; 0x0a
    2332:	93 85       	ldd	r25, Z+11	; 0x0b
    2334:	a4 85       	ldd	r26, Z+12	; 0x0c
    2336:	b5 85       	ldd	r27, Z+13	; 0x0d
    2338:	82 17       	cp	r24, r18
    233a:	93 07       	cpc	r25, r19
    233c:	a4 07       	cpc	r26, r20
    233e:	b5 07       	cpc	r27, r21
    2340:	38 f4       	brcc	.+14     	; 0x2350 <f_lseek+0x3cc>
		fp->fsize = fp->fptr;
    2342:	22 87       	std	Z+10, r18	; 0x0a
    2344:	33 87       	std	Z+11, r19	; 0x0b
    2346:	44 87       	std	Z+12, r20	; 0x0c
    2348:	55 87       	std	Z+13, r21	; 0x0d
		fp->flag |= FA__WRITTEN;
    234a:	84 81       	ldd	r24, Z+4	; 0x04
    234c:	80 62       	ori	r24, 0x20	; 32
    234e:	84 83       	std	Z+4, r24	; 0x04
	}
#endif

	LEAVE_FF(fp->fs, res);
}
    2350:	8b 81       	ldd	r24, Y+3	; 0x03
    2352:	0f 90       	pop	r0
    2354:	0f 90       	pop	r0
    2356:	0f 90       	pop	r0
    2358:	0f 90       	pop	r0
    235a:	0f 90       	pop	r0
    235c:	cf 91       	pop	r28
    235e:	df 91       	pop	r29
    2360:	1f 91       	pop	r17
    2362:	0f 91       	pop	r16
    2364:	ff 90       	pop	r15
    2366:	ef 90       	pop	r14
    2368:	df 90       	pop	r13
    236a:	cf 90       	pop	r12
    236c:	bf 90       	pop	r11
    236e:	af 90       	pop	r10
    2370:	9f 90       	pop	r9
    2372:	8f 90       	pop	r8
    2374:	7f 90       	pop	r7
    2376:	6f 90       	pop	r6
    2378:	5f 90       	pop	r5
    237a:	4f 90       	pop	r4
    237c:	3f 90       	pop	r3
    237e:	2f 90       	pop	r2
    2380:	08 95       	ret

00002382 <remove_chain>:
static
FRESULT remove_chain (
	FATFS *fs,			/* File system object */
	DWORD clst			/* Cluster# to remove chain from */
)
{
    2382:	9f 92       	push	r9
    2384:	af 92       	push	r10
    2386:	bf 92       	push	r11
    2388:	cf 92       	push	r12
    238a:	df 92       	push	r13
    238c:	ef 92       	push	r14
    238e:	ff 92       	push	r15
    2390:	0f 93       	push	r16
    2392:	1f 93       	push	r17
    2394:	cf 93       	push	r28
    2396:	df 93       	push	r29
    2398:	ec 01       	movw	r28, r24
    239a:	7a 01       	movw	r14, r20
    239c:	8b 01       	movw	r16, r22
	FRESULT res;
	DWORD nxt;


	if (clst < 2 || clst >= fs->max_clust) {	/* Check cluster address range */
    239e:	42 30       	cpi	r20, 0x02	; 2
    23a0:	51 05       	cpc	r21, r1
    23a2:	61 05       	cpc	r22, r1
    23a4:	71 05       	cpc	r23, r1
    23a6:	08 f4       	brcc	.+2      	; 0x23aa <remove_chain+0x28>
    23a8:	58 c0       	rjmp	.+176    	; 0x245a <remove_chain+0xd8>
    23aa:	8c 8d       	ldd	r24, Y+28	; 0x1c
    23ac:	9d 8d       	ldd	r25, Y+29	; 0x1d
    23ae:	ae 8d       	ldd	r26, Y+30	; 0x1e
    23b0:	bf 8d       	ldd	r27, Y+31	; 0x1f
    23b2:	48 17       	cp	r20, r24
    23b4:	59 07       	cpc	r21, r25
    23b6:	6a 07       	cpc	r22, r26
    23b8:	7b 07       	cpc	r23, r27
    23ba:	08 f4       	brcc	.+2      	; 0x23be <remove_chain+0x3c>
    23bc:	41 c0       	rjmp	.+130    	; 0x2440 <remove_chain+0xbe>
    23be:	4d c0       	rjmp	.+154    	; 0x245a <remove_chain+0xd8>
		res = FR_INT_ERR;

	} else {
		res = FR_OK;
		while (clst < fs->max_clust) {			/* Not a last link? */
			nxt = get_cluster(fs, clst);		/* Get cluster status */
    23c0:	ce 01       	movw	r24, r28
    23c2:	b8 01       	movw	r22, r16
    23c4:	a7 01       	movw	r20, r14
    23c6:	0e 94 09 0c 	call	0x1812	; 0x1812 <get_cluster>
    23ca:	5b 01       	movw	r10, r22
    23cc:	6c 01       	movw	r12, r24
			if (nxt == 0) break;				/* Empty cluster? */
    23ce:	61 15       	cp	r22, r1
    23d0:	71 05       	cpc	r23, r1
    23d2:	81 05       	cpc	r24, r1
    23d4:	91 05       	cpc	r25, r1
    23d6:	09 f4       	brne	.+2      	; 0x23da <remove_chain+0x58>
    23d8:	42 c0       	rjmp	.+132    	; 0x245e <remove_chain+0xdc>
			if (nxt == 1) { res = FR_INT_ERR; break; }	/* Internal error? */
    23da:	81 e0       	ldi	r24, 0x01	; 1
    23dc:	a8 16       	cp	r10, r24
    23de:	b1 04       	cpc	r11, r1
    23e0:	c1 04       	cpc	r12, r1
    23e2:	d1 04       	cpc	r13, r1
    23e4:	d1 f1       	breq	.+116    	; 0x245a <remove_chain+0xd8>
			if (nxt == 0xFFFFFFFF) { res = FR_DISK_ERR; break; }	/* Disk error? */
    23e6:	2f ef       	ldi	r18, 0xFF	; 255
    23e8:	a2 16       	cp	r10, r18
    23ea:	2f ef       	ldi	r18, 0xFF	; 255
    23ec:	b2 06       	cpc	r11, r18
    23ee:	2f ef       	ldi	r18, 0xFF	; 255
    23f0:	c2 06       	cpc	r12, r18
    23f2:	2f ef       	ldi	r18, 0xFF	; 255
    23f4:	d2 06       	cpc	r13, r18
    23f6:	11 f4       	brne	.+4      	; 0x23fc <remove_chain+0x7a>
    23f8:	81 e0       	ldi	r24, 0x01	; 1
    23fa:	32 c0       	rjmp	.+100    	; 0x2460 <remove_chain+0xde>
			res = put_cluster(fs, clst, 0);		/* Mark the cluster "empty" */
    23fc:	ce 01       	movw	r24, r28
    23fe:	b8 01       	movw	r22, r16
    2400:	a7 01       	movw	r20, r14
    2402:	00 e0       	ldi	r16, 0x00	; 0
    2404:	10 e0       	ldi	r17, 0x00	; 0
    2406:	20 e0       	ldi	r18, 0x00	; 0
    2408:	30 e0       	ldi	r19, 0x00	; 0
    240a:	0e 94 e0 0d 	call	0x1bc0	; 0x1bc0 <put_cluster>
			if (res != FR_OK) break;
    240e:	88 23       	and	r24, r24
    2410:	39 f5       	brne	.+78     	; 0x2460 <remove_chain+0xde>
			if (fs->free_clust != 0xFFFFFFFF) {	/* Update FSInfo */
    2412:	88 89       	ldd	r24, Y+16	; 0x10
    2414:	99 89       	ldd	r25, Y+17	; 0x11
    2416:	aa 89       	ldd	r26, Y+18	; 0x12
    2418:	bb 89       	ldd	r27, Y+19	; 0x13
    241a:	8f 3f       	cpi	r24, 0xFF	; 255
    241c:	2f ef       	ldi	r18, 0xFF	; 255
    241e:	92 07       	cpc	r25, r18
    2420:	2f ef       	ldi	r18, 0xFF	; 255
    2422:	a2 07       	cpc	r26, r18
    2424:	2f ef       	ldi	r18, 0xFF	; 255
    2426:	b2 07       	cpc	r27, r18
    2428:	41 f0       	breq	.+16     	; 0x243a <remove_chain+0xb8>
				fs->free_clust++;
    242a:	01 96       	adiw	r24, 0x01	; 1
    242c:	a1 1d       	adc	r26, r1
    242e:	b1 1d       	adc	r27, r1
    2430:	88 8b       	std	Y+16, r24	; 0x10
    2432:	99 8b       	std	Y+17, r25	; 0x11
    2434:	aa 8b       	std	Y+18, r26	; 0x12
    2436:	bb 8b       	std	Y+19, r27	; 0x13
				fs->fsi_flag = 1;
    2438:	9a 86       	std	Y+10, r9	; 0x0a
    243a:	86 01       	movw	r16, r12
    243c:	75 01       	movw	r14, r10
    243e:	02 c0       	rjmp	.+4      	; 0x2444 <remove_chain+0xc2>
    2440:	99 24       	eor	r9, r9
    2442:	93 94       	inc	r9
	if (clst < 2 || clst >= fs->max_clust) {	/* Check cluster address range */
		res = FR_INT_ERR;

	} else {
		res = FR_OK;
		while (clst < fs->max_clust) {			/* Not a last link? */
    2444:	8c 8d       	ldd	r24, Y+28	; 0x1c
    2446:	9d 8d       	ldd	r25, Y+29	; 0x1d
    2448:	ae 8d       	ldd	r26, Y+30	; 0x1e
    244a:	bf 8d       	ldd	r27, Y+31	; 0x1f
    244c:	e8 16       	cp	r14, r24
    244e:	f9 06       	cpc	r15, r25
    2450:	0a 07       	cpc	r16, r26
    2452:	1b 07       	cpc	r17, r27
    2454:	08 f4       	brcc	.+2      	; 0x2458 <remove_chain+0xd6>
    2456:	b4 cf       	rjmp	.-152    	; 0x23c0 <remove_chain+0x3e>
    2458:	02 c0       	rjmp	.+4      	; 0x245e <remove_chain+0xdc>
    245a:	82 e0       	ldi	r24, 0x02	; 2
    245c:	01 c0       	rjmp	.+2      	; 0x2460 <remove_chain+0xde>
    245e:	80 e0       	ldi	r24, 0x00	; 0
			clst = nxt;	/* Next cluster */
		}
	}

	return res;
}
    2460:	df 91       	pop	r29
    2462:	cf 91       	pop	r28
    2464:	1f 91       	pop	r17
    2466:	0f 91       	pop	r16
    2468:	ff 90       	pop	r15
    246a:	ef 90       	pop	r14
    246c:	df 90       	pop	r13
    246e:	cf 90       	pop	r12
    2470:	bf 90       	pop	r11
    2472:	af 90       	pop	r10
    2474:	9f 90       	pop	r9
    2476:	08 95       	ret

00002478 <f_truncate>:
/*-----------------------------------------------------------------------*/

FRESULT f_truncate (
	FIL *fp		/* Pointer to the file object */
)
{
    2478:	cf 92       	push	r12
    247a:	df 92       	push	r13
    247c:	ef 92       	push	r14
    247e:	ff 92       	push	r15
    2480:	0f 93       	push	r16
    2482:	1f 93       	push	r17
    2484:	cf 93       	push	r28
    2486:	df 93       	push	r29
    2488:	ec 01       	movw	r28, r24
	FRESULT res;
	DWORD ncl;


	res = validate(fp->fs, fp->id);		/* Check validity of the object */
    248a:	6a 81       	ldd	r22, Y+2	; 0x02
    248c:	7b 81       	ldd	r23, Y+3	; 0x03
    248e:	88 81       	ld	r24, Y
    2490:	99 81       	ldd	r25, Y+1	; 0x01
    2492:	0e 94 6b 07 	call	0xed6	; 0xed6 <validate>
    2496:	18 2f       	mov	r17, r24
	if (res != FR_OK) LEAVE_FF(fp->fs, res);
    2498:	88 23       	and	r24, r24
    249a:	09 f0       	breq	.+2      	; 0x249e <f_truncate+0x26>
    249c:	6e c0       	rjmp	.+220    	; 0x257a <f_truncate+0x102>
	if (fp->flag & FA__ERROR)			/* Check abort flag */
    249e:	6c 81       	ldd	r22, Y+4	; 0x04
    24a0:	67 ff       	sbrs	r22, 7
    24a2:	02 c0       	rjmp	.+4      	; 0x24a8 <f_truncate+0x30>
    24a4:	12 e0       	ldi	r17, 0x02	; 2
    24a6:	69 c0       	rjmp	.+210    	; 0x257a <f_truncate+0x102>
		LEAVE_FF(fp->fs, FR_INT_ERR);
	if (!(fp->flag & FA_WRITE))			/* Check access mode */
    24a8:	61 fd       	sbrc	r22, 1
    24aa:	02 c0       	rjmp	.+4      	; 0x24b0 <f_truncate+0x38>
    24ac:	17 e0       	ldi	r17, 0x07	; 7
    24ae:	65 c0       	rjmp	.+202    	; 0x257a <f_truncate+0x102>
		LEAVE_FF(fp->fs, FR_DENIED);

	if (fp->fsize > fp->fptr) {
    24b0:	2e 81       	ldd	r18, Y+6	; 0x06
    24b2:	3f 81       	ldd	r19, Y+7	; 0x07
    24b4:	48 85       	ldd	r20, Y+8	; 0x08
    24b6:	59 85       	ldd	r21, Y+9	; 0x09
    24b8:	8a 85       	ldd	r24, Y+10	; 0x0a
    24ba:	9b 85       	ldd	r25, Y+11	; 0x0b
    24bc:	ac 85       	ldd	r26, Y+12	; 0x0c
    24be:	bd 85       	ldd	r27, Y+13	; 0x0d
    24c0:	28 17       	cp	r18, r24
    24c2:	39 07       	cpc	r19, r25
    24c4:	4a 07       	cpc	r20, r26
    24c6:	5b 07       	cpc	r21, r27
    24c8:	08 f0       	brcs	.+2      	; 0x24cc <f_truncate+0x54>
    24ca:	57 c0       	rjmp	.+174    	; 0x257a <f_truncate+0x102>
		fp->fsize = fp->fptr;	/* Set file size to current R/W point */
    24cc:	2a 87       	std	Y+10, r18	; 0x0a
    24ce:	3b 87       	std	Y+11, r19	; 0x0b
    24d0:	4c 87       	std	Y+12, r20	; 0x0c
    24d2:	5d 87       	std	Y+13, r21	; 0x0d
		fp->flag |= FA__WRITTEN;
    24d4:	60 62       	ori	r22, 0x20	; 32
    24d6:	6c 83       	std	Y+4, r22	; 0x04
    24d8:	88 81       	ld	r24, Y
    24da:	99 81       	ldd	r25, Y+1	; 0x01
		if (fp->fptr == 0) {	/* When set file size to zero, remove entire cluster chain */
    24dc:	21 15       	cp	r18, r1
    24de:	31 05       	cpc	r19, r1
    24e0:	41 05       	cpc	r20, r1
    24e2:	51 05       	cpc	r21, r1
    24e4:	61 f4       	brne	.+24     	; 0x24fe <f_truncate+0x86>
			res = remove_chain(fp->fs, fp->org_clust);
    24e6:	4e 85       	ldd	r20, Y+14	; 0x0e
    24e8:	5f 85       	ldd	r21, Y+15	; 0x0f
    24ea:	68 89       	ldd	r22, Y+16	; 0x10
    24ec:	79 89       	ldd	r23, Y+17	; 0x11
    24ee:	0e 94 c1 11 	call	0x2382	; 0x2382 <remove_chain>
    24f2:	18 2f       	mov	r17, r24
			fp->org_clust = 0;
    24f4:	1e 86       	std	Y+14, r1	; 0x0e
    24f6:	1f 86       	std	Y+15, r1	; 0x0f
    24f8:	18 8a       	std	Y+16, r1	; 0x10
    24fa:	19 8a       	std	Y+17, r1	; 0x11
    24fc:	39 c0       	rjmp	.+114    	; 0x2570 <f_truncate+0xf8>
		} else {				/* When truncate a part of the file, remove remaining clusters */
			ncl = get_cluster(fp->fs, fp->curr_clust);
    24fe:	4a 89       	ldd	r20, Y+18	; 0x12
    2500:	5b 89       	ldd	r21, Y+19	; 0x13
    2502:	6c 89       	ldd	r22, Y+20	; 0x14
    2504:	7d 89       	ldd	r23, Y+21	; 0x15
    2506:	0e 94 09 0c 	call	0x1812	; 0x1812 <get_cluster>
    250a:	6b 01       	movw	r12, r22
    250c:	7c 01       	movw	r14, r24
			res = FR_OK;
			if (ncl == 0xFFFFFFFF) res = FR_DISK_ERR;
    250e:	8f ef       	ldi	r24, 0xFF	; 255
    2510:	c8 16       	cp	r12, r24
    2512:	8f ef       	ldi	r24, 0xFF	; 255
    2514:	d8 06       	cpc	r13, r24
    2516:	8f ef       	ldi	r24, 0xFF	; 255
    2518:	e8 06       	cpc	r14, r24
    251a:	8f ef       	ldi	r24, 0xFF	; 255
    251c:	f8 06       	cpc	r15, r24
    251e:	b9 f1       	breq	.+110    	; 0x258e <f_truncate+0x116>
			if (ncl == 1) res = FR_INT_ERR;
    2520:	81 e0       	ldi	r24, 0x01	; 1
    2522:	c8 16       	cp	r12, r24
    2524:	d1 04       	cpc	r13, r1
    2526:	e1 04       	cpc	r14, r1
    2528:	f1 04       	cpc	r15, r1
    252a:	11 f4       	brne	.+4      	; 0x2530 <f_truncate+0xb8>
    252c:	12 e0       	ldi	r17, 0x02	; 2
    252e:	22 c0       	rjmp	.+68     	; 0x2574 <f_truncate+0xfc>
			if (res == FR_OK && ncl < fp->fs->max_clust) {
    2530:	e8 81       	ld	r30, Y
    2532:	f9 81       	ldd	r31, Y+1	; 0x01
    2534:	84 8d       	ldd	r24, Z+28	; 0x1c
    2536:	95 8d       	ldd	r25, Z+29	; 0x1d
    2538:	a6 8d       	ldd	r26, Z+30	; 0x1e
    253a:	b7 8d       	ldd	r27, Z+31	; 0x1f
    253c:	c8 16       	cp	r12, r24
    253e:	d9 06       	cpc	r13, r25
    2540:	ea 06       	cpc	r14, r26
    2542:	fb 06       	cpc	r15, r27
    2544:	d0 f4       	brcc	.+52     	; 0x257a <f_truncate+0x102>
				res = put_cluster(fp->fs, fp->curr_clust, 0x0FFFFFFF);
    2546:	4a 89       	ldd	r20, Y+18	; 0x12
    2548:	5b 89       	ldd	r21, Y+19	; 0x13
    254a:	6c 89       	ldd	r22, Y+20	; 0x14
    254c:	7d 89       	ldd	r23, Y+21	; 0x15
    254e:	cf 01       	movw	r24, r30
    2550:	0f ef       	ldi	r16, 0xFF	; 255
    2552:	1f ef       	ldi	r17, 0xFF	; 255
    2554:	2f ef       	ldi	r18, 0xFF	; 255
    2556:	3f e0       	ldi	r19, 0x0F	; 15
    2558:	0e 94 e0 0d 	call	0x1bc0	; 0x1bc0 <put_cluster>
    255c:	18 2f       	mov	r17, r24
				if (res == FR_OK) res = remove_chain(fp->fs, ncl);
    255e:	88 23       	and	r24, r24
    2560:	49 f4       	brne	.+18     	; 0x2574 <f_truncate+0xfc>
    2562:	88 81       	ld	r24, Y
    2564:	99 81       	ldd	r25, Y+1	; 0x01
    2566:	b7 01       	movw	r22, r14
    2568:	a6 01       	movw	r20, r12
    256a:	0e 94 c1 11 	call	0x2382	; 0x2382 <remove_chain>
    256e:	18 2f       	mov	r17, r24
			}
		}
	}
	if (res != FR_OK) fp->flag |= FA__ERROR;
    2570:	11 23       	and	r17, r17
    2572:	19 f0       	breq	.+6      	; 0x257a <f_truncate+0x102>
    2574:	8c 81       	ldd	r24, Y+4	; 0x04
    2576:	80 68       	ori	r24, 0x80	; 128
    2578:	8c 83       	std	Y+4, r24	; 0x04

	LEAVE_FF(fp->fs, res);
}
    257a:	81 2f       	mov	r24, r17
    257c:	df 91       	pop	r29
    257e:	cf 91       	pop	r28
    2580:	1f 91       	pop	r17
    2582:	0f 91       	pop	r16
    2584:	ff 90       	pop	r15
    2586:	ef 90       	pop	r14
    2588:	df 90       	pop	r13
    258a:	cf 90       	pop	r12
    258c:	08 95       	ret
				res = put_cluster(fp->fs, fp->curr_clust, 0x0FFFFFFF);
				if (res == FR_OK) res = remove_chain(fp->fs, ncl);
			}
		}
	}
	if (res != FR_OK) fp->flag |= FA__ERROR;
    258e:	11 e0       	ldi	r17, 0x01	; 1
    2590:	f1 cf       	rjmp	.-30     	; 0x2574 <f_truncate+0xfc>

00002592 <dir_next>:
static
FRESULT dir_next (	/* FR_OK:Succeeded, FR_NO_FILE:End of table, FR_DENIED:EOT and could not streach */
	DIR *dj,		/* Pointer to directory object */
	BOOL streach	/* FALSE: Do not streach table, TRUE: Streach table if needed */
)
{
    2592:	4f 92       	push	r4
    2594:	5f 92       	push	r5
    2596:	6f 92       	push	r6
    2598:	7f 92       	push	r7
    259a:	8f 92       	push	r8
    259c:	9f 92       	push	r9
    259e:	af 92       	push	r10
    25a0:	bf 92       	push	r11
    25a2:	cf 92       	push	r12
    25a4:	df 92       	push	r13
    25a6:	ef 92       	push	r14
    25a8:	ff 92       	push	r15
    25aa:	0f 93       	push	r16
    25ac:	1f 93       	push	r17
    25ae:	cf 93       	push	r28
    25b0:	df 93       	push	r29
    25b2:	ec 01       	movw	r28, r24
    25b4:	d6 2e       	mov	r13, r22
	DWORD clst;
	WORD i;


	i = dj->index + 1;
    25b6:	6a 80       	ldd	r6, Y+2	; 0x02
    25b8:	7b 80       	ldd	r7, Y+3	; 0x03
    25ba:	08 94       	sec
    25bc:	61 1c       	adc	r6, r1
    25be:	71 1c       	adc	r7, r1
	if (!i || !dj->sect)	/* Report EOT when index has reached 65535 */
    25c0:	61 14       	cp	r6, r1
    25c2:	71 04       	cpc	r7, r1
    25c4:	09 f4       	brne	.+2      	; 0x25c8 <dir_next+0x36>
    25c6:	4f c1       	rjmp	.+670    	; 0x2866 <dir_next+0x2d4>
    25c8:	8e 85       	ldd	r24, Y+14	; 0x0e
    25ca:	9f 85       	ldd	r25, Y+15	; 0x0f
    25cc:	a8 89       	ldd	r26, Y+16	; 0x10
    25ce:	b9 89       	ldd	r27, Y+17	; 0x11
    25d0:	00 97       	sbiw	r24, 0x00	; 0
    25d2:	a1 05       	cpc	r26, r1
    25d4:	b1 05       	cpc	r27, r1
    25d6:	09 f4       	brne	.+2      	; 0x25da <dir_next+0x48>
    25d8:	46 c1       	rjmp	.+652    	; 0x2866 <dir_next+0x2d4>
		return FR_NO_FILE;

	if (!(i % (SS(dj->fs) / 32))) {	/* Sector changed? */
    25da:	1f e0       	ldi	r17, 0x0F	; 15
    25dc:	41 2e       	mov	r4, r17
    25de:	51 2c       	mov	r5, r1
    25e0:	46 20       	and	r4, r6
    25e2:	57 20       	and	r5, r7
    25e4:	41 14       	cp	r4, r1
    25e6:	51 04       	cpc	r5, r1
    25e8:	09 f0       	breq	.+2      	; 0x25ec <dir_next+0x5a>
    25ea:	2a c1       	rjmp	.+596    	; 0x2840 <dir_next+0x2ae>
		dj->sect++;					/* Next sector */
    25ec:	01 96       	adiw	r24, 0x01	; 1
    25ee:	a1 1d       	adc	r26, r1
    25f0:	b1 1d       	adc	r27, r1
    25f2:	8e 87       	std	Y+14, r24	; 0x0e
    25f4:	9f 87       	std	Y+15, r25	; 0x0f
    25f6:	a8 8b       	std	Y+16, r26	; 0x10
    25f8:	b9 8b       	std	Y+17, r27	; 0x11

		if (dj->sclust == 0) {	/* Static table */
    25fa:	8e 81       	ldd	r24, Y+6	; 0x06
    25fc:	9f 81       	ldd	r25, Y+7	; 0x07
    25fe:	a8 85       	ldd	r26, Y+8	; 0x08
    2600:	b9 85       	ldd	r27, Y+9	; 0x09
    2602:	ec 81       	ldd	r30, Y+4	; 0x04
    2604:	fd 81       	ldd	r31, Y+5	; 0x05
    2606:	00 97       	sbiw	r24, 0x00	; 0
    2608:	a1 05       	cpc	r26, r1
    260a:	b1 05       	cpc	r27, r1
    260c:	39 f4       	brne	.+14     	; 0x261c <dir_next+0x8a>
			if (i >= dj->fs->n_rootdir)	/* Report EOT when end of table */
    260e:	80 85       	ldd	r24, Z+8	; 0x08
    2610:	91 85       	ldd	r25, Z+9	; 0x09
    2612:	68 16       	cp	r6, r24
    2614:	79 06       	cpc	r7, r25
    2616:	08 f4       	brcc	.+2      	; 0x261a <dir_next+0x88>
    2618:	13 c1       	rjmp	.+550    	; 0x2840 <dir_next+0x2ae>
    261a:	25 c1       	rjmp	.+586    	; 0x2866 <dir_next+0x2d4>
				return FR_NO_FILE;
		}
		else {					/* Dynamic table */
			if (((i / (SS(dj->fs) / 32)) & (dj->fs->csize - 1)) == 0) {	/* Cluster changed? */
    261c:	82 81       	ldd	r24, Z+2	; 0x02
    261e:	90 e0       	ldi	r25, 0x00	; 0
    2620:	01 97       	sbiw	r24, 0x01	; 1
    2622:	93 01       	movw	r18, r6
    2624:	a4 e0       	ldi	r26, 0x04	; 4
    2626:	36 95       	lsr	r19
    2628:	27 95       	ror	r18
    262a:	aa 95       	dec	r26
    262c:	e1 f7       	brne	.-8      	; 0x2626 <dir_next+0x94>
    262e:	82 23       	and	r24, r18
    2630:	93 23       	and	r25, r19
    2632:	89 2b       	or	r24, r25
    2634:	09 f0       	breq	.+2      	; 0x2638 <dir_next+0xa6>
    2636:	04 c1       	rjmp	.+520    	; 0x2840 <dir_next+0x2ae>
				clst = get_cluster(dj->fs, dj->clust);			/* Get next cluster */
    2638:	4a 85       	ldd	r20, Y+10	; 0x0a
    263a:	5b 85       	ldd	r21, Y+11	; 0x0b
    263c:	6c 85       	ldd	r22, Y+12	; 0x0c
    263e:	7d 85       	ldd	r23, Y+13	; 0x0d
    2640:	cf 01       	movw	r24, r30
    2642:	0e 94 09 0c 	call	0x1812	; 0x1812 <get_cluster>
    2646:	7b 01       	movw	r14, r22
    2648:	8c 01       	movw	r16, r24
				if (clst <= 1) return FR_INT_ERR;
    264a:	62 30       	cpi	r22, 0x02	; 2
    264c:	71 05       	cpc	r23, r1
    264e:	81 05       	cpc	r24, r1
    2650:	91 05       	cpc	r25, r1
    2652:	08 f4       	brcc	.+2      	; 0x2656 <dir_next+0xc4>
    2654:	0a c1       	rjmp	.+532    	; 0x286a <dir_next+0x2d8>
				if (clst == 0xFFFFFFFF) return FR_DISK_ERR;
    2656:	8f ef       	ldi	r24, 0xFF	; 255
    2658:	e8 16       	cp	r14, r24
    265a:	8f ef       	ldi	r24, 0xFF	; 255
    265c:	f8 06       	cpc	r15, r24
    265e:	8f ef       	ldi	r24, 0xFF	; 255
    2660:	08 07       	cpc	r16, r24
    2662:	8f ef       	ldi	r24, 0xFF	; 255
    2664:	18 07       	cpc	r17, r24
    2666:	09 f4       	brne	.+2      	; 0x266a <dir_next+0xd8>
    2668:	02 c1       	rjmp	.+516    	; 0x286e <dir_next+0x2dc>
				if (clst >= dj->fs->max_clust) {				/* When it reached end of dinamic table */
    266a:	ec 81       	ldd	r30, Y+4	; 0x04
    266c:	fd 81       	ldd	r31, Y+5	; 0x05
    266e:	84 8d       	ldd	r24, Z+28	; 0x1c
    2670:	95 8d       	ldd	r25, Z+29	; 0x1d
    2672:	a6 8d       	ldd	r26, Z+30	; 0x1e
    2674:	b7 8d       	ldd	r27, Z+31	; 0x1f
    2676:	e8 16       	cp	r14, r24
    2678:	f9 06       	cpc	r15, r25
    267a:	0a 07       	cpc	r16, r26
    267c:	1b 07       	cpc	r17, r27
    267e:	08 f4       	brcc	.+2      	; 0x2682 <dir_next+0xf0>
    2680:	a6 c0       	rjmp	.+332    	; 0x27ce <dir_next+0x23c>
#if !_FS_READONLY
					BYTE c;
					if (!streach) return FR_NO_FILE;			/* When do not streach, report EOT */
    2682:	dd 20       	and	r13, r13
    2684:	09 f4       	brne	.+2      	; 0x2688 <dir_next+0xf6>
    2686:	ef c0       	rjmp	.+478    	; 0x2866 <dir_next+0x2d4>
					clst = create_chain(dj->fs, dj->clust);		/* Streach cluster chain */
    2688:	4a 85       	ldd	r20, Y+10	; 0x0a
    268a:	5b 85       	ldd	r21, Y+11	; 0x0b
    268c:	6c 85       	ldd	r22, Y+12	; 0x0c
    268e:	7d 85       	ldd	r23, Y+13	; 0x0d
    2690:	cf 01       	movw	r24, r30
    2692:	0e 94 ce 0e 	call	0x1d9c	; 0x1d9c <create_chain>
    2696:	7b 01       	movw	r14, r22
    2698:	8c 01       	movw	r16, r24
					if (clst == 0) return FR_DENIED;			/* No free cluster */
    269a:	61 15       	cp	r22, r1
    269c:	71 05       	cpc	r23, r1
    269e:	81 05       	cpc	r24, r1
    26a0:	91 05       	cpc	r25, r1
    26a2:	11 f4       	brne	.+4      	; 0x26a8 <dir_next+0x116>
    26a4:	87 e0       	ldi	r24, 0x07	; 7
    26a6:	e4 c0       	rjmp	.+456    	; 0x2870 <dir_next+0x2de>
					if (clst == 1) return FR_INT_ERR;
    26a8:	91 e0       	ldi	r25, 0x01	; 1
    26aa:	e9 16       	cp	r14, r25
    26ac:	f1 04       	cpc	r15, r1
    26ae:	01 05       	cpc	r16, r1
    26b0:	11 05       	cpc	r17, r1
    26b2:	09 f4       	brne	.+2      	; 0x26b6 <dir_next+0x124>
    26b4:	da c0       	rjmp	.+436    	; 0x286a <dir_next+0x2d8>
					if (clst == 0xFFFFFFFF) return FR_DISK_ERR;
    26b6:	af ef       	ldi	r26, 0xFF	; 255
    26b8:	ea 16       	cp	r14, r26
    26ba:	af ef       	ldi	r26, 0xFF	; 255
    26bc:	fa 06       	cpc	r15, r26
    26be:	af ef       	ldi	r26, 0xFF	; 255
    26c0:	0a 07       	cpc	r16, r26
    26c2:	af ef       	ldi	r26, 0xFF	; 255
    26c4:	1a 07       	cpc	r17, r26
    26c6:	09 f4       	brne	.+2      	; 0x26ca <dir_next+0x138>
    26c8:	d2 c0       	rjmp	.+420    	; 0x286e <dir_next+0x2dc>
					/* Clean-up streached table */
					if (move_window(dj->fs, 0)) return FR_DISK_ERR;	/* Flush active window */
    26ca:	8c 81       	ldd	r24, Y+4	; 0x04
    26cc:	9d 81       	ldd	r25, Y+5	; 0x05
    26ce:	40 e0       	ldi	r20, 0x00	; 0
    26d0:	50 e0       	ldi	r21, 0x00	; 0
    26d2:	60 e0       	ldi	r22, 0x00	; 0
    26d4:	70 e0       	ldi	r23, 0x00	; 0
    26d6:	0e 94 90 0b 	call	0x1720	; 0x1720 <move_window>
    26da:	88 23       	and	r24, r24
    26dc:	09 f0       	breq	.+2      	; 0x26e0 <dir_next+0x14e>
    26de:	c7 c0       	rjmp	.+398    	; 0x286e <dir_next+0x2dc>
}

/* Fill memory */
static
void mem_set (void* dst, int val, int cnt) {
	char *d = (char*)dst;
    26e0:	ec 81       	ldd	r30, Y+4	; 0x04
    26e2:	fd 81       	ldd	r31, Y+5	; 0x05
    26e4:	f0 96       	adiw	r30, 0x30	; 48
    26e6:	80 e0       	ldi	r24, 0x00	; 0
    26e8:	92 e0       	ldi	r25, 0x02	; 2
    26ea:	01 c0       	rjmp	.+2      	; 0x26ee <dir_next+0x15c>
	while (cnt--) *d++ = (char)val;
    26ec:	11 92       	st	Z+, r1
    26ee:	01 97       	sbiw	r24, 0x01	; 1
    26f0:	bf ef       	ldi	r27, 0xFF	; 255
    26f2:	8f 3f       	cpi	r24, 0xFF	; 255
    26f4:	9b 07       	cpc	r25, r27
    26f6:	d1 f7       	brne	.-12     	; 0x26ec <dir_next+0x15a>
					if (clst == 1) return FR_INT_ERR;
					if (clst == 0xFFFFFFFF) return FR_DISK_ERR;
					/* Clean-up streached table */
					if (move_window(dj->fs, 0)) return FR_DISK_ERR;	/* Flush active window */
					mem_set(dj->fs->win, 0, SS(dj->fs));			/* Clear window buffer */
					dj->fs->winsect = clust2sect(dj->fs, clst);	/* Cluster start sector */
    26f8:	8c 80       	ldd	r8, Y+4	; 0x04
    26fa:	9d 80       	ldd	r9, Y+5	; 0x05
DWORD clust2sect (	/* !=0: sector number, 0: failed - invalid cluster# */
	FATFS *fs,		/* File system object */
	DWORD clst		/* Cluster# to be converted */
)
{
	clst -= 2;
    26fc:	ee ef       	ldi	r30, 0xFE	; 254
    26fe:	ae 2e       	mov	r10, r30
    2700:	ef ef       	ldi	r30, 0xFF	; 255
    2702:	be 2e       	mov	r11, r30
    2704:	ef ef       	ldi	r30, 0xFF	; 255
    2706:	ce 2e       	mov	r12, r30
    2708:	ef ef       	ldi	r30, 0xFF	; 255
    270a:	de 2e       	mov	r13, r30
    270c:	ae 0c       	add	r10, r14
    270e:	bf 1c       	adc	r11, r15
    2710:	c0 1e       	adc	r12, r16
    2712:	d1 1e       	adc	r13, r17
	if (clst >= (fs->max_clust - 2)) return 0;		/* Invalid cluster# */
    2714:	f4 01       	movw	r30, r8
    2716:	84 8d       	ldd	r24, Z+28	; 0x1c
    2718:	95 8d       	ldd	r25, Z+29	; 0x1d
    271a:	a6 8d       	ldd	r26, Z+30	; 0x1e
    271c:	b7 8d       	ldd	r27, Z+31	; 0x1f
    271e:	02 97       	sbiw	r24, 0x02	; 2
    2720:	a1 09       	sbc	r26, r1
    2722:	b1 09       	sbc	r27, r1
    2724:	a8 16       	cp	r10, r24
    2726:	b9 06       	cpc	r11, r25
    2728:	ca 06       	cpc	r12, r26
    272a:	db 06       	cpc	r13, r27
    272c:	28 f0       	brcs	.+10     	; 0x2738 <dir_next+0x1a6>
    272e:	20 e0       	ldi	r18, 0x00	; 0
    2730:	30 e0       	ldi	r19, 0x00	; 0
    2732:	40 e0       	ldi	r20, 0x00	; 0
    2734:	50 e0       	ldi	r21, 0x00	; 0
    2736:	15 c0       	rjmp	.+42     	; 0x2762 <dir_next+0x1d0>
	return clst * fs->csize + fs->database;
    2738:	d4 01       	movw	r26, r8
    273a:	12 96       	adiw	r26, 0x02	; 2
    273c:	2c 91       	ld	r18, X
    273e:	30 e0       	ldi	r19, 0x00	; 0
    2740:	40 e0       	ldi	r20, 0x00	; 0
    2742:	50 e0       	ldi	r21, 0x00	; 0
    2744:	c6 01       	movw	r24, r12
    2746:	b5 01       	movw	r22, r10
    2748:	0e 94 2e 28 	call	0x505c	; 0x505c <__mulsi3>
    274c:	9b 01       	movw	r18, r22
    274e:	ac 01       	movw	r20, r24
    2750:	f4 01       	movw	r30, r8
    2752:	80 a5       	ldd	r24, Z+40	; 0x28
    2754:	91 a5       	ldd	r25, Z+41	; 0x29
    2756:	a2 a5       	ldd	r26, Z+42	; 0x2a
    2758:	b3 a5       	ldd	r27, Z+43	; 0x2b
    275a:	28 0f       	add	r18, r24
    275c:	39 1f       	adc	r19, r25
    275e:	4a 1f       	adc	r20, r26
    2760:	5b 1f       	adc	r21, r27
					if (clst == 1) return FR_INT_ERR;
					if (clst == 0xFFFFFFFF) return FR_DISK_ERR;
					/* Clean-up streached table */
					if (move_window(dj->fs, 0)) return FR_DISK_ERR;	/* Flush active window */
					mem_set(dj->fs->win, 0, SS(dj->fs));			/* Clear window buffer */
					dj->fs->winsect = clust2sect(dj->fs, clst);	/* Cluster start sector */
    2762:	d4 01       	movw	r26, r8
    2764:	9c 96       	adiw	r26, 0x2c	; 44
    2766:	2d 93       	st	X+, r18
    2768:	3d 93       	st	X+, r19
    276a:	4d 93       	st	X+, r20
    276c:	5c 93       	st	X, r21
    276e:	9f 97       	sbiw	r26, 0x2f	; 47
    2770:	dd 24       	eor	r13, r13
					for (c = 0; c < dj->fs->csize; c++) {		/* Fill the new cluster with 0 */
						dj->fs->wflag = 1;
    2772:	cc 24       	eor	r12, r12
    2774:	c3 94       	inc	r12
    2776:	1a c0       	rjmp	.+52     	; 0x27ac <dir_next+0x21a>
    2778:	c4 82       	std	Z+4, r12	; 0x04
						if (move_window(dj->fs, 0)) return FR_DISK_ERR;
    277a:	8c 81       	ldd	r24, Y+4	; 0x04
    277c:	9d 81       	ldd	r25, Y+5	; 0x05
    277e:	40 e0       	ldi	r20, 0x00	; 0
    2780:	50 e0       	ldi	r21, 0x00	; 0
    2782:	60 e0       	ldi	r22, 0x00	; 0
    2784:	70 e0       	ldi	r23, 0x00	; 0
    2786:	0e 94 90 0b 	call	0x1720	; 0x1720 <move_window>
    278a:	88 23       	and	r24, r24
    278c:	09 f0       	breq	.+2      	; 0x2790 <dir_next+0x1fe>
    278e:	6f c0       	rjmp	.+222    	; 0x286e <dir_next+0x2dc>
						dj->fs->winsect++;
    2790:	ec 81       	ldd	r30, Y+4	; 0x04
    2792:	fd 81       	ldd	r31, Y+5	; 0x05
    2794:	84 a5       	ldd	r24, Z+44	; 0x2c
    2796:	95 a5       	ldd	r25, Z+45	; 0x2d
    2798:	a6 a5       	ldd	r26, Z+46	; 0x2e
    279a:	b7 a5       	ldd	r27, Z+47	; 0x2f
    279c:	01 96       	adiw	r24, 0x01	; 1
    279e:	a1 1d       	adc	r26, r1
    27a0:	b1 1d       	adc	r27, r1
    27a2:	84 a7       	std	Z+44, r24	; 0x2c
    27a4:	95 a7       	std	Z+45, r25	; 0x2d
    27a6:	a6 a7       	std	Z+46, r26	; 0x2e
    27a8:	b7 a7       	std	Z+47, r27	; 0x2f
					if (clst == 0xFFFFFFFF) return FR_DISK_ERR;
					/* Clean-up streached table */
					if (move_window(dj->fs, 0)) return FR_DISK_ERR;	/* Flush active window */
					mem_set(dj->fs->win, 0, SS(dj->fs));			/* Clear window buffer */
					dj->fs->winsect = clust2sect(dj->fs, clst);	/* Cluster start sector */
					for (c = 0; c < dj->fs->csize; c++) {		/* Fill the new cluster with 0 */
    27aa:	d3 94       	inc	r13
    27ac:	ec 81       	ldd	r30, Y+4	; 0x04
    27ae:	fd 81       	ldd	r31, Y+5	; 0x05
    27b0:	82 81       	ldd	r24, Z+2	; 0x02
    27b2:	d8 16       	cp	r13, r24
    27b4:	08 f3       	brcs	.-62     	; 0x2778 <dir_next+0x1e6>
						dj->fs->wflag = 1;
						if (move_window(dj->fs, 0)) return FR_DISK_ERR;
						dj->fs->winsect++;
					}
					dj->fs->winsect -= c;						/* Rewind window address */
    27b6:	84 a5       	ldd	r24, Z+44	; 0x2c
    27b8:	95 a5       	ldd	r25, Z+45	; 0x2d
    27ba:	a6 a5       	ldd	r26, Z+46	; 0x2e
    27bc:	b7 a5       	ldd	r27, Z+47	; 0x2f
    27be:	8d 19       	sub	r24, r13
    27c0:	91 09       	sbc	r25, r1
    27c2:	a1 09       	sbc	r26, r1
    27c4:	b1 09       	sbc	r27, r1
    27c6:	84 a7       	std	Z+44, r24	; 0x2c
    27c8:	95 a7       	std	Z+45, r25	; 0x2d
    27ca:	a6 a7       	std	Z+46, r26	; 0x2e
    27cc:	b7 a7       	std	Z+47, r27	; 0x2f
#else
					return FR_NO_FILE;			/* Report EOT */
#endif
				}
				dj->clust = clst;				/* Initialize data for new cluster */
    27ce:	ea 86       	std	Y+10, r14	; 0x0a
    27d0:	fb 86       	std	Y+11, r15	; 0x0b
    27d2:	0c 87       	std	Y+12, r16	; 0x0c
    27d4:	1d 87       	std	Y+13, r17	; 0x0d
				dj->sect = clust2sect(dj->fs, clst);
    27d6:	cc 80       	ldd	r12, Y+4	; 0x04
    27d8:	dd 80       	ldd	r13, Y+5	; 0x05
DWORD clust2sect (	/* !=0: sector number, 0: failed - invalid cluster# */
	FATFS *fs,		/* File system object */
	DWORD clst		/* Cluster# to be converted */
)
{
	clst -= 2;
    27da:	8e ef       	ldi	r24, 0xFE	; 254
    27dc:	9f ef       	ldi	r25, 0xFF	; 255
    27de:	af ef       	ldi	r26, 0xFF	; 255
    27e0:	bf ef       	ldi	r27, 0xFF	; 255
    27e2:	e8 0e       	add	r14, r24
    27e4:	f9 1e       	adc	r15, r25
    27e6:	0a 1f       	adc	r16, r26
    27e8:	1b 1f       	adc	r17, r27
	if (clst >= (fs->max_clust - 2)) return 0;		/* Invalid cluster# */
    27ea:	f6 01       	movw	r30, r12
    27ec:	84 8d       	ldd	r24, Z+28	; 0x1c
    27ee:	95 8d       	ldd	r25, Z+29	; 0x1d
    27f0:	a6 8d       	ldd	r26, Z+30	; 0x1e
    27f2:	b7 8d       	ldd	r27, Z+31	; 0x1f
    27f4:	02 97       	sbiw	r24, 0x02	; 2
    27f6:	a1 09       	sbc	r26, r1
    27f8:	b1 09       	sbc	r27, r1
    27fa:	e8 16       	cp	r14, r24
    27fc:	f9 06       	cpc	r15, r25
    27fe:	0a 07       	cpc	r16, r26
    2800:	1b 07       	cpc	r17, r27
    2802:	28 f0       	brcs	.+10     	; 0x280e <dir_next+0x27c>
    2804:	20 e0       	ldi	r18, 0x00	; 0
    2806:	30 e0       	ldi	r19, 0x00	; 0
    2808:	40 e0       	ldi	r20, 0x00	; 0
    280a:	50 e0       	ldi	r21, 0x00	; 0
    280c:	15 c0       	rjmp	.+42     	; 0x2838 <dir_next+0x2a6>
	return clst * fs->csize + fs->database;
    280e:	d6 01       	movw	r26, r12
    2810:	12 96       	adiw	r26, 0x02	; 2
    2812:	2c 91       	ld	r18, X
    2814:	30 e0       	ldi	r19, 0x00	; 0
    2816:	40 e0       	ldi	r20, 0x00	; 0
    2818:	50 e0       	ldi	r21, 0x00	; 0
    281a:	c8 01       	movw	r24, r16
    281c:	b7 01       	movw	r22, r14
    281e:	0e 94 2e 28 	call	0x505c	; 0x505c <__mulsi3>
    2822:	9b 01       	movw	r18, r22
    2824:	ac 01       	movw	r20, r24
    2826:	f6 01       	movw	r30, r12
    2828:	80 a5       	ldd	r24, Z+40	; 0x28
    282a:	91 a5       	ldd	r25, Z+41	; 0x29
    282c:	a2 a5       	ldd	r26, Z+42	; 0x2a
    282e:	b3 a5       	ldd	r27, Z+43	; 0x2b
    2830:	28 0f       	add	r18, r24
    2832:	39 1f       	adc	r19, r25
    2834:	4a 1f       	adc	r20, r26
    2836:	5b 1f       	adc	r21, r27
#else
					return FR_NO_FILE;			/* Report EOT */
#endif
				}
				dj->clust = clst;				/* Initialize data for new cluster */
				dj->sect = clust2sect(dj->fs, clst);
    2838:	2e 87       	std	Y+14, r18	; 0x0e
    283a:	3f 87       	std	Y+15, r19	; 0x0f
    283c:	48 8b       	std	Y+16, r20	; 0x10
    283e:	59 8b       	std	Y+17, r21	; 0x11
			}
		}
	}

	dj->index = i;
    2840:	7b 82       	std	Y+3, r7	; 0x03
    2842:	6a 82       	std	Y+2, r6	; 0x02
	dj->dir = dj->fs->win + (i % (SS(dj->fs) / 32)) * 32;
    2844:	75 e0       	ldi	r23, 0x05	; 5
    2846:	44 0c       	add	r4, r4
    2848:	55 1c       	adc	r5, r5
    284a:	7a 95       	dec	r23
    284c:	e1 f7       	brne	.-8      	; 0x2846 <dir_next+0x2b4>
    284e:	80 e3       	ldi	r24, 0x30	; 48
    2850:	90 e0       	ldi	r25, 0x00	; 0
    2852:	48 0e       	add	r4, r24
    2854:	59 1e       	adc	r5, r25
    2856:	8c 81       	ldd	r24, Y+4	; 0x04
    2858:	9d 81       	ldd	r25, Y+5	; 0x05
    285a:	84 0d       	add	r24, r4
    285c:	95 1d       	adc	r25, r5
    285e:	9b 8b       	std	Y+19, r25	; 0x13
    2860:	8a 8b       	std	Y+18, r24	; 0x12
    2862:	80 e0       	ldi	r24, 0x00	; 0
    2864:	05 c0       	rjmp	.+10     	; 0x2870 <dir_next+0x2de>

	return FR_OK;
    2866:	84 e0       	ldi	r24, 0x04	; 4
    2868:	03 c0       	rjmp	.+6      	; 0x2870 <dir_next+0x2de>
    286a:	82 e0       	ldi	r24, 0x02	; 2
    286c:	01 c0       	rjmp	.+2      	; 0x2870 <dir_next+0x2de>
    286e:	81 e0       	ldi	r24, 0x01	; 1
}
    2870:	df 91       	pop	r29
    2872:	cf 91       	pop	r28
    2874:	1f 91       	pop	r17
    2876:	0f 91       	pop	r16
    2878:	ff 90       	pop	r15
    287a:	ef 90       	pop	r14
    287c:	df 90       	pop	r13
    287e:	cf 90       	pop	r12
    2880:	bf 90       	pop	r11
    2882:	af 90       	pop	r10
    2884:	9f 90       	pop	r9
    2886:	8f 90       	pop	r8
    2888:	7f 90       	pop	r7
    288a:	6f 90       	pop	r6
    288c:	5f 90       	pop	r5
    288e:	4f 90       	pop	r4
    2890:	08 95       	ret

00002892 <dir_find>:

static
FRESULT dir_find (
	DIR *dj			/* Pointer to the directory object linked to the file name */
)
{
    2892:	4f 92       	push	r4
    2894:	5f 92       	push	r5
    2896:	6f 92       	push	r6
    2898:	7f 92       	push	r7
    289a:	9f 92       	push	r9
    289c:	af 92       	push	r10
    289e:	bf 92       	push	r11
    28a0:	cf 92       	push	r12
    28a2:	df 92       	push	r13
    28a4:	ef 92       	push	r14
    28a6:	ff 92       	push	r15
    28a8:	0f 93       	push	r16
    28aa:	1f 93       	push	r17
    28ac:	cf 93       	push	r28
    28ae:	df 93       	push	r29
    28b0:	8c 01       	movw	r16, r24
	FRESULT res;
	BYTE a, c, lfen, ord, sum, *dir;


	res = dir_seek(dj, 0);			/* Rewind directory object */
    28b2:	60 e0       	ldi	r22, 0x00	; 0
    28b4:	70 e0       	ldi	r23, 0x00	; 0
    28b6:	0e 94 f5 0c 	call	0x19ea	; 0x19ea <dir_seek>
    28ba:	48 2f       	mov	r20, r24
	if (res != FR_OK) return res;
    28bc:	88 23       	and	r24, r24
    28be:	09 f0       	breq	.+2      	; 0x28c2 <dir_find+0x30>
    28c0:	e2 c0       	rjmp	.+452    	; 0x2a86 <dir_find+0x1f4>

	ord = sum = 0xFF; lfen = *(dj->fn+11) & 1;
    28c2:	d8 01       	movw	r26, r16
    28c4:	54 96       	adiw	r26, 0x14	; 20
    28c6:	ed 91       	ld	r30, X+
    28c8:	fc 91       	ld	r31, X
    28ca:	55 97       	sbiw	r26, 0x15	; 21
    28cc:	c3 84       	ldd	r12, Z+11	; 0x0b
    28ce:	b1 e0       	ldi	r27, 0x01	; 1
    28d0:	cb 22       	and	r12, r27
    28d2:	dd 24       	eor	r13, r13
    28d4:	da 94       	dec	r13
    28d6:	99 24       	eor	r9, r9
    28d8:	9a 94       	dec	r9
{
	int i, s;
	WCHAR wc1, wc2;


	i = ((dir[LDIR_Ord] & 0xBF) - 1) * 13;	/* Offset in the LFN buffer */
    28da:	4d e0       	ldi	r20, 0x0D	; 13
    28dc:	44 2e       	mov	r4, r20
    28de:	51 2c       	mov	r5, r1
					/* Check LFN validity. Compare LFN if it is out of 8.3 format */
					ord = (c == ord && sum == dir[LDIR_Chksum] && (!lfen || test_lfn(dj->lfn, dir))) ? ord - 1 : 0xFF;
				}
			} else {					/* An SFN entry is found */
				if (ord || sum != sum_sfn(dir)) {	/* Did not LFN match? */
					dj->lfn_idx = 0xFFFF;
    28e0:	66 24       	eor	r6, r6
    28e2:	6a 94       	dec	r6
    28e4:	76 2c       	mov	r7, r6
	res = dir_seek(dj, 0);			/* Rewind directory object */
	if (res != FR_OK) return res;

	ord = sum = 0xFF; lfen = *(dj->fn+11) & 1;
	do {
		res = move_window(dj->fs, dj->sect);
    28e6:	f8 01       	movw	r30, r16
    28e8:	46 85       	ldd	r20, Z+14	; 0x0e
    28ea:	57 85       	ldd	r21, Z+15	; 0x0f
    28ec:	60 89       	ldd	r22, Z+16	; 0x10
    28ee:	71 89       	ldd	r23, Z+17	; 0x11
    28f0:	84 81       	ldd	r24, Z+4	; 0x04
    28f2:	95 81       	ldd	r25, Z+5	; 0x05
    28f4:	0e 94 90 0b 	call	0x1720	; 0x1720 <move_window>
    28f8:	48 2f       	mov	r20, r24
		if (res != FR_OK) break;
    28fa:	88 23       	and	r24, r24
    28fc:	09 f0       	breq	.+2      	; 0x2900 <dir_find+0x6e>
    28fe:	c3 c0       	rjmp	.+390    	; 0x2a86 <dir_find+0x1f4>
		dir = dj->dir;					/* Ptr to the directory entry of current index */
    2900:	d8 01       	movw	r26, r16
    2902:	52 96       	adiw	r26, 0x12	; 18
    2904:	ed 90       	ld	r14, X+
    2906:	fc 90       	ld	r15, X
    2908:	53 97       	sbiw	r26, 0x13	; 19
		c = dir[DIR_Name];
    290a:	f7 01       	movw	r30, r14
    290c:	20 81       	ld	r18, Z
		if (c == 0) { res = FR_NO_FILE; break; }	/* Reached to end of table */
    290e:	22 23       	and	r18, r18
    2910:	11 f4       	brne	.+4      	; 0x2916 <dir_find+0x84>
    2912:	44 e0       	ldi	r20, 0x04	; 4
    2914:	b8 c0       	rjmp	.+368    	; 0x2a86 <dir_find+0x1f4>
		a = dir[DIR_Attr] & AM_MASK;
    2916:	d7 01       	movw	r26, r14
    2918:	1b 96       	adiw	r26, 0x0b	; 11
    291a:	8c 91       	ld	r24, X
#if _USE_LFN	/* LFN configuration */
		if (c == 0xE5 || c == '.' || ((a & AM_VOL) && a != AM_LFN)) {	/* An entry without valid data */
    291c:	25 3e       	cpi	r18, 0xE5	; 229
    291e:	09 f4       	brne	.+2      	; 0x2922 <dir_find+0x90>
    2920:	a8 c0       	rjmp	.+336    	; 0x2a72 <dir_find+0x1e0>
    2922:	2e 32       	cpi	r18, 0x2E	; 46
    2924:	09 f4       	brne	.+2      	; 0x2928 <dir_find+0x96>
    2926:	a5 c0       	rjmp	.+330    	; 0x2a72 <dir_find+0x1e0>
		res = move_window(dj->fs, dj->sect);
		if (res != FR_OK) break;
		dir = dj->dir;					/* Ptr to the directory entry of current index */
		c = dir[DIR_Name];
		if (c == 0) { res = FR_NO_FILE; break; }	/* Reached to end of table */
		a = dir[DIR_Attr] & AM_MASK;
    2928:	8f 73       	andi	r24, 0x3F	; 63
#if _USE_LFN	/* LFN configuration */
		if (c == 0xE5 || c == '.' || ((a & AM_VOL) && a != AM_LFN)) {	/* An entry without valid data */
    292a:	83 ff       	sbrs	r24, 3
    292c:	04 c0       	rjmp	.+8      	; 0x2936 <dir_find+0xa4>
    292e:	8f 30       	cpi	r24, 0x0F	; 15
    2930:	09 f0       	breq	.+2      	; 0x2934 <dir_find+0xa2>
    2932:	9f c0       	rjmp	.+318    	; 0x2a72 <dir_find+0x1e0>
    2934:	03 c0       	rjmp	.+6      	; 0x293c <dir_find+0xaa>
			ord = 0xFF;
		} else {
			if (a == AM_LFN) {			/* An LFN entry is found */
    2936:	8f 30       	cpi	r24, 0x0F	; 15
    2938:	09 f0       	breq	.+2      	; 0x293c <dir_find+0xaa>
    293a:	67 c0       	rjmp	.+206    	; 0x2a0a <dir_find+0x178>
				if (dj->lfn) {
    293c:	f8 01       	movw	r30, r16
    293e:	86 89       	ldd	r24, Z+22	; 0x16
    2940:	97 89       	ldd	r25, Z+23	; 0x17
    2942:	89 2b       	or	r24, r25
    2944:	09 f4       	brne	.+2      	; 0x2948 <dir_find+0xb6>
    2946:	97 c0       	rjmp	.+302    	; 0x2a76 <dir_find+0x1e4>
					if (c & 0x40) {		/* Is it start of LFN sequence? */
    2948:	26 ff       	sbrs	r18, 6
    294a:	0b c0       	rjmp	.+22     	; 0x2962 <dir_find+0xd0>
						sum = dir[LDIR_Chksum];
    294c:	d7 01       	movw	r26, r14
    294e:	1d 96       	adiw	r26, 0x0d	; 13
    2950:	9c 90       	ld	r9, X
						c &= 0xBF; ord = c;		/* LFN start order */
    2952:	3f eb       	ldi	r19, 0xBF	; 191
    2954:	d3 2e       	mov	r13, r19
    2956:	d2 22       	and	r13, r18
						dj->lfn_idx = dj->index;
    2958:	82 81       	ldd	r24, Z+2	; 0x02
    295a:	93 81       	ldd	r25, Z+3	; 0x03
    295c:	91 8f       	std	Z+25, r25	; 0x19
    295e:	80 8f       	std	Z+24, r24	; 0x18
    2960:	04 c0       	rjmp	.+8      	; 0x296a <dir_find+0xd8>
					}
					/* Check LFN validity. Compare LFN if it is out of 8.3 format */
					ord = (c == ord && sum == dir[LDIR_Chksum] && (!lfen || test_lfn(dj->lfn, dir))) ? ord - 1 : 0xFF;
    2962:	2d 15       	cp	r18, r13
    2964:	09 f0       	breq	.+2      	; 0x2968 <dir_find+0xd6>
    2966:	85 c0       	rjmp	.+266    	; 0x2a72 <dir_find+0x1e0>
    2968:	d2 2e       	mov	r13, r18
    296a:	f7 01       	movw	r30, r14
    296c:	85 85       	ldd	r24, Z+13	; 0x0d
    296e:	98 16       	cp	r9, r24
    2970:	09 f0       	breq	.+2      	; 0x2974 <dir_find+0xe2>
    2972:	7f c0       	rjmp	.+254    	; 0x2a72 <dir_find+0x1e0>
    2974:	cc 20       	and	r12, r12
    2976:	09 f4       	brne	.+2      	; 0x297a <dir_find+0xe8>
    2978:	46 c0       	rjmp	.+140    	; 0x2a06 <dir_find+0x174>
{
	int i, s;
	WCHAR wc1, wc2;


	i = ((dir[LDIR_Ord] & 0xBF) - 1) * 13;	/* Offset in the LFN buffer */
    297a:	80 81       	ld	r24, Z
    297c:	90 e0       	ldi	r25, 0x00	; 0
    297e:	8f 7b       	andi	r24, 0xBF	; 191
    2980:	90 70       	andi	r25, 0x00	; 0
    2982:	84 9d       	mul	r24, r4
    2984:	b0 01       	movw	r22, r0
    2986:	85 9d       	mul	r24, r5
    2988:	70 0d       	add	r23, r0
    298a:	94 9d       	mul	r25, r4
    298c:	70 0d       	add	r23, r0
    298e:	11 24       	eor	r1, r1
    2990:	6d 50       	subi	r22, 0x0D	; 13
    2992:	70 40       	sbci	r23, 0x00	; 0
    2994:	cf e4       	ldi	r28, 0x4F	; 79
    2996:	d1 e0       	ldi	r29, 0x01	; 1
    2998:	cb 01       	movw	r24, r22
    299a:	88 0f       	add	r24, r24
    299c:	99 1f       	adc	r25, r25
    299e:	f8 01       	movw	r30, r16
    29a0:	a6 89       	ldd	r26, Z+22	; 0x16
    29a2:	b7 89       	ldd	r27, Z+23	; 0x17
    29a4:	a8 0f       	add	r26, r24
    29a6:	b9 1f       	adc	r27, r25
	s = 0;
	do {
		if (i >= _MAX_LFN) return FALSE;	/* Out of buffer range? */
    29a8:	6f 3f       	cpi	r22, 0xFF	; 255
    29aa:	71 05       	cpc	r23, r1
    29ac:	0c f0       	brlt	.+2      	; 0x29b0 <dir_find+0x11e>
    29ae:	61 c0       	rjmp	.+194    	; 0x2a72 <dir_find+0x1e0>
		wc1 = LD_WORD(dir+LfnOfs[s]);		/* Get both characters to compare */
    29b0:	88 81       	ld	r24, Y
    29b2:	f7 01       	movw	r30, r14
    29b4:	e8 0f       	add	r30, r24
    29b6:	f1 1d       	adc	r31, r1
    29b8:	b1 80       	ldd	r11, Z+1	; 0x01
    29ba:	aa 24       	eor	r10, r10
    29bc:	80 81       	ld	r24, Z
    29be:	28 2f       	mov	r18, r24
    29c0:	30 e0       	ldi	r19, 0x00	; 0
    29c2:	2a 29       	or	r18, r10
    29c4:	3b 29       	or	r19, r11
		wc2 = lfnbuf[i++];
    29c6:	4d 91       	ld	r20, X+
    29c8:	5c 91       	ld	r21, X
    29ca:	11 97       	sbiw	r26, 0x01	; 1
		if (IsLower(wc1)) wc1 -= 0x20;		/* Compare it (ignore case) */
    29cc:	c9 01       	movw	r24, r18
    29ce:	81 56       	subi	r24, 0x61	; 97
    29d0:	90 40       	sbci	r25, 0x00	; 0
    29d2:	4a 97       	sbiw	r24, 0x1a	; 26
    29d4:	10 f4       	brcc	.+4      	; 0x29da <dir_find+0x148>
    29d6:	20 52       	subi	r18, 0x20	; 32
    29d8:	30 40       	sbci	r19, 0x00	; 0
		if (IsLower(wc2)) wc2 -= 0x20;
    29da:	ca 01       	movw	r24, r20
    29dc:	81 56       	subi	r24, 0x61	; 97
    29de:	90 40       	sbci	r25, 0x00	; 0
    29e0:	4a 97       	sbiw	r24, 0x1a	; 26
    29e2:	10 f4       	brcc	.+4      	; 0x29e8 <dir_find+0x156>
    29e4:	40 52       	subi	r20, 0x20	; 32
    29e6:	50 40       	sbci	r21, 0x00	; 0
		if (wc1 != wc2) return FALSE;
    29e8:	24 17       	cp	r18, r20
    29ea:	35 07       	cpc	r19, r21
    29ec:	09 f0       	breq	.+2      	; 0x29f0 <dir_find+0x15e>
    29ee:	41 c0       	rjmp	.+130    	; 0x2a72 <dir_find+0x1e0>
	} while (++s < 13 && wc1);				/* Repeat until last char or a NUL char is processed */
    29f0:	f1 e0       	ldi	r31, 0x01	; 1
    29f2:	cb 35       	cpi	r28, 0x5B	; 91
    29f4:	df 07       	cpc	r29, r31
    29f6:	39 f0       	breq	.+14     	; 0x2a06 <dir_find+0x174>
    29f8:	21 96       	adiw	r28, 0x01	; 1
    29fa:	12 96       	adiw	r26, 0x02	; 2
    29fc:	23 2b       	or	r18, r19
    29fe:	19 f0       	breq	.+6      	; 0x2a06 <dir_find+0x174>
	i = ((dir[LDIR_Ord] & 0xBF) - 1) * 13;	/* Offset in the LFN buffer */
	s = 0;
	do {
		if (i >= _MAX_LFN) return FALSE;	/* Out of buffer range? */
		wc1 = LD_WORD(dir+LfnOfs[s]);		/* Get both characters to compare */
		wc2 = lfnbuf[i++];
    2a00:	6f 5f       	subi	r22, 0xFF	; 255
    2a02:	7f 4f       	sbci	r23, 0xFF	; 255
    2a04:	d1 cf       	rjmp	.-94     	; 0x29a8 <dir_find+0x116>
						sum = dir[LDIR_Chksum];
						c &= 0xBF; ord = c;		/* LFN start order */
						dj->lfn_idx = dj->index;
					}
					/* Check LFN validity. Compare LFN if it is out of 8.3 format */
					ord = (c == ord && sum == dir[LDIR_Chksum] && (!lfen || test_lfn(dj->lfn, dir))) ? ord - 1 : 0xFF;
    2a06:	da 94       	dec	r13
    2a08:	36 c0       	rjmp	.+108    	; 0x2a76 <dir_find+0x1e4>
				}
			} else {					/* An SFN entry is found */
				if (ord || sum != sum_sfn(dir)) {	/* Did not LFN match? */
    2a0a:	dd 20       	and	r13, r13
    2a0c:	89 f4       	brne	.+34     	; 0x2a30 <dir_find+0x19e>
    2a0e:	f7 01       	movw	r30, r14
    2a10:	2b e0       	ldi	r18, 0x0B	; 11
    2a12:	30 e0       	ldi	r19, 0x00	; 0
    2a14:	90 e0       	ldi	r25, 0x00	; 0
)
{
	BYTE sum = 0;
	int n = 11;

	do sum = (sum >> 1) + (sum << 7) + *dir++; while (--n);
    2a16:	89 2f       	mov	r24, r25
    2a18:	87 95       	ror	r24
    2a1a:	88 27       	eor	r24, r24
    2a1c:	87 95       	ror	r24
    2a1e:	96 95       	lsr	r25
    2a20:	98 2b       	or	r25, r24
    2a22:	81 91       	ld	r24, Z+
    2a24:	98 0f       	add	r25, r24
    2a26:	21 50       	subi	r18, 0x01	; 1
    2a28:	30 40       	sbci	r19, 0x00	; 0
    2a2a:	a9 f7       	brne	.-22     	; 0x2a16 <dir_find+0x184>
					}
					/* Check LFN validity. Compare LFN if it is out of 8.3 format */
					ord = (c == ord && sum == dir[LDIR_Chksum] && (!lfen || test_lfn(dj->lfn, dir))) ? ord - 1 : 0xFF;
				}
			} else {					/* An SFN entry is found */
				if (ord || sum != sum_sfn(dir)) {	/* Did not LFN match? */
    2a2c:	99 16       	cp	r9, r25
    2a2e:	39 f0       	breq	.+14     	; 0x2a3e <dir_find+0x1ac>
					dj->lfn_idx = 0xFFFF;
    2a30:	d8 01       	movw	r26, r16
    2a32:	59 96       	adiw	r26, 0x19	; 25
    2a34:	7c 92       	st	X, r7
    2a36:	6e 92       	st	-X, r6
    2a38:	58 97       	sbiw	r26, 0x18	; 24
    2a3a:	dd 24       	eor	r13, r13
    2a3c:	da 94       	dec	r13
					ord = 0xFF;
				}
				if (lfen) {				/* Match LFN if it is out of 8.3 format */
    2a3e:	cc 20       	and	r12, r12
    2a40:	19 f0       	breq	.+6      	; 0x2a48 <dir_find+0x1b6>
					if (ord == 0) break;
    2a42:	dd 20       	and	r13, r13
    2a44:	c1 f4       	brne	.+48     	; 0x2a76 <dir_find+0x1e4>
    2a46:	1f c0       	rjmp	.+62     	; 0x2a86 <dir_find+0x1f4>
				} else {				/* Match SFN if LFN is in 8.3 format */
					if (!mem_cmp(dir, dj->fn, 11)) break;
    2a48:	f8 01       	movw	r30, r16
    2a4a:	84 89       	ldd	r24, Z+20	; 0x14
    2a4c:	95 89       	ldd	r25, Z+21	; 0x15
    2a4e:	9c 01       	movw	r18, r24
    2a50:	d9 01       	movw	r26, r18
    2a52:	f7 01       	movw	r30, r14
    2a54:	2b e0       	ldi	r18, 0x0B	; 11
    2a56:	30 e0       	ldi	r19, 0x00	; 0
/* Compare memory to memory */
static
int mem_cmp (const void* dst, const void* src, int cnt) {
	const char *d = (const char *)dst, *s = (const char *)src;
	int r = 0;
	while (cnt-- && (r = *d++ - *s++) == 0) ;
    2a58:	21 50       	subi	r18, 0x01	; 1
    2a5a:	30 40       	sbci	r19, 0x00	; 0
    2a5c:	8f ef       	ldi	r24, 0xFF	; 255
    2a5e:	2f 3f       	cpi	r18, 0xFF	; 255
    2a60:	38 07       	cpc	r19, r24
    2a62:	89 f0       	breq	.+34     	; 0x2a86 <dir_find+0x1f4>
    2a64:	90 81       	ld	r25, Z
    2a66:	8c 91       	ld	r24, X
    2a68:	98 17       	cp	r25, r24
    2a6a:	29 f4       	brne	.+10     	; 0x2a76 <dir_find+0x1e4>
    2a6c:	31 96       	adiw	r30, 0x01	; 1
    2a6e:	11 96       	adiw	r26, 0x01	; 1
    2a70:	f3 cf       	rjmp	.-26     	; 0x2a58 <dir_find+0x1c6>
    2a72:	dd 24       	eor	r13, r13
    2a74:	da 94       	dec	r13
		}
#else	/* Non LFN configuration */
		if (c != 0xE5 && c != '.' && !(a & AM_VOL) && !mem_cmp(dir, dj->fn, 11)) /* Is it a valid entry? */
			break;
#endif
		res = dir_next(dj, FALSE);				/* Next entry */
    2a76:	c8 01       	movw	r24, r16
    2a78:	60 e0       	ldi	r22, 0x00	; 0
    2a7a:	0e 94 c9 12 	call	0x2592	; 0x2592 <dir_next>
    2a7e:	48 2f       	mov	r20, r24
	} while (res == FR_OK);
    2a80:	88 23       	and	r24, r24
    2a82:	09 f4       	brne	.+2      	; 0x2a86 <dir_find+0x1f4>
    2a84:	30 cf       	rjmp	.-416    	; 0x28e6 <dir_find+0x54>

	return res;
}
    2a86:	84 2f       	mov	r24, r20
    2a88:	df 91       	pop	r29
    2a8a:	cf 91       	pop	r28
    2a8c:	1f 91       	pop	r17
    2a8e:	0f 91       	pop	r16
    2a90:	ff 90       	pop	r15
    2a92:	ef 90       	pop	r14
    2a94:	df 90       	pop	r13
    2a96:	cf 90       	pop	r12
    2a98:	bf 90       	pop	r11
    2a9a:	af 90       	pop	r10
    2a9c:	9f 90       	pop	r9
    2a9e:	7f 90       	pop	r7
    2aa0:	6f 90       	pop	r6
    2aa2:	5f 90       	pop	r5
    2aa4:	4f 90       	pop	r4
    2aa6:	08 95       	ret

00002aa8 <follow_path>:
static
FRESULT follow_path (	/* FR_OK(0): successful, !=0: error code */
	DIR *dj,			/* Directory object to return last directory and found object */
	const char *path	/* Full-path string to find a file or directory */
)
{
    2aa8:	2f 92       	push	r2
    2aaa:	3f 92       	push	r3
    2aac:	4f 92       	push	r4
    2aae:	5f 92       	push	r5
    2ab0:	6f 92       	push	r6
    2ab2:	7f 92       	push	r7
    2ab4:	8f 92       	push	r8
    2ab6:	9f 92       	push	r9
    2ab8:	af 92       	push	r10
    2aba:	bf 92       	push	r11
    2abc:	cf 92       	push	r12
    2abe:	df 92       	push	r13
    2ac0:	ef 92       	push	r14
    2ac2:	ff 92       	push	r15
    2ac4:	0f 93       	push	r16
    2ac6:	1f 93       	push	r17
    2ac8:	df 93       	push	r29
    2aca:	cf 93       	push	r28
    2acc:	cd b7       	in	r28, 0x3d	; 61
    2ace:	de b7       	in	r29, 0x3e	; 62
    2ad0:	28 97       	sbiw	r28, 0x08	; 8
    2ad2:	0f b6       	in	r0, 0x3f	; 63
    2ad4:	f8 94       	cli
    2ad6:	de bf       	out	0x3e, r29	; 62
    2ad8:	0f be       	out	0x3f, r0	; 63
    2ada:	cd bf       	out	0x3d, r28	; 61
    2adc:	4c 01       	movw	r8, r24
    2ade:	2b 01       	movw	r4, r22
	FRESULT res;
	BYTE *dir, last;


	if (*path == '/' || *path == '\\' ) path++;	/* Strip heading separator */
    2ae0:	db 01       	movw	r26, r22
    2ae2:	8c 91       	ld	r24, X
    2ae4:	8f 32       	cpi	r24, 0x2F	; 47
    2ae6:	11 f0       	breq	.+4      	; 0x2aec <follow_path+0x44>
    2ae8:	8c 35       	cpi	r24, 0x5C	; 92
    2aea:	19 f4       	brne	.+6      	; 0x2af2 <follow_path+0x4a>
    2aec:	08 94       	sec
    2aee:	41 1c       	adc	r4, r1
    2af0:	51 1c       	adc	r5, r1

	dj->sclust =						/* Set start directory (root dir) */
    2af2:	d4 01       	movw	r26, r8
    2af4:	14 96       	adiw	r26, 0x04	; 4
    2af6:	ed 91       	ld	r30, X+
    2af8:	fc 91       	ld	r31, X
    2afa:	15 97       	sbiw	r26, 0x05	; 5
    2afc:	80 81       	ld	r24, Z
    2afe:	83 30       	cpi	r24, 0x03	; 3
    2b00:	29 f0       	breq	.+10     	; 0x2b0c <follow_path+0x64>
    2b02:	80 e0       	ldi	r24, 0x00	; 0
    2b04:	90 e0       	ldi	r25, 0x00	; 0
    2b06:	a0 e0       	ldi	r26, 0x00	; 0
    2b08:	b0 e0       	ldi	r27, 0x00	; 0
    2b0a:	04 c0       	rjmp	.+8      	; 0x2b14 <follow_path+0x6c>
    2b0c:	84 a1       	ldd	r24, Z+36	; 0x24
    2b0e:	95 a1       	ldd	r25, Z+37	; 0x25
    2b10:	a6 a1       	ldd	r26, Z+38	; 0x26
    2b12:	b7 a1       	ldd	r27, Z+39	; 0x27
    2b14:	f4 01       	movw	r30, r8
    2b16:	86 83       	std	Z+6, r24	; 0x06
    2b18:	97 83       	std	Z+7, r25	; 0x07
    2b1a:	a0 87       	std	Z+8, r26	; 0x08
    2b1c:	b1 87       	std	Z+9, r27	; 0x09
		(dj->fs->fs_type == FS_FAT32) ? dj->fs->dirbase : 0;

	if ((BYTE)*path < ' ') {			/* Null path means the root directory */
    2b1e:	d2 01       	movw	r26, r4
    2b20:	8c 91       	ld	r24, X
    2b22:	80 32       	cpi	r24, 0x20	; 32
    2b24:	48 f4       	brcc	.+18     	; 0x2b38 <follow_path+0x90>
		res = dir_seek(dj, 0);
    2b26:	c4 01       	movw	r24, r8
    2b28:	60 e0       	ldi	r22, 0x00	; 0
    2b2a:	70 e0       	ldi	r23, 0x00	; 0
    2b2c:	0e 94 f5 0c 	call	0x19ea	; 0x19ea <dir_seek>
		dj->dir = NULL;
    2b30:	f4 01       	movw	r30, r8
    2b32:	13 8a       	std	Z+19, r1	; 0x13
    2b34:	12 8a       	std	Z+18, r1	; 0x12
    2b36:	9d c1       	rjmp	.+826    	; 0x2e72 <follow_path+0x3ca>
	const char *p;

	/* Create LFN in Unicode */
	si = di = 0;
	p = *path;
	lfn = dj->lfn;
    2b38:	d4 01       	movw	r26, r8
    2b3a:	56 96       	adiw	r26, 0x16	; 22
    2b3c:	2d 90       	ld	r2, X+
    2b3e:	3c 90       	ld	r3, X
    2b40:	57 97       	sbiw	r26, 0x17	; 23
    2b42:	81 01       	movw	r16, r2
    2b44:	71 01       	movw	r14, r2
    2b46:	18 86       	std	Y+8, r1	; 0x08
    2b48:	1f 82       	std	Y+7, r1	; 0x07
	for (;;) {
		w = (BYTE)p[si++];				/* Get a character */
    2b4a:	ef 81       	ldd	r30, Y+7	; 0x07
    2b4c:	f8 85       	ldd	r31, Y+8	; 0x08
    2b4e:	e4 0d       	add	r30, r4
    2b50:	f5 1d       	adc	r31, r5
    2b52:	80 81       	ld	r24, Z
    2b54:	28 2f       	mov	r18, r24
    2b56:	30 e0       	ldi	r19, 0x00	; 0
    2b58:	ef 81       	ldd	r30, Y+7	; 0x07
    2b5a:	f8 85       	ldd	r31, Y+8	; 0x08
    2b5c:	31 96       	adiw	r30, 0x01	; 1
    2b5e:	fa 83       	std	Y+2, r31	; 0x02
    2b60:	e9 83       	std	Y+1, r30	; 0x01
		if (w < ' ' || w == '/' || w == '\\') break;	/* Break on end of segment */
    2b62:	20 32       	cpi	r18, 0x20	; 32
    2b64:	31 05       	cpc	r19, r1
    2b66:	50 f1       	brcs	.+84     	; 0x2bbc <follow_path+0x114>
    2b68:	2f 32       	cpi	r18, 0x2F	; 47
    2b6a:	31 05       	cpc	r19, r1
    2b6c:	09 f4       	brne	.+2      	; 0x2b70 <follow_path+0xc8>
    2b6e:	9f c1       	rjmp	.+830    	; 0x2eae <follow_path+0x406>
    2b70:	2c 35       	cpi	r18, 0x5C	; 92
    2b72:	31 05       	cpc	r19, r1
    2b74:	09 f4       	brne	.+2      	; 0x2b78 <follow_path+0xd0>
    2b76:	9b c1       	rjmp	.+822    	; 0x2eae <follow_path+0x406>
			c = p[si++];				/* Get 2nd byte */
			if (!IsDBCS2(c))			/* Reject invalid DBC */
				return FR_INVALID_NAME;
			w = (w << 8) + c;
		} else {
			if (chk_chr("\"*:<>\?|\x7F", w))	/* Reject unallowable chars for LFN */
    2b78:	ef e3       	ldi	r30, 0x3F	; 63
    2b7a:	f1 e0       	ldi	r31, 0x01	; 1
    2b7c:	01 c0       	rjmp	.+2      	; 0x2b80 <follow_path+0xd8>
}

/* Check if chr is contained in the string */
static
int chk_chr (const char* str, int chr) {
	while (*str && *str != chr) str++;
    2b7e:	31 96       	adiw	r30, 0x01	; 1
    2b80:	80 81       	ld	r24, Z
    2b82:	88 23       	and	r24, r24
    2b84:	29 f0       	breq	.+10     	; 0x2b90 <follow_path+0xe8>
    2b86:	90 e0       	ldi	r25, 0x00	; 0
    2b88:	82 17       	cp	r24, r18
    2b8a:	93 07       	cpc	r25, r19
    2b8c:	c1 f7       	brne	.-16     	; 0x2b7e <follow_path+0xd6>
    2b8e:	6c c1       	rjmp	.+728    	; 0x2e68 <follow_path+0x3c0>
			w = (w << 8) + c;
		} else {
			if (chk_chr("\"*:<>\?|\x7F", w))	/* Reject unallowable chars for LFN */
				return FR_INVALID_NAME;
		}
		w = ff_convert(w, 1);			/* Convert OEM to Unicode, store it */
    2b90:	c9 01       	movw	r24, r18
    2b92:	61 e0       	ldi	r22, 0x01	; 1
    2b94:	70 e0       	ldi	r23, 0x00	; 0
    2b96:	0e 94 03 28 	call	0x5006	; 0x5006 <ff_convert>
		if (!w || di >= _MAX_LFN)		/* Reject invalid code or too long name */
    2b9a:	00 97       	sbiw	r24, 0x00	; 0
    2b9c:	09 f4       	brne	.+2      	; 0x2ba0 <follow_path+0xf8>
    2b9e:	64 c1       	rjmp	.+712    	; 0x2e68 <follow_path+0x3c0>
    2ba0:	29 81       	ldd	r18, Y+1	; 0x01
    2ba2:	3a 81       	ldd	r19, Y+2	; 0x02
    2ba4:	41 e0       	ldi	r20, 0x01	; 1
    2ba6:	20 30       	cpi	r18, 0x00	; 0
    2ba8:	34 07       	cpc	r19, r20
    2baa:	09 f4       	brne	.+2      	; 0x2bae <follow_path+0x106>
    2bac:	5d c1       	rjmp	.+698    	; 0x2e68 <follow_path+0x3c0>
			return FR_INVALID_NAME;
		lfn[di++] = w;
    2bae:	d7 01       	movw	r26, r14
    2bb0:	8d 93       	st	X+, r24
    2bb2:	9d 93       	st	X+, r25
    2bb4:	7d 01       	movw	r14, r26
    2bb6:	38 87       	std	Y+8, r19	; 0x08
    2bb8:	2f 83       	std	Y+7, r18	; 0x07
    2bba:	c7 cf       	rjmp	.-114    	; 0x2b4a <follow_path+0xa2>
    2bbc:	24 e0       	ldi	r18, 0x04	; 4
    2bbe:	d2 2e       	mov	r13, r18
    2bc0:	ef 81       	ldd	r30, Y+7	; 0x07
    2bc2:	f8 85       	ldd	r31, Y+8	; 0x08
    2bc4:	31 97       	sbiw	r30, 0x01	; 1
    2bc6:	ee 0f       	add	r30, r30
    2bc8:	ff 1f       	adc	r31, r31
    2bca:	e2 0d       	add	r30, r2
    2bcc:	f3 1d       	adc	r31, r3
    2bce:	1d c0       	rjmp	.+58     	; 0x2c0a <follow_path+0x162>
	}
	*path = &p[si];						/* Rerurn pointer to the next segment */
	cf = (w < ' ') ? 4 : 0;				/* Set last segment flag if end of path */

	while (di) {						/* Strip trailing spaces and dots */
		w = lfn[di - 1];
    2bd0:	80 81       	ld	r24, Z
    2bd2:	91 81       	ldd	r25, Z+1	; 0x01
		if (w != ' ' && w != '.') break;
    2bd4:	80 32       	cpi	r24, 0x20	; 32
    2bd6:	91 05       	cpc	r25, r1
    2bd8:	89 f0       	breq	.+34     	; 0x2bfc <follow_path+0x154>
    2bda:	8e 97       	sbiw	r24, 0x2e	; 46
    2bdc:	79 f0       	breq	.+30     	; 0x2bfc <follow_path+0x154>
		di--;
	}
	if (!di) return FR_INVALID_NAME;	/* Reject null string */

	lfn[di] = 0;						/* LFN is created */
    2bde:	ef 81       	ldd	r30, Y+7	; 0x07
    2be0:	f8 85       	ldd	r31, Y+8	; 0x08
    2be2:	ee 0f       	add	r30, r30
    2be4:	ff 1f       	adc	r31, r31
    2be6:	e2 0d       	add	r30, r2
    2be8:	f3 1d       	adc	r31, r3
    2bea:	11 82       	std	Z+1, r1	; 0x01
    2bec:	10 82       	st	Z, r1

	/* Create SFN in directory form */
	sfn = dj->fn;
    2bee:	f4 01       	movw	r30, r8
    2bf0:	64 88       	ldd	r6, Z+20	; 0x14
    2bf2:	75 88       	ldd	r7, Z+21	; 0x15
    2bf4:	f3 01       	movw	r30, r6
    2bf6:	8b e0       	ldi	r24, 0x0B	; 11
    2bf8:	90 e0       	ldi	r25, 0x00	; 0
    2bfa:	0e c0       	rjmp	.+28     	; 0x2c18 <follow_path+0x170>
	cf = (w < ' ') ? 4 : 0;				/* Set last segment flag if end of path */

	while (di) {						/* Strip trailing spaces and dots */
		w = lfn[di - 1];
		if (w != ' ' && w != '.') break;
		di--;
    2bfc:	2f 81       	ldd	r18, Y+7	; 0x07
    2bfe:	38 85       	ldd	r19, Y+8	; 0x08
    2c00:	21 50       	subi	r18, 0x01	; 1
    2c02:	30 40       	sbci	r19, 0x00	; 0
    2c04:	38 87       	std	Y+8, r19	; 0x08
    2c06:	2f 83       	std	Y+7, r18	; 0x07
    2c08:	32 97       	sbiw	r30, 0x02	; 2
		lfn[di++] = w;
	}
	*path = &p[si];						/* Rerurn pointer to the next segment */
	cf = (w < ' ') ? 4 : 0;				/* Set last segment flag if end of path */

	while (di) {						/* Strip trailing spaces and dots */
    2c0a:	6f 81       	ldd	r22, Y+7	; 0x07
    2c0c:	78 85       	ldd	r23, Y+8	; 0x08
    2c0e:	67 2b       	or	r22, r23
    2c10:	f9 f6       	brne	.-66     	; 0x2bd0 <follow_path+0x128>
    2c12:	2a c1       	rjmp	.+596    	; 0x2e68 <follow_path+0x3c0>

/* Fill memory */
static
void mem_set (void* dst, int val, int cnt) {
	char *d = (char*)dst;
	while (cnt--) *d++ = (char)val;
    2c14:	70 e2       	ldi	r23, 0x20	; 32
    2c16:	71 93       	st	Z+, r23
    2c18:	01 97       	sbiw	r24, 0x01	; 1
    2c1a:	af ef       	ldi	r26, 0xFF	; 255
    2c1c:	8f 3f       	cpi	r24, 0xFF	; 255
    2c1e:	9a 07       	cpc	r25, r26
    2c20:	c9 f7       	brne	.-14     	; 0x2c14 <follow_path+0x16c>
    2c22:	ee 24       	eor	r14, r14
    2c24:	ff 24       	eor	r15, r15
    2c26:	05 c0       	rjmp	.+10     	; 0x2c32 <follow_path+0x18a>
	lfn[di] = 0;						/* LFN is created */

	/* Create SFN in directory form */
	sfn = dj->fn;
	mem_set(sfn, ' ', 11);
	for (si = 0; lfn[si] == ' ' || lfn[si] == '.'; si++) ;	/* Strip leading spaces and dots */
    2c28:	08 94       	sec
    2c2a:	e1 1c       	adc	r14, r1
    2c2c:	f1 1c       	adc	r15, r1
    2c2e:	0e 5f       	subi	r16, 0xFE	; 254
    2c30:	1f 4f       	sbci	r17, 0xFF	; 255
    2c32:	f8 01       	movw	r30, r16
    2c34:	80 81       	ld	r24, Z
    2c36:	91 81       	ldd	r25, Z+1	; 0x01
    2c38:	80 32       	cpi	r24, 0x20	; 32
    2c3a:	91 05       	cpc	r25, r1
    2c3c:	a9 f3       	breq	.-22     	; 0x2c28 <follow_path+0x180>
    2c3e:	8e 97       	sbiw	r24, 0x2e	; 46
    2c40:	99 f3       	breq	.-26     	; 0x2c28 <follow_path+0x180>
	if (si) cf |= 1;
    2c42:	e1 14       	cp	r14, r1
    2c44:	f1 04       	cpc	r15, r1
    2c46:	11 f0       	breq	.+4      	; 0x2c4c <follow_path+0x1a4>
    2c48:	f1 e0       	ldi	r31, 0x01	; 1
    2c4a:	df 2a       	or	r13, r31
    2c4c:	ef 81       	ldd	r30, Y+7	; 0x07
    2c4e:	f8 85       	ldd	r31, Y+8	; 0x08
    2c50:	31 97       	sbiw	r30, 0x01	; 1
    2c52:	ee 0f       	add	r30, r30
    2c54:	ff 1f       	adc	r31, r31
    2c56:	e2 0d       	add	r30, r2
    2c58:	f3 1d       	adc	r31, r3
    2c5a:	10 c0       	rjmp	.+32     	; 0x2c7c <follow_path+0x1d4>
	while (di && lfn[di - 1] != '.') di--;	/* Find extension (di<=si: no extension) */
    2c5c:	2f 81       	ldd	r18, Y+7	; 0x07
    2c5e:	38 85       	ldd	r19, Y+8	; 0x08
    2c60:	21 50       	subi	r18, 0x01	; 1
    2c62:	30 40       	sbci	r19, 0x00	; 0
    2c64:	38 87       	std	Y+8, r19	; 0x08
    2c66:	2f 83       	std	Y+7, r18	; 0x07
    2c68:	32 97       	sbiw	r30, 0x02	; 2
    2c6a:	23 2b       	or	r18, r19
    2c6c:	39 f4       	brne	.+14     	; 0x2c7c <follow_path+0x1d4>
    2c6e:	b8 e0       	ldi	r27, 0x08	; 8
    2c70:	ab 2e       	mov	r10, r27
    2c72:	b1 2c       	mov	r11, r1
    2c74:	00 e0       	ldi	r16, 0x00	; 0
    2c76:	10 e0       	ldi	r17, 0x00	; 0
    2c78:	cc 24       	eor	r12, r12
    2c7a:	05 c0       	rjmp	.+10     	; 0x2c86 <follow_path+0x1de>
    2c7c:	80 81       	ld	r24, Z
    2c7e:	91 81       	ldd	r25, Z+1	; 0x01
    2c80:	8e 97       	sbiw	r24, 0x2e	; 46
    2c82:	61 f7       	brne	.-40     	; 0x2c5c <follow_path+0x1b4>
    2c84:	f4 cf       	rjmp	.-24     	; 0x2c6e <follow_path+0x1c6>

	b = i = 0; ni = 8;
	for (;;) {
		w = lfn[si++];					/* Get an LFN char */
    2c86:	f7 01       	movw	r30, r14
    2c88:	ee 0f       	add	r30, r30
    2c8a:	ff 1f       	adc	r31, r31
    2c8c:	e2 0d       	add	r30, r2
    2c8e:	f3 1d       	adc	r31, r3
    2c90:	80 81       	ld	r24, Z
    2c92:	91 81       	ldd	r25, Z+1	; 0x01
		if (w == 0) break;				/* Break when enf of the LFN */
    2c94:	00 97       	sbiw	r24, 0x00	; 0
    2c96:	09 f4       	brne	.+2      	; 0x2c9a <follow_path+0x1f2>
    2c98:	79 c0       	rjmp	.+242    	; 0x2d8c <follow_path+0x2e4>
	if (si) cf |= 1;
	while (di && lfn[di - 1] != '.') di--;	/* Find extension (di<=si: no extension) */

	b = i = 0; ni = 8;
	for (;;) {
		w = lfn[si++];					/* Get an LFN char */
    2c9a:	08 94       	sec
    2c9c:	e1 1c       	adc	r14, r1
    2c9e:	f1 1c       	adc	r15, r1
		if (w == 0) break;				/* Break when enf of the LFN */
		if (w == ' ' || (w == '.' && si != di)) {	/* Remove spaces and dots */
    2ca0:	80 32       	cpi	r24, 0x20	; 32
    2ca2:	91 05       	cpc	r25, r1
    2ca4:	41 f0       	breq	.+16     	; 0x2cb6 <follow_path+0x20e>
    2ca6:	8e 32       	cpi	r24, 0x2E	; 46
    2ca8:	91 05       	cpc	r25, r1
    2caa:	41 f4       	brne	.+16     	; 0x2cbc <follow_path+0x214>
    2cac:	6f 81       	ldd	r22, Y+7	; 0x07
    2cae:	78 85       	ldd	r23, Y+8	; 0x08
    2cb0:	e6 16       	cp	r14, r22
    2cb2:	f7 06       	cpc	r15, r23
    2cb4:	19 f0       	breq	.+6      	; 0x2cbc <follow_path+0x214>
			cf |= 1; continue;
    2cb6:	71 e0       	ldi	r23, 0x01	; 1
    2cb8:	d7 2a       	or	r13, r23
    2cba:	e5 cf       	rjmp	.-54     	; 0x2c86 <follow_path+0x1de>
		}
		if (i >= ni || si == di) {		/* Here is extension or end of SFN */
    2cbc:	0a 15       	cp	r16, r10
    2cbe:	1b 05       	cpc	r17, r11
    2cc0:	2c f4       	brge	.+10     	; 0x2ccc <follow_path+0x224>
    2cc2:	af 81       	ldd	r26, Y+7	; 0x07
    2cc4:	b8 85       	ldd	r27, Y+8	; 0x08
    2cc6:	ea 16       	cp	r14, r26
    2cc8:	fb 06       	cpc	r15, r27
    2cca:	f1 f4       	brne	.+60     	; 0x2d08 <follow_path+0x260>
			if (ni == 11) {				/* Extension is longer than 3 bytes */
    2ccc:	bb e0       	ldi	r27, 0x0B	; 11
    2cce:	ab 16       	cp	r10, r27
    2cd0:	b1 04       	cpc	r11, r1
    2cd2:	19 f4       	brne	.+6      	; 0x2cda <follow_path+0x232>
				cf |= 1; break;
    2cd4:	e1 e0       	ldi	r30, 0x01	; 1
    2cd6:	de 2a       	or	r13, r30
    2cd8:	59 c0       	rjmp	.+178    	; 0x2d8c <follow_path+0x2e4>
			}
			if (si != di) cf |= 1;		/* File name is longer than 8 bytes */
    2cda:	2f 81       	ldd	r18, Y+7	; 0x07
    2cdc:	38 85       	ldd	r19, Y+8	; 0x08
    2cde:	e2 16       	cp	r14, r18
    2ce0:	f3 06       	cpc	r15, r19
    2ce2:	41 f0       	breq	.+16     	; 0x2cf4 <follow_path+0x24c>
    2ce4:	31 e0       	ldi	r19, 0x01	; 1
    2ce6:	d3 2a       	or	r13, r19
			if (si > di) break;			/* No extension */
    2ce8:	6f 81       	ldd	r22, Y+7	; 0x07
    2cea:	78 85       	ldd	r23, Y+8	; 0x08
    2cec:	6e 15       	cp	r22, r14
    2cee:	7f 05       	cpc	r23, r15
    2cf0:	0c f4       	brge	.+2      	; 0x2cf4 <follow_path+0x24c>
    2cf2:	4c c0       	rjmp	.+152    	; 0x2d8c <follow_path+0x2e4>
			si = di; i = 8; ni = 11;	/* Enter extension section */
			b <<= 2; continue;
    2cf4:	cc 0c       	add	r12, r12
    2cf6:	cc 0c       	add	r12, r12
    2cf8:	ef 80       	ldd	r14, Y+7	; 0x07
    2cfa:	f8 84       	ldd	r15, Y+8	; 0x08
    2cfc:	7b e0       	ldi	r23, 0x0B	; 11
    2cfe:	a7 2e       	mov	r10, r23
    2d00:	b1 2c       	mov	r11, r1
    2d02:	08 e0       	ldi	r16, 0x08	; 8
    2d04:	10 e0       	ldi	r17, 0x00	; 0
    2d06:	bf cf       	rjmp	.-130    	; 0x2c86 <follow_path+0x1de>
		}
		w = ff_convert(w, 0);			/* Unicode -> OEM code */
    2d08:	60 e0       	ldi	r22, 0x00	; 0
    2d0a:	70 e0       	ldi	r23, 0x00	; 0
    2d0c:	0e 94 03 28 	call	0x5006	; 0x5006 <ff_convert>
    2d10:	9c 01       	movw	r18, r24
		if (w >= 0x80) cf |= 0x20;		/* If there is any extended char, force create an LFN */
    2d12:	80 38       	cpi	r24, 0x80	; 128
    2d14:	91 05       	cpc	r25, r1
    2d16:	b0 f0       	brcs	.+44     	; 0x2d44 <follow_path+0x29c>
    2d18:	70 e2       	ldi	r23, 0x20	; 32
    2d1a:	d7 2a       	or	r13, r23
		if (w >= 0x100) {				/* Double byte char */
    2d1c:	8f 3f       	cpi	r24, 0xFF	; 255
    2d1e:	91 05       	cpc	r25, r1
    2d20:	89 f0       	breq	.+34     	; 0x2d44 <follow_path+0x29c>
    2d22:	80 f0       	brcs	.+32     	; 0x2d44 <follow_path+0x29c>
			if (i >= ni - 1) {
    2d24:	c5 01       	movw	r24, r10
    2d26:	01 97       	sbiw	r24, 0x01	; 1
    2d28:	08 17       	cp	r16, r24
    2d2a:	19 07       	cpc	r17, r25
    2d2c:	24 f0       	brlt	.+8      	; 0x2d36 <follow_path+0x28e>
				cf |= 1; i = ni; continue;
    2d2e:	81 e0       	ldi	r24, 0x01	; 1
    2d30:	d8 2a       	or	r13, r24
    2d32:	85 01       	movw	r16, r10
    2d34:	a8 cf       	rjmp	.-176    	; 0x2c86 <follow_path+0x1de>
			}
			sfn[i++] = (BYTE)(w >> 8);
    2d36:	f3 01       	movw	r30, r6
    2d38:	e0 0f       	add	r30, r16
    2d3a:	f1 1f       	adc	r31, r17
    2d3c:	30 83       	st	Z, r19
    2d3e:	0f 5f       	subi	r16, 0xFF	; 255
    2d40:	1f 4f       	sbci	r17, 0xFF	; 255
    2d42:	1d c0       	rjmp	.+58     	; 0x2d7e <follow_path+0x2d6>
		} else {						/* Single byte char */
			if (chk_chr("+,;[=]", w)) {	/* Replace unallowable chars for SFN */
    2d44:	e8 e4       	ldi	r30, 0x48	; 72
    2d46:	f1 e0       	ldi	r31, 0x01	; 1
    2d48:	01 c0       	rjmp	.+2      	; 0x2d4c <follow_path+0x2a4>
}

/* Check if chr is contained in the string */
static
int chk_chr (const char* str, int chr) {
	while (*str && *str != chr) str++;
    2d4a:	31 96       	adiw	r30, 0x01	; 1
    2d4c:	80 81       	ld	r24, Z
    2d4e:	88 23       	and	r24, r24
    2d50:	29 f0       	breq	.+10     	; 0x2d5c <follow_path+0x2b4>
    2d52:	90 e0       	ldi	r25, 0x00	; 0
    2d54:	82 17       	cp	r24, r18
    2d56:	93 07       	cpc	r25, r19
    2d58:	c1 f7       	brne	.-16     	; 0x2d4a <follow_path+0x2a2>
    2d5a:	a4 c0       	rjmp	.+328    	; 0x2ea4 <follow_path+0x3fc>
			sfn[i++] = (BYTE)(w >> 8);
		} else {						/* Single byte char */
			if (chk_chr("+,;[=]", w)) {	/* Replace unallowable chars for SFN */
				w = '_'; cf |= 1;
			} else {
				if (IsUpper(w)) {		/* Large capital */
    2d5c:	c9 01       	movw	r24, r18
    2d5e:	81 54       	subi	r24, 0x41	; 65
    2d60:	90 40       	sbci	r25, 0x00	; 0
    2d62:	4a 97       	sbiw	r24, 0x1a	; 26
    2d64:	18 f4       	brcc	.+6      	; 0x2d6c <follow_path+0x2c4>
					b |= 2;
    2d66:	92 e0       	ldi	r25, 0x02	; 2
    2d68:	c9 2a       	or	r12, r25
    2d6a:	09 c0       	rjmp	.+18     	; 0x2d7e <follow_path+0x2d6>
				} else {
					if (IsLower(w)) {	/* Small capital */
    2d6c:	c9 01       	movw	r24, r18
    2d6e:	81 56       	subi	r24, 0x61	; 97
    2d70:	90 40       	sbci	r25, 0x00	; 0
    2d72:	4a 97       	sbiw	r24, 0x1a	; 26
    2d74:	20 f4       	brcc	.+8      	; 0x2d7e <follow_path+0x2d6>
						b |= 1; w -= 0x20;
    2d76:	a1 e0       	ldi	r26, 0x01	; 1
    2d78:	ca 2a       	or	r12, r26
    2d7a:	20 52       	subi	r18, 0x20	; 32
    2d7c:	30 40       	sbci	r19, 0x00	; 0
					}
				}
			}
		}
		sfn[i++] = (BYTE)w;
    2d7e:	f3 01       	movw	r30, r6
    2d80:	e0 0f       	add	r30, r16
    2d82:	f1 1f       	adc	r31, r17
    2d84:	20 83       	st	Z, r18
    2d86:	0f 5f       	subi	r16, 0xFF	; 255
    2d88:	1f 4f       	sbci	r17, 0xFF	; 255
    2d8a:	7d cf       	rjmp	.-262    	; 0x2c86 <follow_path+0x1de>
	}
	if (sfn[0] == 0xE5) sfn[0] = 0x05;	/* When first char collides with 0xE5, replace it with 0x05 */
    2d8c:	f3 01       	movw	r30, r6
    2d8e:	80 81       	ld	r24, Z
    2d90:	85 3e       	cpi	r24, 0xE5	; 229
    2d92:	11 f4       	brne	.+4      	; 0x2d98 <follow_path+0x2f0>
    2d94:	25 e0       	ldi	r18, 0x05	; 5
    2d96:	20 83       	st	Z, r18

	if (ni == 8) b <<= 2;
    2d98:	38 e0       	ldi	r19, 0x08	; 8
    2d9a:	a3 16       	cp	r10, r19
    2d9c:	b1 04       	cpc	r11, r1
    2d9e:	11 f4       	brne	.+4      	; 0x2da4 <follow_path+0x2fc>
    2da0:	cc 0c       	add	r12, r12
    2da2:	cc 0c       	add	r12, r12
	if ((cf & 0x21) == 0) {	/* When LFN is in 8.3 format without extended char, NT flags are created */
    2da4:	8d 2d       	mov	r24, r13
    2da6:	81 72       	andi	r24, 0x21	; 33
    2da8:	c9 f4       	brne	.+50     	; 0x2ddc <follow_path+0x334>
		if ((b & 0x03) == 0x01) cf |= 0x10;	/* NT flag (Extension has only small capital) */
    2daa:	8c 2d       	mov	r24, r12
    2dac:	90 e0       	ldi	r25, 0x00	; 0
    2dae:	9c 01       	movw	r18, r24
    2db0:	23 70       	andi	r18, 0x03	; 3
    2db2:	30 70       	andi	r19, 0x00	; 0
    2db4:	21 30       	cpi	r18, 0x01	; 1
    2db6:	31 05       	cpc	r19, r1
    2db8:	11 f4       	brne	.+4      	; 0x2dbe <follow_path+0x316>
    2dba:	40 e1       	ldi	r20, 0x10	; 16
    2dbc:	d4 2a       	or	r13, r20
		if ((b & 0x0C) == 0x04) cf |= 0x08;	/* NT flag (Filename has only small capital) */
    2dbe:	8c 70       	andi	r24, 0x0C	; 12
    2dc0:	90 70       	andi	r25, 0x00	; 0
    2dc2:	84 30       	cpi	r24, 0x04	; 4
    2dc4:	91 05       	cpc	r25, r1
    2dc6:	19 f4       	brne	.+6      	; 0x2dce <follow_path+0x326>
    2dc8:	68 e0       	ldi	r22, 0x08	; 8
    2dca:	d6 2a       	or	r13, r22
    2dcc:	02 c0       	rjmp	.+4      	; 0x2dd2 <follow_path+0x32a>
		if ((b & 0x0C) != 0x0C && (b & 0x03) != 0x03) cf |= 2;	/* Eliminate LFN when non composite capitals */
    2dce:	0c 97       	sbiw	r24, 0x0c	; 12
    2dd0:	29 f0       	breq	.+10     	; 0x2ddc <follow_path+0x334>
    2dd2:	23 30       	cpi	r18, 0x03	; 3
    2dd4:	31 05       	cpc	r19, r1
    2dd6:	11 f0       	breq	.+4      	; 0x2ddc <follow_path+0x334>
    2dd8:	72 e0       	ldi	r23, 0x02	; 2
    2dda:	d7 2a       	or	r13, r23
	}

	sfn[11] = cf;		/* SFN is created */
    2ddc:	d3 01       	movw	r26, r6
    2dde:	1b 96       	adiw	r26, 0x0b	; 11
    2de0:	dc 92       	st	X, r13

	} else {							/* Follow path */
		for (;;) {
			res = create_name(dj, &path);	/* Get a segment */
			if (res != FR_OK) break;
			res = dir_find(dj);				/* Find it */
    2de2:	c4 01       	movw	r24, r8
    2de4:	0e 94 49 14 	call	0x2892	; 0x2892 <dir_find>
    2de8:	28 2f       	mov	r18, r24
			last = *(dj->fn+11) & 4;
    2dea:	d4 01       	movw	r26, r8
    2dec:	54 96       	adiw	r26, 0x14	; 20
    2dee:	ed 91       	ld	r30, X+
    2df0:	fc 91       	ld	r31, X
    2df2:	55 97       	sbiw	r26, 0x15	; 21
    2df4:	93 85       	ldd	r25, Z+11	; 0x0b
    2df6:	94 70       	andi	r25, 0x04	; 4
			if (res != FR_OK) {				/* Could not find the object */
    2df8:	88 23       	and	r24, r24
    2dfa:	29 f0       	breq	.+10     	; 0x2e06 <follow_path+0x35e>
				if (res == FR_NO_FILE && !last)
    2dfc:	84 30       	cpi	r24, 0x04	; 4
    2dfe:	b1 f5       	brne	.+108    	; 0x2e6c <follow_path+0x3c4>
    2e00:	99 23       	and	r25, r25
    2e02:	b1 f1       	breq	.+108    	; 0x2e70 <follow_path+0x3c8>
    2e04:	36 c0       	rjmp	.+108    	; 0x2e72 <follow_path+0x3ca>
					res = FR_NO_PATH;
				break;
			}
			if (last) break;				/* Last segment match. Function completed. */
    2e06:	99 23       	and	r25, r25
    2e08:	89 f5       	brne	.+98     	; 0x2e6c <follow_path+0x3c4>
			dir = dj->dir;					/* There is next segment. Follow the sub directory */
    2e0a:	d4 01       	movw	r26, r8
    2e0c:	52 96       	adiw	r26, 0x12	; 18
    2e0e:	ed 91       	ld	r30, X+
    2e10:	fc 91       	ld	r31, X
    2e12:	53 97       	sbiw	r26, 0x13	; 19
			if (!(dir[DIR_Attr] & AM_DIR)) { /* Cannot follow because it is a file */
    2e14:	83 85       	ldd	r24, Z+11	; 0x0b
    2e16:	84 ff       	sbrs	r24, 4
    2e18:	2b c0       	rjmp	.+86     	; 0x2e70 <follow_path+0x3c8>
		w = ff_convert(w, 1);			/* Convert OEM to Unicode, store it */
		if (!w || di >= _MAX_LFN)		/* Reject invalid code or too long name */
			return FR_INVALID_NAME;
		lfn[di++] = w;
	}
	*path = &p[si];						/* Rerurn pointer to the next segment */
    2e1a:	29 81       	ldd	r18, Y+1	; 0x01
    2e1c:	3a 81       	ldd	r19, Y+2	; 0x02
    2e1e:	42 0e       	add	r4, r18
    2e20:	53 1e       	adc	r5, r19
			if (last) break;				/* Last segment match. Function completed. */
			dir = dj->dir;					/* There is next segment. Follow the sub directory */
			if (!(dir[DIR_Attr] & AM_DIR)) { /* Cannot follow because it is a file */
				res = FR_NO_PATH; break;
			}
			dj->sclust = ((DWORD)LD_WORD(dir+DIR_FstClusHI) << 16) | LD_WORD(dir+DIR_FstClusLO);
    2e22:	35 89       	ldd	r19, Z+21	; 0x15
    2e24:	3c 83       	std	Y+4, r19	; 0x04
    2e26:	1b 82       	std	Y+3, r1	; 0x03
    2e28:	24 89       	ldd	r18, Z+20	; 0x14
    2e2a:	30 e0       	ldi	r19, 0x00	; 0
    2e2c:	6b 81       	ldd	r22, Y+3	; 0x03
    2e2e:	7c 81       	ldd	r23, Y+4	; 0x04
    2e30:	26 2b       	or	r18, r22
    2e32:	37 2b       	or	r19, r23
    2e34:	40 e0       	ldi	r20, 0x00	; 0
    2e36:	50 e0       	ldi	r21, 0x00	; 0
    2e38:	a9 01       	movw	r20, r18
    2e3a:	33 27       	eor	r19, r19
    2e3c:	22 27       	eor	r18, r18
    2e3e:	73 8d       	ldd	r23, Z+27	; 0x1b
    2e40:	7e 83       	std	Y+6, r23	; 0x06
    2e42:	1d 82       	std	Y+5, r1	; 0x05
    2e44:	82 8d       	ldd	r24, Z+26	; 0x1a
    2e46:	90 e0       	ldi	r25, 0x00	; 0
    2e48:	ad 81       	ldd	r26, Y+5	; 0x05
    2e4a:	be 81       	ldd	r27, Y+6	; 0x06
    2e4c:	8a 2b       	or	r24, r26
    2e4e:	9b 2b       	or	r25, r27
    2e50:	a0 e0       	ldi	r26, 0x00	; 0
    2e52:	b0 e0       	ldi	r27, 0x00	; 0
    2e54:	28 2b       	or	r18, r24
    2e56:	39 2b       	or	r19, r25
    2e58:	4a 2b       	or	r20, r26
    2e5a:	5b 2b       	or	r21, r27
    2e5c:	f4 01       	movw	r30, r8
    2e5e:	26 83       	std	Z+6, r18	; 0x06
    2e60:	37 83       	std	Z+7, r19	; 0x07
    2e62:	40 87       	std	Z+8, r20	; 0x08
    2e64:	51 87       	std	Z+9, r21	; 0x09
    2e66:	68 ce       	rjmp	.-816    	; 0x2b38 <follow_path+0x90>
		}
    2e68:	86 e0       	ldi	r24, 0x06	; 6
    2e6a:	03 c0       	rjmp	.+6      	; 0x2e72 <follow_path+0x3ca>
    2e6c:	82 2f       	mov	r24, r18
    2e6e:	01 c0       	rjmp	.+2      	; 0x2e72 <follow_path+0x3ca>
    2e70:	85 e0       	ldi	r24, 0x05	; 5
	}

	return res;
}
    2e72:	28 96       	adiw	r28, 0x08	; 8
    2e74:	0f b6       	in	r0, 0x3f	; 63
    2e76:	f8 94       	cli
    2e78:	de bf       	out	0x3e, r29	; 62
    2e7a:	0f be       	out	0x3f, r0	; 63
    2e7c:	cd bf       	out	0x3d, r28	; 61
    2e7e:	cf 91       	pop	r28
    2e80:	df 91       	pop	r29
    2e82:	1f 91       	pop	r17
    2e84:	0f 91       	pop	r16
    2e86:	ff 90       	pop	r15
    2e88:	ef 90       	pop	r14
    2e8a:	df 90       	pop	r13
    2e8c:	cf 90       	pop	r12
    2e8e:	bf 90       	pop	r11
    2e90:	af 90       	pop	r10
    2e92:	9f 90       	pop	r9
    2e94:	8f 90       	pop	r8
    2e96:	7f 90       	pop	r7
    2e98:	6f 90       	pop	r6
    2e9a:	5f 90       	pop	r5
    2e9c:	4f 90       	pop	r4
    2e9e:	3f 90       	pop	r3
    2ea0:	2f 90       	pop	r2
    2ea2:	08 95       	ret
				cf |= 1; i = ni; continue;
			}
			sfn[i++] = (BYTE)(w >> 8);
		} else {						/* Single byte char */
			if (chk_chr("+,;[=]", w)) {	/* Replace unallowable chars for SFN */
				w = '_'; cf |= 1;
    2ea4:	f1 e0       	ldi	r31, 0x01	; 1
    2ea6:	df 2a       	or	r13, r31
    2ea8:	2f e5       	ldi	r18, 0x5F	; 95
    2eaa:	30 e0       	ldi	r19, 0x00	; 0
    2eac:	68 cf       	rjmp	.-304    	; 0x2d7e <follow_path+0x2d6>
    2eae:	dd 24       	eor	r13, r13
    2eb0:	87 ce       	rjmp	.-754    	; 0x2bc0 <follow_path+0x118>

00002eb2 <f_stat>:

FRESULT f_stat (
	const char *path,	/* Pointer to the file path */
	FILINFO *fno		/* Pointer to file information to return */
)
{
    2eb2:	cf 92       	push	r12
    2eb4:	df 92       	push	r13
    2eb6:	ef 92       	push	r14
    2eb8:	ff 92       	push	r15
    2eba:	1f 93       	push	r17
    2ebc:	df 93       	push	r29
    2ebe:	cf 93       	push	r28
    2ec0:	cd b7       	in	r28, 0x3d	; 61
    2ec2:	de b7       	in	r29, 0x3e	; 62
    2ec4:	a8 97       	sbiw	r28, 0x28	; 40
    2ec6:	0f b6       	in	r0, 0x3f	; 63
    2ec8:	f8 94       	cli
    2eca:	de bf       	out	0x3e, r29	; 62
    2ecc:	0f be       	out	0x3f, r0	; 63
    2ece:	cd bf       	out	0x3d, r28	; 61
    2ed0:	98 a7       	std	Y+40, r25	; 0x28
    2ed2:	8f a3       	std	Y+39, r24	; 0x27
    2ed4:	7b 01       	movw	r14, r22
	FRESULT res;
	DIR dj;
	NAMEBUF(sfn, lfn);


	res = auto_mount(&path, &dj.fs, 0);
    2ed6:	3d e0       	ldi	r19, 0x0D	; 13
    2ed8:	c3 2e       	mov	r12, r19
    2eda:	d1 2c       	mov	r13, r1
    2edc:	cc 0e       	add	r12, r28
    2ede:	dd 1e       	adc	r13, r29
    2ee0:	ce 01       	movw	r24, r28
    2ee2:	87 96       	adiw	r24, 0x27	; 39
    2ee4:	be 01       	movw	r22, r28
    2ee6:	6f 5e       	subi	r22, 0xEF	; 239
    2ee8:	7f 4f       	sbci	r23, 0xFF	; 255
    2eea:	40 e0       	ldi	r20, 0x00	; 0
    2eec:	0e 94 d2 07 	call	0xfa4	; 0xfa4 <auto_mount>
    2ef0:	18 2f       	mov	r17, r24
	if (res == FR_OK) {
    2ef2:	88 23       	and	r24, r24
    2ef4:	d1 f4       	brne	.+52     	; 0x2f2a <f_stat+0x78>
		INITBUF(dj, sfn, lfn);
    2ef6:	ce 01       	movw	r24, r28
    2ef8:	01 96       	adiw	r24, 0x01	; 1
    2efa:	9a a3       	std	Y+34, r25	; 0x22
    2efc:	89 a3       	std	Y+33, r24	; 0x21
    2efe:	86 e9       	ldi	r24, 0x96	; 150
    2f00:	94 e0       	ldi	r25, 0x04	; 4
    2f02:	9c a3       	std	Y+36, r25	; 0x24
    2f04:	8b a3       	std	Y+35, r24	; 0x23
		res = follow_path(&dj, path);	/* Follow the file path */
    2f06:	6f a1       	ldd	r22, Y+39	; 0x27
    2f08:	78 a5       	ldd	r23, Y+40	; 0x28
    2f0a:	c6 01       	movw	r24, r12
    2f0c:	0e 94 54 15 	call	0x2aa8	; 0x2aa8 <follow_path>
    2f10:	18 2f       	mov	r17, r24
		if (res == FR_OK) {				/* Follwo completed */
    2f12:	88 23       	and	r24, r24
    2f14:	51 f4       	brne	.+20     	; 0x2f2a <f_stat+0x78>
			if (dj.dir)	/* Found an object */
    2f16:	8f 8d       	ldd	r24, Y+31	; 0x1f
    2f18:	98 a1       	ldd	r25, Y+32	; 0x20
    2f1a:	89 2b       	or	r24, r25
    2f1c:	11 f4       	brne	.+4      	; 0x2f22 <f_stat+0x70>
    2f1e:	16 e0       	ldi	r17, 0x06	; 6
    2f20:	04 c0       	rjmp	.+8      	; 0x2f2a <f_stat+0x78>
				get_fileinfo(&dj, fno);
    2f22:	c6 01       	movw	r24, r12
    2f24:	b7 01       	movw	r22, r14
    2f26:	0e 94 aa 0a 	call	0x1554	; 0x1554 <get_fileinfo>
				res = FR_INVALID_NAME;
		}
	}

	LEAVE_FF(dj.fs, res);
}
    2f2a:	81 2f       	mov	r24, r17
    2f2c:	a8 96       	adiw	r28, 0x28	; 40
    2f2e:	0f b6       	in	r0, 0x3f	; 63
    2f30:	f8 94       	cli
    2f32:	de bf       	out	0x3e, r29	; 62
    2f34:	0f be       	out	0x3f, r0	; 63
    2f36:	cd bf       	out	0x3d, r28	; 61
    2f38:	cf 91       	pop	r28
    2f3a:	df 91       	pop	r29
    2f3c:	1f 91       	pop	r17
    2f3e:	ff 90       	pop	r15
    2f40:	ef 90       	pop	r14
    2f42:	df 90       	pop	r13
    2f44:	cf 90       	pop	r12
    2f46:	08 95       	ret

00002f48 <f_opendir>:

FRESULT f_opendir (
	DIR *dj,			/* Pointer to directory object to create */
	const char *path	/* Pointer to the directory path */
)
{
    2f48:	0f 93       	push	r16
    2f4a:	1f 93       	push	r17
    2f4c:	df 93       	push	r29
    2f4e:	cf 93       	push	r28
    2f50:	cd b7       	in	r28, 0x3d	; 61
    2f52:	de b7       	in	r29, 0x3e	; 62
    2f54:	2e 97       	sbiw	r28, 0x0e	; 14
    2f56:	0f b6       	in	r0, 0x3f	; 63
    2f58:	f8 94       	cli
    2f5a:	de bf       	out	0x3e, r29	; 62
    2f5c:	0f be       	out	0x3f, r0	; 63
    2f5e:	cd bf       	out	0x3d, r28	; 61
    2f60:	8c 01       	movw	r16, r24
    2f62:	7e 87       	std	Y+14, r23	; 0x0e
    2f64:	6d 87       	std	Y+13, r22	; 0x0d
	FRESULT res;
	NAMEBUF(sfn, lfn);
	BYTE *dir;


	res = auto_mount(&path, &dj->fs, 0);
    2f66:	bc 01       	movw	r22, r24
    2f68:	6c 5f       	subi	r22, 0xFC	; 252
    2f6a:	7f 4f       	sbci	r23, 0xFF	; 255
    2f6c:	ce 01       	movw	r24, r28
    2f6e:	0d 96       	adiw	r24, 0x0d	; 13
    2f70:	40 e0       	ldi	r20, 0x00	; 0
    2f72:	0e 94 d2 07 	call	0xfa4	; 0xfa4 <auto_mount>
    2f76:	28 2f       	mov	r18, r24
	if (res == FR_OK) {
    2f78:	88 23       	and	r24, r24
    2f7a:	09 f0       	breq	.+2      	; 0x2f7e <f_opendir+0x36>
    2f7c:	62 c0       	rjmp	.+196    	; 0x3042 <f_opendir+0xfa>
		INITBUF((*dj), sfn, lfn);
    2f7e:	ce 01       	movw	r24, r28
    2f80:	01 96       	adiw	r24, 0x01	; 1
    2f82:	d8 01       	movw	r26, r16
    2f84:	55 96       	adiw	r26, 0x15	; 21
    2f86:	9c 93       	st	X, r25
    2f88:	8e 93       	st	-X, r24
    2f8a:	54 97       	sbiw	r26, 0x14	; 20
    2f8c:	86 e9       	ldi	r24, 0x96	; 150
    2f8e:	94 e0       	ldi	r25, 0x04	; 4
    2f90:	57 96       	adiw	r26, 0x17	; 23
    2f92:	9c 93       	st	X, r25
    2f94:	8e 93       	st	-X, r24
    2f96:	56 97       	sbiw	r26, 0x16	; 22
		res = follow_path(dj, path);			/* Follow the path to the directory */
    2f98:	6d 85       	ldd	r22, Y+13	; 0x0d
    2f9a:	7e 85       	ldd	r23, Y+14	; 0x0e
    2f9c:	c8 01       	movw	r24, r16
    2f9e:	0e 94 54 15 	call	0x2aa8	; 0x2aa8 <follow_path>
    2fa2:	28 2f       	mov	r18, r24
		if (res == FR_OK) {						/* Follow completed */
    2fa4:	88 23       	and	r24, r24
    2fa6:	09 f0       	breq	.+2      	; 0x2faa <f_opendir+0x62>
    2fa8:	49 c0       	rjmp	.+146    	; 0x303c <f_opendir+0xf4>
			dir = dj->dir;
    2faa:	d8 01       	movw	r26, r16
    2fac:	52 96       	adiw	r26, 0x12	; 18
    2fae:	ed 91       	ld	r30, X+
    2fb0:	fc 91       	ld	r31, X
    2fb2:	53 97       	sbiw	r26, 0x13	; 19
			if (dir) {							/* It is not the root dir */
    2fb4:	30 97       	sbiw	r30, 0x00	; 0
    2fb6:	01 f1       	breq	.+64     	; 0x2ff8 <f_opendir+0xb0>
				if (dir[DIR_Attr] & AM_DIR) {	/* The object is a directory */
    2fb8:	83 85       	ldd	r24, Z+11	; 0x0b
    2fba:	84 ff       	sbrs	r24, 4
    2fbc:	34 c0       	rjmp	.+104    	; 0x3026 <f_opendir+0xde>
					dj->sclust = ((DWORD)LD_WORD(dir+DIR_FstClusHI) << 16) | LD_WORD(dir+DIR_FstClusLO);
    2fbe:	35 89       	ldd	r19, Z+21	; 0x15
    2fc0:	20 e0       	ldi	r18, 0x00	; 0
    2fc2:	84 89       	ldd	r24, Z+20	; 0x14
    2fc4:	90 e0       	ldi	r25, 0x00	; 0
    2fc6:	28 2b       	or	r18, r24
    2fc8:	39 2b       	or	r19, r25
    2fca:	40 e0       	ldi	r20, 0x00	; 0
    2fcc:	50 e0       	ldi	r21, 0x00	; 0
    2fce:	a9 01       	movw	r20, r18
    2fd0:	33 27       	eor	r19, r19
    2fd2:	22 27       	eor	r18, r18
    2fd4:	93 8d       	ldd	r25, Z+27	; 0x1b
    2fd6:	80 e0       	ldi	r24, 0x00	; 0
    2fd8:	62 8d       	ldd	r22, Z+26	; 0x1a
    2fda:	70 e0       	ldi	r23, 0x00	; 0
    2fdc:	86 2b       	or	r24, r22
    2fde:	97 2b       	or	r25, r23
    2fe0:	a0 e0       	ldi	r26, 0x00	; 0
    2fe2:	b0 e0       	ldi	r27, 0x00	; 0
    2fe4:	28 2b       	or	r18, r24
    2fe6:	39 2b       	or	r19, r25
    2fe8:	4a 2b       	or	r20, r26
    2fea:	5b 2b       	or	r21, r27
    2fec:	f8 01       	movw	r30, r16
    2fee:	26 83       	std	Z+6, r18	; 0x06
    2ff0:	37 83       	std	Z+7, r19	; 0x07
    2ff2:	40 87       	std	Z+8, r20	; 0x08
    2ff4:	51 87       	std	Z+9, r21	; 0x09
    2ff6:	31 c0       	rjmp	.+98     	; 0x305a <f_opendir+0x112>
				} else {						/* The object is not a directory */
					res = FR_NO_PATH;
				}
			} else {							/* It is the root dir */
				dj->sclust = (dj->fs->fs_type == FS_FAT32) ? dj->fs->dirbase : 0;
    2ff8:	d8 01       	movw	r26, r16
    2ffa:	14 96       	adiw	r26, 0x04	; 4
    2ffc:	ed 91       	ld	r30, X+
    2ffe:	fc 91       	ld	r31, X
    3000:	15 97       	sbiw	r26, 0x05	; 5
    3002:	80 81       	ld	r24, Z
    3004:	83 30       	cpi	r24, 0x03	; 3
    3006:	29 f0       	breq	.+10     	; 0x3012 <f_opendir+0xca>
    3008:	80 e0       	ldi	r24, 0x00	; 0
    300a:	90 e0       	ldi	r25, 0x00	; 0
    300c:	a0 e0       	ldi	r26, 0x00	; 0
    300e:	b0 e0       	ldi	r27, 0x00	; 0
    3010:	04 c0       	rjmp	.+8      	; 0x301a <f_opendir+0xd2>
    3012:	84 a1       	ldd	r24, Z+36	; 0x24
    3014:	95 a1       	ldd	r25, Z+37	; 0x25
    3016:	a6 a1       	ldd	r26, Z+38	; 0x26
    3018:	b7 a1       	ldd	r27, Z+39	; 0x27
    301a:	f8 01       	movw	r30, r16
    301c:	86 83       	std	Z+6, r24	; 0x06
    301e:	97 83       	std	Z+7, r25	; 0x07
    3020:	a0 87       	std	Z+8, r26	; 0x08
    3022:	b1 87       	std	Z+9, r27	; 0x09
    3024:	1a c0       	rjmp	.+52     	; 0x305a <f_opendir+0x112>
    3026:	25 e0       	ldi	r18, 0x05	; 5
			}
			if (res == FR_OK) res = dir_seek(dj, 0);
			dj->id = dj->fs->id;
    3028:	d8 01       	movw	r26, r16
    302a:	14 96       	adiw	r26, 0x04	; 4
    302c:	ed 91       	ld	r30, X+
    302e:	fc 91       	ld	r31, X
    3030:	15 97       	sbiw	r26, 0x05	; 5
    3032:	86 81       	ldd	r24, Z+6	; 0x06
    3034:	97 81       	ldd	r25, Z+7	; 0x07
    3036:	8d 93       	st	X+, r24
    3038:	9c 93       	st	X, r25
    303a:	03 c0       	rjmp	.+6      	; 0x3042 <f_opendir+0xfa>
		} else {
			if (res == FR_NO_FILE) res = FR_NO_PATH;
    303c:	84 30       	cpi	r24, 0x04	; 4
    303e:	09 f4       	brne	.+2      	; 0x3042 <f_opendir+0xfa>
    3040:	25 e0       	ldi	r18, 0x05	; 5
		}
	}

	LEAVE_FF(dj->fs, res);
}
    3042:	82 2f       	mov	r24, r18
    3044:	2e 96       	adiw	r28, 0x0e	; 14
    3046:	0f b6       	in	r0, 0x3f	; 63
    3048:	f8 94       	cli
    304a:	de bf       	out	0x3e, r29	; 62
    304c:	0f be       	out	0x3f, r0	; 63
    304e:	cd bf       	out	0x3d, r28	; 61
    3050:	cf 91       	pop	r28
    3052:	df 91       	pop	r29
    3054:	1f 91       	pop	r17
    3056:	0f 91       	pop	r16
    3058:	08 95       	ret
					res = FR_NO_PATH;
				}
			} else {							/* It is the root dir */
				dj->sclust = (dj->fs->fs_type == FS_FAT32) ? dj->fs->dirbase : 0;
			}
			if (res == FR_OK) res = dir_seek(dj, 0);
    305a:	c8 01       	movw	r24, r16
    305c:	60 e0       	ldi	r22, 0x00	; 0
    305e:	70 e0       	ldi	r23, 0x00	; 0
    3060:	0e 94 f5 0c 	call	0x19ea	; 0x19ea <dir_seek>
    3064:	28 2f       	mov	r18, r24
    3066:	e0 cf       	rjmp	.-64     	; 0x3028 <f_opendir+0xe0>

00003068 <dir_register>:
#if !_FS_READONLY
static
FRESULT dir_register (	/* FR_OK:Successful, FR_DENIED:No free entry or too many SFN collision, FR_DISK_ERR:Disk error */
	DIR *dj				/* Target directory with object name to be created */
)
{
    3068:	7f 92       	push	r7
    306a:	8f 92       	push	r8
    306c:	9f 92       	push	r9
    306e:	af 92       	push	r10
    3070:	bf 92       	push	r11
    3072:	cf 92       	push	r12
    3074:	df 92       	push	r13
    3076:	ef 92       	push	r14
    3078:	ff 92       	push	r15
    307a:	0f 93       	push	r16
    307c:	1f 93       	push	r17
    307e:	df 93       	push	r29
    3080:	cf 93       	push	r28
    3082:	cd b7       	in	r28, 0x3d	; 61
    3084:	de b7       	in	r29, 0x3e	; 62
    3086:	2c 97       	sbiw	r28, 0x0c	; 12
    3088:	0f b6       	in	r0, 0x3f	; 63
    308a:	f8 94       	cli
    308c:	de bf       	out	0x3e, r29	; 62
    308e:	0f be       	out	0x3f, r0	; 63
    3090:	cd bf       	out	0x3d, r28	; 61
    3092:	7c 01       	movw	r14, r24
#if _USE_LFN	/* LFN configuration */
	WORD n, ne, is;
	BYTE sn[12], *fn, sum;
	WCHAR *lfn;

	fn = dj->fn; lfn = dj->lfn;
    3094:	dc 01       	movw	r26, r24
    3096:	54 96       	adiw	r26, 0x14	; 20
    3098:	cd 90       	ld	r12, X+
    309a:	dc 90       	ld	r13, X
    309c:	55 97       	sbiw	r26, 0x15	; 21
    309e:	56 96       	adiw	r26, 0x16	; 22
    30a0:	bc 90       	ld	r11, X
    30a2:	56 97       	sbiw	r26, 0x16	; 22
    30a4:	57 96       	adiw	r26, 0x17	; 23
    30a6:	ac 90       	ld	r10, X
    30a8:	d6 01       	movw	r26, r12
    30aa:	fe 01       	movw	r30, r28
    30ac:	31 96       	adiw	r30, 0x01	; 1
/* Copy memory to memory */
static
void mem_cpy (void* dst, const void* src, int cnt) {
	char *d = (char*)dst;
	const char *s = (const char *)src;
	while (cnt--) *d++ = *s++;
    30ae:	9e 01       	movw	r18, r28
    30b0:	23 5f       	subi	r18, 0xF3	; 243
    30b2:	3f 4f       	sbci	r19, 0xFF	; 255
    30b4:	02 c0       	rjmp	.+4      	; 0x30ba <dir_register+0x52>
    30b6:	8d 91       	ld	r24, X+
    30b8:	81 93       	st	Z+, r24
    30ba:	e2 17       	cp	r30, r18
    30bc:	f3 07       	cpc	r31, r19
    30be:	d9 f7       	brne	.-10     	; 0x30b6 <dir_register+0x4e>
	BYTE sn[12], *fn, sum;
	WCHAR *lfn;

	fn = dj->fn; lfn = dj->lfn;
	mem_cpy(sn, fn, 12);
	if (sn[11] & 1) {		/* When LFN is out of 8.3 format, generate a numbered name */
    30c0:	8c 85       	ldd	r24, Y+12	; 0x0c
    30c2:	80 ff       	sbrs	r24, 0
    30c4:	2d c0       	rjmp	.+90     	; 0x3120 <dir_register+0xb8>
		fn[11] = 0; dj->lfn = NULL;			/* Find only SFN */
    30c6:	f6 01       	movw	r30, r12
    30c8:	13 86       	std	Z+11, r1	; 0x0b
    30ca:	d7 01       	movw	r26, r14
    30cc:	57 96       	adiw	r26, 0x17	; 23
    30ce:	1c 92       	st	X, r1
    30d0:	1e 92       	st	-X, r1
    30d2:	56 97       	sbiw	r26, 0x16	; 22
    30d4:	01 e0       	ldi	r16, 0x01	; 1
    30d6:	10 e0       	ldi	r17, 0x00	; 0
		for (n = 1; n < 100; n++) {
			gen_numname(fn, sn, lfn, n);	/* Generate a numbered name */
    30d8:	4e 01       	movw	r8, r28
    30da:	08 94       	sec
    30dc:	81 1c       	adc	r8, r1
    30de:	91 1c       	adc	r9, r1
    30e0:	c6 01       	movw	r24, r12
    30e2:	b4 01       	movw	r22, r8
    30e4:	4b 2d       	mov	r20, r11
    30e6:	5a 2d       	mov	r21, r10
    30e8:	98 01       	movw	r18, r16
    30ea:	0e 94 c5 06 	call	0xd8a	; 0xd8a <gen_numname>
			res = dir_find(dj);				/* Check if the name collides with existing SFN */
    30ee:	c7 01       	movw	r24, r14
    30f0:	0e 94 49 14 	call	0x2892	; 0x2892 <dir_find>
    30f4:	48 2f       	mov	r20, r24
			if (res != FR_OK) break;
    30f6:	88 23       	and	r24, r24
    30f8:	39 f4       	brne	.+14     	; 0x3108 <dir_register+0xa0>

	fn = dj->fn; lfn = dj->lfn;
	mem_cpy(sn, fn, 12);
	if (sn[11] & 1) {		/* When LFN is out of 8.3 format, generate a numbered name */
		fn[11] = 0; dj->lfn = NULL;			/* Find only SFN */
		for (n = 1; n < 100; n++) {
    30fa:	0f 5f       	subi	r16, 0xFF	; 255
    30fc:	1f 4f       	sbci	r17, 0xFF	; 255
    30fe:	04 36       	cpi	r16, 0x64	; 100
    3100:	11 05       	cpc	r17, r1
    3102:	71 f7       	brne	.-36     	; 0x30e0 <dir_register+0x78>
    3104:	47 e0       	ldi	r20, 0x07	; 7
    3106:	36 c1       	rjmp	.+620    	; 0x3374 <dir_register+0x30c>
			gen_numname(fn, sn, lfn, n);	/* Generate a numbered name */
			res = dir_find(dj);				/* Check if the name collides with existing SFN */
			if (res != FR_OK) break;
		}
		if (n == 100) return FR_DENIED;		/* Abort if too many collisions */
		if (res != FR_NO_FILE) return res;	/* Abort if the result is other than 'not collided' */
    3108:	84 30       	cpi	r24, 0x04	; 4
    310a:	09 f0       	breq	.+2      	; 0x310e <dir_register+0xa6>
    310c:	33 c1       	rjmp	.+614    	; 0x3374 <dir_register+0x30c>
		fn[11] = sn[11]; dj->lfn = lfn;
    310e:	8c 85       	ldd	r24, Y+12	; 0x0c
    3110:	f6 01       	movw	r30, r12
    3112:	83 87       	std	Z+11, r24	; 0x0b
    3114:	d7 01       	movw	r26, r14
    3116:	56 96       	adiw	r26, 0x16	; 22
    3118:	bc 92       	st	X, r11
    311a:	56 97       	sbiw	r26, 0x16	; 22
    311c:	57 96       	adiw	r26, 0x17	; 23
    311e:	ac 92       	st	X, r10
	}
	if (sn[11] & 2) {		/* When eliminate LFN, reserve only an SFN entry. */
    3120:	8c 85       	ldd	r24, Y+12	; 0x0c
    3122:	81 ff       	sbrs	r24, 1
    3124:	04 c0       	rjmp	.+8      	; 0x312e <dir_register+0xc6>
    3126:	31 e0       	ldi	r19, 0x01	; 1
    3128:	a3 2e       	mov	r10, r19
    312a:	b1 2c       	mov	r11, r1
    312c:	14 c0       	rjmp	.+40     	; 0x3156 <dir_register+0xee>
    312e:	8b 2d       	mov	r24, r11
    3130:	9a 2d       	mov	r25, r10
    3132:	9c 01       	movw	r18, r24
    3134:	f9 01       	movw	r30, r18
    3136:	20 e0       	ldi	r18, 0x00	; 0
    3138:	30 e0       	ldi	r19, 0x00	; 0
    313a:	02 c0       	rjmp	.+4      	; 0x3140 <dir_register+0xd8>
		ne = 1;
	} else {				/* Otherwise reserve an SFN + LFN entries. */
		for (ne = 0; lfn[ne]; ne++) ;
    313c:	2f 5f       	subi	r18, 0xFF	; 255
    313e:	3f 4f       	sbci	r19, 0xFF	; 255
    3140:	81 91       	ld	r24, Z+
    3142:	91 91       	ld	r25, Z+
    3144:	89 2b       	or	r24, r25
    3146:	d1 f7       	brne	.-12     	; 0x313c <dir_register+0xd4>
		ne = (ne + 25) / 13;
    3148:	c9 01       	movw	r24, r18
    314a:	49 96       	adiw	r24, 0x19	; 25
    314c:	6d e0       	ldi	r22, 0x0D	; 13
    314e:	70 e0       	ldi	r23, 0x00	; 0
    3150:	0e 94 4d 28 	call	0x509a	; 0x509a <__udivmodhi4>
    3154:	5b 01       	movw	r10, r22
	}

	/* Reserve contiguous entries */
	res = dir_seek(dj, 0);
    3156:	c7 01       	movw	r24, r14
    3158:	60 e0       	ldi	r22, 0x00	; 0
    315a:	70 e0       	ldi	r23, 0x00	; 0
    315c:	0e 94 f5 0c 	call	0x19ea	; 0x19ea <dir_seek>
    3160:	48 2f       	mov	r20, r24
	if (res != FR_OK) return res;
    3162:	88 23       	and	r24, r24
    3164:	09 f0       	breq	.+2      	; 0x3168 <dir_register+0x100>
    3166:	06 c1       	rjmp	.+524    	; 0x3374 <dir_register+0x30c>
    3168:	00 e0       	ldi	r16, 0x00	; 0
    316a:	10 e0       	ldi	r17, 0x00	; 0
    316c:	cc 24       	eor	r12, r12
    316e:	dd 24       	eor	r13, r13
	n = is = 0;
	do {
		res = move_window(dj->fs, dj->sect);
    3170:	f7 01       	movw	r30, r14
    3172:	46 85       	ldd	r20, Z+14	; 0x0e
    3174:	57 85       	ldd	r21, Z+15	; 0x0f
    3176:	60 89       	ldd	r22, Z+16	; 0x10
    3178:	71 89       	ldd	r23, Z+17	; 0x11
    317a:	84 81       	ldd	r24, Z+4	; 0x04
    317c:	95 81       	ldd	r25, Z+5	; 0x05
    317e:	0e 94 90 0b 	call	0x1720	; 0x1720 <move_window>
    3182:	48 2f       	mov	r20, r24
		if (res != FR_OK) break;
    3184:	88 23       	and	r24, r24
    3186:	09 f0       	breq	.+2      	; 0x318a <dir_register+0x122>
    3188:	f5 c0       	rjmp	.+490    	; 0x3374 <dir_register+0x30c>
		c = *dj->dir;	/* Check the entry status */
    318a:	d7 01       	movw	r26, r14
    318c:	52 96       	adiw	r26, 0x12	; 18
    318e:	ed 91       	ld	r30, X+
    3190:	fc 91       	ld	r31, X
    3192:	53 97       	sbiw	r26, 0x13	; 19
    3194:	e0 81       	ld	r30, Z
		if (c == 0xE5 || c == 0) {	/* Is it a blank entry? */
    3196:	e5 3e       	cpi	r30, 0xE5	; 229
    3198:	29 f0       	breq	.+10     	; 0x31a4 <dir_register+0x13c>
    319a:	ee 23       	and	r30, r30
    319c:	19 f0       	breq	.+6      	; 0x31a4 <dir_register+0x13c>
    319e:	00 e0       	ldi	r16, 0x00	; 0
    31a0:	10 e0       	ldi	r17, 0x00	; 0
    31a2:	0c c0       	rjmp	.+24     	; 0x31bc <dir_register+0x154>
			if (n == 0) is = dj->index;	/* First index of the contigulus entry */
    31a4:	01 15       	cp	r16, r1
    31a6:	11 05       	cpc	r17, r1
    31a8:	19 f4       	brne	.+6      	; 0x31b0 <dir_register+0x148>
    31aa:	f7 01       	movw	r30, r14
    31ac:	c2 80       	ldd	r12, Z+2	; 0x02
    31ae:	d3 80       	ldd	r13, Z+3	; 0x03
			if (++n == ne) break;	/* A contiguous entry that requiered count is found */
    31b0:	0f 5f       	subi	r16, 0xFF	; 255
    31b2:	1f 4f       	sbci	r17, 0xFF	; 255
    31b4:	0a 15       	cp	r16, r10
    31b6:	1b 05       	cpc	r17, r11
    31b8:	09 f4       	brne	.+2      	; 0x31bc <dir_register+0x154>
    31ba:	f1 c0       	rjmp	.+482    	; 0x339e <dir_register+0x336>
		} else {
			n = 0;					/* Not a blank entry. Restart to search */
		}
		res = dir_next(dj, TRUE);	/* Next entry with table streach */
    31bc:	c7 01       	movw	r24, r14
    31be:	61 e0       	ldi	r22, 0x01	; 1
    31c0:	0e 94 c9 12 	call	0x2592	; 0x2592 <dir_next>
    31c4:	48 2f       	mov	r20, r24
	} while (res == FR_OK);
    31c6:	88 23       	and	r24, r24
    31c8:	99 f2       	breq	.-90     	; 0x3170 <dir_register+0x108>
    31ca:	d4 c0       	rjmp	.+424    	; 0x3374 <dir_register+0x30c>

	if (res == FR_OK && ne > 1) {	/* Initialize LFN entry if needed */
		res = dir_seek(dj, is);
    31cc:	c7 01       	movw	r24, r14
    31ce:	b6 01       	movw	r22, r12
    31d0:	0e 94 f5 0c 	call	0x19ea	; 0x19ea <dir_seek>
    31d4:	48 2f       	mov	r20, r24
		if (res == FR_OK) {
    31d6:	88 23       	and	r24, r24
    31d8:	09 f0       	breq	.+2      	; 0x31dc <dir_register+0x174>
    31da:	cc c0       	rjmp	.+408    	; 0x3374 <dir_register+0x30c>
			sum = sum_sfn(dj->fn);	/* Sum of the SFN tied to the LFN */
    31dc:	d7 01       	movw	r26, r14
    31de:	54 96       	adiw	r26, 0x14	; 20
    31e0:	8c 91       	ld	r24, X
    31e2:	54 97       	sbiw	r26, 0x14	; 20
    31e4:	55 96       	adiw	r26, 0x15	; 21
    31e6:	9c 91       	ld	r25, X
    31e8:	9c 01       	movw	r18, r24
    31ea:	f9 01       	movw	r30, r18
    31ec:	2b e0       	ldi	r18, 0x0B	; 11
    31ee:	30 e0       	ldi	r19, 0x00	; 0
    31f0:	dd 24       	eor	r13, r13
)
{
	BYTE sum = 0;
	int n = 11;

	do sum = (sum >> 1) + (sum << 7) + *dir++; while (--n);
    31f2:	8d 2d       	mov	r24, r13
    31f4:	87 95       	ror	r24
    31f6:	88 27       	eor	r24, r24
    31f8:	87 95       	ror	r24
    31fa:	d6 94       	lsr	r13
    31fc:	d8 2a       	or	r13, r24
    31fe:	81 91       	ld	r24, Z+
    3200:	d8 0e       	add	r13, r24
    3202:	21 50       	subi	r18, 0x01	; 1
    3204:	30 40       	sbci	r19, 0x00	; 0
    3206:	a9 f7       	brne	.-22     	; 0x31f2 <dir_register+0x18a>

	if (res == FR_OK && ne > 1) {	/* Initialize LFN entry if needed */
		res = dir_seek(dj, is);
		if (res == FR_OK) {
			sum = sum_sfn(dj->fn);	/* Sum of the SFN tied to the LFN */
			ne--;
    3208:	08 94       	sec
    320a:	a1 08       	sbc	r10, r1
    320c:	b1 08       	sbc	r11, r1
	int i, s;
	WCHAR wchr;


	dir[LDIR_Chksum] = sum;			/* Set check sum */
	dir[LDIR_Attr] = AM_LFN;		/* Set attribute. LFN entry */
    320e:	2f e0       	ldi	r18, 0x0F	; 15
    3210:	72 2e       	mov	r7, r18
	dir[LDIR_Type] = 0;
	ST_WORD(dir+LDIR_FstClusLO, 0);

	i = (ord - 1) * 13;				/* Offset in the LFN buffer */
    3212:	9d e0       	ldi	r25, 0x0D	; 13
    3214:	89 2e       	mov	r8, r25
			ne--;
			do {					/* Store LFN entries in bottom first */
				res = move_window(dj->fs, dj->sect);
				if (res != FR_OK) break;
				fit_lfn(dj->lfn, dj->dir, (BYTE)ne, sum);
				dj->fs->wflag = 1;
    3216:	99 24       	eor	r9, r9
    3218:	93 94       	inc	r9
		res = dir_seek(dj, is);
		if (res == FR_OK) {
			sum = sum_sfn(dj->fn);	/* Sum of the SFN tied to the LFN */
			ne--;
			do {					/* Store LFN entries in bottom first */
				res = move_window(dj->fs, dj->sect);
    321a:	f7 01       	movw	r30, r14
    321c:	46 85       	ldd	r20, Z+14	; 0x0e
    321e:	57 85       	ldd	r21, Z+15	; 0x0f
    3220:	60 89       	ldd	r22, Z+16	; 0x10
    3222:	71 89       	ldd	r23, Z+17	; 0x11
    3224:	84 81       	ldd	r24, Z+4	; 0x04
    3226:	95 81       	ldd	r25, Z+5	; 0x05
    3228:	0e 94 90 0b 	call	0x1720	; 0x1720 <move_window>
    322c:	48 2f       	mov	r20, r24
				if (res != FR_OK) break;
    322e:	88 23       	and	r24, r24
    3230:	09 f0       	breq	.+2      	; 0x3234 <dir_register+0x1cc>
    3232:	a0 c0       	rjmp	.+320    	; 0x3374 <dir_register+0x30c>
				fit_lfn(dj->lfn, dj->dir, (BYTE)ne, sum);
    3234:	d7 01       	movw	r26, r14
    3236:	56 96       	adiw	r26, 0x16	; 22
    3238:	0d 91       	ld	r16, X+
    323a:	1c 91       	ld	r17, X
    323c:	57 97       	sbiw	r26, 0x17	; 23
    323e:	52 96       	adiw	r26, 0x12	; 18
    3240:	0d 90       	ld	r0, X+
    3242:	bc 91       	ld	r27, X
    3244:	a0 2d       	mov	r26, r0
    3246:	ca 2c       	mov	r12, r10
{
	int i, s;
	WCHAR wchr;


	dir[LDIR_Chksum] = sum;			/* Set check sum */
    3248:	1d 96       	adiw	r26, 0x0d	; 13
    324a:	dc 92       	st	X, r13
    324c:	1d 97       	sbiw	r26, 0x0d	; 13
	dir[LDIR_Attr] = AM_LFN;		/* Set attribute. LFN entry */
    324e:	1b 96       	adiw	r26, 0x0b	; 11
    3250:	7c 92       	st	X, r7
    3252:	1b 97       	sbiw	r26, 0x0b	; 11
	dir[LDIR_Type] = 0;
    3254:	1c 96       	adiw	r26, 0x0c	; 12
    3256:	1c 92       	st	X, r1
    3258:	1c 97       	sbiw	r26, 0x0c	; 12
	ST_WORD(dir+LDIR_FstClusLO, 0);
    325a:	5a 96       	adiw	r26, 0x1a	; 26
    325c:	1c 92       	st	X, r1
    325e:	5a 97       	sbiw	r26, 0x1a	; 26
    3260:	5b 96       	adiw	r26, 0x1b	; 27
    3262:	1c 92       	st	X, r1
    3264:	5b 97       	sbiw	r26, 0x1b	; 27

	i = (ord - 1) * 13;				/* Offset in the LFN buffer */
    3266:	a8 9c       	mul	r10, r8
    3268:	a0 01       	movw	r20, r0
    326a:	11 24       	eor	r1, r1
    326c:	4d 50       	subi	r20, 0x0D	; 13
    326e:	50 40       	sbci	r21, 0x00	; 0
    3270:	6f e4       	ldi	r22, 0x4F	; 79
    3272:	71 e0       	ldi	r23, 0x01	; 1
    3274:	20 e0       	ldi	r18, 0x00	; 0
    3276:	30 e0       	ldi	r19, 0x00	; 0
	s = wchr = 0;
	do {
		if (wchr != 0xFFFF) wchr = lfnbuf[i++];	/* Get an effective char */
    3278:	ef ef       	ldi	r30, 0xFF	; 255
    327a:	2f 3f       	cpi	r18, 0xFF	; 255
    327c:	3e 07       	cpc	r19, r30
    327e:	49 f0       	breq	.+18     	; 0x3292 <dir_register+0x22a>
    3280:	fa 01       	movw	r30, r20
    3282:	ee 0f       	add	r30, r30
    3284:	ff 1f       	adc	r31, r31
    3286:	e0 0f       	add	r30, r16
    3288:	f1 1f       	adc	r31, r17
    328a:	20 81       	ld	r18, Z
    328c:	31 81       	ldd	r19, Z+1	; 0x01
    328e:	4f 5f       	subi	r20, 0xFF	; 255
    3290:	5f 4f       	sbci	r21, 0xFF	; 255
		ST_WORD(dir+LfnOfs[s], wchr);	/* Put it */
    3292:	fb 01       	movw	r30, r22
    3294:	80 81       	ld	r24, Z
    3296:	fd 01       	movw	r30, r26
    3298:	e8 0f       	add	r30, r24
    329a:	f1 1d       	adc	r31, r1
    329c:	20 83       	st	Z, r18
    329e:	31 83       	std	Z+1, r19	; 0x01
		if (!wchr) wchr = 0xFFFF;	/* Padding chars following last char */
    32a0:	21 15       	cp	r18, r1
    32a2:	31 05       	cpc	r19, r1
    32a4:	11 f4       	brne	.+4      	; 0x32aa <dir_register+0x242>
    32a6:	2f ef       	ldi	r18, 0xFF	; 255
    32a8:	3f ef       	ldi	r19, 0xFF	; 255
    32aa:	6f 5f       	subi	r22, 0xFF	; 255
    32ac:	7f 4f       	sbci	r23, 0xFF	; 255
	} while (++s < 13);
    32ae:	f1 e0       	ldi	r31, 0x01	; 1
    32b0:	6c 35       	cpi	r22, 0x5C	; 92
    32b2:	7f 07       	cpc	r23, r31
    32b4:	09 f7       	brne	.-62     	; 0x3278 <dir_register+0x210>
	if (wchr == 0xFFFF || !lfnbuf[i]) ord |= 0x40;/* Bottom LFN part is the start of LFN sequence */
    32b6:	2f 5f       	subi	r18, 0xFF	; 255
    32b8:	3f 4f       	sbci	r19, 0xFF	; 255
    32ba:	49 f0       	breq	.+18     	; 0x32ce <dir_register+0x266>
    32bc:	44 0f       	add	r20, r20
    32be:	55 1f       	adc	r21, r21
    32c0:	04 0f       	add	r16, r20
    32c2:	15 1f       	adc	r17, r21
    32c4:	f8 01       	movw	r30, r16
    32c6:	80 81       	ld	r24, Z
    32c8:	91 81       	ldd	r25, Z+1	; 0x01
    32ca:	89 2b       	or	r24, r25
    32cc:	11 f4       	brne	.+4      	; 0x32d2 <dir_register+0x26a>
    32ce:	f0 e4       	ldi	r31, 0x40	; 64
    32d0:	cf 2a       	or	r12, r31
	dir[LDIR_Ord] = ord;			/* Set the LFN order */
    32d2:	cc 92       	st	X, r12
			ne--;
			do {					/* Store LFN entries in bottom first */
				res = move_window(dj->fs, dj->sect);
				if (res != FR_OK) break;
				fit_lfn(dj->lfn, dj->dir, (BYTE)ne, sum);
				dj->fs->wflag = 1;
    32d4:	d7 01       	movw	r26, r14
    32d6:	14 96       	adiw	r26, 0x04	; 4
    32d8:	ed 91       	ld	r30, X+
    32da:	fc 91       	ld	r31, X
    32dc:	15 97       	sbiw	r26, 0x05	; 5
    32de:	94 82       	std	Z+4, r9	; 0x04
				res = dir_next(dj, FALSE);	/* Next entry */
    32e0:	c7 01       	movw	r24, r14
    32e2:	60 e0       	ldi	r22, 0x00	; 0
    32e4:	0e 94 c9 12 	call	0x2592	; 0x2592 <dir_next>
    32e8:	48 2f       	mov	r20, r24
			} while (res == FR_OK && --ne);
    32ea:	88 23       	and	r24, r24
    32ec:	09 f0       	breq	.+2      	; 0x32f0 <dir_register+0x288>
    32ee:	42 c0       	rjmp	.+132    	; 0x3374 <dir_register+0x30c>
    32f0:	08 94       	sec
    32f2:	a1 08       	sbc	r10, r1
    32f4:	b1 08       	sbc	r11, r1
    32f6:	a1 14       	cp	r10, r1
    32f8:	b1 04       	cpc	r11, r1
    32fa:	09 f0       	breq	.+2      	; 0x32fe <dir_register+0x296>
    32fc:	8e cf       	rjmp	.-228    	; 0x321a <dir_register+0x1b2>
		} while (res == FR_OK);
	}
#endif

	if (res == FR_OK) {		/* Initialize the SFN entry */
		res = move_window(dj->fs, dj->sect);
    32fe:	f7 01       	movw	r30, r14
    3300:	46 85       	ldd	r20, Z+14	; 0x0e
    3302:	57 85       	ldd	r21, Z+15	; 0x0f
    3304:	60 89       	ldd	r22, Z+16	; 0x10
    3306:	71 89       	ldd	r23, Z+17	; 0x11
    3308:	84 81       	ldd	r24, Z+4	; 0x04
    330a:	95 81       	ldd	r25, Z+5	; 0x05
    330c:	0e 94 90 0b 	call	0x1720	; 0x1720 <move_window>
    3310:	48 2f       	mov	r20, r24
		if (res == FR_OK) {
    3312:	88 23       	and	r24, r24
    3314:	79 f5       	brne	.+94     	; 0x3374 <dir_register+0x30c>
			dir = dj->dir;
    3316:	d7 01       	movw	r26, r14
    3318:	52 96       	adiw	r26, 0x12	; 18
    331a:	6d 91       	ld	r22, X+
    331c:	7c 91       	ld	r23, X
    331e:	53 97       	sbiw	r26, 0x13	; 19
    3320:	fb 01       	movw	r30, r22
    3322:	80 e2       	ldi	r24, 0x20	; 32
    3324:	90 e0       	ldi	r25, 0x00	; 0
    3326:	01 c0       	rjmp	.+2      	; 0x332a <dir_register+0x2c2>

/* Fill memory */
static
void mem_set (void* dst, int val, int cnt) {
	char *d = (char*)dst;
	while (cnt--) *d++ = (char)val;
    3328:	11 92       	st	Z+, r1
    332a:	01 97       	sbiw	r24, 0x01	; 1
    332c:	bf ef       	ldi	r27, 0xFF	; 255
    332e:	8f 3f       	cpi	r24, 0xFF	; 255
    3330:	9b 07       	cpc	r25, r27
    3332:	d1 f7       	brne	.-12     	; 0x3328 <dir_register+0x2c0>
	if (res == FR_OK) {		/* Initialize the SFN entry */
		res = move_window(dj->fs, dj->sect);
		if (res == FR_OK) {
			dir = dj->dir;
			mem_set(dir, 0, 32);			/* Clean the entry */
			mem_cpy(dir, dj->fn, 11);	/* Put SFN */
    3334:	f7 01       	movw	r30, r14
    3336:	84 89       	ldd	r24, Z+20	; 0x14
    3338:	95 89       	ldd	r25, Z+21	; 0x15
    333a:	9c 01       	movw	r18, r24
    333c:	d9 01       	movw	r26, r18
    333e:	fb 01       	movw	r30, r22
    3340:	2b e0       	ldi	r18, 0x0B	; 11
    3342:	30 e0       	ldi	r19, 0x00	; 0
    3344:	02 c0       	rjmp	.+4      	; 0x334a <dir_register+0x2e2>
/* Copy memory to memory */
static
void mem_cpy (void* dst, const void* src, int cnt) {
	char *d = (char*)dst;
	const char *s = (const char *)src;
	while (cnt--) *d++ = *s++;
    3346:	8d 91       	ld	r24, X+
    3348:	81 93       	st	Z+, r24
    334a:	21 50       	subi	r18, 0x01	; 1
    334c:	30 40       	sbci	r19, 0x00	; 0
    334e:	8f ef       	ldi	r24, 0xFF	; 255
    3350:	2f 3f       	cpi	r18, 0xFF	; 255
    3352:	38 07       	cpc	r19, r24
    3354:	c1 f7       	brne	.-16     	; 0x3346 <dir_register+0x2de>
		res = move_window(dj->fs, dj->sect);
		if (res == FR_OK) {
			dir = dj->dir;
			mem_set(dir, 0, 32);			/* Clean the entry */
			mem_cpy(dir, dj->fn, 11);	/* Put SFN */
			dir[DIR_NTres] = *(dj->fn+11) & 0x18;	/* Put NT flag */
    3356:	d7 01       	movw	r26, r14
    3358:	54 96       	adiw	r26, 0x14	; 20
    335a:	ed 91       	ld	r30, X+
    335c:	fc 91       	ld	r31, X
    335e:	55 97       	sbiw	r26, 0x15	; 21
    3360:	83 85       	ldd	r24, Z+11	; 0x0b
    3362:	88 71       	andi	r24, 0x18	; 24
    3364:	fb 01       	movw	r30, r22
    3366:	84 87       	std	Z+12, r24	; 0x0c
			dj->fs->wflag = 1;
    3368:	14 96       	adiw	r26, 0x04	; 4
    336a:	ed 91       	ld	r30, X+
    336c:	fc 91       	ld	r31, X
    336e:	15 97       	sbiw	r26, 0x05	; 5
    3370:	81 e0       	ldi	r24, 0x01	; 1
    3372:	84 83       	std	Z+4, r24	; 0x04
		}
	}

	return res;
}
    3374:	84 2f       	mov	r24, r20
    3376:	2c 96       	adiw	r28, 0x0c	; 12
    3378:	0f b6       	in	r0, 0x3f	; 63
    337a:	f8 94       	cli
    337c:	de bf       	out	0x3e, r29	; 62
    337e:	0f be       	out	0x3f, r0	; 63
    3380:	cd bf       	out	0x3d, r28	; 61
    3382:	cf 91       	pop	r28
    3384:	df 91       	pop	r29
    3386:	1f 91       	pop	r17
    3388:	0f 91       	pop	r16
    338a:	ff 90       	pop	r15
    338c:	ef 90       	pop	r14
    338e:	df 90       	pop	r13
    3390:	cf 90       	pop	r12
    3392:	bf 90       	pop	r11
    3394:	af 90       	pop	r10
    3396:	9f 90       	pop	r9
    3398:	8f 90       	pop	r8
    339a:	7f 90       	pop	r7
    339c:	08 95       	ret
			n = 0;					/* Not a blank entry. Restart to search */
		}
		res = dir_next(dj, TRUE);	/* Next entry with table streach */
	} while (res == FR_OK);

	if (res == FR_OK && ne > 1) {	/* Initialize LFN entry if needed */
    339e:	f2 e0       	ldi	r31, 0x02	; 2
    33a0:	af 16       	cp	r10, r31
    33a2:	b1 04       	cpc	r11, r1
    33a4:	08 f0       	brcs	.+2      	; 0x33a8 <dir_register+0x340>
    33a6:	12 cf       	rjmp	.-476    	; 0x31cc <dir_register+0x164>
    33a8:	aa cf       	rjmp	.-172    	; 0x32fe <dir_register+0x296>

000033aa <dir_remove>:
#if !_FS_READONLY && !_FS_MINIMIZE
static
FRESULT dir_remove (	/* FR_OK: Successful, FR_DISK_ERR: A disk error */
	DIR *dj				/* Directory object pointing the entry to be removed */
)
{
    33aa:	ef 92       	push	r14
    33ac:	ff 92       	push	r15
    33ae:	0f 93       	push	r16
    33b0:	1f 93       	push	r17
    33b2:	cf 93       	push	r28
    33b4:	df 93       	push	r29
    33b6:	ec 01       	movw	r28, r24
	FRESULT res;

#if _USE_LFN	/* LFN configuration */
	WORD i;

	i = dj->index;	/* SFN index */
    33b8:	0a 81       	ldd	r16, Y+2	; 0x02
    33ba:	1b 81       	ldd	r17, Y+3	; 0x03
	res = dir_seek(dj, (WORD)((dj->lfn_idx == 0xFFFF) ? i : dj->lfn_idx));	/* Goto the SFN or top of the LFN entries */
    33bc:	68 8d       	ldd	r22, Y+24	; 0x18
    33be:	79 8d       	ldd	r23, Y+25	; 0x19
    33c0:	8f ef       	ldi	r24, 0xFF	; 255
    33c2:	6f 3f       	cpi	r22, 0xFF	; 255
    33c4:	78 07       	cpc	r23, r24
    33c6:	09 f4       	brne	.+2      	; 0x33ca <dir_remove+0x20>
    33c8:	b8 01       	movw	r22, r16
    33ca:	ce 01       	movw	r24, r28
    33cc:	0e 94 f5 0c 	call	0x19ea	; 0x19ea <dir_seek>
    33d0:	28 2f       	mov	r18, r24
	if (res == FR_OK) {
    33d2:	88 23       	and	r24, r24
    33d4:	21 f5       	brne	.+72     	; 0x341e <dir_remove+0x74>
		do {
			res = move_window(dj->fs, dj->sect);
			if (res != FR_OK) break;
			*dj->dir = 0xE5;				/* Mark the entry "deleted" */
    33d6:	45 ee       	ldi	r20, 0xE5	; 229
    33d8:	e4 2e       	mov	r14, r20
			dj->fs->wflag = 1;
    33da:	ff 24       	eor	r15, r15
    33dc:	f3 94       	inc	r15

	i = dj->index;	/* SFN index */
	res = dir_seek(dj, (WORD)((dj->lfn_idx == 0xFFFF) ? i : dj->lfn_idx));	/* Goto the SFN or top of the LFN entries */
	if (res == FR_OK) {
		do {
			res = move_window(dj->fs, dj->sect);
    33de:	4e 85       	ldd	r20, Y+14	; 0x0e
    33e0:	5f 85       	ldd	r21, Y+15	; 0x0f
    33e2:	68 89       	ldd	r22, Y+16	; 0x10
    33e4:	79 89       	ldd	r23, Y+17	; 0x11
    33e6:	8c 81       	ldd	r24, Y+4	; 0x04
    33e8:	9d 81       	ldd	r25, Y+5	; 0x05
    33ea:	0e 94 90 0b 	call	0x1720	; 0x1720 <move_window>
    33ee:	28 2f       	mov	r18, r24
			if (res != FR_OK) break;
    33f0:	88 23       	and	r24, r24
    33f2:	91 f4       	brne	.+36     	; 0x3418 <dir_remove+0x6e>
			*dj->dir = 0xE5;				/* Mark the entry "deleted" */
    33f4:	ea 89       	ldd	r30, Y+18	; 0x12
    33f6:	fb 89       	ldd	r31, Y+19	; 0x13
    33f8:	e0 82       	st	Z, r14
			dj->fs->wflag = 1;
    33fa:	ec 81       	ldd	r30, Y+4	; 0x04
    33fc:	fd 81       	ldd	r31, Y+5	; 0x05
    33fe:	f4 82       	std	Z+4, r15	; 0x04
			if (dj->index >= i) break;		/* When SFN is deleted, all entries of the object is deleted. */
    3400:	8a 81       	ldd	r24, Y+2	; 0x02
    3402:	9b 81       	ldd	r25, Y+3	; 0x03
    3404:	80 17       	cp	r24, r16
    3406:	91 07       	cpc	r25, r17
    3408:	50 f4       	brcc	.+20     	; 0x341e <dir_remove+0x74>
			res = dir_next(dj, FALSE);		/* Next entry */
    340a:	ce 01       	movw	r24, r28
    340c:	60 e0       	ldi	r22, 0x00	; 0
    340e:	0e 94 c9 12 	call	0x2592	; 0x2592 <dir_next>
    3412:	28 2f       	mov	r18, r24
		} while (res == FR_OK);
    3414:	88 23       	and	r24, r24
    3416:	19 f3       	breq	.-58     	; 0x33de <dir_remove+0x34>
		if (res == FR_NO_FILE) res = FR_INT_ERR;
    3418:	24 30       	cpi	r18, 0x04	; 4
    341a:	09 f4       	brne	.+2      	; 0x341e <dir_remove+0x74>
    341c:	22 e0       	ldi	r18, 0x02	; 2
		}
	}
#endif

	return res;
}
    341e:	82 2f       	mov	r24, r18
    3420:	df 91       	pop	r29
    3422:	cf 91       	pop	r28
    3424:	1f 91       	pop	r17
    3426:	0f 91       	pop	r16
    3428:	ff 90       	pop	r15
    342a:	ef 90       	pop	r14
    342c:	08 95       	ret

0000342e <dir_read>:
#if _FS_MINIMIZE <= 2
static
FRESULT dir_read (
	DIR *dj			/* Pointer to the directory object to store read object name */
)
{
    342e:	af 92       	push	r10
    3430:	bf 92       	push	r11
    3432:	cf 92       	push	r12
    3434:	df 92       	push	r13
    3436:	ef 92       	push	r14
    3438:	ff 92       	push	r15
    343a:	0f 93       	push	r16
    343c:	1f 93       	push	r17
    343e:	cf 93       	push	r28
    3440:	df 93       	push	r29
    3442:	8c 01       	movw	r16, r24
    3444:	a4 e0       	ldi	r26, 0x04	; 4
    3446:	dd 24       	eor	r13, r13
    3448:	da 94       	dec	r13
    344a:	cc 24       	eor	r12, r12
    344c:	ca 94       	dec	r12
{
	int i, s;
	WCHAR wchr;


	i = ((dir[LDIR_Ord] & 0xBF) - 1) * 13;	/* Offset in the LFN buffer */
    344e:	bd e0       	ldi	r27, 0x0D	; 13
    3450:	ab 2e       	mov	r10, r27
    3452:	b1 2c       	mov	r11, r1
    3454:	96 c0       	rjmp	.+300    	; 0x3582 <dir_read+0x154>


	ord = sum = 0xFF;
	res = FR_NO_FILE;
	while (dj->sect) {
		res = move_window(dj->fs, dj->sect);
    3456:	f8 01       	movw	r30, r16
    3458:	84 81       	ldd	r24, Z+4	; 0x04
    345a:	95 81       	ldd	r25, Z+5	; 0x05
    345c:	0e 94 90 0b 	call	0x1720	; 0x1720 <move_window>
    3460:	a8 2f       	mov	r26, r24
		if (res != FR_OK) break;
    3462:	88 23       	and	r24, r24
    3464:	09 f0       	breq	.+2      	; 0x3468 <dir_read+0x3a>
    3466:	9a c0       	rjmp	.+308    	; 0x359c <dir_read+0x16e>
		dir = dj->dir;					/* Ptr to the directory entry of current index */
    3468:	f8 01       	movw	r30, r16
    346a:	42 89       	ldd	r20, Z+18	; 0x12
    346c:	53 89       	ldd	r21, Z+19	; 0x13
		c = dir[DIR_Name];
    346e:	fa 01       	movw	r30, r20
    3470:	90 81       	ld	r25, Z
		if (c == 0) { res = FR_NO_FILE; break; }	/* Reached to end of table */
    3472:	99 23       	and	r25, r25
    3474:	09 f4       	brne	.+2      	; 0x3478 <dir_read+0x4a>
    3476:	a5 c0       	rjmp	.+330    	; 0x35c2 <dir_read+0x194>
		a = dir[DIR_Attr] & AM_MASK;
    3478:	83 85       	ldd	r24, Z+11	; 0x0b
#if _USE_LFN	/* LFN configuration */
		if (c == 0xE5 || c == '.' || ((a & AM_VOL) && a != AM_LFN)) {	/* An entry without valid data */
    347a:	95 3e       	cpi	r25, 0xE5	; 229
    347c:	09 f4       	brne	.+2      	; 0x3480 <dir_read+0x52>
    347e:	78 c0       	rjmp	.+240    	; 0x3570 <dir_read+0x142>
    3480:	9e 32       	cpi	r25, 0x2E	; 46
    3482:	09 f4       	brne	.+2      	; 0x3486 <dir_read+0x58>
    3484:	75 c0       	rjmp	.+234    	; 0x3570 <dir_read+0x142>
		res = move_window(dj->fs, dj->sect);
		if (res != FR_OK) break;
		dir = dj->dir;					/* Ptr to the directory entry of current index */
		c = dir[DIR_Name];
		if (c == 0) { res = FR_NO_FILE; break; }	/* Reached to end of table */
		a = dir[DIR_Attr] & AM_MASK;
    3486:	8f 73       	andi	r24, 0x3F	; 63
#if _USE_LFN	/* LFN configuration */
		if (c == 0xE5 || c == '.' || ((a & AM_VOL) && a != AM_LFN)) {	/* An entry without valid data */
    3488:	83 ff       	sbrs	r24, 3
    348a:	04 c0       	rjmp	.+8      	; 0x3494 <dir_read+0x66>
    348c:	8f 30       	cpi	r24, 0x0F	; 15
    348e:	09 f0       	breq	.+2      	; 0x3492 <dir_read+0x64>
    3490:	6f c0       	rjmp	.+222    	; 0x3570 <dir_read+0x142>
    3492:	03 c0       	rjmp	.+6      	; 0x349a <dir_read+0x6c>
			ord = 0xFF;
		} else {
			if (a == AM_LFN) {			/* An LFN entry is found */
    3494:	8f 30       	cpi	r24, 0x0F	; 15
    3496:	09 f0       	breq	.+2      	; 0x349a <dir_read+0x6c>
    3498:	52 c0       	rjmp	.+164    	; 0x353e <dir_read+0x110>
				if (c & 0x40) {			/* Is it start of LFN sequence? */
    349a:	96 ff       	sbrs	r25, 6
    349c:	0b c0       	rjmp	.+22     	; 0x34b4 <dir_read+0x86>
					sum = dir[LDIR_Chksum];
    349e:	fa 01       	movw	r30, r20
    34a0:	c5 84       	ldd	r12, Z+13	; 0x0d
					c &= 0xBF; ord = c;
    34a2:	ff eb       	ldi	r31, 0xBF	; 191
    34a4:	df 2e       	mov	r13, r31
    34a6:	d9 22       	and	r13, r25
					dj->lfn_idx = dj->index;
    34a8:	f8 01       	movw	r30, r16
    34aa:	82 81       	ldd	r24, Z+2	; 0x02
    34ac:	93 81       	ldd	r25, Z+3	; 0x03
    34ae:	91 8f       	std	Z+25, r25	; 0x19
    34b0:	80 8f       	std	Z+24, r24	; 0x18
    34b2:	04 c0       	rjmp	.+8      	; 0x34bc <dir_read+0x8e>
				}
				/* Check LFN validity and capture it */
				ord = (c == ord && sum == dir[LDIR_Chksum] && pick_lfn(dj->lfn, dir)) ? ord - 1 : 0xFF;
    34b4:	9d 15       	cp	r25, r13
    34b6:	09 f0       	breq	.+2      	; 0x34ba <dir_read+0x8c>
    34b8:	5b c0       	rjmp	.+182    	; 0x3570 <dir_read+0x142>
    34ba:	d9 2e       	mov	r13, r25
    34bc:	fa 01       	movw	r30, r20
    34be:	85 85       	ldd	r24, Z+13	; 0x0d
    34c0:	c8 16       	cp	r12, r24
    34c2:	09 f0       	breq	.+2      	; 0x34c6 <dir_read+0x98>
    34c4:	55 c0       	rjmp	.+170    	; 0x3570 <dir_read+0x142>
    34c6:	f8 01       	movw	r30, r16
    34c8:	66 89       	ldd	r22, Z+22	; 0x16
    34ca:	77 89       	ldd	r23, Z+23	; 0x17
{
	int i, s;
	WCHAR wchr;


	i = ((dir[LDIR_Ord] & 0xBF) - 1) * 13;	/* Offset in the LFN buffer */
    34cc:	fa 01       	movw	r30, r20
    34ce:	80 81       	ld	r24, Z
    34d0:	90 e0       	ldi	r25, 0x00	; 0
    34d2:	8f 7b       	andi	r24, 0xBF	; 191
    34d4:	90 70       	andi	r25, 0x00	; 0
    34d6:	8a 9d       	mul	r24, r10
    34d8:	90 01       	movw	r18, r0
    34da:	8b 9d       	mul	r24, r11
    34dc:	30 0d       	add	r19, r0
    34de:	9a 9d       	mul	r25, r10
    34e0:	30 0d       	add	r19, r0
    34e2:	11 24       	eor	r1, r1
    34e4:	2d 50       	subi	r18, 0x0D	; 13
    34e6:	30 40       	sbci	r19, 0x00	; 0
    34e8:	cf e4       	ldi	r28, 0x4F	; 79
    34ea:	d1 e0       	ldi	r29, 0x01	; 1
    34ec:	d9 01       	movw	r26, r18
    34ee:	aa 0f       	add	r26, r26
    34f0:	bb 1f       	adc	r27, r27
    34f2:	a6 0f       	add	r26, r22
    34f4:	b7 1f       	adc	r27, r23
	s = 0;
	do {
		wchr = LD_WORD(dir+LfnOfs[s]);		/* Get an LFN char */
    34f6:	88 81       	ld	r24, Y
    34f8:	fa 01       	movw	r30, r20
    34fa:	e8 0f       	add	r30, r24
    34fc:	f1 1d       	adc	r31, r1
    34fe:	f1 80       	ldd	r15, Z+1	; 0x01
    3500:	ee 24       	eor	r14, r14
    3502:	80 81       	ld	r24, Z
    3504:	90 e0       	ldi	r25, 0x00	; 0
    3506:	8e 29       	or	r24, r14
    3508:	9f 29       	or	r25, r15
		if (!wchr) break;					/* End of LFN? */
    350a:	00 97       	sbiw	r24, 0x00	; 0
    350c:	61 f0       	breq	.+24     	; 0x3526 <dir_read+0xf8>
		if (i >= _MAX_LFN) return FALSE;	/* Buffer overflow */
    350e:	2f 3f       	cpi	r18, 0xFF	; 255
    3510:	31 05       	cpc	r19, r1
    3512:	74 f5       	brge	.+92     	; 0x3570 <dir_read+0x142>
		lfnbuf[i++] = wchr;					/* Store it */
    3514:	8d 93       	st	X+, r24
    3516:	9d 93       	st	X+, r25
    3518:	2f 5f       	subi	r18, 0xFF	; 255
    351a:	3f 4f       	sbci	r19, 0xFF	; 255
    351c:	21 96       	adiw	r28, 0x01	; 1
	} while (++s < 13);						/* Repeat until last char is copied */
    351e:	f1 e0       	ldi	r31, 0x01	; 1
    3520:	cc 35       	cpi	r28, 0x5C	; 92
    3522:	df 07       	cpc	r29, r31
    3524:	41 f7       	brne	.-48     	; 0x34f6 <dir_read+0xc8>
	if (dir[LDIR_Ord] & 0x40) lfnbuf[i] = 0;	/* Put terminator if last LFN entry */
    3526:	fa 01       	movw	r30, r20
    3528:	80 81       	ld	r24, Z
    352a:	86 ff       	sbrs	r24, 6
    352c:	48 c0       	rjmp	.+144    	; 0x35be <dir_read+0x190>
    352e:	22 0f       	add	r18, r18
    3530:	33 1f       	adc	r19, r19
    3532:	62 0f       	add	r22, r18
    3534:	73 1f       	adc	r23, r19
    3536:	fb 01       	movw	r30, r22
    3538:	11 82       	std	Z+1, r1	; 0x01
    353a:	10 82       	st	Z, r1
    353c:	40 c0       	rjmp	.+128    	; 0x35be <dir_read+0x190>
					dj->lfn_idx = dj->index;
				}
				/* Check LFN validity and capture it */
				ord = (c == ord && sum == dir[LDIR_Chksum] && pick_lfn(dj->lfn, dir)) ? ord - 1 : 0xFF;
			} else {					/* An SFN entry is found */
				if (ord || sum != sum_sfn(dir))	/* Is there a valid LFN entry? */
    353e:	dd 20       	and	r13, r13
    3540:	89 f4       	brne	.+34     	; 0x3564 <dir_read+0x136>
    3542:	fa 01       	movw	r30, r20
    3544:	2b e0       	ldi	r18, 0x0B	; 11
    3546:	30 e0       	ldi	r19, 0x00	; 0
    3548:	90 e0       	ldi	r25, 0x00	; 0
)
{
	BYTE sum = 0;
	int n = 11;

	do sum = (sum >> 1) + (sum << 7) + *dir++; while (--n);
    354a:	89 2f       	mov	r24, r25
    354c:	87 95       	ror	r24
    354e:	88 27       	eor	r24, r24
    3550:	87 95       	ror	r24
    3552:	96 95       	lsr	r25
    3554:	98 2b       	or	r25, r24
    3556:	81 91       	ld	r24, Z+
    3558:	98 0f       	add	r25, r24
    355a:	21 50       	subi	r18, 0x01	; 1
    355c:	30 40       	sbci	r19, 0x00	; 0
    355e:	a9 f7       	brne	.-22     	; 0x354a <dir_read+0x11c>
					dj->lfn_idx = dj->index;
				}
				/* Check LFN validity and capture it */
				ord = (c == ord && sum == dir[LDIR_Chksum] && pick_lfn(dj->lfn, dir)) ? ord - 1 : 0xFF;
			} else {					/* An SFN entry is found */
				if (ord || sum != sum_sfn(dir))	/* Is there a valid LFN entry? */
    3560:	c9 16       	cp	r12, r25
    3562:	09 f1       	breq	.+66     	; 0x35a6 <dir_read+0x178>
					dj->lfn_idx = 0xFFFF;		/* No LFN. */
    3564:	8f ef       	ldi	r24, 0xFF	; 255
    3566:	9f ef       	ldi	r25, 0xFF	; 255
    3568:	f8 01       	movw	r30, r16
    356a:	91 8f       	std	Z+25, r25	; 0x19
    356c:	80 8f       	std	Z+24, r24	; 0x18
    356e:	1b c0       	rjmp	.+54     	; 0x35a6 <dir_read+0x178>
    3570:	dd 24       	eor	r13, r13
    3572:	da 94       	dec	r13
		}
#else	/* Non LFN configuration */
		if (c != 0xE5 && c != '.' && !(a & AM_VOL))	/* Is it a valid entry? */
			break;
#endif
		res = dir_next(dj, FALSE);				/* Next entry */
    3574:	c8 01       	movw	r24, r16
    3576:	60 e0       	ldi	r22, 0x00	; 0
    3578:	0e 94 c9 12 	call	0x2592	; 0x2592 <dir_next>
    357c:	a8 2f       	mov	r26, r24
		if (res != FR_OK) break;
    357e:	88 23       	and	r24, r24
    3580:	69 f4       	brne	.+26     	; 0x359c <dir_read+0x16e>
	BYTE a, c, ord, sum, *dir;


	ord = sum = 0xFF;
	res = FR_NO_FILE;
	while (dj->sect) {
    3582:	f8 01       	movw	r30, r16
    3584:	46 85       	ldd	r20, Z+14	; 0x0e
    3586:	57 85       	ldd	r21, Z+15	; 0x0f
    3588:	60 89       	ldd	r22, Z+16	; 0x10
    358a:	71 89       	ldd	r23, Z+17	; 0x11
    358c:	41 15       	cp	r20, r1
    358e:	51 05       	cpc	r21, r1
    3590:	61 05       	cpc	r22, r1
    3592:	71 05       	cpc	r23, r1
    3594:	09 f0       	breq	.+2      	; 0x3598 <dir_read+0x16a>
    3596:	5f cf       	rjmp	.-322    	; 0x3456 <dir_read+0x28>
#endif
		res = dir_next(dj, FALSE);				/* Next entry */
		if (res != FR_OK) break;
	}

	if (res != FR_OK) dj->sect = 0;
    3598:	aa 23       	and	r26, r26
    359a:	29 f0       	breq	.+10     	; 0x35a6 <dir_read+0x178>
    359c:	f8 01       	movw	r30, r16
    359e:	16 86       	std	Z+14, r1	; 0x0e
    35a0:	17 86       	std	Z+15, r1	; 0x0f
    35a2:	10 8a       	std	Z+16, r1	; 0x10
    35a4:	11 8a       	std	Z+17, r1	; 0x11

	return res;
}
    35a6:	8a 2f       	mov	r24, r26
    35a8:	df 91       	pop	r29
    35aa:	cf 91       	pop	r28
    35ac:	1f 91       	pop	r17
    35ae:	0f 91       	pop	r16
    35b0:	ff 90       	pop	r15
    35b2:	ef 90       	pop	r14
    35b4:	df 90       	pop	r13
    35b6:	cf 90       	pop	r12
    35b8:	bf 90       	pop	r11
    35ba:	af 90       	pop	r10
    35bc:	08 95       	ret
					sum = dir[LDIR_Chksum];
					c &= 0xBF; ord = c;
					dj->lfn_idx = dj->index;
				}
				/* Check LFN validity and capture it */
				ord = (c == ord && sum == dir[LDIR_Chksum] && pick_lfn(dj->lfn, dir)) ? ord - 1 : 0xFF;
    35be:	da 94       	dec	r13
    35c0:	d9 cf       	rjmp	.-78     	; 0x3574 <dir_read+0x146>
    35c2:	a4 e0       	ldi	r26, 0x04	; 4
    35c4:	eb cf       	rjmp	.-42     	; 0x359c <dir_read+0x16e>

000035c6 <f_readdir>:

FRESULT f_readdir (
	DIR *dj,			/* Pointer to the open directory object */
	FILINFO *fno		/* Pointer to file information to return */
)
{
    35c6:	ef 92       	push	r14
    35c8:	ff 92       	push	r15
    35ca:	0f 93       	push	r16
    35cc:	1f 93       	push	r17
    35ce:	df 93       	push	r29
    35d0:	cf 93       	push	r28
    35d2:	cd b7       	in	r28, 0x3d	; 61
    35d4:	de b7       	in	r29, 0x3e	; 62
    35d6:	2c 97       	sbiw	r28, 0x0c	; 12
    35d8:	0f b6       	in	r0, 0x3f	; 63
    35da:	f8 94       	cli
    35dc:	de bf       	out	0x3e, r29	; 62
    35de:	0f be       	out	0x3f, r0	; 63
    35e0:	cd bf       	out	0x3d, r28	; 61
    35e2:	8c 01       	movw	r16, r24
    35e4:	7b 01       	movw	r14, r22
	FRESULT res;
	NAMEBUF(sfn, lfn);


	res = validate(dj->fs, dj->id);			/* Check validity of the object */
    35e6:	fc 01       	movw	r30, r24
    35e8:	60 81       	ld	r22, Z
    35ea:	71 81       	ldd	r23, Z+1	; 0x01
    35ec:	84 81       	ldd	r24, Z+4	; 0x04
    35ee:	95 81       	ldd	r25, Z+5	; 0x05
    35f0:	0e 94 6b 07 	call	0xed6	; 0xed6 <validate>
	if (res == FR_OK) {
    35f4:	88 23       	and	r24, r24
    35f6:	79 f5       	brne	.+94     	; 0x3656 <f_readdir+0x90>
		INITBUF((*dj), sfn, lfn);
    35f8:	ce 01       	movw	r24, r28
    35fa:	01 96       	adiw	r24, 0x01	; 1
    35fc:	f8 01       	movw	r30, r16
    35fe:	95 8b       	std	Z+21, r25	; 0x15
    3600:	84 8b       	std	Z+20, r24	; 0x14
    3602:	86 e9       	ldi	r24, 0x96	; 150
    3604:	94 e0       	ldi	r25, 0x04	; 4
    3606:	97 8b       	std	Z+23, r25	; 0x17
    3608:	86 8b       	std	Z+22, r24	; 0x16
		if (!fno) {
    360a:	e1 14       	cp	r14, r1
    360c:	f1 04       	cpc	r15, r1
    360e:	31 f4       	brne	.+12     	; 0x361c <f_readdir+0x56>
			res = dir_seek(dj, 0);
    3610:	c8 01       	movw	r24, r16
    3612:	60 e0       	ldi	r22, 0x00	; 0
    3614:	70 e0       	ldi	r23, 0x00	; 0
    3616:	0e 94 f5 0c 	call	0x19ea	; 0x19ea <dir_seek>
    361a:	1d c0       	rjmp	.+58     	; 0x3656 <f_readdir+0x90>
		} else {
			res = dir_read(dj);
    361c:	c8 01       	movw	r24, r16
    361e:	0e 94 17 1a 	call	0x342e	; 0x342e <dir_read>
			if (res == FR_NO_FILE) {
    3622:	84 30       	cpi	r24, 0x04	; 4
    3624:	31 f4       	brne	.+12     	; 0x3632 <f_readdir+0x6c>
				dj->sect = 0;
    3626:	f8 01       	movw	r30, r16
    3628:	16 86       	std	Z+14, r1	; 0x0e
    362a:	17 86       	std	Z+15, r1	; 0x0f
    362c:	10 8a       	std	Z+16, r1	; 0x10
    362e:	11 8a       	std	Z+17, r1	; 0x11
    3630:	02 c0       	rjmp	.+4      	; 0x3636 <f_readdir+0x70>
				res = FR_OK;
			}
			if (res == FR_OK) {				/* A valid entry is found */
    3632:	88 23       	and	r24, r24
    3634:	81 f4       	brne	.+32     	; 0x3656 <f_readdir+0x90>
				get_fileinfo(dj, fno);		/* Get the object information */
    3636:	c8 01       	movw	r24, r16
    3638:	b7 01       	movw	r22, r14
    363a:	0e 94 aa 0a 	call	0x1554	; 0x1554 <get_fileinfo>
				res = dir_next(dj, FALSE);	/* Increment index for next */
    363e:	c8 01       	movw	r24, r16
    3640:	60 e0       	ldi	r22, 0x00	; 0
    3642:	0e 94 c9 12 	call	0x2592	; 0x2592 <dir_next>
				if (res == FR_NO_FILE) {
    3646:	84 30       	cpi	r24, 0x04	; 4
    3648:	31 f4       	brne	.+12     	; 0x3656 <f_readdir+0x90>
					dj->sect = 0;
    364a:	f8 01       	movw	r30, r16
    364c:	16 86       	std	Z+14, r1	; 0x0e
    364e:	17 86       	std	Z+15, r1	; 0x0f
    3650:	10 8a       	std	Z+16, r1	; 0x10
    3652:	11 8a       	std	Z+17, r1	; 0x11
    3654:	80 e0       	ldi	r24, 0x00	; 0
			}
		}
	}

	LEAVE_FF(dj->fs, res);
}
    3656:	2c 96       	adiw	r28, 0x0c	; 12
    3658:	0f b6       	in	r0, 0x3f	; 63
    365a:	f8 94       	cli
    365c:	de bf       	out	0x3e, r29	; 62
    365e:	0f be       	out	0x3f, r0	; 63
    3660:	cd bf       	out	0x3d, r28	; 61
    3662:	cf 91       	pop	r28
    3664:	df 91       	pop	r29
    3666:	1f 91       	pop	r17
    3668:	0f 91       	pop	r16
    366a:	ff 90       	pop	r15
    366c:	ef 90       	pop	r14
    366e:	08 95       	ret

00003670 <f_getfree>:
FRESULT f_getfree (
	const char *path,	/* Pointer to the logical drive number (root dir) */
	DWORD *nclst,		/* Pointer to the variable to return number of free clusters */
	FATFS **fatfs		/* Pointer to pointer to corresponding file system object to return */
)
{
    3670:	2f 92       	push	r2
    3672:	3f 92       	push	r3
    3674:	4f 92       	push	r4
    3676:	5f 92       	push	r5
    3678:	6f 92       	push	r6
    367a:	7f 92       	push	r7
    367c:	8f 92       	push	r8
    367e:	9f 92       	push	r9
    3680:	af 92       	push	r10
    3682:	bf 92       	push	r11
    3684:	cf 92       	push	r12
    3686:	df 92       	push	r13
    3688:	ef 92       	push	r14
    368a:	ff 92       	push	r15
    368c:	0f 93       	push	r16
    368e:	1f 93       	push	r17
    3690:	df 93       	push	r29
    3692:	cf 93       	push	r28
    3694:	cd b7       	in	r28, 0x3d	; 61
    3696:	de b7       	in	r29, 0x3e	; 62
    3698:	28 97       	sbiw	r28, 0x08	; 8
    369a:	0f b6       	in	r0, 0x3f	; 63
    369c:	f8 94       	cli
    369e:	de bf       	out	0x3e, r29	; 62
    36a0:	0f be       	out	0x3f, r0	; 63
    36a2:	cd bf       	out	0x3d, r28	; 61
    36a4:	9a 83       	std	Y+2, r25	; 0x02
    36a6:	89 83       	std	Y+1, r24	; 0x01
    36a8:	7e 83       	std	Y+6, r23	; 0x06
    36aa:	6d 83       	std	Y+5, r22	; 0x05
    36ac:	2a 01       	movw	r4, r20
	DWORD n, clst, sect;
	BYTE fat, f, *p;


	/* Get drive number */
	res = auto_mount(&path, fatfs, 0);
    36ae:	ce 01       	movw	r24, r28
    36b0:	01 96       	adiw	r24, 0x01	; 1
    36b2:	ba 01       	movw	r22, r20
    36b4:	40 e0       	ldi	r20, 0x00	; 0
    36b6:	0e 94 d2 07 	call	0xfa4	; 0xfa4 <auto_mount>
	if (res != FR_OK) LEAVE_FF(*fatfs, res);
    36ba:	88 23       	and	r24, r24
    36bc:	09 f0       	breq	.+2      	; 0x36c0 <f_getfree+0x50>
    36be:	d1 c0       	rjmp	.+418    	; 0x3862 <f_getfree+0x1f2>

	/* If number of free cluster is valid, return it without cluster scan. */
	if ((*fatfs)->free_clust <= (*fatfs)->max_clust - 2) {
    36c0:	d2 01       	movw	r26, r4
    36c2:	ed 91       	ld	r30, X+
    36c4:	fc 91       	ld	r31, X
    36c6:	20 89       	ldd	r18, Z+16	; 0x10
    36c8:	31 89       	ldd	r19, Z+17	; 0x11
    36ca:	42 89       	ldd	r20, Z+18	; 0x12
    36cc:	53 89       	ldd	r21, Z+19	; 0x13
    36ce:	e4 8c       	ldd	r14, Z+28	; 0x1c
    36d0:	f5 8c       	ldd	r15, Z+29	; 0x1d
    36d2:	06 8d       	ldd	r16, Z+30	; 0x1e
    36d4:	17 8d       	ldd	r17, Z+31	; 0x1f
    36d6:	d8 01       	movw	r26, r16
    36d8:	c7 01       	movw	r24, r14
    36da:	02 97       	sbiw	r24, 0x02	; 2
    36dc:	a1 09       	sbc	r26, r1
    36de:	b1 09       	sbc	r27, r1
    36e0:	82 17       	cp	r24, r18
    36e2:	93 07       	cpc	r25, r19
    36e4:	a4 07       	cpc	r26, r20
    36e6:	b5 07       	cpc	r27, r21
    36e8:	38 f0       	brcs	.+14     	; 0x36f8 <f_getfree+0x88>
		*nclst = (*fatfs)->free_clust;
    36ea:	ed 81       	ldd	r30, Y+5	; 0x05
    36ec:	fe 81       	ldd	r31, Y+6	; 0x06
    36ee:	20 83       	st	Z, r18
    36f0:	31 83       	std	Z+1, r19	; 0x01
    36f2:	42 83       	std	Z+2, r20	; 0x02
    36f4:	53 83       	std	Z+3, r21	; 0x03
    36f6:	b4 c0       	rjmp	.+360    	; 0x3860 <f_getfree+0x1f0>
		LEAVE_FF(*fatfs, FR_OK);
	}

	/* Get number of free clusters */
	fat = (*fatfs)->fs_type;
    36f8:	20 81       	ld	r18, Z
    36fa:	2c 83       	std	Y+4, r18	; 0x04
	n = 0;
	if (fat == FS_FAT12) {
    36fc:	21 30       	cpi	r18, 0x01	; 1
    36fe:	41 f5       	brne	.+80     	; 0x3750 <f_getfree+0xe0>
    3700:	aa 24       	eor	r10, r10
    3702:	bb 24       	eor	r11, r11
    3704:	65 01       	movw	r12, r10
    3706:	92 e0       	ldi	r25, 0x02	; 2
    3708:	e9 2e       	mov	r14, r25
    370a:	f1 2c       	mov	r15, r1
    370c:	01 2d       	mov	r16, r1
    370e:	11 2d       	mov	r17, r1
		clst = 2;
		do {
			if ((WORD)get_cluster(*fatfs, clst) == 0) n++;
    3710:	d2 01       	movw	r26, r4
    3712:	8d 91       	ld	r24, X+
    3714:	9c 91       	ld	r25, X
    3716:	b8 01       	movw	r22, r16
    3718:	a7 01       	movw	r20, r14
    371a:	0e 94 09 0c 	call	0x1812	; 0x1812 <get_cluster>
    371e:	67 2b       	or	r22, r23
    3720:	29 f4       	brne	.+10     	; 0x372c <f_getfree+0xbc>
    3722:	08 94       	sec
    3724:	a1 1c       	adc	r10, r1
    3726:	b1 1c       	adc	r11, r1
    3728:	c1 1c       	adc	r12, r1
    372a:	d1 1c       	adc	r13, r1
		} while (++clst < (*fatfs)->max_clust);
    372c:	08 94       	sec
    372e:	e1 1c       	adc	r14, r1
    3730:	f1 1c       	adc	r15, r1
    3732:	01 1d       	adc	r16, r1
    3734:	11 1d       	adc	r17, r1
    3736:	d2 01       	movw	r26, r4
    3738:	ed 91       	ld	r30, X+
    373a:	fc 91       	ld	r31, X
    373c:	84 8d       	ldd	r24, Z+28	; 0x1c
    373e:	95 8d       	ldd	r25, Z+29	; 0x1d
    3740:	a6 8d       	ldd	r26, Z+30	; 0x1e
    3742:	b7 8d       	ldd	r27, Z+31	; 0x1f
    3744:	e8 16       	cp	r14, r24
    3746:	f9 06       	cpc	r15, r25
    3748:	0a 07       	cpc	r16, r26
    374a:	1b 07       	cpc	r17, r27
    374c:	08 f3       	brcs	.-62     	; 0x3710 <f_getfree+0xa0>
    374e:	76 c0       	rjmp	.+236    	; 0x383c <f_getfree+0x1cc>
	} else {
		clst = (*fatfs)->max_clust;
		sect = (*fatfs)->fatbase;
    3750:	60 a0       	ldd	r6, Z+32	; 0x20
    3752:	71 a0       	ldd	r7, Z+33	; 0x21
    3754:	82 a0       	ldd	r8, Z+34	; 0x22
    3756:	93 a0       	ldd	r9, Z+35	; 0x23
    3758:	aa 24       	eor	r10, r10
    375a:	bb 24       	eor	r11, r11
    375c:	65 01       	movw	r12, r10
    375e:	1b 82       	std	Y+3, r1	; 0x03
    3760:	e0 e0       	ldi	r30, 0x00	; 0
    3762:	f0 e0       	ldi	r31, 0x00	; 0
		f = 0; p = 0;
		do {
			if (!f) {
    3764:	bb 81       	ldd	r27, Y+3	; 0x03
    3766:	bb 23       	and	r27, r27
    3768:	99 f4       	brne	.+38     	; 0x3790 <f_getfree+0x120>
				res = move_window(*fatfs, sect++);
    376a:	f2 01       	movw	r30, r4
    376c:	80 81       	ld	r24, Z
    376e:	91 81       	ldd	r25, Z+1	; 0x01
    3770:	b4 01       	movw	r22, r8
    3772:	a3 01       	movw	r20, r6
    3774:	0e 94 90 0b 	call	0x1720	; 0x1720 <move_window>
				if (res != FR_OK)
    3778:	88 23       	and	r24, r24
    377a:	09 f0       	breq	.+2      	; 0x377e <f_getfree+0x10e>
    377c:	72 c0       	rjmp	.+228    	; 0x3862 <f_getfree+0x1f2>
		clst = (*fatfs)->max_clust;
		sect = (*fatfs)->fatbase;
		f = 0; p = 0;
		do {
			if (!f) {
				res = move_window(*fatfs, sect++);
    377e:	08 94       	sec
    3780:	61 1c       	adc	r6, r1
    3782:	71 1c       	adc	r7, r1
    3784:	81 1c       	adc	r8, r1
    3786:	91 1c       	adc	r9, r1
				if (res != FR_OK)
					LEAVE_FF(*fatfs, res);
				p = (*fatfs)->win;
    3788:	d2 01       	movw	r26, r4
    378a:	ed 91       	ld	r30, X+
    378c:	fc 91       	ld	r31, X
    378e:	f0 96       	adiw	r30, 0x30	; 48
    3790:	71 81       	ldd	r23, Z+1	; 0x01
    3792:	60 81       	ld	r22, Z
			}
			if (fat == FS_FAT16) {
    3794:	bc 81       	ldd	r27, Y+4	; 0x04
    3796:	b2 30       	cpi	r27, 0x02	; 2
    3798:	a1 f4       	brne	.+40     	; 0x37c2 <f_getfree+0x152>
				if (LD_WORD(p) == 0) n++;
    379a:	78 87       	std	Y+8, r23	; 0x08
    379c:	1f 82       	std	Y+7, r1	; 0x07
    379e:	86 2f       	mov	r24, r22
    37a0:	90 e0       	ldi	r25, 0x00	; 0
    37a2:	2f 81       	ldd	r18, Y+7	; 0x07
    37a4:	38 85       	ldd	r19, Y+8	; 0x08
    37a6:	82 2b       	or	r24, r18
    37a8:	93 2b       	or	r25, r19
    37aa:	89 2b       	or	r24, r25
    37ac:	29 f4       	brne	.+10     	; 0x37b8 <f_getfree+0x148>
    37ae:	08 94       	sec
    37b0:	a1 1c       	adc	r10, r1
    37b2:	b1 1c       	adc	r11, r1
    37b4:	c1 1c       	adc	r12, r1
    37b6:	d1 1c       	adc	r13, r1
				p += 2; f += 1;
    37b8:	32 96       	adiw	r30, 0x02	; 2
    37ba:	3b 81       	ldd	r19, Y+3	; 0x03
    37bc:	3f 5f       	subi	r19, 0xFF	; 255
    37be:	3b 83       	std	Y+3, r19	; 0x03
    37c0:	32 c0       	rjmp	.+100    	; 0x3826 <f_getfree+0x1b6>
			} else {
				if (LD_DWORD(p) == 0) n++;
    37c2:	23 81       	ldd	r18, Z+3	; 0x03
    37c4:	30 e0       	ldi	r19, 0x00	; 0
    37c6:	40 e0       	ldi	r20, 0x00	; 0
    37c8:	50 e0       	ldi	r21, 0x00	; 0
    37ca:	52 2f       	mov	r21, r18
    37cc:	44 27       	eor	r20, r20
    37ce:	33 27       	eor	r19, r19
    37d0:	22 27       	eor	r18, r18
    37d2:	82 81       	ldd	r24, Z+2	; 0x02
    37d4:	90 e0       	ldi	r25, 0x00	; 0
    37d6:	a0 e0       	ldi	r26, 0x00	; 0
    37d8:	b0 e0       	ldi	r27, 0x00	; 0
    37da:	dc 01       	movw	r26, r24
    37dc:	99 27       	eor	r25, r25
    37de:	88 27       	eor	r24, r24
    37e0:	28 2b       	or	r18, r24
    37e2:	39 2b       	or	r19, r25
    37e4:	4a 2b       	or	r20, r26
    37e6:	5b 2b       	or	r21, r27
    37e8:	86 2f       	mov	r24, r22
    37ea:	90 e0       	ldi	r25, 0x00	; 0
    37ec:	a0 e0       	ldi	r26, 0x00	; 0
    37ee:	b0 e0       	ldi	r27, 0x00	; 0
    37f0:	28 2b       	or	r18, r24
    37f2:	39 2b       	or	r19, r25
    37f4:	4a 2b       	or	r20, r26
    37f6:	5b 2b       	or	r21, r27
    37f8:	37 2e       	mov	r3, r23
    37fa:	22 24       	eor	r2, r2
    37fc:	c1 01       	movw	r24, r2
    37fe:	a0 e0       	ldi	r26, 0x00	; 0
    3800:	b0 e0       	ldi	r27, 0x00	; 0
    3802:	28 2b       	or	r18, r24
    3804:	39 2b       	or	r19, r25
    3806:	4a 2b       	or	r20, r26
    3808:	5b 2b       	or	r21, r27
    380a:	21 15       	cp	r18, r1
    380c:	31 05       	cpc	r19, r1
    380e:	41 05       	cpc	r20, r1
    3810:	51 05       	cpc	r21, r1
    3812:	29 f4       	brne	.+10     	; 0x381e <f_getfree+0x1ae>
    3814:	08 94       	sec
    3816:	a1 1c       	adc	r10, r1
    3818:	b1 1c       	adc	r11, r1
    381a:	c1 1c       	adc	r12, r1
    381c:	d1 1c       	adc	r13, r1
				p += 4; f += 2;
    381e:	34 96       	adiw	r30, 0x04	; 4
    3820:	8b 81       	ldd	r24, Y+3	; 0x03
    3822:	8e 5f       	subi	r24, 0xFE	; 254
    3824:	8b 83       	std	Y+3, r24	; 0x03
			}
		} while (--clst);
    3826:	08 94       	sec
    3828:	e1 08       	sbc	r14, r1
    382a:	f1 08       	sbc	r15, r1
    382c:	01 09       	sbc	r16, r1
    382e:	11 09       	sbc	r17, r1
    3830:	e1 14       	cp	r14, r1
    3832:	f1 04       	cpc	r15, r1
    3834:	01 05       	cpc	r16, r1
    3836:	11 05       	cpc	r17, r1
    3838:	09 f0       	breq	.+2      	; 0x383c <f_getfree+0x1cc>
    383a:	94 cf       	rjmp	.-216    	; 0x3764 <f_getfree+0xf4>
	}
	(*fatfs)->free_clust = n;
    383c:	d2 01       	movw	r26, r4
    383e:	ed 91       	ld	r30, X+
    3840:	fc 91       	ld	r31, X
    3842:	a0 8a       	std	Z+16, r10	; 0x10
    3844:	b1 8a       	std	Z+17, r11	; 0x11
    3846:	c2 8a       	std	Z+18, r12	; 0x12
    3848:	d3 8a       	std	Z+19, r13	; 0x13
	if (fat == FS_FAT32) (*fatfs)->fsi_flag = 1;
    384a:	bc 81       	ldd	r27, Y+4	; 0x04
    384c:	b3 30       	cpi	r27, 0x03	; 3
    384e:	11 f4       	brne	.+4      	; 0x3854 <f_getfree+0x1e4>
    3850:	81 e0       	ldi	r24, 0x01	; 1
    3852:	82 87       	std	Z+10, r24	; 0x0a
	*nclst = n;
    3854:	ed 81       	ldd	r30, Y+5	; 0x05
    3856:	fe 81       	ldd	r31, Y+6	; 0x06
    3858:	a0 82       	st	Z, r10
    385a:	b1 82       	std	Z+1, r11	; 0x01
    385c:	c2 82       	std	Z+2, r12	; 0x02
    385e:	d3 82       	std	Z+3, r13	; 0x03
    3860:	80 e0       	ldi	r24, 0x00	; 0

	LEAVE_FF(*fatfs, FR_OK);
}
    3862:	28 96       	adiw	r28, 0x08	; 8
    3864:	0f b6       	in	r0, 0x3f	; 63
    3866:	f8 94       	cli
    3868:	de bf       	out	0x3e, r29	; 62
    386a:	0f be       	out	0x3f, r0	; 63
    386c:	cd bf       	out	0x3d, r28	; 61
    386e:	cf 91       	pop	r28
    3870:	df 91       	pop	r29
    3872:	1f 91       	pop	r17
    3874:	0f 91       	pop	r16
    3876:	ff 90       	pop	r15
    3878:	ef 90       	pop	r14
    387a:	df 90       	pop	r13
    387c:	cf 90       	pop	r12
    387e:	bf 90       	pop	r11
    3880:	af 90       	pop	r10
    3882:	9f 90       	pop	r9
    3884:	8f 90       	pop	r8
    3886:	7f 90       	pop	r7
    3888:	6f 90       	pop	r6
    388a:	5f 90       	pop	r5
    388c:	4f 90       	pop	r4
    388e:	3f 90       	pop	r3
    3890:	2f 90       	pop	r2
    3892:	08 95       	ret

00003894 <f_read>:
	FIL *fp, 		/* Pointer to the file object */
	void *buff,		/* Pointer to data buffer */
	UINT btr,		/* Number of bytes to read */
	UINT *br		/* Pointer to number of bytes read */
)
{
    3894:	4f 92       	push	r4
    3896:	5f 92       	push	r5
    3898:	6f 92       	push	r6
    389a:	7f 92       	push	r7
    389c:	8f 92       	push	r8
    389e:	9f 92       	push	r9
    38a0:	af 92       	push	r10
    38a2:	bf 92       	push	r11
    38a4:	cf 92       	push	r12
    38a6:	df 92       	push	r13
    38a8:	ef 92       	push	r14
    38aa:	ff 92       	push	r15
    38ac:	0f 93       	push	r16
    38ae:	1f 93       	push	r17
    38b0:	cf 93       	push	r28
    38b2:	df 93       	push	r29
    38b4:	ec 01       	movw	r28, r24
    38b6:	16 2f       	mov	r17, r22
    38b8:	07 2f       	mov	r16, r23
    38ba:	6a 01       	movw	r12, r20
    38bc:	39 01       	movw	r6, r18
	DWORD clst, sect, remain;
	UINT rcnt, cc;
	BYTE *rbuff = buff;


	*br = 0;
    38be:	f9 01       	movw	r30, r18
    38c0:	11 82       	std	Z+1, r1	; 0x01
    38c2:	10 82       	st	Z, r1

	res = validate(fp->fs, fp->id);					/* Check validity of the object */
    38c4:	6a 81       	ldd	r22, Y+2	; 0x02
    38c6:	7b 81       	ldd	r23, Y+3	; 0x03
    38c8:	88 81       	ld	r24, Y
    38ca:	99 81       	ldd	r25, Y+1	; 0x01
    38cc:	0e 94 6b 07 	call	0xed6	; 0xed6 <validate>
    38d0:	b8 2e       	mov	r11, r24
	if (res != FR_OK) LEAVE_FF(fp->fs, res);
    38d2:	88 23       	and	r24, r24
    38d4:	09 f0       	breq	.+2      	; 0x38d8 <f_read+0x44>
    38d6:	10 c1       	rjmp	.+544    	; 0x3af8 <f_read+0x264>
	if (fp->flag & FA__ERROR)						/* Check abort flag */
    38d8:	8c 81       	ldd	r24, Y+4	; 0x04
    38da:	87 fd       	sbrc	r24, 7
    38dc:	4f c0       	rjmp	.+158    	; 0x397c <f_read+0xe8>
		LEAVE_FF(fp->fs, FR_INT_ERR);
	if (!(fp->flag & FA_READ)) 						/* Check access mode */
    38de:	80 fd       	sbrc	r24, 0
    38e0:	03 c0       	rjmp	.+6      	; 0x38e8 <f_read+0x54>
    38e2:	f7 e0       	ldi	r31, 0x07	; 7
    38e4:	bf 2e       	mov	r11, r31
    38e6:	08 c1       	rjmp	.+528    	; 0x3af8 <f_read+0x264>
		LEAVE_FF(fp->fs, FR_DENIED);
	remain = fp->fsize - fp->fptr;
    38e8:	2a 85       	ldd	r18, Y+10	; 0x0a
    38ea:	3b 85       	ldd	r19, Y+11	; 0x0b
    38ec:	4c 85       	ldd	r20, Y+12	; 0x0c
    38ee:	5d 85       	ldd	r21, Y+13	; 0x0d
    38f0:	8e 81       	ldd	r24, Y+6	; 0x06
    38f2:	9f 81       	ldd	r25, Y+7	; 0x07
    38f4:	a8 85       	ldd	r26, Y+8	; 0x08
    38f6:	b9 85       	ldd	r27, Y+9	; 0x09
    38f8:	28 1b       	sub	r18, r24
    38fa:	39 0b       	sbc	r19, r25
    38fc:	4a 0b       	sbc	r20, r26
    38fe:	5b 0b       	sbc	r21, r27
	if (btr > remain) btr = (UINT)remain;			/* Truncate btr by remaining bytes */
    3900:	c6 01       	movw	r24, r12
    3902:	a0 e0       	ldi	r26, 0x00	; 0
    3904:	b0 e0       	ldi	r27, 0x00	; 0
    3906:	28 17       	cp	r18, r24
    3908:	39 07       	cpc	r19, r25
    390a:	4a 07       	cpc	r20, r26
    390c:	5b 07       	cpc	r21, r27
    390e:	08 f4       	brcc	.+2      	; 0x3912 <f_read+0x7e>
    3910:	69 01       	movw	r12, r18
)
{
	FRESULT res;
	DWORD clst, sect, remain;
	UINT rcnt, cc;
	BYTE *rbuff = buff;
    3912:	81 2f       	mov	r24, r17
    3914:	90 2f       	mov	r25, r16
    3916:	9c 01       	movw	r18, r24
    3918:	49 01       	movw	r8, r18
			}
#endif
			fp->dsect = sect;
			fp->csect++;							/* Next sector address in the cluster */
		}
		rcnt = SS(fp->fs) - (fp->fptr % SS(fp->fs));	/* Get partial sector data from sector buffer */
    391a:	41 2c       	mov	r4, r1
    391c:	e2 e0       	ldi	r30, 0x02	; 2
    391e:	5e 2e       	mov	r5, r30
    3920:	e7 c0       	rjmp	.+462    	; 0x3af0 <f_read+0x25c>
	remain = fp->fsize - fp->fptr;
	if (btr > remain) btr = (UINT)remain;			/* Truncate btr by remaining bytes */

	for ( ;  btr;									/* Repeat until all data transferred */
		rbuff += rcnt, fp->fptr += rcnt, *br += rcnt, btr -= rcnt) {
		if ((fp->fptr % SS(fp->fs)) == 0) {			/* On the sector boundary? */
    3922:	2e 81       	ldd	r18, Y+6	; 0x06
    3924:	3f 81       	ldd	r19, Y+7	; 0x07
    3926:	48 85       	ldd	r20, Y+8	; 0x08
    3928:	59 85       	ldd	r21, Y+9	; 0x09
    392a:	da 01       	movw	r26, r20
    392c:	c9 01       	movw	r24, r18
    392e:	91 70       	andi	r25, 0x01	; 1
    3930:	a0 70       	andi	r26, 0x00	; 0
    3932:	b0 70       	andi	r27, 0x00	; 0
    3934:	00 97       	sbiw	r24, 0x00	; 0
    3936:	a1 05       	cpc	r26, r1
    3938:	b1 05       	cpc	r27, r1
    393a:	09 f0       	breq	.+2      	; 0x393e <f_read+0xaa>
    393c:	8e c0       	rjmp	.+284    	; 0x3a5a <f_read+0x1c6>
			if (fp->csect >= fp->fs->csize) {		/* On the cluster boundary? */
    393e:	e8 81       	ld	r30, Y
    3940:	f9 81       	ldd	r31, Y+1	; 0x01
    3942:	9d 81       	ldd	r25, Y+5	; 0x05
    3944:	82 81       	ldd	r24, Z+2	; 0x02
    3946:	98 17       	cp	r25, r24
    3948:	50 f1       	brcs	.+84     	; 0x399e <f_read+0x10a>
				clst = (fp->fptr == 0) ?			/* On the top of the file? */
    394a:	21 15       	cp	r18, r1
    394c:	31 05       	cpc	r19, r1
    394e:	41 05       	cpc	r20, r1
    3950:	51 05       	cpc	r21, r1
    3952:	29 f4       	brne	.+10     	; 0x395e <f_read+0xca>
    3954:	6e 85       	ldd	r22, Y+14	; 0x0e
    3956:	7f 85       	ldd	r23, Y+15	; 0x0f
    3958:	88 89       	ldd	r24, Y+16	; 0x10
    395a:	99 89       	ldd	r25, Y+17	; 0x11
    395c:	07 c0       	rjmp	.+14     	; 0x396c <f_read+0xd8>
    395e:	4a 89       	ldd	r20, Y+18	; 0x12
    3960:	5b 89       	ldd	r21, Y+19	; 0x13
    3962:	6c 89       	ldd	r22, Y+20	; 0x14
    3964:	7d 89       	ldd	r23, Y+21	; 0x15
    3966:	cf 01       	movw	r24, r30
    3968:	0e 94 09 0c 	call	0x1812	; 0x1812 <get_cluster>
					fp->org_clust : get_cluster(fp->fs, fp->curr_clust);
				if (clst <= 1) ABORT(fp->fs, FR_INT_ERR);
    396c:	62 30       	cpi	r22, 0x02	; 2
    396e:	71 05       	cpc	r23, r1
    3970:	81 05       	cpc	r24, r1
    3972:	91 05       	cpc	r25, r1
    3974:	30 f4       	brcc	.+12     	; 0x3982 <f_read+0xee>
    3976:	8c 81       	ldd	r24, Y+4	; 0x04
    3978:	80 68       	ori	r24, 0x80	; 128
    397a:	8c 83       	std	Y+4, r24	; 0x04
    397c:	72 e0       	ldi	r23, 0x02	; 2
    397e:	b7 2e       	mov	r11, r23
    3980:	bb c0       	rjmp	.+374    	; 0x3af8 <f_read+0x264>
				if (clst == 0xFFFFFFFF) ABORT(fp->fs, FR_DISK_ERR);
    3982:	6f 3f       	cpi	r22, 0xFF	; 255
    3984:	ff ef       	ldi	r31, 0xFF	; 255
    3986:	7f 07       	cpc	r23, r31
    3988:	ff ef       	ldi	r31, 0xFF	; 255
    398a:	8f 07       	cpc	r24, r31
    398c:	ff ef       	ldi	r31, 0xFF	; 255
    398e:	9f 07       	cpc	r25, r31
    3990:	09 f4       	brne	.+2      	; 0x3994 <f_read+0x100>
    3992:	71 c0       	rjmp	.+226    	; 0x3a76 <f_read+0x1e2>
				fp->curr_clust = clst;				/* Update current cluster */
    3994:	6a 8b       	std	Y+18, r22	; 0x12
    3996:	7b 8b       	std	Y+19, r23	; 0x13
    3998:	8c 8b       	std	Y+20, r24	; 0x14
    399a:	9d 8b       	std	Y+21, r25	; 0x15
				fp->csect = 0;						/* Reset sector offset in the cluster */
    399c:	1d 82       	std	Y+5, r1	; 0x05
			}
			sect = clust2sect(fp->fs, fp->curr_clust);	/* Get current sector */
    399e:	08 81       	ld	r16, Y
    39a0:	19 81       	ldd	r17, Y+1	; 0x01
DWORD clust2sect (	/* !=0: sector number, 0: failed - invalid cluster# */
	FATFS *fs,		/* File system object */
	DWORD clst		/* Cluster# to be converted */
)
{
	clst -= 2;
    39a2:	2a 89       	ldd	r18, Y+18	; 0x12
    39a4:	3b 89       	ldd	r19, Y+19	; 0x13
    39a6:	4c 89       	ldd	r20, Y+20	; 0x14
    39a8:	5d 89       	ldd	r21, Y+21	; 0x15
    39aa:	22 50       	subi	r18, 0x02	; 2
    39ac:	30 40       	sbci	r19, 0x00	; 0
    39ae:	40 40       	sbci	r20, 0x00	; 0
    39b0:	50 40       	sbci	r21, 0x00	; 0
	if (clst >= (fs->max_clust - 2)) return 0;		/* Invalid cluster# */
    39b2:	f8 01       	movw	r30, r16
    39b4:	84 8d       	ldd	r24, Z+28	; 0x1c
    39b6:	95 8d       	ldd	r25, Z+29	; 0x1d
    39b8:	a6 8d       	ldd	r26, Z+30	; 0x1e
    39ba:	b7 8d       	ldd	r27, Z+31	; 0x1f
    39bc:	02 97       	sbiw	r24, 0x02	; 2
    39be:	a1 09       	sbc	r26, r1
    39c0:	b1 09       	sbc	r27, r1
    39c2:	28 17       	cp	r18, r24
    39c4:	39 07       	cpc	r19, r25
    39c6:	4a 07       	cpc	r20, r26
    39c8:	5b 07       	cpc	r21, r27
    39ca:	a8 f6       	brcc	.-86     	; 0x3976 <f_read+0xe2>
	return clst * fs->csize + fs->database;
    39cc:	a2 80       	ldd	r10, Z+2	; 0x02
    39ce:	6a 2d       	mov	r22, r10
    39d0:	70 e0       	ldi	r23, 0x00	; 0
    39d2:	80 e0       	ldi	r24, 0x00	; 0
    39d4:	90 e0       	ldi	r25, 0x00	; 0
    39d6:	0e 94 2e 28 	call	0x505c	; 0x505c <__mulsi3>
    39da:	9b 01       	movw	r18, r22
    39dc:	ac 01       	movw	r20, r24
    39de:	f8 01       	movw	r30, r16
    39e0:	80 a5       	ldd	r24, Z+40	; 0x28
    39e2:	91 a5       	ldd	r25, Z+41	; 0x29
    39e4:	a2 a5       	ldd	r26, Z+42	; 0x2a
    39e6:	b3 a5       	ldd	r27, Z+43	; 0x2b
    39e8:	28 0f       	add	r18, r24
    39ea:	39 1f       	adc	r19, r25
    39ec:	4a 1f       	adc	r20, r26
    39ee:	5b 1f       	adc	r21, r27
				if (clst == 0xFFFFFFFF) ABORT(fp->fs, FR_DISK_ERR);
				fp->curr_clust = clst;				/* Update current cluster */
				fp->csect = 0;						/* Reset sector offset in the cluster */
			}
			sect = clust2sect(fp->fs, fp->curr_clust);	/* Get current sector */
			if (!sect) ABORT(fp->fs, FR_INT_ERR);
    39f0:	21 15       	cp	r18, r1
    39f2:	31 05       	cpc	r19, r1
    39f4:	41 05       	cpc	r20, r1
    39f6:	51 05       	cpc	r21, r1
    39f8:	09 f4       	brne	.+2      	; 0x39fc <f_read+0x168>
    39fa:	bd cf       	rjmp	.-134    	; 0x3976 <f_read+0xe2>
			sect += fp->csect;
    39fc:	8d 81       	ldd	r24, Y+5	; 0x05
    39fe:	28 0f       	add	r18, r24
    3a00:	31 1d       	adc	r19, r1
    3a02:	41 1d       	adc	r20, r1
    3a04:	51 1d       	adc	r21, r1
			cc = btr / SS(fp->fs);					/* When remaining bytes >= sector size, */
    3a06:	76 01       	movw	r14, r12
    3a08:	ef 2c       	mov	r14, r15
    3a0a:	ff 24       	eor	r15, r15
    3a0c:	e6 94       	lsr	r14
			if (cc) {								/* Read maximum contiguous sectors directly */
    3a0e:	e1 14       	cp	r14, r1
    3a10:	f1 04       	cpc	r15, r1
    3a12:	e9 f0       	breq	.+58     	; 0x3a4e <f_read+0x1ba>
				if (fp->csect + cc > fp->fs->csize)	/* Clip at cluster boundary */
    3a14:	e8 2f       	mov	r30, r24
    3a16:	f0 e0       	ldi	r31, 0x00	; 0
    3a18:	c7 01       	movw	r24, r14
    3a1a:	8e 0f       	add	r24, r30
    3a1c:	9f 1f       	adc	r25, r31
    3a1e:	6a 2d       	mov	r22, r10
    3a20:	70 e0       	ldi	r23, 0x00	; 0
    3a22:	68 17       	cp	r22, r24
    3a24:	79 07       	cpc	r23, r25
    3a26:	18 f4       	brcc	.+6      	; 0x3a2e <f_read+0x19a>
					cc = fp->fs->csize - fp->csect;
    3a28:	7b 01       	movw	r14, r22
    3a2a:	ee 1a       	sub	r14, r30
    3a2c:	ff 0a       	sbc	r15, r31
				if (disk_read(fp->fs->drive, rbuff, sect, (BYTE)cc) != RES_OK)
    3a2e:	f8 01       	movw	r30, r16
    3a30:	81 81       	ldd	r24, Z+1	; 0x01
    3a32:	b4 01       	movw	r22, r8
    3a34:	0e 2d       	mov	r16, r14
    3a36:	0e 94 13 03 	call	0x626	; 0x626 <disk_read>
    3a3a:	88 23       	and	r24, r24
    3a3c:	e1 f4       	brne	.+56     	; 0x3a76 <f_read+0x1e2>
					ABORT(fp->fs, FR_DISK_ERR);
				fp->csect += (BYTE)cc;				/* Next sector address in the cluster */
    3a3e:	8d 81       	ldd	r24, Y+5	; 0x05
    3a40:	8e 0d       	add	r24, r14
    3a42:	8d 83       	std	Y+5, r24	; 0x05
				rcnt = SS(fp->fs) * cc;				/* Number of bytes transferred */
    3a44:	b7 01       	movw	r22, r14
    3a46:	76 2f       	mov	r23, r22
    3a48:	66 27       	eor	r22, r22
    3a4a:	77 0f       	add	r23, r23
    3a4c:	37 c0       	rjmp	.+110    	; 0x3abc <f_read+0x228>
			if (fp->dsect != sect) {			/* Fill sector buffer with file data */
				if (disk_read(fp->fs->drive, fp->buf, sect, 1) != RES_OK)
					ABORT(fp->fs, FR_DISK_ERR);
			}
#endif
			fp->dsect = sect;
    3a4e:	2e 8b       	std	Y+22, r18	; 0x16
    3a50:	3f 8b       	std	Y+23, r19	; 0x17
    3a52:	48 8f       	std	Y+24, r20	; 0x18
    3a54:	59 8f       	std	Y+25, r21	; 0x19
			fp->csect++;							/* Next sector address in the cluster */
    3a56:	8f 5f       	subi	r24, 0xFF	; 255
    3a58:	8d 83       	std	Y+5, r24	; 0x05
		}
		rcnt = SS(fp->fs) - (fp->fptr % SS(fp->fs));	/* Get partial sector data from sector buffer */
    3a5a:	ee 80       	ldd	r14, Y+6	; 0x06
    3a5c:	ff 80       	ldd	r15, Y+7	; 0x07
    3a5e:	08 85       	ldd	r16, Y+8	; 0x08
    3a60:	19 85       	ldd	r17, Y+9	; 0x09
		if (rcnt > btr) rcnt = btr;
#if _FS_TINY
		if (move_window(fp->fs, fp->dsect))			/* Move sector window */
    3a62:	4e 89       	ldd	r20, Y+22	; 0x16
    3a64:	5f 89       	ldd	r21, Y+23	; 0x17
    3a66:	68 8d       	ldd	r22, Y+24	; 0x18
    3a68:	79 8d       	ldd	r23, Y+25	; 0x19
    3a6a:	88 81       	ld	r24, Y
    3a6c:	99 81       	ldd	r25, Y+1	; 0x01
    3a6e:	0e 94 90 0b 	call	0x1720	; 0x1720 <move_window>
    3a72:	88 23       	and	r24, r24
    3a74:	31 f0       	breq	.+12     	; 0x3a82 <f_read+0x1ee>
			ABORT(fp->fs, FR_DISK_ERR);
    3a76:	8c 81       	ldd	r24, Y+4	; 0x04
    3a78:	80 68       	ori	r24, 0x80	; 128
    3a7a:	8c 83       	std	Y+4, r24	; 0x04
    3a7c:	bb 24       	eor	r11, r11
    3a7e:	b3 94       	inc	r11
    3a80:	3b c0       	rjmp	.+118    	; 0x3af8 <f_read+0x264>
			}
#endif
			fp->dsect = sect;
			fp->csect++;							/* Next sector address in the cluster */
		}
		rcnt = SS(fp->fs) - (fp->fptr % SS(fp->fs));	/* Get partial sector data from sector buffer */
    3a82:	c7 01       	movw	r24, r14
    3a84:	91 70       	andi	r25, 0x01	; 1
    3a86:	92 01       	movw	r18, r4
    3a88:	28 1b       	sub	r18, r24
    3a8a:	39 0b       	sbc	r19, r25
    3a8c:	b6 01       	movw	r22, r12
    3a8e:	2c 15       	cp	r18, r12
    3a90:	3d 05       	cpc	r19, r13
    3a92:	08 f4       	brcc	.+2      	; 0x3a96 <f_read+0x202>
    3a94:	b9 01       	movw	r22, r18
		if (rcnt > btr) rcnt = btr;
#if _FS_TINY
		if (move_window(fp->fs, fp->dsect))			/* Move sector window */
			ABORT(fp->fs, FR_DISK_ERR);
		mem_cpy(rbuff, &fp->fs->win[fp->fptr % SS(fp->fs)], rcnt);	/* Pick partial sector */
    3a96:	9b 01       	movw	r18, r22

/* Copy memory to memory */
static
void mem_cpy (void* dst, const void* src, int cnt) {
	char *d = (char*)dst;
	const char *s = (const char *)src;
    3a98:	8e 81       	ldd	r24, Y+6	; 0x06
    3a9a:	9f 81       	ldd	r25, Y+7	; 0x07
    3a9c:	91 70       	andi	r25, 0x01	; 1
    3a9e:	c0 96       	adiw	r24, 0x30	; 48
    3aa0:	e8 81       	ld	r30, Y
    3aa2:	f9 81       	ldd	r31, Y+1	; 0x01
    3aa4:	e8 0f       	add	r30, r24
    3aa6:	f9 1f       	adc	r31, r25
    3aa8:	d4 01       	movw	r26, r8
    3aaa:	02 c0       	rjmp	.+4      	; 0x3ab0 <f_read+0x21c>
	while (cnt--) *d++ = *s++;
    3aac:	81 91       	ld	r24, Z+
    3aae:	8d 93       	st	X+, r24
    3ab0:	21 50       	subi	r18, 0x01	; 1
    3ab2:	30 40       	sbci	r19, 0x00	; 0
    3ab4:	8f ef       	ldi	r24, 0xFF	; 255
    3ab6:	2f 3f       	cpi	r18, 0xFF	; 255
    3ab8:	38 07       	cpc	r19, r24
    3aba:	c1 f7       	brne	.-16     	; 0x3aac <f_read+0x218>
		LEAVE_FF(fp->fs, FR_DENIED);
	remain = fp->fsize - fp->fptr;
	if (btr > remain) btr = (UINT)remain;			/* Truncate btr by remaining bytes */

	for ( ;  btr;									/* Repeat until all data transferred */
		rbuff += rcnt, fp->fptr += rcnt, *br += rcnt, btr -= rcnt) {
    3abc:	86 0e       	add	r8, r22
    3abe:	97 1e       	adc	r9, r23
    3ac0:	cb 01       	movw	r24, r22
    3ac2:	a0 e0       	ldi	r26, 0x00	; 0
    3ac4:	b0 e0       	ldi	r27, 0x00	; 0
    3ac6:	2e 81       	ldd	r18, Y+6	; 0x06
    3ac8:	3f 81       	ldd	r19, Y+7	; 0x07
    3aca:	48 85       	ldd	r20, Y+8	; 0x08
    3acc:	59 85       	ldd	r21, Y+9	; 0x09
    3ace:	28 0f       	add	r18, r24
    3ad0:	39 1f       	adc	r19, r25
    3ad2:	4a 1f       	adc	r20, r26
    3ad4:	5b 1f       	adc	r21, r27
    3ad6:	2e 83       	std	Y+6, r18	; 0x06
    3ad8:	3f 83       	std	Y+7, r19	; 0x07
    3ada:	48 87       	std	Y+8, r20	; 0x08
    3adc:	59 87       	std	Y+9, r21	; 0x09
    3ade:	f3 01       	movw	r30, r6
    3ae0:	80 81       	ld	r24, Z
    3ae2:	91 81       	ldd	r25, Z+1	; 0x01
    3ae4:	86 0f       	add	r24, r22
    3ae6:	97 1f       	adc	r25, r23
    3ae8:	91 83       	std	Z+1, r25	; 0x01
    3aea:	80 83       	st	Z, r24
    3aec:	c6 1a       	sub	r12, r22
    3aee:	d7 0a       	sbc	r13, r23
	if (!(fp->flag & FA_READ)) 						/* Check access mode */
		LEAVE_FF(fp->fs, FR_DENIED);
	remain = fp->fsize - fp->fptr;
	if (btr > remain) btr = (UINT)remain;			/* Truncate btr by remaining bytes */

	for ( ;  btr;									/* Repeat until all data transferred */
    3af0:	c1 14       	cp	r12, r1
    3af2:	d1 04       	cpc	r13, r1
    3af4:	09 f0       	breq	.+2      	; 0x3af8 <f_read+0x264>
    3af6:	15 cf       	rjmp	.-470    	; 0x3922 <f_read+0x8e>
#endif
	}


	LEAVE_FF(fp->fs, FR_OK);
}
    3af8:	8b 2d       	mov	r24, r11
    3afa:	df 91       	pop	r29
    3afc:	cf 91       	pop	r28
    3afe:	1f 91       	pop	r17
    3b00:	0f 91       	pop	r16
    3b02:	ff 90       	pop	r15
    3b04:	ef 90       	pop	r14
    3b06:	df 90       	pop	r13
    3b08:	cf 90       	pop	r12
    3b0a:	bf 90       	pop	r11
    3b0c:	af 90       	pop	r10
    3b0e:	9f 90       	pop	r9
    3b10:	8f 90       	pop	r8
    3b12:	7f 90       	pop	r7
    3b14:	6f 90       	pop	r6
    3b16:	5f 90       	pop	r5
    3b18:	4f 90       	pop	r4
    3b1a:	08 95       	ret

00003b1c <f_gets>:
char* f_gets (
	char* buff,	/* Pointer to the string buffer to read */
	int len,	/* Size of string buffer */
	FIL* fil	/* Pointer to the file object */
)
{
    3b1c:	6f 92       	push	r6
    3b1e:	7f 92       	push	r7
    3b20:	8f 92       	push	r8
    3b22:	9f 92       	push	r9
    3b24:	af 92       	push	r10
    3b26:	bf 92       	push	r11
    3b28:	cf 92       	push	r12
    3b2a:	df 92       	push	r13
    3b2c:	ef 92       	push	r14
    3b2e:	ff 92       	push	r15
    3b30:	0f 93       	push	r16
    3b32:	1f 93       	push	r17
    3b34:	df 93       	push	r29
    3b36:	cf 93       	push	r28
    3b38:	00 d0       	rcall	.+0      	; 0x3b3a <f_gets+0x1e>
    3b3a:	cd b7       	in	r28, 0x3d	; 61
    3b3c:	de b7       	in	r29, 0x3e	; 62
    3b3e:	6c 01       	movw	r12, r24
    3b40:	5b 01       	movw	r10, r22
    3b42:	4a 01       	movw	r8, r20
    3b44:	8c 01       	movw	r16, r24
    3b46:	ee 24       	eor	r14, r14
    3b48:	ff 24       	eor	r15, r15
	int i = 0;
	char *p = buff;
	UINT rc;


	while (i < len - 1) {			/* Read bytes until buffer gets filled */
    3b4a:	08 94       	sec
    3b4c:	a1 08       	sbc	r10, r1
    3b4e:	b1 08       	sbc	r11, r1
		f_read(fil, p, 1, &rc);
    3b50:	3e 01       	movw	r6, r28
    3b52:	08 94       	sec
    3b54:	61 1c       	adc	r6, r1
    3b56:	71 1c       	adc	r7, r1
    3b58:	16 c0       	rjmp	.+44     	; 0x3b86 <f_gets+0x6a>
    3b5a:	c4 01       	movw	r24, r8
    3b5c:	b8 01       	movw	r22, r16
    3b5e:	41 e0       	ldi	r20, 0x01	; 1
    3b60:	50 e0       	ldi	r21, 0x00	; 0
    3b62:	93 01       	movw	r18, r6
    3b64:	0e 94 4a 1c 	call	0x3894	; 0x3894 <f_read>
		if (rc != 1) break;			/* Break when no data to read */
    3b68:	89 81       	ldd	r24, Y+1	; 0x01
    3b6a:	9a 81       	ldd	r25, Y+2	; 0x02
    3b6c:	01 97       	sbiw	r24, 0x01	; 1
    3b6e:	71 f4       	brne	.+28     	; 0x3b8c <f_gets+0x70>
#if _USE_STRFUNC >= 2
		if (*p == '\r') continue;	/* Strip '\r' */
    3b70:	f8 01       	movw	r30, r16
    3b72:	80 81       	ld	r24, Z
    3b74:	8d 30       	cpi	r24, 0x0D	; 13
    3b76:	39 f0       	breq	.+14     	; 0x3b86 <f_gets+0x6a>
#endif
		i++;
    3b78:	08 94       	sec
    3b7a:	e1 1c       	adc	r14, r1
    3b7c:	f1 1c       	adc	r15, r1
		if (*p++ == '\n') break;	/* Break when reached end of line */
    3b7e:	0f 5f       	subi	r16, 0xFF	; 255
    3b80:	1f 4f       	sbci	r17, 0xFF	; 255
    3b82:	8a 30       	cpi	r24, 0x0A	; 10
    3b84:	19 f0       	breq	.+6      	; 0x3b8c <f_gets+0x70>
	int i = 0;
	char *p = buff;
	UINT rc;


	while (i < len - 1) {			/* Read bytes until buffer gets filled */
    3b86:	ea 14       	cp	r14, r10
    3b88:	fb 04       	cpc	r15, r11
    3b8a:	3c f3       	brlt	.-50     	; 0x3b5a <f_gets+0x3e>
		if (*p == '\r') continue;	/* Strip '\r' */
#endif
		i++;
		if (*p++ == '\n') break;	/* Break when reached end of line */
	}
	*p = 0;
    3b8c:	f8 01       	movw	r30, r16
    3b8e:	10 82       	st	Z, r1
	return i ? buff : NULL;			/* When no data read (eof or error), return with error. */
    3b90:	ef 28       	or	r14, r15
    3b92:	11 f4       	brne	.+4      	; 0x3b98 <f_gets+0x7c>
    3b94:	cc 24       	eor	r12, r12
    3b96:	dd 24       	eor	r13, r13
}
    3b98:	c6 01       	movw	r24, r12
    3b9a:	0f 90       	pop	r0
    3b9c:	0f 90       	pop	r0
    3b9e:	cf 91       	pop	r28
    3ba0:	df 91       	pop	r29
    3ba2:	1f 91       	pop	r17
    3ba4:	0f 91       	pop	r16
    3ba6:	ff 90       	pop	r15
    3ba8:	ef 90       	pop	r14
    3baa:	df 90       	pop	r13
    3bac:	cf 90       	pop	r12
    3bae:	bf 90       	pop	r11
    3bb0:	af 90       	pop	r10
    3bb2:	9f 90       	pop	r9
    3bb4:	8f 90       	pop	r8
    3bb6:	7f 90       	pop	r7
    3bb8:	6f 90       	pop	r6
    3bba:	08 95       	ret

00003bbc <f_write>:
	FIL *fp,			/* Pointer to the file object */
	const void *buff,	/* Pointer to the data to be written */
	UINT btw,			/* Number of bytes to write */
	UINT *bw			/* Pointer to number of bytes written */
)
{
    3bbc:	2f 92       	push	r2
    3bbe:	3f 92       	push	r3
    3bc0:	4f 92       	push	r4
    3bc2:	5f 92       	push	r5
    3bc4:	6f 92       	push	r6
    3bc6:	7f 92       	push	r7
    3bc8:	8f 92       	push	r8
    3bca:	9f 92       	push	r9
    3bcc:	af 92       	push	r10
    3bce:	bf 92       	push	r11
    3bd0:	cf 92       	push	r12
    3bd2:	df 92       	push	r13
    3bd4:	ef 92       	push	r14
    3bd6:	ff 92       	push	r15
    3bd8:	0f 93       	push	r16
    3bda:	1f 93       	push	r17
    3bdc:	cf 93       	push	r28
    3bde:	df 93       	push	r29
    3be0:	ec 01       	movw	r28, r24
    3be2:	16 2f       	mov	r17, r22
    3be4:	07 2f       	mov	r16, r23
    3be6:	4a 01       	movw	r8, r20
    3be8:	19 01       	movw	r2, r18
	DWORD clst, sect;
	UINT wcnt, cc;
	const BYTE *wbuff = buff;


	*bw = 0;
    3bea:	f9 01       	movw	r30, r18
    3bec:	11 82       	std	Z+1, r1	; 0x01
    3bee:	10 82       	st	Z, r1

	res = validate(fp->fs, fp->id);					/* Check validity of the object */
    3bf0:	6a 81       	ldd	r22, Y+2	; 0x02
    3bf2:	7b 81       	ldd	r23, Y+3	; 0x03
    3bf4:	88 81       	ld	r24, Y
    3bf6:	99 81       	ldd	r25, Y+1	; 0x01
    3bf8:	0e 94 6b 07 	call	0xed6	; 0xed6 <validate>
    3bfc:	78 2e       	mov	r7, r24
	if (res != FR_OK) LEAVE_FF(fp->fs, res);
    3bfe:	88 23       	and	r24, r24
    3c00:	09 f0       	breq	.+2      	; 0x3c04 <f_write+0x48>
    3c02:	75 c1       	rjmp	.+746    	; 0x3eee <f_write+0x332>
	if (fp->flag & FA__ERROR)						/* Check abort flag */
    3c04:	8c 81       	ldd	r24, Y+4	; 0x04
    3c06:	87 fd       	sbrc	r24, 7
    3c08:	60 c0       	rjmp	.+192    	; 0x3cca <f_write+0x10e>
		LEAVE_FF(fp->fs, FR_INT_ERR);
	if (!(fp->flag & FA_WRITE))						/* Check access mode */
    3c0a:	81 fd       	sbrc	r24, 1
    3c0c:	03 c0       	rjmp	.+6      	; 0x3c14 <f_write+0x58>
    3c0e:	07 e0       	ldi	r16, 0x07	; 7
    3c10:	70 2e       	mov	r7, r16
    3c12:	6d c1       	rjmp	.+730    	; 0x3eee <f_write+0x332>
		LEAVE_FF(fp->fs, FR_DENIED);
	if (fp->fsize + btw < fp->fsize) btw = 0;		/* File size cannot reach 4GB */
    3c14:	2a 85       	ldd	r18, Y+10	; 0x0a
    3c16:	3b 85       	ldd	r19, Y+11	; 0x0b
    3c18:	4c 85       	ldd	r20, Y+12	; 0x0c
    3c1a:	5d 85       	ldd	r21, Y+13	; 0x0d
    3c1c:	c4 01       	movw	r24, r8
    3c1e:	a0 e0       	ldi	r26, 0x00	; 0
    3c20:	b0 e0       	ldi	r27, 0x00	; 0
    3c22:	82 0f       	add	r24, r18
    3c24:	93 1f       	adc	r25, r19
    3c26:	a4 1f       	adc	r26, r20
    3c28:	b5 1f       	adc	r27, r21
    3c2a:	82 17       	cp	r24, r18
    3c2c:	93 07       	cpc	r25, r19
    3c2e:	a4 07       	cpc	r26, r20
    3c30:	b5 07       	cpc	r27, r21
    3c32:	10 f4       	brcc	.+4      	; 0x3c38 <f_write+0x7c>
    3c34:	88 24       	eor	r8, r8
    3c36:	99 24       	eor	r9, r9
)
{
	FRESULT res;
	DWORD clst, sect;
	UINT wcnt, cc;
	const BYTE *wbuff = buff;
    3c38:	81 2f       	mov	r24, r17
    3c3a:	90 2f       	mov	r25, r16
    3c3c:	9c 01       	movw	r18, r24
    3c3e:	29 01       	movw	r4, r18
    3c40:	3e c1       	rjmp	.+636    	; 0x3ebe <f_write+0x302>
		LEAVE_FF(fp->fs, FR_DENIED);
	if (fp->fsize + btw < fp->fsize) btw = 0;		/* File size cannot reach 4GB */

	for ( ;  btw;									/* Repeat until all data transferred */
		wbuff += wcnt, fp->fptr += wcnt, *bw += wcnt, btw -= wcnt) {
		if ((fp->fptr % SS(fp->fs)) == 0) {			/* On the sector boundary? */
    3c42:	2e 81       	ldd	r18, Y+6	; 0x06
    3c44:	3f 81       	ldd	r19, Y+7	; 0x07
    3c46:	48 85       	ldd	r20, Y+8	; 0x08
    3c48:	59 85       	ldd	r21, Y+9	; 0x09
    3c4a:	da 01       	movw	r26, r20
    3c4c:	c9 01       	movw	r24, r18
    3c4e:	91 70       	andi	r25, 0x01	; 1
    3c50:	a0 70       	andi	r26, 0x00	; 0
    3c52:	b0 70       	andi	r27, 0x00	; 0
    3c54:	00 97       	sbiw	r24, 0x00	; 0
    3c56:	a1 05       	cpc	r26, r1
    3c58:	b1 05       	cpc	r27, r1
    3c5a:	09 f0       	breq	.+2      	; 0x3c5e <f_write+0xa2>
    3c5c:	e0 c0       	rjmp	.+448    	; 0x3e1e <f_write+0x262>
			if (fp->csect >= fp->fs->csize) {		/* On the cluster boundary? */
    3c5e:	e8 81       	ld	r30, Y
    3c60:	f9 81       	ldd	r31, Y+1	; 0x01
    3c62:	9d 81       	ldd	r25, Y+5	; 0x05
    3c64:	82 81       	ldd	r24, Z+2	; 0x02
    3c66:	98 17       	cp	r25, r24
    3c68:	08 f4       	brcc	.+2      	; 0x3c6c <f_write+0xb0>
    3c6a:	40 c0       	rjmp	.+128    	; 0x3cec <f_write+0x130>
				if (fp->fptr == 0) {				/* On the top of the file? */
    3c6c:	21 15       	cp	r18, r1
    3c6e:	31 05       	cpc	r19, r1
    3c70:	41 05       	cpc	r20, r1
    3c72:	51 05       	cpc	r21, r1
    3c74:	a9 f4       	brne	.+42     	; 0x3ca0 <f_write+0xe4>
					clst = fp->org_clust;			/* Follow from the origin */
    3c76:	6e 85       	ldd	r22, Y+14	; 0x0e
    3c78:	7f 85       	ldd	r23, Y+15	; 0x0f
    3c7a:	88 89       	ldd	r24, Y+16	; 0x10
    3c7c:	99 89       	ldd	r25, Y+17	; 0x11
					if (clst == 0)					/* When there is no cluster chain, */
    3c7e:	61 15       	cp	r22, r1
    3c80:	71 05       	cpc	r23, r1
    3c82:	81 05       	cpc	r24, r1
    3c84:	91 05       	cpc	r25, r1
    3c86:	c9 f4       	brne	.+50     	; 0x3cba <f_write+0xfe>
						fp->org_clust = clst = create_chain(fp->fs, 0);	/* Create a new cluster chain */
    3c88:	cf 01       	movw	r24, r30
    3c8a:	40 e0       	ldi	r20, 0x00	; 0
    3c8c:	50 e0       	ldi	r21, 0x00	; 0
    3c8e:	60 e0       	ldi	r22, 0x00	; 0
    3c90:	70 e0       	ldi	r23, 0x00	; 0
    3c92:	0e 94 ce 0e 	call	0x1d9c	; 0x1d9c <create_chain>
    3c96:	6e 87       	std	Y+14, r22	; 0x0e
    3c98:	7f 87       	std	Y+15, r23	; 0x0f
    3c9a:	88 8b       	std	Y+16, r24	; 0x10
    3c9c:	99 8b       	std	Y+17, r25	; 0x11
    3c9e:	07 c0       	rjmp	.+14     	; 0x3cae <f_write+0xf2>
				} else {							/* Middle or end of the file */
					clst = create_chain(fp->fs, fp->curr_clust);			/* Follow or streach cluster chain */
    3ca0:	4a 89       	ldd	r20, Y+18	; 0x12
    3ca2:	5b 89       	ldd	r21, Y+19	; 0x13
    3ca4:	6c 89       	ldd	r22, Y+20	; 0x14
    3ca6:	7d 89       	ldd	r23, Y+21	; 0x15
    3ca8:	cf 01       	movw	r24, r30
    3caa:	0e 94 ce 0e 	call	0x1d9c	; 0x1d9c <create_chain>
				}
				if (clst == 0) break;				/* Could not allocate a new cluster (disk full) */
    3cae:	61 15       	cp	r22, r1
    3cb0:	71 05       	cpc	r23, r1
    3cb2:	81 05       	cpc	r24, r1
    3cb4:	91 05       	cpc	r25, r1
    3cb6:	09 f4       	brne	.+2      	; 0x3cba <f_write+0xfe>
    3cb8:	06 c1       	rjmp	.+524    	; 0x3ec6 <f_write+0x30a>
				if (clst == 1) ABORT(fp->fs, FR_INT_ERR);
    3cba:	61 30       	cpi	r22, 0x01	; 1
    3cbc:	71 05       	cpc	r23, r1
    3cbe:	81 05       	cpc	r24, r1
    3cc0:	91 05       	cpc	r25, r1
    3cc2:	31 f4       	brne	.+12     	; 0x3cd0 <f_write+0x114>
    3cc4:	8c 81       	ldd	r24, Y+4	; 0x04
    3cc6:	80 68       	ori	r24, 0x80	; 128
    3cc8:	8c 83       	std	Y+4, r24	; 0x04
    3cca:	12 e0       	ldi	r17, 0x02	; 2
    3ccc:	71 2e       	mov	r7, r17
    3cce:	0f c1       	rjmp	.+542    	; 0x3eee <f_write+0x332>
				if (clst == 0xFFFFFFFF) ABORT(fp->fs, FR_DISK_ERR);
    3cd0:	6f 3f       	cpi	r22, 0xFF	; 255
    3cd2:	ff ef       	ldi	r31, 0xFF	; 255
    3cd4:	7f 07       	cpc	r23, r31
    3cd6:	ff ef       	ldi	r31, 0xFF	; 255
    3cd8:	8f 07       	cpc	r24, r31
    3cda:	ff ef       	ldi	r31, 0xFF	; 255
    3cdc:	9f 07       	cpc	r25, r31
    3cde:	09 f4       	brne	.+2      	; 0x3ce2 <f_write+0x126>
    3ce0:	ac c0       	rjmp	.+344    	; 0x3e3a <f_write+0x27e>
				fp->curr_clust = clst;				/* Update current cluster */
    3ce2:	6a 8b       	std	Y+18, r22	; 0x12
    3ce4:	7b 8b       	std	Y+19, r23	; 0x13
    3ce6:	8c 8b       	std	Y+20, r24	; 0x14
    3ce8:	9d 8b       	std	Y+21, r25	; 0x15
				fp->csect = 0;						/* Reset sector address in the cluster */
    3cea:	1d 82       	std	Y+5, r1	; 0x05
			}
#if _FS_TINY
			if (fp->fs->winsect == fp->dsect && move_window(fp->fs, 0))	/* Write back data buffer prior to following direct transfer */
    3cec:	e8 81       	ld	r30, Y
    3cee:	f9 81       	ldd	r31, Y+1	; 0x01
    3cf0:	24 a5       	ldd	r18, Z+44	; 0x2c
    3cf2:	35 a5       	ldd	r19, Z+45	; 0x2d
    3cf4:	46 a5       	ldd	r20, Z+46	; 0x2e
    3cf6:	57 a5       	ldd	r21, Z+47	; 0x2f
    3cf8:	8e 89       	ldd	r24, Y+22	; 0x16
    3cfa:	9f 89       	ldd	r25, Y+23	; 0x17
    3cfc:	a8 8d       	ldd	r26, Y+24	; 0x18
    3cfe:	b9 8d       	ldd	r27, Y+25	; 0x19
    3d00:	28 17       	cp	r18, r24
    3d02:	39 07       	cpc	r19, r25
    3d04:	4a 07       	cpc	r20, r26
    3d06:	5b 07       	cpc	r21, r27
    3d08:	51 f4       	brne	.+20     	; 0x3d1e <f_write+0x162>
    3d0a:	cf 01       	movw	r24, r30
    3d0c:	40 e0       	ldi	r20, 0x00	; 0
    3d0e:	50 e0       	ldi	r21, 0x00	; 0
    3d10:	60 e0       	ldi	r22, 0x00	; 0
    3d12:	70 e0       	ldi	r23, 0x00	; 0
    3d14:	0e 94 90 0b 	call	0x1720	; 0x1720 <move_window>
    3d18:	88 23       	and	r24, r24
    3d1a:	09 f0       	breq	.+2      	; 0x3d1e <f_write+0x162>
    3d1c:	8e c0       	rjmp	.+284    	; 0x3e3a <f_write+0x27e>
				if (disk_write(fp->fs->drive, fp->buf, fp->dsect, 1) != RES_OK)
					ABORT(fp->fs, FR_DISK_ERR);
				fp->flag &= (BYTE)~FA__DIRTY;
			}
#endif
			sect = clust2sect(fp->fs, fp->curr_clust);	/* Get current sector */
    3d1e:	08 81       	ld	r16, Y
    3d20:	19 81       	ldd	r17, Y+1	; 0x01
DWORD clust2sect (	/* !=0: sector number, 0: failed - invalid cluster# */
	FATFS *fs,		/* File system object */
	DWORD clst		/* Cluster# to be converted */
)
{
	clst -= 2;
    3d22:	2a 89       	ldd	r18, Y+18	; 0x12
    3d24:	3b 89       	ldd	r19, Y+19	; 0x13
    3d26:	4c 89       	ldd	r20, Y+20	; 0x14
    3d28:	5d 89       	ldd	r21, Y+21	; 0x15
    3d2a:	22 50       	subi	r18, 0x02	; 2
    3d2c:	30 40       	sbci	r19, 0x00	; 0
    3d2e:	40 40       	sbci	r20, 0x00	; 0
    3d30:	50 40       	sbci	r21, 0x00	; 0
	if (clst >= (fs->max_clust - 2)) return 0;		/* Invalid cluster# */
    3d32:	f8 01       	movw	r30, r16
    3d34:	84 8d       	ldd	r24, Z+28	; 0x1c
    3d36:	95 8d       	ldd	r25, Z+29	; 0x1d
    3d38:	a6 8d       	ldd	r26, Z+30	; 0x1e
    3d3a:	b7 8d       	ldd	r27, Z+31	; 0x1f
    3d3c:	02 97       	sbiw	r24, 0x02	; 2
    3d3e:	a1 09       	sbc	r26, r1
    3d40:	b1 09       	sbc	r27, r1
    3d42:	28 17       	cp	r18, r24
    3d44:	39 07       	cpc	r19, r25
    3d46:	4a 07       	cpc	r20, r26
    3d48:	5b 07       	cpc	r21, r27
    3d4a:	08 f0       	brcs	.+2      	; 0x3d4e <f_write+0x192>
    3d4c:	bb cf       	rjmp	.-138    	; 0x3cc4 <f_write+0x108>
	return clst * fs->csize + fs->database;
    3d4e:	62 80       	ldd	r6, Z+2	; 0x02
    3d50:	66 2d       	mov	r22, r6
    3d52:	70 e0       	ldi	r23, 0x00	; 0
    3d54:	80 e0       	ldi	r24, 0x00	; 0
    3d56:	90 e0       	ldi	r25, 0x00	; 0
    3d58:	0e 94 2e 28 	call	0x505c	; 0x505c <__mulsi3>
    3d5c:	9b 01       	movw	r18, r22
    3d5e:	ac 01       	movw	r20, r24
    3d60:	f8 01       	movw	r30, r16
    3d62:	80 a5       	ldd	r24, Z+40	; 0x28
    3d64:	91 a5       	ldd	r25, Z+41	; 0x29
    3d66:	a2 a5       	ldd	r26, Z+42	; 0x2a
    3d68:	b3 a5       	ldd	r27, Z+43	; 0x2b
    3d6a:	28 0f       	add	r18, r24
    3d6c:	39 1f       	adc	r19, r25
    3d6e:	4a 1f       	adc	r20, r26
    3d70:	5b 1f       	adc	r21, r27
					ABORT(fp->fs, FR_DISK_ERR);
				fp->flag &= (BYTE)~FA__DIRTY;
			}
#endif
			sect = clust2sect(fp->fs, fp->curr_clust);	/* Get current sector */
			if (!sect) ABORT(fp->fs, FR_INT_ERR);
    3d72:	21 15       	cp	r18, r1
    3d74:	31 05       	cpc	r19, r1
    3d76:	41 05       	cpc	r20, r1
    3d78:	51 05       	cpc	r21, r1
    3d7a:	09 f4       	brne	.+2      	; 0x3d7e <f_write+0x1c2>
    3d7c:	a3 cf       	rjmp	.-186    	; 0x3cc4 <f_write+0x108>
			sect += fp->csect;
    3d7e:	8d 81       	ldd	r24, Y+5	; 0x05
    3d80:	59 01       	movw	r10, r18
    3d82:	6a 01       	movw	r12, r20
    3d84:	a8 0e       	add	r10, r24
    3d86:	b1 1c       	adc	r11, r1
    3d88:	c1 1c       	adc	r12, r1
    3d8a:	d1 1c       	adc	r13, r1
			cc = btw / SS(fp->fs);					/* When remaining bytes >= sector size, */
    3d8c:	74 01       	movw	r14, r8
    3d8e:	ef 2c       	mov	r14, r15
    3d90:	ff 24       	eor	r15, r15
    3d92:	e6 94       	lsr	r14
			if (cc) {								/* Write maximum contiguous sectors directly */
    3d94:	e1 14       	cp	r14, r1
    3d96:	f1 04       	cpc	r15, r1
    3d98:	f9 f0       	breq	.+62     	; 0x3dd8 <f_write+0x21c>
				if (fp->csect + cc > fp->fs->csize)	/* Clip at cluster boundary */
    3d9a:	28 2f       	mov	r18, r24
    3d9c:	30 e0       	ldi	r19, 0x00	; 0
    3d9e:	c7 01       	movw	r24, r14
    3da0:	82 0f       	add	r24, r18
    3da2:	93 1f       	adc	r25, r19
    3da4:	66 2d       	mov	r22, r6
    3da6:	70 e0       	ldi	r23, 0x00	; 0
    3da8:	68 17       	cp	r22, r24
    3daa:	79 07       	cpc	r23, r25
    3dac:	18 f4       	brcc	.+6      	; 0x3db4 <f_write+0x1f8>
					cc = fp->fs->csize - fp->csect;
    3dae:	7b 01       	movw	r14, r22
    3db0:	e2 1a       	sub	r14, r18
    3db2:	f3 0a       	sbc	r15, r19
				if (disk_write(fp->fs->drive, wbuff, sect, (BYTE)cc) != RES_OK)
    3db4:	f8 01       	movw	r30, r16
    3db6:	81 81       	ldd	r24, Z+1	; 0x01
    3db8:	b2 01       	movw	r22, r4
    3dba:	a6 01       	movw	r20, r12
    3dbc:	95 01       	movw	r18, r10
    3dbe:	0e 2d       	mov	r16, r14
    3dc0:	0e 94 6b 03 	call	0x6d6	; 0x6d6 <disk_write>
    3dc4:	88 23       	and	r24, r24
    3dc6:	c9 f5       	brne	.+114    	; 0x3e3a <f_write+0x27e>
					ABORT(fp->fs, FR_DISK_ERR);
				fp->csect += (BYTE)cc;				/* Next sector address in the cluster */
    3dc8:	8d 81       	ldd	r24, Y+5	; 0x05
    3dca:	8e 0d       	add	r24, r14
    3dcc:	8d 83       	std	Y+5, r24	; 0x05
				wcnt = SS(fp->fs) * cc;				/* Number of bytes transferred */
    3dce:	b7 01       	movw	r22, r14
    3dd0:	76 2f       	mov	r23, r22
    3dd2:	66 27       	eor	r22, r22
    3dd4:	77 0f       	add	r23, r23
    3dd6:	59 c0       	rjmp	.+178    	; 0x3e8a <f_write+0x2ce>
				continue;
			}
#if _FS_TINY
			if (fp->fptr >= fp->fsize) {			/* Avoid silly buffer filling at growing edge */
    3dd8:	2e 81       	ldd	r18, Y+6	; 0x06
    3dda:	3f 81       	ldd	r19, Y+7	; 0x07
    3ddc:	48 85       	ldd	r20, Y+8	; 0x08
    3dde:	59 85       	ldd	r21, Y+9	; 0x09
    3de0:	8a 85       	ldd	r24, Y+10	; 0x0a
    3de2:	9b 85       	ldd	r25, Y+11	; 0x0b
    3de4:	ac 85       	ldd	r26, Y+12	; 0x0c
    3de6:	bd 85       	ldd	r27, Y+13	; 0x0d
    3de8:	28 17       	cp	r18, r24
    3dea:	39 07       	cpc	r19, r25
    3dec:	4a 07       	cpc	r20, r26
    3dee:	5b 07       	cpc	r21, r27
    3df0:	78 f0       	brcs	.+30     	; 0x3e10 <f_write+0x254>
				if (move_window(fp->fs, 0)) ABORT(fp->fs, FR_DISK_ERR);
    3df2:	c8 01       	movw	r24, r16
    3df4:	40 e0       	ldi	r20, 0x00	; 0
    3df6:	50 e0       	ldi	r21, 0x00	; 0
    3df8:	60 e0       	ldi	r22, 0x00	; 0
    3dfa:	70 e0       	ldi	r23, 0x00	; 0
    3dfc:	0e 94 90 0b 	call	0x1720	; 0x1720 <move_window>
    3e00:	88 23       	and	r24, r24
    3e02:	d9 f4       	brne	.+54     	; 0x3e3a <f_write+0x27e>
				fp->fs->winsect = sect;
    3e04:	e8 81       	ld	r30, Y
    3e06:	f9 81       	ldd	r31, Y+1	; 0x01
    3e08:	a4 a6       	std	Z+44, r10	; 0x2c
    3e0a:	b5 a6       	std	Z+45, r11	; 0x2d
    3e0c:	c6 a6       	std	Z+46, r12	; 0x2e
    3e0e:	d7 a6       	std	Z+47, r13	; 0x2f
				if (fp->fptr < fp->fsize &&
					disk_read(fp->fs->drive, fp->buf, sect, 1) != RES_OK)
						ABORT(fp->fs, FR_DISK_ERR);
			}
#endif
			fp->dsect = sect;
    3e10:	ae 8a       	std	Y+22, r10	; 0x16
    3e12:	bf 8a       	std	Y+23, r11	; 0x17
    3e14:	c8 8e       	std	Y+24, r12	; 0x18
    3e16:	d9 8e       	std	Y+25, r13	; 0x19
			fp->csect++;							/* Next sector address in the cluster */
    3e18:	8d 81       	ldd	r24, Y+5	; 0x05
    3e1a:	8f 5f       	subi	r24, 0xFF	; 255
    3e1c:	8d 83       	std	Y+5, r24	; 0x05
		}
		wcnt = SS(fp->fs) - (fp->fptr % SS(fp->fs));	/* Put partial sector into file I/O buffer */
    3e1e:	ce 80       	ldd	r12, Y+6	; 0x06
    3e20:	df 80       	ldd	r13, Y+7	; 0x07
    3e22:	e8 84       	ldd	r14, Y+8	; 0x08
    3e24:	f9 84       	ldd	r15, Y+9	; 0x09
		if (wcnt > btw) wcnt = btw;
#if _FS_TINY
		if (move_window(fp->fs, fp->dsect))			/* Move sector window */
    3e26:	4e 89       	ldd	r20, Y+22	; 0x16
    3e28:	5f 89       	ldd	r21, Y+23	; 0x17
    3e2a:	68 8d       	ldd	r22, Y+24	; 0x18
    3e2c:	79 8d       	ldd	r23, Y+25	; 0x19
    3e2e:	88 81       	ld	r24, Y
    3e30:	99 81       	ldd	r25, Y+1	; 0x01
    3e32:	0e 94 90 0b 	call	0x1720	; 0x1720 <move_window>
    3e36:	88 23       	and	r24, r24
    3e38:	31 f0       	breq	.+12     	; 0x3e46 <f_write+0x28a>
			ABORT(fp->fs, FR_DISK_ERR);
    3e3a:	8c 81       	ldd	r24, Y+4	; 0x04
    3e3c:	80 68       	ori	r24, 0x80	; 128
    3e3e:	8c 83       	std	Y+4, r24	; 0x04
    3e40:	77 24       	eor	r7, r7
    3e42:	73 94       	inc	r7
    3e44:	54 c0       	rjmp	.+168    	; 0x3eee <f_write+0x332>
			}
#endif
			fp->dsect = sect;
			fp->csect++;							/* Next sector address in the cluster */
		}
		wcnt = SS(fp->fs) - (fp->fptr % SS(fp->fs));	/* Put partial sector into file I/O buffer */
    3e46:	c6 01       	movw	r24, r12
    3e48:	91 70       	andi	r25, 0x01	; 1
    3e4a:	20 e0       	ldi	r18, 0x00	; 0
    3e4c:	32 e0       	ldi	r19, 0x02	; 2
    3e4e:	28 1b       	sub	r18, r24
    3e50:	39 0b       	sbc	r19, r25
    3e52:	b4 01       	movw	r22, r8
    3e54:	28 15       	cp	r18, r8
    3e56:	39 05       	cpc	r19, r9
    3e58:	08 f4       	brcc	.+2      	; 0x3e5c <f_write+0x2a0>
    3e5a:	b9 01       	movw	r22, r18
		if (wcnt > btw) wcnt = btw;
#if _FS_TINY
		if (move_window(fp->fs, fp->dsect))			/* Move sector window */
			ABORT(fp->fs, FR_DISK_ERR);
		mem_cpy(&fp->fs->win[fp->fptr % SS(fp->fs)], wbuff, wcnt);	/* Fit partial sector */
    3e5c:	9b 01       	movw	r18, r22
/*-----------------------------------------------------------------------*/

/* Copy memory to memory */
static
void mem_cpy (void* dst, const void* src, int cnt) {
	char *d = (char*)dst;
    3e5e:	8e 81       	ldd	r24, Y+6	; 0x06
    3e60:	9f 81       	ldd	r25, Y+7	; 0x07
    3e62:	91 70       	andi	r25, 0x01	; 1
    3e64:	c0 96       	adiw	r24, 0x30	; 48
    3e66:	e8 81       	ld	r30, Y
    3e68:	f9 81       	ldd	r31, Y+1	; 0x01
    3e6a:	e8 0f       	add	r30, r24
    3e6c:	f9 1f       	adc	r31, r25
    3e6e:	d2 01       	movw	r26, r4
    3e70:	02 c0       	rjmp	.+4      	; 0x3e76 <f_write+0x2ba>
	const char *s = (const char *)src;
	while (cnt--) *d++ = *s++;
    3e72:	8d 91       	ld	r24, X+
    3e74:	81 93       	st	Z+, r24
    3e76:	21 50       	subi	r18, 0x01	; 1
    3e78:	30 40       	sbci	r19, 0x00	; 0
    3e7a:	8f ef       	ldi	r24, 0xFF	; 255
    3e7c:	2f 3f       	cpi	r18, 0xFF	; 255
    3e7e:	38 07       	cpc	r19, r24
    3e80:	c1 f7       	brne	.-16     	; 0x3e72 <f_write+0x2b6>
		if (wcnt > btw) wcnt = btw;
#if _FS_TINY
		if (move_window(fp->fs, fp->dsect))			/* Move sector window */
			ABORT(fp->fs, FR_DISK_ERR);
		mem_cpy(&fp->fs->win[fp->fptr % SS(fp->fs)], wbuff, wcnt);	/* Fit partial sector */
		fp->fs->wflag = 1;
    3e82:	e8 81       	ld	r30, Y
    3e84:	f9 81       	ldd	r31, Y+1	; 0x01
    3e86:	21 e0       	ldi	r18, 0x01	; 1
    3e88:	24 83       	std	Z+4, r18	; 0x04
	if (!(fp->flag & FA_WRITE))						/* Check access mode */
		LEAVE_FF(fp->fs, FR_DENIED);
	if (fp->fsize + btw < fp->fsize) btw = 0;		/* File size cannot reach 4GB */

	for ( ;  btw;									/* Repeat until all data transferred */
		wbuff += wcnt, fp->fptr += wcnt, *bw += wcnt, btw -= wcnt) {
    3e8a:	46 0e       	add	r4, r22
    3e8c:	57 1e       	adc	r5, r23
    3e8e:	cb 01       	movw	r24, r22
    3e90:	a0 e0       	ldi	r26, 0x00	; 0
    3e92:	b0 e0       	ldi	r27, 0x00	; 0
    3e94:	2e 81       	ldd	r18, Y+6	; 0x06
    3e96:	3f 81       	ldd	r19, Y+7	; 0x07
    3e98:	48 85       	ldd	r20, Y+8	; 0x08
    3e9a:	59 85       	ldd	r21, Y+9	; 0x09
    3e9c:	28 0f       	add	r18, r24
    3e9e:	39 1f       	adc	r19, r25
    3ea0:	4a 1f       	adc	r20, r26
    3ea2:	5b 1f       	adc	r21, r27
    3ea4:	2e 83       	std	Y+6, r18	; 0x06
    3ea6:	3f 83       	std	Y+7, r19	; 0x07
    3ea8:	48 87       	std	Y+8, r20	; 0x08
    3eaa:	59 87       	std	Y+9, r21	; 0x09
    3eac:	f1 01       	movw	r30, r2
    3eae:	80 81       	ld	r24, Z
    3eb0:	91 81       	ldd	r25, Z+1	; 0x01
    3eb2:	86 0f       	add	r24, r22
    3eb4:	97 1f       	adc	r25, r23
    3eb6:	91 83       	std	Z+1, r25	; 0x01
    3eb8:	80 83       	st	Z, r24
    3eba:	86 1a       	sub	r8, r22
    3ebc:	97 0a       	sbc	r9, r23
		LEAVE_FF(fp->fs, FR_INT_ERR);
	if (!(fp->flag & FA_WRITE))						/* Check access mode */
		LEAVE_FF(fp->fs, FR_DENIED);
	if (fp->fsize + btw < fp->fsize) btw = 0;		/* File size cannot reach 4GB */

	for ( ;  btw;									/* Repeat until all data transferred */
    3ebe:	81 14       	cp	r8, r1
    3ec0:	91 04       	cpc	r9, r1
    3ec2:	09 f0       	breq	.+2      	; 0x3ec6 <f_write+0x30a>
    3ec4:	be ce       	rjmp	.-644    	; 0x3c42 <f_write+0x86>
		mem_cpy(&fp->buf[fp->fptr % SS(fp->fs)], wbuff, wcnt);	/* Fit partial sector */
		fp->flag |= FA__DIRTY;
#endif
	}

	if (fp->fptr > fp->fsize) fp->fsize = fp->fptr;	/* Update file size if needed */
    3ec6:	2e 81       	ldd	r18, Y+6	; 0x06
    3ec8:	3f 81       	ldd	r19, Y+7	; 0x07
    3eca:	48 85       	ldd	r20, Y+8	; 0x08
    3ecc:	59 85       	ldd	r21, Y+9	; 0x09
    3ece:	8a 85       	ldd	r24, Y+10	; 0x0a
    3ed0:	9b 85       	ldd	r25, Y+11	; 0x0b
    3ed2:	ac 85       	ldd	r26, Y+12	; 0x0c
    3ed4:	bd 85       	ldd	r27, Y+13	; 0x0d
    3ed6:	82 17       	cp	r24, r18
    3ed8:	93 07       	cpc	r25, r19
    3eda:	a4 07       	cpc	r26, r20
    3edc:	b5 07       	cpc	r27, r21
    3ede:	20 f4       	brcc	.+8      	; 0x3ee8 <f_write+0x32c>
    3ee0:	2a 87       	std	Y+10, r18	; 0x0a
    3ee2:	3b 87       	std	Y+11, r19	; 0x0b
    3ee4:	4c 87       	std	Y+12, r20	; 0x0c
    3ee6:	5d 87       	std	Y+13, r21	; 0x0d
	fp->flag |= FA__WRITTEN;						/* Set file changed flag */
    3ee8:	8c 81       	ldd	r24, Y+4	; 0x04
    3eea:	80 62       	ori	r24, 0x20	; 32
    3eec:	8c 83       	std	Y+4, r24	; 0x04

	LEAVE_FF(fp->fs, FR_OK);
}
    3eee:	87 2d       	mov	r24, r7
    3ef0:	df 91       	pop	r29
    3ef2:	cf 91       	pop	r28
    3ef4:	1f 91       	pop	r17
    3ef6:	0f 91       	pop	r16
    3ef8:	ff 90       	pop	r15
    3efa:	ef 90       	pop	r14
    3efc:	df 90       	pop	r13
    3efe:	cf 90       	pop	r12
    3f00:	bf 90       	pop	r11
    3f02:	af 90       	pop	r10
    3f04:	9f 90       	pop	r9
    3f06:	8f 90       	pop	r8
    3f08:	7f 90       	pop	r7
    3f0a:	6f 90       	pop	r6
    3f0c:	5f 90       	pop	r5
    3f0e:	4f 90       	pop	r4
    3f10:	3f 90       	pop	r3
    3f12:	2f 90       	pop	r2
    3f14:	08 95       	ret

00003f16 <f_putc>:
/*-----------------------------------------------------------------------*/
int f_putc (
	int chr,	/* A character to be output */
	FIL* fil	/* Ponter to the file object */
)
{
    3f16:	ef 92       	push	r14
    3f18:	ff 92       	push	r15
    3f1a:	0f 93       	push	r16
    3f1c:	1f 93       	push	r17
    3f1e:	df 93       	push	r29
    3f20:	cf 93       	push	r28
    3f22:	00 d0       	rcall	.+0      	; 0x3f24 <f_putc+0xe>
    3f24:	0f 92       	push	r0
    3f26:	cd b7       	in	r28, 0x3d	; 61
    3f28:	de b7       	in	r29, 0x3e	; 62
    3f2a:	7c 01       	movw	r14, r24
    3f2c:	8b 01       	movw	r16, r22
	UINT bw;
	char c;


#if _USE_STRFUNC >= 2
	if (chr == '\n') f_putc ('\r', fil);	/* LF -> CRLF conversion */
    3f2e:	8a e0       	ldi	r24, 0x0A	; 10
    3f30:	e8 16       	cp	r14, r24
    3f32:	f1 04       	cpc	r15, r1
    3f34:	21 f4       	brne	.+8      	; 0x3f3e <f_putc+0x28>
    3f36:	8d e0       	ldi	r24, 0x0D	; 13
    3f38:	90 e0       	ldi	r25, 0x00	; 0
    3f3a:	0e 94 8b 1f 	call	0x3f16	; 0x3f16 <f_putc>
#endif
	if (!fil) {	/* Special value may be used to switch the destination to any other device */
    3f3e:	01 15       	cp	r16, r1
    3f40:	11 05       	cpc	r17, r1
    3f42:	99 f0       	breq	.+38     	; 0x3f6a <f_putc+0x54>
	/*	put_console(chr);	*/
		return chr;
	}
	c = (char)chr;
    3f44:	e9 82       	std	Y+1, r14	; 0x01
	f_write(fil, &c, 1, &bw);	/* Write a byte to the file */
    3f46:	c8 01       	movw	r24, r16
    3f48:	be 01       	movw	r22, r28
    3f4a:	6f 5f       	subi	r22, 0xFF	; 255
    3f4c:	7f 4f       	sbci	r23, 0xFF	; 255
    3f4e:	41 e0       	ldi	r20, 0x01	; 1
    3f50:	50 e0       	ldi	r21, 0x00	; 0
    3f52:	9e 01       	movw	r18, r28
    3f54:	2e 5f       	subi	r18, 0xFE	; 254
    3f56:	3f 4f       	sbci	r19, 0xFF	; 255
    3f58:	0e 94 de 1d 	call	0x3bbc	; 0x3bbc <f_write>
	return bw ? chr : EOF;		/* Return the result */
    3f5c:	8a 81       	ldd	r24, Y+2	; 0x02
    3f5e:	9b 81       	ldd	r25, Y+3	; 0x03
    3f60:	89 2b       	or	r24, r25
    3f62:	19 f4       	brne	.+6      	; 0x3f6a <f_putc+0x54>
    3f64:	ee 24       	eor	r14, r14
    3f66:	ea 94       	dec	r14
    3f68:	fe 2c       	mov	r15, r14
}
    3f6a:	c7 01       	movw	r24, r14
    3f6c:	0f 90       	pop	r0
    3f6e:	0f 90       	pop	r0
    3f70:	0f 90       	pop	r0
    3f72:	cf 91       	pop	r28
    3f74:	df 91       	pop	r29
    3f76:	1f 91       	pop	r17
    3f78:	0f 91       	pop	r16
    3f7a:	ff 90       	pop	r15
    3f7c:	ef 90       	pop	r14
    3f7e:	08 95       	ret

00003f80 <f_puts>:
/*-----------------------------------------------------------------------*/
int f_puts (
	const char* str,	/* Pointer to the string to be output */
	FIL* fil			/* Pointer to the file object */
)
{
    3f80:	ef 92       	push	r14
    3f82:	ff 92       	push	r15
    3f84:	0f 93       	push	r16
    3f86:	1f 93       	push	r17
    3f88:	cf 93       	push	r28
    3f8a:	df 93       	push	r29
    3f8c:	8c 01       	movw	r16, r24
    3f8e:	7b 01       	movw	r14, r22
    3f90:	c0 e0       	ldi	r28, 0x00	; 0
    3f92:	d0 e0       	ldi	r29, 0x00	; 0
    3f94:	0d c0       	rjmp	.+26     	; 0x3fb0 <f_puts+0x30>
	int n;


	for (n = 0; *str; str++, n++) {
		if (f_putc(*str, fil) == EOF) return EOF;
    3f96:	90 e0       	ldi	r25, 0x00	; 0
    3f98:	b7 01       	movw	r22, r14
    3f9a:	0e 94 8b 1f 	call	0x3f16	; 0x3f16 <f_putc>
    3f9e:	8f 5f       	subi	r24, 0xFF	; 255
    3fa0:	9f 4f       	sbci	r25, 0xFF	; 255
    3fa2:	19 f4       	brne	.+6      	; 0x3faa <f_puts+0x2a>
    3fa4:	cf ef       	ldi	r28, 0xFF	; 255
    3fa6:	df ef       	ldi	r29, 0xFF	; 255
    3fa8:	07 c0       	rjmp	.+14     	; 0x3fb8 <f_puts+0x38>
)
{
	int n;


	for (n = 0; *str; str++, n++) {
    3faa:	0f 5f       	subi	r16, 0xFF	; 255
    3fac:	1f 4f       	sbci	r17, 0xFF	; 255
    3fae:	21 96       	adiw	r28, 0x01	; 1
    3fb0:	f8 01       	movw	r30, r16
    3fb2:	80 81       	ld	r24, Z
    3fb4:	88 23       	and	r24, r24
    3fb6:	79 f7       	brne	.-34     	; 0x3f96 <f_puts+0x16>
		if (f_putc(*str, fil) == EOF) return EOF;
	}
	return n;
}
    3fb8:	ce 01       	movw	r24, r28
    3fba:	df 91       	pop	r29
    3fbc:	cf 91       	pop	r28
    3fbe:	1f 91       	pop	r17
    3fc0:	0f 91       	pop	r16
    3fc2:	ff 90       	pop	r15
    3fc4:	ef 90       	pop	r14
    3fc6:	08 95       	ret

00003fc8 <f_printf>:
int f_printf (
	FIL* fil,			/* Pointer to the file object */
	const char* str,	/* Pointer to the format string */
	...					/* Optional arguments... */
)
{
    3fc8:	2f 92       	push	r2
    3fca:	3f 92       	push	r3
    3fcc:	4f 92       	push	r4
    3fce:	5f 92       	push	r5
    3fd0:	6f 92       	push	r6
    3fd2:	7f 92       	push	r7
    3fd4:	8f 92       	push	r8
    3fd6:	9f 92       	push	r9
    3fd8:	af 92       	push	r10
    3fda:	bf 92       	push	r11
    3fdc:	cf 92       	push	r12
    3fde:	df 92       	push	r13
    3fe0:	ef 92       	push	r14
    3fe2:	ff 92       	push	r15
    3fe4:	0f 93       	push	r16
    3fe6:	1f 93       	push	r17
    3fe8:	df 93       	push	r29
    3fea:	cf 93       	push	r28
    3fec:	cd b7       	in	r28, 0x3d	; 61
    3fee:	de b7       	in	r29, 0x3e	; 62
    3ff0:	63 97       	sbiw	r28, 0x13	; 19
    3ff2:	0f b6       	in	r0, 0x3f	; 63
    3ff4:	f8 94       	cli
    3ff6:	de bf       	out	0x3e, r29	; 62
    3ff8:	0f be       	out	0x3f, r0	; 63
    3ffa:	cd bf       	out	0x3d, r28	; 61
    3ffc:	6a a4       	ldd	r6, Y+42	; 0x2a
    3ffe:	7b a4       	ldd	r7, Y+43	; 0x2b
    4000:	8e 01       	movw	r16, r28
    4002:	04 5d       	subi	r16, 0xD4	; 212
    4004:	1f 4f       	sbci	r17, 0xFF	; 255
    4006:	1a 8a       	std	Y+18, r1	; 0x12
    4008:	19 8a       	std	Y+17, r1	; 0x11
    400a:	20 e0       	ldi	r18, 0x00	; 0
    400c:	30 e0       	ldi	r19, 0x00	; 0


	va_start(arp, str);

	for (cc = res = 0; cc != EOF; res += cc) {
		c = *str++;
    400e:	d3 01       	movw	r26, r6
    4010:	8c 91       	ld	r24, X
		if (c == 0) break;			/* End of string */
    4012:	88 23       	and	r24, r24
    4014:	09 f4       	brne	.+2      	; 0x4018 <f_printf+0x50>
    4016:	17 c1       	rjmp	.+558    	; 0x4246 <f_printf+0x27e>


	va_start(arp, str);

	for (cc = res = 0; cc != EOF; res += cc) {
		c = *str++;
    4018:	08 94       	sec
    401a:	61 1c       	adc	r6, r1
    401c:	71 1c       	adc	r7, r1
		if (c == 0) break;			/* End of string */
		if (c != '%') {				/* Non escape cahracter */
    401e:	85 32       	cpi	r24, 0x25	; 37
    4020:	71 f0       	breq	.+28     	; 0x403e <f_printf+0x76>
			cc = f_putc(c, fil);
    4022:	90 e0       	ldi	r25, 0x00	; 0
    4024:	68 a5       	ldd	r22, Y+40	; 0x28
    4026:	79 a5       	ldd	r23, Y+41	; 0x29
    4028:	0e 94 8b 1f 	call	0x3f16	; 0x3f16 <f_putc>
    402c:	9c 01       	movw	r18, r24
			if (cc != EOF) cc = 1;
    402e:	bf ef       	ldi	r27, 0xFF	; 255
    4030:	8f 3f       	cpi	r24, 0xFF	; 255
    4032:	9b 07       	cpc	r25, r27
    4034:	11 f4       	brne	.+4      	; 0x403a <f_printf+0x72>
    4036:	48 01       	movw	r8, r16
    4038:	fa c0       	rjmp	.+500    	; 0x422e <f_printf+0x266>
    403a:	48 01       	movw	r8, r16
    403c:	4c c0       	rjmp	.+152    	; 0x40d6 <f_printf+0x10e>
			continue;
		}
		w = f = 0;
		c = *str++;
    403e:	d3 01       	movw	r26, r6
    4040:	ed 91       	ld	r30, X+
    4042:	3d 01       	movw	r6, r26
		if (c == '0') {				/* Flag: '0' padding */
    4044:	e0 33       	cpi	r30, 0x30	; 48
    4046:	11 f0       	breq	.+4      	; 0x404c <f_printf+0x84>
    4048:	1b 8a       	std	Y+19, r1	; 0x13
    404a:	04 c0       	rjmp	.+8      	; 0x4054 <f_printf+0x8c>
			f = 1; c = *str++;
    404c:	ed 91       	ld	r30, X+
    404e:	3d 01       	movw	r6, r26
    4050:	b1 e0       	ldi	r27, 0x01	; 1
    4052:	bb 8b       	std	Y+19, r27	; 0x13
    4054:	aa 24       	eor	r10, r10
    4056:	bb 24       	eor	r11, r11
    4058:	13 c0       	rjmp	.+38     	; 0x4080 <f_printf+0xb8>
		}
		while (c >= '0' && c <= '9') {	/* Precision */
			w = w * 10 + (c - '0');
    405a:	c5 01       	movw	r24, r10
    405c:	53 e0       	ldi	r21, 0x03	; 3
    405e:	88 0f       	add	r24, r24
    4060:	99 1f       	adc	r25, r25
    4062:	5a 95       	dec	r21
    4064:	e1 f7       	brne	.-8      	; 0x405e <f_printf+0x96>
    4066:	aa 0c       	add	r10, r10
    4068:	bb 1c       	adc	r11, r11
    406a:	a8 0e       	add	r10, r24
    406c:	b9 1e       	adc	r11, r25
    406e:	ae 0e       	add	r10, r30
    4070:	b1 1c       	adc	r11, r1
    4072:	e0 ed       	ldi	r30, 0xD0	; 208
    4074:	ff ef       	ldi	r31, 0xFF	; 255
    4076:	ae 0e       	add	r10, r30
    4078:	bf 1e       	adc	r11, r31
			c = *str++;
    407a:	d3 01       	movw	r26, r6
    407c:	ed 91       	ld	r30, X+
    407e:	3d 01       	movw	r6, r26
		w = f = 0;
		c = *str++;
		if (c == '0') {				/* Flag: '0' padding */
			f = 1; c = *str++;
		}
		while (c >= '0' && c <= '9') {	/* Precision */
    4080:	8e 2f       	mov	r24, r30
    4082:	80 53       	subi	r24, 0x30	; 48
    4084:	8a 30       	cpi	r24, 0x0A	; 10
    4086:	48 f3       	brcs	.-46     	; 0x405a <f_printf+0x92>
			w = w * 10 + (c - '0');
			c = *str++;
		}
		if (c == 'l') {				/* Prefix: Size is long int */
    4088:	ec 36       	cpi	r30, 0x6C	; 108
    408a:	31 f4       	brne	.+12     	; 0x4098 <f_printf+0xd0>
			f |= 2; c = *str++;
    408c:	bb 89       	ldd	r27, Y+19	; 0x13
    408e:	b2 60       	ori	r27, 0x02	; 2
    4090:	bb 8b       	std	Y+19, r27	; 0x13
    4092:	d3 01       	movw	r26, r6
    4094:	ed 91       	ld	r30, X+
    4096:	3d 01       	movw	r6, r26
		}
		if (c == 's') {				/* Type is string */
    4098:	e3 37       	cpi	r30, 0x73	; 115
    409a:	49 f4       	brne	.+18     	; 0x40ae <f_printf+0xe6>
			cc = f_puts(va_arg(arp, char*), fil);
    409c:	32 e0       	ldi	r19, 0x02	; 2
    409e:	83 2e       	mov	r8, r19
    40a0:	91 2c       	mov	r9, r1
    40a2:	80 0e       	add	r8, r16
    40a4:	91 1e       	adc	r9, r17
    40a6:	f8 01       	movw	r30, r16
    40a8:	80 81       	ld	r24, Z
    40aa:	91 81       	ldd	r25, Z+1	; 0x01
    40ac:	bb c0       	rjmp	.+374    	; 0x4224 <f_printf+0x25c>
			continue;
		}
		if (c == 'c') {				/* Type is character */
    40ae:	e3 36       	cpi	r30, 0x63	; 99
    40b0:	a9 f4       	brne	.+42     	; 0x40dc <f_printf+0x114>
			cc = f_putc(va_arg(arp, int), fil);
    40b2:	22 e0       	ldi	r18, 0x02	; 2
    40b4:	82 2e       	mov	r8, r18
    40b6:	91 2c       	mov	r9, r1
    40b8:	80 0e       	add	r8, r16
    40ba:	91 1e       	adc	r9, r17
    40bc:	d8 01       	movw	r26, r16
    40be:	8d 91       	ld	r24, X+
    40c0:	9c 91       	ld	r25, X
    40c2:	68 a5       	ldd	r22, Y+40	; 0x28
    40c4:	79 a5       	ldd	r23, Y+41	; 0x29
    40c6:	0e 94 8b 1f 	call	0x3f16	; 0x3f16 <f_putc>
    40ca:	9c 01       	movw	r18, r24
			if (cc != EOF) cc = 1;
    40cc:	bf ef       	ldi	r27, 0xFF	; 255
    40ce:	8f 3f       	cpi	r24, 0xFF	; 255
    40d0:	9b 07       	cpc	r25, r27
    40d2:	09 f4       	brne	.+2      	; 0x40d6 <f_printf+0x10e>
    40d4:	ac c0       	rjmp	.+344    	; 0x422e <f_printf+0x266>
    40d6:	21 e0       	ldi	r18, 0x01	; 1
    40d8:	30 e0       	ldi	r19, 0x00	; 0
    40da:	a9 c0       	rjmp	.+338    	; 0x422e <f_printf+0x266>
			continue;
		}
		r = 0;
		if (c == 'd') r = 10;		/* Type is signed decimal */
    40dc:	e4 36       	cpi	r30, 0x64	; 100
    40de:	39 f0       	breq	.+14     	; 0x40ee <f_printf+0x126>
		if (c == 'u') r = 10;		/* Type is unsigned decimal */
    40e0:	e5 37       	cpi	r30, 0x75	; 117
    40e2:	29 f0       	breq	.+10     	; 0x40ee <f_printf+0x126>
		if (c == 'X') r = 16;		/* Type is unsigned hexdecimal */
    40e4:	e8 35       	cpi	r30, 0x58	; 88
    40e6:	09 f0       	breq	.+2      	; 0x40ea <f_printf+0x122>
    40e8:	ae c0       	rjmp	.+348    	; 0x4246 <f_printf+0x27e>
    40ea:	20 e1       	ldi	r18, 0x10	; 16
    40ec:	01 c0       	rjmp	.+2      	; 0x40f0 <f_printf+0x128>
    40ee:	2a e0       	ldi	r18, 0x0A	; 10
		if (r == 0) break;			/* Unknown type */
		if (f & 2) {				/* Get the value */
    40f0:	fb 89       	ldd	r31, Y+19	; 0x13
    40f2:	f1 ff       	sbrs	r31, 1
    40f4:	0d c0       	rjmp	.+26     	; 0x4110 <f_printf+0x148>
			val = (ULONG)va_arg(arp, long);
    40f6:	94 e0       	ldi	r25, 0x04	; 4
    40f8:	89 2e       	mov	r8, r25
    40fa:	91 2c       	mov	r9, r1
    40fc:	80 0e       	add	r8, r16
    40fe:	91 1e       	adc	r9, r17
    4100:	d8 01       	movw	r26, r16
    4102:	ed 90       	ld	r14, X+
    4104:	fd 90       	ld	r15, X+
    4106:	0d 91       	ld	r16, X+
    4108:	1c 91       	ld	r17, X
		} else {
			val = (c == 'd') ? (ULONG)(long)va_arg(arp, int) : (ULONG)va_arg(arp, unsigned int);
		}
		/* Put numeral string */
		if (c == 'd') {
    410a:	e4 36       	cpi	r30, 0x64	; 100
    410c:	09 f5       	brne	.+66     	; 0x4150 <f_printf+0x188>
    410e:	13 c0       	rjmp	.+38     	; 0x4136 <f_printf+0x16e>
    4110:	c8 01       	movw	r24, r16
    4112:	02 96       	adiw	r24, 0x02	; 2
    4114:	d8 01       	movw	r26, r16
    4116:	6d 91       	ld	r22, X+
    4118:	7c 91       	ld	r23, X
		if (c == 'X') r = 16;		/* Type is unsigned hexdecimal */
		if (r == 0) break;			/* Unknown type */
		if (f & 2) {				/* Get the value */
			val = (ULONG)va_arg(arp, long);
		} else {
			val = (c == 'd') ? (ULONG)(long)va_arg(arp, int) : (ULONG)va_arg(arp, unsigned int);
    411a:	e4 36       	cpi	r30, 0x64	; 100
    411c:	39 f4       	brne	.+14     	; 0x412c <f_printf+0x164>
    411e:	4c 01       	movw	r8, r24
    4120:	7b 01       	movw	r14, r22
    4122:	00 27       	eor	r16, r16
    4124:	f7 fc       	sbrc	r15, 7
    4126:	00 95       	com	r16
    4128:	10 2f       	mov	r17, r16
    412a:	05 c0       	rjmp	.+10     	; 0x4136 <f_printf+0x16e>
    412c:	4c 01       	movw	r8, r24
    412e:	7b 01       	movw	r14, r22
    4130:	00 e0       	ldi	r16, 0x00	; 0
    4132:	10 e0       	ldi	r17, 0x00	; 0
    4134:	0d c0       	rjmp	.+26     	; 0x4150 <f_printf+0x188>
		}
		/* Put numeral string */
		if (c == 'd') {
			if (val & 0x80000000) {
    4136:	17 ff       	sbrs	r17, 7
    4138:	0b c0       	rjmp	.+22     	; 0x4150 <f_printf+0x188>
				val = 0 - val;
    413a:	10 95       	com	r17
    413c:	00 95       	com	r16
    413e:	f0 94       	com	r15
    4140:	e0 94       	com	r14
    4142:	e1 1c       	adc	r14, r1
    4144:	f1 1c       	adc	r15, r1
    4146:	01 1d       	adc	r16, r1
    4148:	11 1d       	adc	r17, r1
				f |= 4;
    414a:	bb 89       	ldd	r27, Y+19	; 0x13
    414c:	b4 60       	ori	r27, 0x04	; 4
    414e:	bb 8b       	std	Y+19, r27	; 0x13
			}
		}
		i = sizeof(s) - 1; s[i] = 0;
    4150:	18 8a       	std	Y+16, r1	; 0x10
    4152:	8f e0       	ldi	r24, 0x0F	; 15
    4154:	c8 2e       	mov	r12, r24
    4156:	d1 2c       	mov	r13, r1
		do {
			c = (UCHAR)(val % r + '0');
    4158:	22 2e       	mov	r2, r18
    415a:	33 24       	eor	r3, r3
    415c:	44 24       	eor	r4, r4
    415e:	55 24       	eor	r5, r5
    4160:	c8 01       	movw	r24, r16
    4162:	b7 01       	movw	r22, r14
    4164:	a2 01       	movw	r20, r4
    4166:	91 01       	movw	r18, r2
    4168:	0e 94 61 28 	call	0x50c2	; 0x50c2 <__udivmodsi4>
    416c:	86 2f       	mov	r24, r22
    416e:	80 5d       	subi	r24, 0xD0	; 208
			if (c > '9') c += 7;
    4170:	8a 33       	cpi	r24, 0x3A	; 58
    4172:	08 f0       	brcs	.+2      	; 0x4176 <f_printf+0x1ae>
    4174:	89 5f       	subi	r24, 0xF9	; 249
			s[--i] = c;
    4176:	08 94       	sec
    4178:	c1 08       	sbc	r12, r1
    417a:	d1 08       	sbc	r13, r1
    417c:	e1 e0       	ldi	r30, 0x01	; 1
    417e:	f0 e0       	ldi	r31, 0x00	; 0
    4180:	ec 0f       	add	r30, r28
    4182:	fd 1f       	adc	r31, r29
    4184:	ec 0d       	add	r30, r12
    4186:	fd 1d       	adc	r31, r13
    4188:	80 83       	st	Z, r24
			val /= r;
		} while (i && val);
    418a:	c1 14       	cp	r12, r1
    418c:	d1 04       	cpc	r13, r1
    418e:	e9 f0       	breq	.+58     	; 0x41ca <f_printf+0x202>
		i = sizeof(s) - 1; s[i] = 0;
		do {
			c = (UCHAR)(val % r + '0');
			if (c > '9') c += 7;
			s[--i] = c;
			val /= r;
    4190:	c8 01       	movw	r24, r16
    4192:	b7 01       	movw	r22, r14
    4194:	a2 01       	movw	r20, r4
    4196:	91 01       	movw	r18, r2
    4198:	0e 94 61 28 	call	0x50c2	; 0x50c2 <__udivmodsi4>
    419c:	c9 01       	movw	r24, r18
    419e:	da 01       	movw	r26, r20
    41a0:	7c 01       	movw	r14, r24
    41a2:	8d 01       	movw	r16, r26
		} while (i && val);
    41a4:	e1 14       	cp	r14, r1
    41a6:	f1 04       	cpc	r15, r1
    41a8:	01 05       	cpc	r16, r1
    41aa:	11 05       	cpc	r17, r1
    41ac:	c9 f6       	brne	.-78     	; 0x4160 <f_printf+0x198>
		if (i && (f & 4)) s[--i] = '-';
    41ae:	eb 89       	ldd	r30, Y+19	; 0x13
    41b0:	e2 ff       	sbrs	r30, 2
    41b2:	0b c0       	rjmp	.+22     	; 0x41ca <f_printf+0x202>
    41b4:	08 94       	sec
    41b6:	c1 08       	sbc	r12, r1
    41b8:	d1 08       	sbc	r13, r1
    41ba:	e1 e0       	ldi	r30, 0x01	; 1
    41bc:	f0 e0       	ldi	r31, 0x00	; 0
    41be:	ec 0f       	add	r30, r28
    41c0:	fd 1f       	adc	r31, r29
    41c2:	ec 0d       	add	r30, r12
    41c4:	fd 1d       	adc	r31, r13
    41c6:	4d e2       	ldi	r20, 0x2D	; 45
    41c8:	40 83       	st	Z, r20
		w = sizeof(s) - 1 - w;
    41ca:	8f e0       	ldi	r24, 0x0F	; 15
    41cc:	90 e0       	ldi	r25, 0x00	; 0
    41ce:	8a 19       	sub	r24, r10
    41d0:	9b 09       	sbc	r25, r11
    41d2:	08 94       	sec
    41d4:	c1 08       	sbc	r12, r1
    41d6:	d1 08       	sbc	r13, r1
    41d8:	e1 e0       	ldi	r30, 0x01	; 1
    41da:	f0 e0       	ldi	r31, 0x00	; 0
    41dc:	ec 0f       	add	r30, r28
    41de:	fd 1f       	adc	r31, r29
    41e0:	ec 0d       	add	r30, r12
    41e2:	fd 1d       	adc	r31, r13
    41e4:	08 94       	sec
    41e6:	c1 1c       	adc	r12, r1
    41e8:	d1 1c       	adc	r13, r1
		while (i && i > w) s[--i] = (f & 1) ? '0' : ' ';
    41ea:	ab 89       	ldd	r26, Y+19	; 0x13
    41ec:	2a 2f       	mov	r18, r26
    41ee:	30 e0       	ldi	r19, 0x00	; 0
    41f0:	21 70       	andi	r18, 0x01	; 1
    41f2:	30 70       	andi	r19, 0x00	; 0
    41f4:	0b c0       	rjmp	.+22     	; 0x420c <f_printf+0x244>
    41f6:	08 94       	sec
    41f8:	c1 08       	sbc	r12, r1
    41fa:	d1 08       	sbc	r13, r1
    41fc:	21 15       	cp	r18, r1
    41fe:	31 05       	cpc	r19, r1
    4200:	11 f4       	brne	.+4      	; 0x4206 <f_printf+0x23e>
    4202:	40 e2       	ldi	r20, 0x20	; 32
    4204:	01 c0       	rjmp	.+2      	; 0x4208 <f_printf+0x240>
    4206:	40 e3       	ldi	r20, 0x30	; 48
    4208:	40 83       	st	Z, r20
    420a:	31 97       	sbiw	r30, 0x01	; 1
    420c:	c1 14       	cp	r12, r1
    420e:	d1 04       	cpc	r13, r1
    4210:	19 f0       	breq	.+6      	; 0x4218 <f_printf+0x250>
    4212:	8c 15       	cp	r24, r12
    4214:	9d 05       	cpc	r25, r13
    4216:	7c f3       	brlt	.-34     	; 0x41f6 <f_printf+0x22e>
		cc = f_puts(&s[i], fil);
    4218:	81 e0       	ldi	r24, 0x01	; 1
    421a:	90 e0       	ldi	r25, 0x00	; 0
    421c:	8c 0f       	add	r24, r28
    421e:	9d 1f       	adc	r25, r29
    4220:	8c 0d       	add	r24, r12
    4222:	9d 1d       	adc	r25, r13
    4224:	68 a5       	ldd	r22, Y+40	; 0x28
    4226:	79 a5       	ldd	r23, Y+41	; 0x29
    4228:	0e 94 c0 1f 	call	0x3f80	; 0x3f80 <f_puts>
    422c:	9c 01       	movw	r18, r24
	int i, w, res, cc;


	va_start(arp, str);

	for (cc = res = 0; cc != EOF; res += cc) {
    422e:	e9 89       	ldd	r30, Y+17	; 0x11
    4230:	fa 89       	ldd	r31, Y+18	; 0x12
    4232:	e2 0f       	add	r30, r18
    4234:	f3 1f       	adc	r31, r19
    4236:	fa 8b       	std	Y+18, r31	; 0x12
    4238:	e9 8b       	std	Y+17, r30	; 0x11
    423a:	ff ef       	ldi	r31, 0xFF	; 255
    423c:	2f 3f       	cpi	r18, 0xFF	; 255
    423e:	3f 07       	cpc	r19, r31
    4240:	41 f0       	breq	.+16     	; 0x4252 <f_printf+0x28a>
    4242:	84 01       	movw	r16, r8
    4244:	e4 ce       	rjmp	.-568    	; 0x400e <f_printf+0x46>
		while (i && i > w) s[--i] = (f & 1) ? '0' : ' ';
		cc = f_puts(&s[i], fil);
	}

	va_end(arp);
	return (cc == EOF) ? cc : res;
    4246:	4f ef       	ldi	r20, 0xFF	; 255
    4248:	2f 3f       	cpi	r18, 0xFF	; 255
    424a:	34 07       	cpc	r19, r20
    424c:	11 f0       	breq	.+4      	; 0x4252 <f_printf+0x28a>
    424e:	29 89       	ldd	r18, Y+17	; 0x11
    4250:	3a 89       	ldd	r19, Y+18	; 0x12
}
    4252:	c9 01       	movw	r24, r18
    4254:	63 96       	adiw	r28, 0x13	; 19
    4256:	0f b6       	in	r0, 0x3f	; 63
    4258:	f8 94       	cli
    425a:	de bf       	out	0x3e, r29	; 62
    425c:	0f be       	out	0x3f, r0	; 63
    425e:	cd bf       	out	0x3d, r28	; 61
    4260:	cf 91       	pop	r28
    4262:	df 91       	pop	r29
    4264:	1f 91       	pop	r17
    4266:	0f 91       	pop	r16
    4268:	ff 90       	pop	r15
    426a:	ef 90       	pop	r14
    426c:	df 90       	pop	r13
    426e:	cf 90       	pop	r12
    4270:	bf 90       	pop	r11
    4272:	af 90       	pop	r10
    4274:	9f 90       	pop	r9
    4276:	8f 90       	pop	r8
    4278:	7f 90       	pop	r7
    427a:	6f 90       	pop	r6
    427c:	5f 90       	pop	r5
    427e:	4f 90       	pop	r4
    4280:	3f 90       	pop	r3
    4282:	2f 90       	pop	r2
    4284:	08 95       	ret

00004286 <sync>:
#if !_FS_READONLY
static
FRESULT sync (	/* FR_OK: successful, FR_DISK_ERR: failed */
	FATFS *fs	/* File system object */
)
{
    4286:	0f 93       	push	r16
    4288:	cf 93       	push	r28
    428a:	df 93       	push	r29
    428c:	ec 01       	movw	r28, r24
	FRESULT res;


	res = move_window(fs, 0);
    428e:	40 e0       	ldi	r20, 0x00	; 0
    4290:	50 e0       	ldi	r21, 0x00	; 0
    4292:	60 e0       	ldi	r22, 0x00	; 0
    4294:	70 e0       	ldi	r23, 0x00	; 0
    4296:	0e 94 90 0b 	call	0x1720	; 0x1720 <move_window>
	if (res == FR_OK) {
    429a:	88 23       	and	r24, r24
    429c:	09 f0       	breq	.+2      	; 0x42a0 <sync+0x1a>
    429e:	7e c0       	rjmp	.+252    	; 0x439c <sync+0x116>
		/* Update FSInfo sector if needed */
		if (fs->fs_type == FS_FAT32 && fs->fsi_flag) {
    42a0:	88 81       	ld	r24, Y
    42a2:	83 30       	cpi	r24, 0x03	; 3
    42a4:	09 f0       	breq	.+2      	; 0x42a8 <sync+0x22>
    42a6:	72 c0       	rjmp	.+228    	; 0x438c <sync+0x106>
    42a8:	8a 85       	ldd	r24, Y+10	; 0x0a
    42aa:	88 23       	and	r24, r24
    42ac:	09 f4       	brne	.+2      	; 0x42b0 <sync+0x2a>
    42ae:	6e c0       	rjmp	.+220    	; 0x438c <sync+0x106>
			fs->winsect = 0;
    42b0:	1c a6       	std	Y+44, r1	; 0x2c
    42b2:	1d a6       	std	Y+45, r1	; 0x2d
    42b4:	1e a6       	std	Y+46, r1	; 0x2e
    42b6:	1f a6       	std	Y+47, r1	; 0x2f
}

/* Fill memory */
static
void mem_set (void* dst, int val, int cnt) {
	char *d = (char*)dst;
    42b8:	be 01       	movw	r22, r28
    42ba:	60 5d       	subi	r22, 0xD0	; 208
    42bc:	7f 4f       	sbci	r23, 0xFF	; 255
    42be:	fb 01       	movw	r30, r22
    42c0:	80 e0       	ldi	r24, 0x00	; 0
    42c2:	92 e0       	ldi	r25, 0x02	; 2
    42c4:	01 c0       	rjmp	.+2      	; 0x42c8 <sync+0x42>
	while (cnt--) *d++ = (char)val;
    42c6:	11 92       	st	Z+, r1
    42c8:	01 97       	sbiw	r24, 0x01	; 1
    42ca:	2f ef       	ldi	r18, 0xFF	; 255
    42cc:	8f 3f       	cpi	r24, 0xFF	; 255
    42ce:	92 07       	cpc	r25, r18
    42d0:	d1 f7       	brne	.-12     	; 0x42c6 <sync+0x40>
	if (res == FR_OK) {
		/* Update FSInfo sector if needed */
		if (fs->fs_type == FS_FAT32 && fs->fsi_flag) {
			fs->winsect = 0;
			mem_set(fs->win, 0, 512);
			ST_WORD(fs->win+BS_55AA, 0xAA55);
    42d2:	c2 5d       	subi	r28, 0xD2	; 210
    42d4:	dd 4f       	sbci	r29, 0xFD	; 253
    42d6:	85 e5       	ldi	r24, 0x55	; 85
    42d8:	89 93       	st	Y+, r24
    42da:	8a ea       	ldi	r24, 0xAA	; 170
    42dc:	88 83       	st	Y, r24
    42de:	cf 52       	subi	r28, 0x2F	; 47
    42e0:	d2 40       	sbci	r29, 0x02	; 2
			ST_DWORD(fs->win+FSI_LeadSig, 0x41615252);
    42e2:	82 e5       	ldi	r24, 0x52	; 82
    42e4:	88 ab       	std	Y+48, r24	; 0x30
    42e6:	89 ab       	std	Y+49, r24	; 0x31
    42e8:	21 e6       	ldi	r18, 0x61	; 97
    42ea:	2a ab       	std	Y+50, r18	; 0x32
    42ec:	91 e4       	ldi	r25, 0x41	; 65
    42ee:	9b ab       	std	Y+51, r25	; 0x33
			ST_DWORD(fs->win+FSI_StrucSig, 0x61417272);
    42f0:	cc 5e       	subi	r28, 0xEC	; 236
    42f2:	dd 4f       	sbci	r29, 0xFD	; 253
    42f4:	82 e7       	ldi	r24, 0x72	; 114
    42f6:	89 93       	st	Y+, r24
    42f8:	89 93       	st	Y+, r24
    42fa:	99 93       	st	Y+, r25
    42fc:	28 83       	st	Y, r18
    42fe:	c7 51       	subi	r28, 0x17	; 23
    4300:	d2 40       	sbci	r29, 0x02	; 2
			ST_DWORD(fs->win+FSI_Free_Count, fs->free_clust);
    4302:	88 89       	ldd	r24, Y+16	; 0x10
    4304:	c8 5e       	subi	r28, 0xE8	; 232
    4306:	dd 4f       	sbci	r29, 0xFD	; 253
    4308:	88 83       	st	Y, r24
    430a:	c8 51       	subi	r28, 0x18	; 24
    430c:	d2 40       	sbci	r29, 0x02	; 2
    430e:	89 89       	ldd	r24, Y+17	; 0x11
    4310:	c7 5e       	subi	r28, 0xE7	; 231
    4312:	dd 4f       	sbci	r29, 0xFD	; 253
    4314:	88 83       	st	Y, r24
    4316:	c9 51       	subi	r28, 0x19	; 25
    4318:	d2 40       	sbci	r29, 0x02	; 2
    431a:	88 89       	ldd	r24, Y+16	; 0x10
    431c:	99 89       	ldd	r25, Y+17	; 0x11
    431e:	aa 89       	ldd	r26, Y+18	; 0x12
    4320:	bb 89       	ldd	r27, Y+19	; 0x13
    4322:	9d 01       	movw	r18, r26
    4324:	44 27       	eor	r20, r20
    4326:	55 27       	eor	r21, r21
    4328:	c6 5e       	subi	r28, 0xE6	; 230
    432a:	dd 4f       	sbci	r29, 0xFD	; 253
    432c:	28 83       	st	Y, r18
    432e:	21 96       	adiw	r28, 0x01	; 1
    4330:	8b 2f       	mov	r24, r27
    4332:	99 27       	eor	r25, r25
    4334:	aa 27       	eor	r26, r26
    4336:	bb 27       	eor	r27, r27
    4338:	88 83       	st	Y, r24
    433a:	cb 51       	subi	r28, 0x1B	; 27
    433c:	d2 40       	sbci	r29, 0x02	; 2
			ST_DWORD(fs->win+FSI_Nxt_Free, fs->last_clust);
    433e:	8c 85       	ldd	r24, Y+12	; 0x0c
    4340:	c4 5e       	subi	r28, 0xE4	; 228
    4342:	dd 4f       	sbci	r29, 0xFD	; 253
    4344:	88 83       	st	Y, r24
    4346:	cc 51       	subi	r28, 0x1C	; 28
    4348:	d2 40       	sbci	r29, 0x02	; 2
    434a:	8d 85       	ldd	r24, Y+13	; 0x0d
    434c:	c3 5e       	subi	r28, 0xE3	; 227
    434e:	dd 4f       	sbci	r29, 0xFD	; 253
    4350:	88 83       	st	Y, r24
    4352:	cd 51       	subi	r28, 0x1D	; 29
    4354:	d2 40       	sbci	r29, 0x02	; 2
    4356:	8c 85       	ldd	r24, Y+12	; 0x0c
    4358:	9d 85       	ldd	r25, Y+13	; 0x0d
    435a:	ae 85       	ldd	r26, Y+14	; 0x0e
    435c:	bf 85       	ldd	r27, Y+15	; 0x0f
    435e:	9d 01       	movw	r18, r26
    4360:	44 27       	eor	r20, r20
    4362:	55 27       	eor	r21, r21
    4364:	c2 5e       	subi	r28, 0xE2	; 226
    4366:	dd 4f       	sbci	r29, 0xFD	; 253
    4368:	28 83       	st	Y, r18
    436a:	21 96       	adiw	r28, 0x01	; 1
    436c:	8b 2f       	mov	r24, r27
    436e:	99 27       	eor	r25, r25
    4370:	aa 27       	eor	r26, r26
    4372:	bb 27       	eor	r27, r27
    4374:	88 83       	st	Y, r24
    4376:	cf 51       	subi	r28, 0x1F	; 31
    4378:	d2 40       	sbci	r29, 0x02	; 2
			disk_write(fs->drive, fs->win, fs->fsi_sector, 1);
    437a:	2c 89       	ldd	r18, Y+20	; 0x14
    437c:	3d 89       	ldd	r19, Y+21	; 0x15
    437e:	4e 89       	ldd	r20, Y+22	; 0x16
    4380:	5f 89       	ldd	r21, Y+23	; 0x17
    4382:	89 81       	ldd	r24, Y+1	; 0x01
    4384:	01 e0       	ldi	r16, 0x01	; 1
    4386:	0e 94 6b 03 	call	0x6d6	; 0x6d6 <disk_write>
			fs->fsi_flag = 0;
    438a:	1a 86       	std	Y+10, r1	; 0x0a
		}
		/* Make sure that no pending write process in the physical drive */
		if (disk_ioctl(fs->drive, CTRL_SYNC, (void*)NULL) != RES_OK)
    438c:	89 81       	ldd	r24, Y+1	; 0x01
    438e:	60 e0       	ldi	r22, 0x00	; 0
    4390:	40 e0       	ldi	r20, 0x00	; 0
    4392:	50 e0       	ldi	r21, 0x00	; 0
    4394:	0e 94 db 03 	call	0x7b6	; 0x7b6 <disk_ioctl>
    4398:	81 11       	cpse	r24, r1
    439a:	81 e0       	ldi	r24, 0x01	; 1
			res = FR_DISK_ERR;
	}

	return res;
}
    439c:	df 91       	pop	r29
    439e:	cf 91       	pop	r28
    43a0:	0f 91       	pop	r16
    43a2:	08 95       	ret

000043a4 <f_rename>:

FRESULT f_rename (
	const char *path_old,	/* Pointer to the old name */
	const char *path_new	/* Pointer to the new name */
)
{
    43a4:	af 92       	push	r10
    43a6:	bf 92       	push	r11
    43a8:	cf 92       	push	r12
    43aa:	df 92       	push	r13
    43ac:	ef 92       	push	r14
    43ae:	ff 92       	push	r15
    43b0:	0f 93       	push	r16
    43b2:	1f 93       	push	r17
    43b4:	df 93       	push	r29
    43b6:	cf 93       	push	r28
    43b8:	cd b7       	in	r28, 0x3d	; 61
    43ba:	de b7       	in	r29, 0x3e	; 62
    43bc:	c7 55       	subi	r28, 0x57	; 87
    43be:	d0 40       	sbci	r29, 0x00	; 0
    43c0:	0f b6       	in	r0, 0x3f	; 63
    43c2:	f8 94       	cli
    43c4:	de bf       	out	0x3e, r29	; 62
    43c6:	0f be       	out	0x3f, r0	; 63
    43c8:	cd bf       	out	0x3d, r28	; 61
    43ca:	8e 01       	movw	r16, r28
    43cc:	0a 5a       	subi	r16, 0xAA	; 170
    43ce:	1f 4f       	sbci	r17, 0xFF	; 255
    43d0:	d8 01       	movw	r26, r16
    43d2:	8d 93       	st	X+, r24
    43d4:	9c 93       	st	X, r25
    43d6:	6b 01       	movw	r12, r22
	NAMEBUF(sfn, lfn);
	BYTE buf[21], *dir;
	DWORD dw;


	INITBUF(dj_old, sfn, lfn);
    43d8:	ce 01       	movw	r24, r28
    43da:	01 96       	adiw	r24, 0x01	; 1
    43dc:	9f ab       	std	Y+55, r25	; 0x37
    43de:	8e ab       	std	Y+54, r24	; 0x36
    43e0:	86 e9       	ldi	r24, 0x96	; 150
    43e2:	94 e0       	ldi	r25, 0x04	; 4
    43e4:	99 af       	std	Y+57, r25	; 0x39
    43e6:	88 af       	std	Y+56, r24	; 0x38
	res = auto_mount(&path_old, &dj_old.fs, 1);
    43e8:	82 e2       	ldi	r24, 0x22	; 34
    43ea:	e8 2e       	mov	r14, r24
    43ec:	f1 2c       	mov	r15, r1
    43ee:	ec 0e       	add	r14, r28
    43f0:	fd 1e       	adc	r15, r29
    43f2:	c8 01       	movw	r24, r16
    43f4:	be 01       	movw	r22, r28
    43f6:	6a 5d       	subi	r22, 0xDA	; 218
    43f8:	7f 4f       	sbci	r23, 0xFF	; 255
    43fa:	41 e0       	ldi	r20, 0x01	; 1
    43fc:	0e 94 d2 07 	call	0xfa4	; 0xfa4 <auto_mount>
	if (res == FR_OK) {
    4400:	88 23       	and	r24, r24
    4402:	09 f0       	breq	.+2      	; 0x4406 <f_rename+0x62>
    4404:	03 c1       	rjmp	.+518    	; 0x460c <f_rename+0x268>
		dj_new.fs = dj_old.fs;
    4406:	8e a1       	ldd	r24, Y+38	; 0x26
    4408:	9f a1       	ldd	r25, Y+39	; 0x27
    440a:	fe 01       	movw	r30, r28
    440c:	e0 5c       	subi	r30, 0xC0	; 192
    440e:	ff 4f       	sbci	r31, 0xFF	; 255
    4410:	91 83       	std	Z+1, r25	; 0x01
    4412:	80 83       	st	Z, r24
		res = follow_path(&dj_old, path_old);	/* Check old object */
    4414:	f8 01       	movw	r30, r16
    4416:	60 81       	ld	r22, Z
    4418:	71 81       	ldd	r23, Z+1	; 0x01
    441a:	c7 01       	movw	r24, r14
    441c:	0e 94 54 15 	call	0x2aa8	; 0x2aa8 <follow_path>
	}
	if (res != FR_OK) LEAVE_FF(dj_old.fs, res);	/* The old object is not found */
    4420:	88 23       	and	r24, r24
    4422:	09 f0       	breq	.+2      	; 0x4426 <f_rename+0x82>
    4424:	f3 c0       	rjmp	.+486    	; 0x460c <f_rename+0x268>

	if (!dj_old.dir) LEAVE_FF(dj_old.fs, FR_NO_FILE);	/* Is root dir? */
    4426:	8c a9       	ldd	r24, Y+52	; 0x34
    4428:	9d a9       	ldd	r25, Y+53	; 0x35
    442a:	00 97       	sbiw	r24, 0x00	; 0
    442c:	11 f4       	brne	.+4      	; 0x4432 <f_rename+0x8e>
    442e:	84 e0       	ldi	r24, 0x04	; 4
    4430:	ed c0       	rjmp	.+474    	; 0x460c <f_rename+0x268>
    4432:	dc 01       	movw	r26, r24
    4434:	fe 01       	movw	r30, r28
    4436:	3d 96       	adiw	r30, 0x0d	; 13
    4438:	04 c0       	rjmp	.+8      	; 0x4442 <f_rename+0x9e>
/* Copy memory to memory */
static
void mem_cpy (void* dst, const void* src, int cnt) {
	char *d = (char*)dst;
	const char *s = (const char *)src;
	while (cnt--) *d++ = *s++;
    443a:	1a 96       	adiw	r26, 0x0a	; 10
    443c:	8c 91       	ld	r24, X
    443e:	1a 97       	sbiw	r26, 0x0a	; 10
    4440:	81 93       	st	Z+, r24
    4442:	11 96       	adiw	r26, 0x01	; 1
    4444:	ee 15       	cp	r30, r14
    4446:	ff 05       	cpc	r31, r15
    4448:	c1 f7       	brne	.-16     	; 0x443a <f_rename+0x96>
/*-----------------------------------------------------------------------*/

/* Copy memory to memory */
static
void mem_cpy (void* dst, const void* src, int cnt) {
	char *d = (char*)dst;
    444a:	de 01       	movw	r26, r28
    444c:	dc 96       	adiw	r26, 0x3c	; 60
	const char *s = (const char *)src;
    444e:	f7 01       	movw	r30, r14
	while (cnt--) *d++ = *s++;
    4450:	9d 01       	movw	r18, r26
    4452:	02 c0       	rjmp	.+4      	; 0x4458 <f_rename+0xb4>
    4454:	81 91       	ld	r24, Z+
    4456:	8d 93       	st	X+, r24
    4458:	e2 17       	cp	r30, r18
    445a:	f3 07       	cpc	r31, r19
    445c:	d9 f7       	brne	.-10     	; 0x4454 <f_rename+0xb0>

	if (!dj_old.dir) LEAVE_FF(dj_old.fs, FR_NO_FILE);	/* Is root dir? */
	mem_cpy(buf, dj_old.dir+DIR_Attr, 21);		/* Save the object information */

	mem_cpy(&dj_new, &dj_old, sizeof(DIR));
	res = follow_path(&dj_new, path_new);		/* Check new object */
    445e:	8e 01       	movw	r16, r28
    4460:	04 5c       	subi	r16, 0xC4	; 196
    4462:	1f 4f       	sbci	r17, 0xFF	; 255
    4464:	c8 01       	movw	r24, r16
    4466:	b6 01       	movw	r22, r12
    4468:	0e 94 54 15 	call	0x2aa8	; 0x2aa8 <follow_path>
	if (res == FR_OK) res = FR_EXIST;			/* The new object name is already existing */
    446c:	88 23       	and	r24, r24
    446e:	11 f4       	brne	.+4      	; 0x4474 <f_rename+0xd0>
    4470:	88 e0       	ldi	r24, 0x08	; 8
    4472:	cc c0       	rjmp	.+408    	; 0x460c <f_rename+0x268>
	if (res == FR_NO_FILE) { 					/* Is it a valid path and no name collision? */
    4474:	84 30       	cpi	r24, 0x04	; 4
    4476:	09 f0       	breq	.+2      	; 0x447a <f_rename+0xd6>
    4478:	c9 c0       	rjmp	.+402    	; 0x460c <f_rename+0x268>
		res = dir_register(&dj_new);			/* Register the new object */
    447a:	c8 01       	movw	r24, r16
    447c:	0e 94 34 18 	call	0x3068	; 0x3068 <dir_register>
		if (res == FR_OK) {
    4480:	88 23       	and	r24, r24
    4482:	09 f0       	breq	.+2      	; 0x4486 <f_rename+0xe2>
    4484:	c3 c0       	rjmp	.+390    	; 0x460c <f_rename+0x268>
			dir = dj_new.dir;					/* Copy object information into new entry */
    4486:	fe 01       	movw	r30, r28
    4488:	e2 5b       	subi	r30, 0xB2	; 178
    448a:	ff 4f       	sbci	r31, 0xFF	; 255
    448c:	40 81       	ld	r20, Z
    448e:	51 81       	ldd	r21, Z+1	; 0x01
    4490:	da 01       	movw	r26, r20
    4492:	fe 01       	movw	r30, r28
    4494:	3f 96       	adiw	r30, 0x0f	; 15
    4496:	04 c0       	rjmp	.+8      	; 0x44a0 <f_rename+0xfc>
/* Copy memory to memory */
static
void mem_cpy (void* dst, const void* src, int cnt) {
	char *d = (char*)dst;
	const char *s = (const char *)src;
	while (cnt--) *d++ = *s++;
    4498:	81 91       	ld	r24, Z+
    449a:	1c 96       	adiw	r26, 0x0c	; 12
    449c:	8c 93       	st	X, r24
    449e:	1c 97       	sbiw	r26, 0x0c	; 12
    44a0:	11 96       	adiw	r26, 0x01	; 1
    44a2:	ee 15       	cp	r30, r14
    44a4:	ff 05       	cpc	r31, r15
    44a6:	c1 f7       	brne	.-16     	; 0x4498 <f_rename+0xf4>
	if (res == FR_NO_FILE) { 					/* Is it a valid path and no name collision? */
		res = dir_register(&dj_new);			/* Register the new object */
		if (res == FR_OK) {
			dir = dj_new.dir;					/* Copy object information into new entry */
			mem_cpy(dir+13, buf+2, 19);
			dir[DIR_Attr] = buf[0];
    44a8:	8d 85       	ldd	r24, Y+13	; 0x0d
    44aa:	da 01       	movw	r26, r20
    44ac:	1b 96       	adiw	r26, 0x0b	; 11
    44ae:	8c 93       	st	X, r24
    44b0:	1b 97       	sbiw	r26, 0x0b	; 11
			dj_old.fs->wflag = 1;
    44b2:	ee a1       	ldd	r30, Y+38	; 0x26
    44b4:	ff a1       	ldd	r31, Y+39	; 0x27
    44b6:	81 e0       	ldi	r24, 0x01	; 1
    44b8:	84 83       	std	Z+4, r24	; 0x04
			if (dir[DIR_Attr] & AM_DIR) {		/* Update .. entry in the directory if needed */
    44ba:	1b 96       	adiw	r26, 0x0b	; 11
    44bc:	8c 91       	ld	r24, X
    44be:	1b 97       	sbiw	r26, 0x0b	; 11
    44c0:	84 ff       	sbrs	r24, 4
    44c2:	98 c0       	rjmp	.+304    	; 0x45f4 <f_rename+0x250>
				dw = clust2sect(dj_new.fs, (DWORD)LD_WORD(dir+DIR_FstClusHI) | LD_WORD(dir+DIR_FstClusLO));
    44c4:	10 e4       	ldi	r17, 0x40	; 64
    44c6:	a1 2e       	mov	r10, r17
    44c8:	b1 2c       	mov	r11, r1
    44ca:	ac 0e       	add	r10, r28
    44cc:	bd 1e       	adc	r11, r29
    44ce:	f5 01       	movw	r30, r10
    44d0:	c0 80       	ld	r12, Z
    44d2:	d1 80       	ldd	r13, Z+1	; 0x01
DWORD clust2sect (	/* !=0: sector number, 0: failed - invalid cluster# */
	FATFS *fs,		/* File system object */
	DWORD clst		/* Cluster# to be converted */
)
{
	clst -= 2;
    44d4:	5a 96       	adiw	r26, 0x1a	; 26
    44d6:	2c 91       	ld	r18, X
    44d8:	5a 97       	sbiw	r26, 0x1a	; 26
    44da:	30 e0       	ldi	r19, 0x00	; 0
    44dc:	54 96       	adiw	r26, 0x14	; 20
    44de:	8c 91       	ld	r24, X
    44e0:	54 97       	sbiw	r26, 0x14	; 20
    44e2:	90 e0       	ldi	r25, 0x00	; 0
    44e4:	28 2b       	or	r18, r24
    44e6:	39 2b       	or	r19, r25
    44e8:	55 96       	adiw	r26, 0x15	; 21
    44ea:	9c 91       	ld	r25, X
    44ec:	55 97       	sbiw	r26, 0x15	; 21
    44ee:	80 e0       	ldi	r24, 0x00	; 0
    44f0:	28 2b       	or	r18, r24
    44f2:	39 2b       	or	r19, r25
    44f4:	5b 96       	adiw	r26, 0x1b	; 27
    44f6:	9c 91       	ld	r25, X
    44f8:	80 e0       	ldi	r24, 0x00	; 0
    44fa:	28 2b       	or	r18, r24
    44fc:	39 2b       	or	r19, r25
    44fe:	79 01       	movw	r14, r18
    4500:	00 e0       	ldi	r16, 0x00	; 0
    4502:	10 e0       	ldi	r17, 0x00	; 0
    4504:	8e ef       	ldi	r24, 0xFE	; 254
    4506:	9f ef       	ldi	r25, 0xFF	; 255
    4508:	af ef       	ldi	r26, 0xFF	; 255
    450a:	bf ef       	ldi	r27, 0xFF	; 255
    450c:	e8 0e       	add	r14, r24
    450e:	f9 1e       	adc	r15, r25
    4510:	0a 1f       	adc	r16, r26
    4512:	1b 1f       	adc	r17, r27
	if (clst >= (fs->max_clust - 2)) return 0;		/* Invalid cluster# */
    4514:	f6 01       	movw	r30, r12
    4516:	84 8d       	ldd	r24, Z+28	; 0x1c
    4518:	95 8d       	ldd	r25, Z+29	; 0x1d
    451a:	a6 8d       	ldd	r26, Z+30	; 0x1e
    451c:	b7 8d       	ldd	r27, Z+31	; 0x1f
    451e:	02 97       	sbiw	r24, 0x02	; 2
    4520:	a1 09       	sbc	r26, r1
    4522:	b1 09       	sbc	r27, r1
    4524:	e8 16       	cp	r14, r24
    4526:	f9 06       	cpc	r15, r25
    4528:	0a 07       	cpc	r16, r26
    452a:	1b 07       	cpc	r17, r27
    452c:	08 f0       	brcs	.+2      	; 0x4530 <f_rename+0x18c>
    452e:	6d c0       	rjmp	.+218    	; 0x460a <f_rename+0x266>
	return clst * fs->csize + fs->database;
    4530:	22 81       	ldd	r18, Z+2	; 0x02
    4532:	30 e0       	ldi	r19, 0x00	; 0
    4534:	40 e0       	ldi	r20, 0x00	; 0
    4536:	50 e0       	ldi	r21, 0x00	; 0
    4538:	c8 01       	movw	r24, r16
    453a:	b7 01       	movw	r22, r14
    453c:	0e 94 2e 28 	call	0x505c	; 0x505c <__mulsi3>
    4540:	ab 01       	movw	r20, r22
    4542:	bc 01       	movw	r22, r24
    4544:	f6 01       	movw	r30, r12
    4546:	80 a5       	ldd	r24, Z+40	; 0x28
    4548:	91 a5       	ldd	r25, Z+41	; 0x29
    454a:	a2 a5       	ldd	r26, Z+42	; 0x2a
    454c:	b3 a5       	ldd	r27, Z+43	; 0x2b
    454e:	48 0f       	add	r20, r24
    4550:	59 1f       	adc	r21, r25
    4552:	6a 1f       	adc	r22, r26
    4554:	7b 1f       	adc	r23, r27
			mem_cpy(dir+13, buf+2, 19);
			dir[DIR_Attr] = buf[0];
			dj_old.fs->wflag = 1;
			if (dir[DIR_Attr] & AM_DIR) {		/* Update .. entry in the directory if needed */
				dw = clust2sect(dj_new.fs, (DWORD)LD_WORD(dir+DIR_FstClusHI) | LD_WORD(dir+DIR_FstClusLO));
				if (!dw) {
    4556:	41 15       	cp	r20, r1
    4558:	51 05       	cpc	r21, r1
    455a:	61 05       	cpc	r22, r1
    455c:	71 05       	cpc	r23, r1
    455e:	09 f4       	brne	.+2      	; 0x4562 <f_rename+0x1be>
    4560:	54 c0       	rjmp	.+168    	; 0x460a <f_rename+0x266>
					res = FR_INT_ERR;
				} else {
					res = move_window(dj_new.fs, dw);
    4562:	c6 01       	movw	r24, r12
    4564:	0e 94 90 0b 	call	0x1720	; 0x1720 <move_window>
					dir = dj_new.fs->win+32;
    4568:	f5 01       	movw	r30, r10
    456a:	a0 81       	ld	r26, Z
    456c:	b1 81       	ldd	r27, Z+1	; 0x01
					if (res == FR_OK && dir[1] == '.') {
    456e:	88 23       	and	r24, r24
    4570:	09 f0       	breq	.+2      	; 0x4574 <f_rename+0x1d0>
    4572:	4c c0       	rjmp	.+152    	; 0x460c <f_rename+0x268>
				dw = clust2sect(dj_new.fs, (DWORD)LD_WORD(dir+DIR_FstClusHI) | LD_WORD(dir+DIR_FstClusLO));
				if (!dw) {
					res = FR_INT_ERR;
				} else {
					res = move_window(dj_new.fs, dw);
					dir = dj_new.fs->win+32;
    4574:	bd 01       	movw	r22, r26
    4576:	60 5b       	subi	r22, 0xB0	; 176
    4578:	7f 4f       	sbci	r23, 0xFF	; 255
					if (res == FR_OK && dir[1] == '.') {
    457a:	fb 01       	movw	r30, r22
    457c:	81 81       	ldd	r24, Z+1	; 0x01
    457e:	8e 32       	cpi	r24, 0x2E	; 46
    4580:	c9 f5       	brne	.+114    	; 0x45f4 <f_rename+0x250>
						dw = (dj_new.fs->fs_type == FS_FAT32 && dj_new.sclust == dj_new.fs->dirbase) ? 0 : dj_new.sclust;
    4582:	8c 91       	ld	r24, X
    4584:	83 30       	cpi	r24, 0x03	; 3
    4586:	b9 f4       	brne	.+46     	; 0x45b6 <f_rename+0x212>
    4588:	fe 01       	movw	r30, r28
    458a:	ee 5b       	subi	r30, 0xBE	; 190
    458c:	ff 4f       	sbci	r31, 0xFF	; 255
    458e:	20 81       	ld	r18, Z
    4590:	31 81       	ldd	r19, Z+1	; 0x01
    4592:	42 81       	ldd	r20, Z+2	; 0x02
    4594:	53 81       	ldd	r21, Z+3	; 0x03
    4596:	94 96       	adiw	r26, 0x24	; 36
    4598:	8d 91       	ld	r24, X+
    459a:	9d 91       	ld	r25, X+
    459c:	0d 90       	ld	r0, X+
    459e:	bc 91       	ld	r27, X
    45a0:	a0 2d       	mov	r26, r0
    45a2:	28 17       	cp	r18, r24
    45a4:	39 07       	cpc	r19, r25
    45a6:	4a 07       	cpc	r20, r26
    45a8:	5b 07       	cpc	r21, r27
    45aa:	29 f4       	brne	.+10     	; 0x45b6 <f_rename+0x212>
    45ac:	20 e0       	ldi	r18, 0x00	; 0
    45ae:	30 e0       	ldi	r19, 0x00	; 0
    45b0:	40 e0       	ldi	r20, 0x00	; 0
    45b2:	50 e0       	ldi	r21, 0x00	; 0
    45b4:	07 c0       	rjmp	.+14     	; 0x45c4 <f_rename+0x220>
    45b6:	fe 01       	movw	r30, r28
    45b8:	ee 5b       	subi	r30, 0xBE	; 190
    45ba:	ff 4f       	sbci	r31, 0xFF	; 255
    45bc:	20 81       	ld	r18, Z
    45be:	31 81       	ldd	r19, Z+1	; 0x01
    45c0:	42 81       	ldd	r20, Z+2	; 0x02
    45c2:	53 81       	ldd	r21, Z+3	; 0x03
						ST_WORD(dir+DIR_FstClusLO, dw);
    45c4:	db 01       	movw	r26, r22
    45c6:	5a 96       	adiw	r26, 0x1a	; 26
    45c8:	2c 93       	st	X, r18
    45ca:	5a 97       	sbiw	r26, 0x1a	; 26
    45cc:	83 2f       	mov	r24, r19
    45ce:	99 27       	eor	r25, r25
    45d0:	5b 96       	adiw	r26, 0x1b	; 27
    45d2:	8c 93       	st	X, r24
						ST_WORD(dir+DIR_FstClusHI, dw >> 16);
    45d4:	ca 01       	movw	r24, r20
    45d6:	aa 27       	eor	r26, r26
    45d8:	bb 27       	eor	r27, r27
    45da:	fb 01       	movw	r30, r22
    45dc:	84 8b       	std	Z+20, r24	; 0x14
    45de:	89 2f       	mov	r24, r25
    45e0:	99 27       	eor	r25, r25
    45e2:	85 8b       	std	Z+21, r24	; 0x15
						dj_new.fs->wflag = 1;
    45e4:	fe 01       	movw	r30, r28
    45e6:	e0 5c       	subi	r30, 0xC0	; 192
    45e8:	ff 4f       	sbci	r31, 0xFF	; 255
    45ea:	01 90       	ld	r0, Z+
    45ec:	f0 81       	ld	r31, Z
    45ee:	e0 2d       	mov	r30, r0
    45f0:	81 e0       	ldi	r24, 0x01	; 1
    45f2:	84 83       	std	Z+4, r24	; 0x04
					}
				}
			}
			if (res == FR_OK) {
				res = dir_remove(&dj_old);			/* Remove old entry */
    45f4:	ce 01       	movw	r24, r28
    45f6:	82 96       	adiw	r24, 0x22	; 34
    45f8:	0e 94 d5 19 	call	0x33aa	; 0x33aa <dir_remove>
				if (res == FR_OK)
    45fc:	88 23       	and	r24, r24
    45fe:	31 f4       	brne	.+12     	; 0x460c <f_rename+0x268>
					res = sync(dj_old.fs);
    4600:	8e a1       	ldd	r24, Y+38	; 0x26
    4602:	9f a1       	ldd	r25, Y+39	; 0x27
    4604:	0e 94 43 21 	call	0x4286	; 0x4286 <sync>
    4608:	01 c0       	rjmp	.+2      	; 0x460c <f_rename+0x268>
    460a:	82 e0       	ldi	r24, 0x02	; 2
			}
		}
	}

	LEAVE_FF(dj_old.fs, res);
}
    460c:	c9 5a       	subi	r28, 0xA9	; 169
    460e:	df 4f       	sbci	r29, 0xFF	; 255
    4610:	0f b6       	in	r0, 0x3f	; 63
    4612:	f8 94       	cli
    4614:	de bf       	out	0x3e, r29	; 62
    4616:	0f be       	out	0x3f, r0	; 63
    4618:	cd bf       	out	0x3d, r28	; 61
    461a:	cf 91       	pop	r28
    461c:	df 91       	pop	r29
    461e:	1f 91       	pop	r17
    4620:	0f 91       	pop	r16
    4622:	ff 90       	pop	r15
    4624:	ef 90       	pop	r14
    4626:	df 90       	pop	r13
    4628:	cf 90       	pop	r12
    462a:	bf 90       	pop	r11
    462c:	af 90       	pop	r10
    462e:	08 95       	ret

00004630 <f_utime>:

FRESULT f_utime (
	const char *path,	/* Pointer to the file/directory name */
	const FILINFO *fno	/* Pointer to the timestamp to be set */
)
{
    4630:	0f 93       	push	r16
    4632:	1f 93       	push	r17
    4634:	df 93       	push	r29
    4636:	cf 93       	push	r28
    4638:	cd b7       	in	r28, 0x3d	; 61
    463a:	de b7       	in	r29, 0x3e	; 62
    463c:	a8 97       	sbiw	r28, 0x28	; 40
    463e:	0f b6       	in	r0, 0x3f	; 63
    4640:	f8 94       	cli
    4642:	de bf       	out	0x3e, r29	; 62
    4644:	0f be       	out	0x3f, r0	; 63
    4646:	cd bf       	out	0x3d, r28	; 61
    4648:	98 a7       	std	Y+40, r25	; 0x28
    464a:	8f a3       	std	Y+39, r24	; 0x27
    464c:	8b 01       	movw	r16, r22
	DIR dj;
	NAMEBUF(sfn, lfn);
	BYTE *dir;


	res = auto_mount(&path, &dj.fs, 1);
    464e:	ce 01       	movw	r24, r28
    4650:	87 96       	adiw	r24, 0x27	; 39
    4652:	be 01       	movw	r22, r28
    4654:	6f 5e       	subi	r22, 0xEF	; 239
    4656:	7f 4f       	sbci	r23, 0xFF	; 255
    4658:	41 e0       	ldi	r20, 0x01	; 1
    465a:	0e 94 d2 07 	call	0xfa4	; 0xfa4 <auto_mount>
	if (res == FR_OK) {
    465e:	88 23       	and	r24, r24
    4660:	71 f5       	brne	.+92     	; 0x46be <f_utime+0x8e>
		INITBUF(dj, sfn, lfn);
    4662:	ce 01       	movw	r24, r28
    4664:	01 96       	adiw	r24, 0x01	; 1
    4666:	9a a3       	std	Y+34, r25	; 0x22
    4668:	89 a3       	std	Y+33, r24	; 0x21
    466a:	86 e9       	ldi	r24, 0x96	; 150
    466c:	94 e0       	ldi	r25, 0x04	; 4
    466e:	9c a3       	std	Y+36, r25	; 0x24
    4670:	8b a3       	std	Y+35, r24	; 0x23
		res = follow_path(&dj, path);	/* Follow the file path */
    4672:	6f a1       	ldd	r22, Y+39	; 0x27
    4674:	78 a5       	ldd	r23, Y+40	; 0x28
    4676:	ce 01       	movw	r24, r28
    4678:	0d 96       	adiw	r24, 0x0d	; 13
    467a:	0e 94 54 15 	call	0x2aa8	; 0x2aa8 <follow_path>
		if (res == FR_OK) {
    467e:	88 23       	and	r24, r24
    4680:	f1 f4       	brne	.+60     	; 0x46be <f_utime+0x8e>
			dir = dj.dir;
    4682:	ef 8d       	ldd	r30, Y+31	; 0x1f
    4684:	f8 a1       	ldd	r31, Y+32	; 0x20
			if (!dir) {				/* Root directory */
    4686:	30 97       	sbiw	r30, 0x00	; 0
    4688:	11 f4       	brne	.+4      	; 0x468e <f_utime+0x5e>
    468a:	86 e0       	ldi	r24, 0x06	; 6
    468c:	18 c0       	rjmp	.+48     	; 0x46be <f_utime+0x8e>
				res = FR_INVALID_NAME;
			} else {				/* File or sub-directory */
				ST_WORD(dir+DIR_WrtTime, fno->ftime);
    468e:	d8 01       	movw	r26, r16
    4690:	16 96       	adiw	r26, 0x06	; 6
    4692:	8c 91       	ld	r24, X
    4694:	16 97       	sbiw	r26, 0x06	; 6
    4696:	86 8b       	std	Z+22, r24	; 0x16
    4698:	17 96       	adiw	r26, 0x07	; 7
    469a:	8c 91       	ld	r24, X
    469c:	17 97       	sbiw	r26, 0x07	; 7
    469e:	87 8b       	std	Z+23, r24	; 0x17
				ST_WORD(dir+DIR_WrtDate, fno->fdate);
    46a0:	14 96       	adiw	r26, 0x04	; 4
    46a2:	8c 91       	ld	r24, X
    46a4:	14 97       	sbiw	r26, 0x04	; 4
    46a6:	80 8f       	std	Z+24, r24	; 0x18
    46a8:	15 96       	adiw	r26, 0x05	; 5
    46aa:	8c 91       	ld	r24, X
    46ac:	81 8f       	std	Z+25, r24	; 0x19
				dj.fs->wflag = 1;
    46ae:	e9 89       	ldd	r30, Y+17	; 0x11
    46b0:	fa 89       	ldd	r31, Y+18	; 0x12
    46b2:	81 e0       	ldi	r24, 0x01	; 1
    46b4:	84 83       	std	Z+4, r24	; 0x04
				res = sync(dj.fs);
    46b6:	89 89       	ldd	r24, Y+17	; 0x11
    46b8:	9a 89       	ldd	r25, Y+18	; 0x12
    46ba:	0e 94 43 21 	call	0x4286	; 0x4286 <sync>
			}
		}
	}

	LEAVE_FF(dj.fs, res);
}
    46be:	a8 96       	adiw	r28, 0x28	; 40
    46c0:	0f b6       	in	r0, 0x3f	; 63
    46c2:	f8 94       	cli
    46c4:	de bf       	out	0x3e, r29	; 62
    46c6:	0f be       	out	0x3f, r0	; 63
    46c8:	cd bf       	out	0x3d, r28	; 61
    46ca:	cf 91       	pop	r28
    46cc:	df 91       	pop	r29
    46ce:	1f 91       	pop	r17
    46d0:	0f 91       	pop	r16
    46d2:	08 95       	ret

000046d4 <f_chmod>:
FRESULT f_chmod (
	const char *path,	/* Pointer to the file path */
	BYTE value,			/* Attribute bits */
	BYTE mask			/* Attribute mask to change */
)
{
    46d4:	0f 93       	push	r16
    46d6:	1f 93       	push	r17
    46d8:	df 93       	push	r29
    46da:	cf 93       	push	r28
    46dc:	cd b7       	in	r28, 0x3d	; 61
    46de:	de b7       	in	r29, 0x3e	; 62
    46e0:	a8 97       	sbiw	r28, 0x28	; 40
    46e2:	0f b6       	in	r0, 0x3f	; 63
    46e4:	f8 94       	cli
    46e6:	de bf       	out	0x3e, r29	; 62
    46e8:	0f be       	out	0x3f, r0	; 63
    46ea:	cd bf       	out	0x3d, r28	; 61
    46ec:	98 a7       	std	Y+40, r25	; 0x28
    46ee:	8f a3       	std	Y+39, r24	; 0x27
    46f0:	06 2f       	mov	r16, r22
    46f2:	14 2f       	mov	r17, r20
	DIR dj;
	NAMEBUF(sfn, lfn);
	BYTE *dir;


	res = auto_mount(&path, &dj.fs, 1);
    46f4:	ce 01       	movw	r24, r28
    46f6:	87 96       	adiw	r24, 0x27	; 39
    46f8:	be 01       	movw	r22, r28
    46fa:	6f 5e       	subi	r22, 0xEF	; 239
    46fc:	7f 4f       	sbci	r23, 0xFF	; 255
    46fe:	41 e0       	ldi	r20, 0x01	; 1
    4700:	0e 94 d2 07 	call	0xfa4	; 0xfa4 <auto_mount>
	if (res == FR_OK) {
    4704:	88 23       	and	r24, r24
    4706:	39 f5       	brne	.+78     	; 0x4756 <f_chmod+0x82>
		INITBUF(dj, sfn, lfn);
    4708:	ce 01       	movw	r24, r28
    470a:	01 96       	adiw	r24, 0x01	; 1
    470c:	9a a3       	std	Y+34, r25	; 0x22
    470e:	89 a3       	std	Y+33, r24	; 0x21
    4710:	86 e9       	ldi	r24, 0x96	; 150
    4712:	94 e0       	ldi	r25, 0x04	; 4
    4714:	9c a3       	std	Y+36, r25	; 0x24
    4716:	8b a3       	std	Y+35, r24	; 0x23
		res = follow_path(&dj, path);		/* Follow the file path */
    4718:	6f a1       	ldd	r22, Y+39	; 0x27
    471a:	78 a5       	ldd	r23, Y+40	; 0x28
    471c:	ce 01       	movw	r24, r28
    471e:	0d 96       	adiw	r24, 0x0d	; 13
    4720:	0e 94 54 15 	call	0x2aa8	; 0x2aa8 <follow_path>
		if (res == FR_OK) {
    4724:	88 23       	and	r24, r24
    4726:	b9 f4       	brne	.+46     	; 0x4756 <f_chmod+0x82>
			dir = dj.dir;
    4728:	ef 8d       	ldd	r30, Y+31	; 0x1f
    472a:	f8 a1       	ldd	r31, Y+32	; 0x20
			if (!dir) {						/* Is it a root directory? */
    472c:	30 97       	sbiw	r30, 0x00	; 0
    472e:	11 f4       	brne	.+4      	; 0x4734 <f_chmod+0x60>
    4730:	86 e0       	ldi	r24, 0x06	; 6
    4732:	11 c0       	rjmp	.+34     	; 0x4756 <f_chmod+0x82>
				res = FR_INVALID_NAME;
			} else {						/* File or sub directory */
				mask &= AM_RDO|AM_HID|AM_SYS|AM_ARC;	/* Valid attribute mask */
    4734:	91 2f       	mov	r25, r17
    4736:	97 72       	andi	r25, 0x27	; 39
				dir[DIR_Attr] = (value & mask) | (dir[DIR_Attr] & (BYTE)~mask);	/* Apply attribute change */
    4738:	89 2f       	mov	r24, r25
    473a:	80 95       	com	r24
    473c:	23 85       	ldd	r18, Z+11	; 0x0b
    473e:	82 23       	and	r24, r18
    4740:	90 23       	and	r25, r16
    4742:	89 2b       	or	r24, r25
    4744:	83 87       	std	Z+11, r24	; 0x0b
				dj.fs->wflag = 1;
    4746:	e9 89       	ldd	r30, Y+17	; 0x11
    4748:	fa 89       	ldd	r31, Y+18	; 0x12
    474a:	81 e0       	ldi	r24, 0x01	; 1
    474c:	84 83       	std	Z+4, r24	; 0x04
				res = sync(dj.fs);
    474e:	89 89       	ldd	r24, Y+17	; 0x11
    4750:	9a 89       	ldd	r25, Y+18	; 0x12
    4752:	0e 94 43 21 	call	0x4286	; 0x4286 <sync>
			}
		}
	}

	LEAVE_FF(dj.fs, res);
}
    4756:	a8 96       	adiw	r28, 0x28	; 40
    4758:	0f b6       	in	r0, 0x3f	; 63
    475a:	f8 94       	cli
    475c:	de bf       	out	0x3e, r29	; 62
    475e:	0f be       	out	0x3f, r0	; 63
    4760:	cd bf       	out	0x3d, r28	; 61
    4762:	cf 91       	pop	r28
    4764:	df 91       	pop	r29
    4766:	1f 91       	pop	r17
    4768:	0f 91       	pop	r16
    476a:	08 95       	ret

0000476c <f_unlink>:
/*-----------------------------------------------------------------------*/

FRESULT f_unlink (
	const char *path		/* Pointer to the file or directory path */
)
{
    476c:	af 92       	push	r10
    476e:	bf 92       	push	r11
    4770:	cf 92       	push	r12
    4772:	df 92       	push	r13
    4774:	ef 92       	push	r14
    4776:	ff 92       	push	r15
    4778:	0f 93       	push	r16
    477a:	1f 93       	push	r17
    477c:	df 93       	push	r29
    477e:	cf 93       	push	r28
    4780:	cd b7       	in	r28, 0x3d	; 61
    4782:	de b7       	in	r29, 0x3e	; 62
    4784:	c2 54       	subi	r28, 0x42	; 66
    4786:	d0 40       	sbci	r29, 0x00	; 0
    4788:	0f b6       	in	r0, 0x3f	; 63
    478a:	f8 94       	cli
    478c:	de bf       	out	0x3e, r29	; 62
    478e:	0f be       	out	0x3f, r0	; 63
    4790:	cd bf       	out	0x3d, r28	; 61
    4792:	41 e4       	ldi	r20, 0x41	; 65
    4794:	e4 2e       	mov	r14, r20
    4796:	f1 2c       	mov	r15, r1
    4798:	ec 0e       	add	r14, r28
    479a:	fd 1e       	adc	r15, r29
    479c:	f7 01       	movw	r30, r14
    479e:	91 83       	std	Z+1, r25	; 0x01
    47a0:	80 83       	st	Z, r24
	NAMEBUF(sfn, lfn);
	BYTE *dir;
	DWORD dclst;


	res = auto_mount(&path, &dj.fs, 1);
    47a2:	3d e0       	ldi	r19, 0x0D	; 13
    47a4:	a3 2e       	mov	r10, r19
    47a6:	b1 2c       	mov	r11, r1
    47a8:	ac 0e       	add	r10, r28
    47aa:	bd 1e       	adc	r11, r29
    47ac:	c7 01       	movw	r24, r14
    47ae:	be 01       	movw	r22, r28
    47b0:	6f 5e       	subi	r22, 0xEF	; 239
    47b2:	7f 4f       	sbci	r23, 0xFF	; 255
    47b4:	41 e0       	ldi	r20, 0x01	; 1
    47b6:	0e 94 d2 07 	call	0xfa4	; 0xfa4 <auto_mount>
    47ba:	18 2f       	mov	r17, r24
	if (res != FR_OK) LEAVE_FF(dj.fs, res);
    47bc:	88 23       	and	r24, r24
    47be:	09 f0       	breq	.+2      	; 0x47c2 <f_unlink+0x56>
    47c0:	7c c0       	rjmp	.+248    	; 0x48ba <f_unlink+0x14e>

	INITBUF(dj, sfn, lfn);
    47c2:	ce 01       	movw	r24, r28
    47c4:	01 96       	adiw	r24, 0x01	; 1
    47c6:	9a a3       	std	Y+34, r25	; 0x22
    47c8:	89 a3       	std	Y+33, r24	; 0x21
    47ca:	86 e9       	ldi	r24, 0x96	; 150
    47cc:	94 e0       	ldi	r25, 0x04	; 4
    47ce:	9c a3       	std	Y+36, r25	; 0x24
    47d0:	8b a3       	std	Y+35, r24	; 0x23
	res = follow_path(&dj, path);			/* Follow the file path */
    47d2:	f7 01       	movw	r30, r14
    47d4:	60 81       	ld	r22, Z
    47d6:	71 81       	ldd	r23, Z+1	; 0x01
    47d8:	c5 01       	movw	r24, r10
    47da:	0e 94 54 15 	call	0x2aa8	; 0x2aa8 <follow_path>
    47de:	08 2f       	mov	r16, r24
	if (res != FR_OK) LEAVE_FF(dj.fs, res); /* Follow failed */
    47e0:	88 23       	and	r24, r24
    47e2:	09 f0       	breq	.+2      	; 0x47e6 <f_unlink+0x7a>
    47e4:	67 c0       	rjmp	.+206    	; 0x48b4 <f_unlink+0x148>

	dir = dj.dir;
    47e6:	ef 8d       	ldd	r30, Y+31	; 0x1f
    47e8:	f8 a1       	ldd	r31, Y+32	; 0x20
	if (!dir)								/* Is it the root directory? */
    47ea:	30 97       	sbiw	r30, 0x00	; 0
    47ec:	11 f4       	brne	.+4      	; 0x47f2 <f_unlink+0x86>
    47ee:	16 e0       	ldi	r17, 0x06	; 6
    47f0:	64 c0       	rjmp	.+200    	; 0x48ba <f_unlink+0x14e>
		LEAVE_FF(dj.fs, FR_INVALID_NAME);
	if (dir[DIR_Attr] & AM_RDO)				/* Is it a R/O object? */
    47f2:	83 85       	ldd	r24, Z+11	; 0x0b
    47f4:	48 2f       	mov	r20, r24
    47f6:	80 fd       	sbrc	r24, 0
    47f8:	5f c0       	rjmp	.+190    	; 0x48b8 <f_unlink+0x14c>
		LEAVE_FF(dj.fs, FR_DENIED);
	dclst = ((DWORD)LD_WORD(dir+DIR_FstClusHI) << 16) | LD_WORD(dir+DIR_FstClusLO);
    47fa:	95 89       	ldd	r25, Z+21	; 0x15
    47fc:	80 e0       	ldi	r24, 0x00	; 0
    47fe:	24 89       	ldd	r18, Z+20	; 0x14
    4800:	30 e0       	ldi	r19, 0x00	; 0
    4802:	82 2b       	or	r24, r18
    4804:	93 2b       	or	r25, r19
    4806:	a0 e0       	ldi	r26, 0x00	; 0
    4808:	b0 e0       	ldi	r27, 0x00	; 0
    480a:	7c 01       	movw	r14, r24
    480c:	dd 24       	eor	r13, r13
    480e:	cc 24       	eor	r12, r12
    4810:	93 8d       	ldd	r25, Z+27	; 0x1b
    4812:	80 e0       	ldi	r24, 0x00	; 0
    4814:	22 8d       	ldd	r18, Z+26	; 0x1a
    4816:	30 e0       	ldi	r19, 0x00	; 0
    4818:	82 2b       	or	r24, r18
    481a:	93 2b       	or	r25, r19
    481c:	a0 e0       	ldi	r26, 0x00	; 0
    481e:	b0 e0       	ldi	r27, 0x00	; 0
    4820:	c8 2a       	or	r12, r24
    4822:	d9 2a       	or	r13, r25
    4824:	ea 2a       	or	r14, r26
    4826:	fb 2a       	or	r15, r27

	if (dir[DIR_Attr] & AM_DIR) {			/* It is a sub-directory */
    4828:	44 ff       	sbrs	r20, 4
    482a:	2b c0       	rjmp	.+86     	; 0x4882 <f_unlink+0x116>
		if (dclst < 2) LEAVE_FF(dj.fs, FR_INT_ERR);
    482c:	f2 e0       	ldi	r31, 0x02	; 2
    482e:	cf 16       	cp	r12, r31
    4830:	d1 04       	cpc	r13, r1
    4832:	e1 04       	cpc	r14, r1
    4834:	f1 04       	cpc	r15, r1
    4836:	10 f4       	brcc	.+4      	; 0x483c <f_unlink+0xd0>
    4838:	12 e0       	ldi	r17, 0x02	; 2
    483a:	3f c0       	rjmp	.+126    	; 0x48ba <f_unlink+0x14e>
/*-----------------------------------------------------------------------*/

/* Copy memory to memory */
static
void mem_cpy (void* dst, const void* src, int cnt) {
	char *d = (char*)dst;
    483c:	de 01       	movw	r26, r28
    483e:	97 96       	adiw	r26, 0x27	; 39
	const char *s = (const char *)src;
    4840:	f5 01       	movw	r30, r10
	while (cnt--) *d++ = *s++;
    4842:	9d 01       	movw	r18, r26
    4844:	02 c0       	rjmp	.+4      	; 0x484a <f_unlink+0xde>
    4846:	81 91       	ld	r24, Z+
    4848:	8d 93       	st	X+, r24
    484a:	e2 17       	cp	r30, r18
    484c:	f3 07       	cpc	r31, r19
    484e:	d9 f7       	brne	.-10     	; 0x4846 <f_unlink+0xda>
	dclst = ((DWORD)LD_WORD(dir+DIR_FstClusHI) << 16) | LD_WORD(dir+DIR_FstClusLO);

	if (dir[DIR_Attr] & AM_DIR) {			/* It is a sub-directory */
		if (dclst < 2) LEAVE_FF(dj.fs, FR_INT_ERR);
		mem_cpy(&sdj, &dj, sizeof(DIR));		/* Check if the sub-dir is empty or not */
		sdj.sclust = dclst;
    4850:	cd a6       	std	Y+45, r12	; 0x2d
    4852:	de a6       	std	Y+46, r13	; 0x2e
    4854:	ef a6       	std	Y+47, r14	; 0x2f
    4856:	f8 aa       	std	Y+48, r15	; 0x30
		res = dir_seek(&sdj, 0);
    4858:	97 e2       	ldi	r25, 0x27	; 39
    485a:	a9 2e       	mov	r10, r25
    485c:	b1 2c       	mov	r11, r1
    485e:	ac 0e       	add	r10, r28
    4860:	bd 1e       	adc	r11, r29
    4862:	c5 01       	movw	r24, r10
    4864:	60 e0       	ldi	r22, 0x00	; 0
    4866:	70 e0       	ldi	r23, 0x00	; 0
    4868:	0e 94 f5 0c 	call	0x19ea	; 0x19ea <dir_seek>
    486c:	18 2f       	mov	r17, r24
		if (res != FR_OK) LEAVE_FF(dj.fs, res);
    486e:	88 23       	and	r24, r24
    4870:	21 f5       	brne	.+72     	; 0x48ba <f_unlink+0x14e>
		res = dir_read(&sdj);
    4872:	c5 01       	movw	r24, r10
    4874:	0e 94 17 1a 	call	0x342e	; 0x342e <dir_read>
    4878:	18 2f       	mov	r17, r24
		if (res == FR_OK) res = FR_DENIED;	/* Not empty sub-dir */
    487a:	88 23       	and	r24, r24
    487c:	e9 f0       	breq	.+58     	; 0x48b8 <f_unlink+0x14c>
		if (res != FR_NO_FILE) LEAVE_FF(dj.fs, res);
    487e:	84 30       	cpi	r24, 0x04	; 4
    4880:	e1 f4       	brne	.+56     	; 0x48ba <f_unlink+0x14e>
	}

	res = dir_remove(&dj);					/* Remove directory entry */
    4882:	ce 01       	movw	r24, r28
    4884:	0d 96       	adiw	r24, 0x0d	; 13
    4886:	0e 94 d5 19 	call	0x33aa	; 0x33aa <dir_remove>
    488a:	18 2f       	mov	r17, r24
	if (res == FR_OK) {
    488c:	88 23       	and	r24, r24
    488e:	91 f4       	brne	.+36     	; 0x48b4 <f_unlink+0x148>
		if (dclst)
    4890:	c1 14       	cp	r12, r1
    4892:	d1 04       	cpc	r13, r1
    4894:	e1 04       	cpc	r14, r1
    4896:	f1 04       	cpc	r15, r1
    4898:	41 f0       	breq	.+16     	; 0x48aa <f_unlink+0x13e>
			res = remove_chain(dj.fs, dclst);	/* Remove the cluster chain */
    489a:	89 89       	ldd	r24, Y+17	; 0x11
    489c:	9a 89       	ldd	r25, Y+18	; 0x12
    489e:	b7 01       	movw	r22, r14
    48a0:	a6 01       	movw	r20, r12
    48a2:	0e 94 c1 11 	call	0x2382	; 0x2382 <remove_chain>
		if (res == FR_OK) res = sync(dj.fs);
    48a6:	88 23       	and	r24, r24
    48a8:	41 f4       	brne	.+16     	; 0x48ba <f_unlink+0x14e>
    48aa:	89 89       	ldd	r24, Y+17	; 0x11
    48ac:	9a 89       	ldd	r25, Y+18	; 0x12
    48ae:	0e 94 43 21 	call	0x4286	; 0x4286 <sync>
    48b2:	03 c0       	rjmp	.+6      	; 0x48ba <f_unlink+0x14e>
    48b4:	10 2f       	mov	r17, r16
    48b6:	01 c0       	rjmp	.+2      	; 0x48ba <f_unlink+0x14e>
    48b8:	17 e0       	ldi	r17, 0x07	; 7
	}

	LEAVE_FF(dj.fs, FR_OK);
}
    48ba:	81 2f       	mov	r24, r17
    48bc:	ce 5b       	subi	r28, 0xBE	; 190
    48be:	df 4f       	sbci	r29, 0xFF	; 255
    48c0:	0f b6       	in	r0, 0x3f	; 63
    48c2:	f8 94       	cli
    48c4:	de bf       	out	0x3e, r29	; 62
    48c6:	0f be       	out	0x3f, r0	; 63
    48c8:	cd bf       	out	0x3d, r28	; 61
    48ca:	cf 91       	pop	r28
    48cc:	df 91       	pop	r29
    48ce:	1f 91       	pop	r17
    48d0:	0f 91       	pop	r16
    48d2:	ff 90       	pop	r15
    48d4:	ef 90       	pop	r14
    48d6:	df 90       	pop	r13
    48d8:	cf 90       	pop	r12
    48da:	bf 90       	pop	r11
    48dc:	af 90       	pop	r10
    48de:	08 95       	ret

000048e0 <f_mkdir>:
/*-----------------------------------------------------------------------*/

FRESULT f_mkdir (
	const char *path		/* Pointer to the directory path */
)
{
    48e0:	2f 92       	push	r2
    48e2:	3f 92       	push	r3
    48e4:	4f 92       	push	r4
    48e6:	5f 92       	push	r5
    48e8:	6f 92       	push	r6
    48ea:	7f 92       	push	r7
    48ec:	8f 92       	push	r8
    48ee:	9f 92       	push	r9
    48f0:	af 92       	push	r10
    48f2:	bf 92       	push	r11
    48f4:	cf 92       	push	r12
    48f6:	df 92       	push	r13
    48f8:	ef 92       	push	r14
    48fa:	ff 92       	push	r15
    48fc:	0f 93       	push	r16
    48fe:	1f 93       	push	r17
    4900:	df 93       	push	r29
    4902:	cf 93       	push	r28
    4904:	cd b7       	in	r28, 0x3d	; 61
    4906:	de b7       	in	r29, 0x3e	; 62
    4908:	e0 97       	sbiw	r28, 0x30	; 48
    490a:	0f b6       	in	r0, 0x3f	; 63
    490c:	f8 94       	cli
    490e:	de bf       	out	0x3e, r29	; 62
    4910:	0f be       	out	0x3f, r0	; 63
    4912:	cd bf       	out	0x3d, r28	; 61
    4914:	98 a7       	std	Y+40, r25	; 0x28
    4916:	8f a3       	std	Y+39, r24	; 0x27
	NAMEBUF(sfn, lfn);
	BYTE *dir, n;
	DWORD dsect, dclst, pclst, tim;


	res = auto_mount(&path, &dj.fs, 1);
    4918:	ce 01       	movw	r24, r28
    491a:	87 96       	adiw	r24, 0x27	; 39
    491c:	be 01       	movw	r22, r28
    491e:	6f 5e       	subi	r22, 0xEF	; 239
    4920:	7f 4f       	sbci	r23, 0xFF	; 255
    4922:	41 e0       	ldi	r20, 0x01	; 1
    4924:	0e 94 d2 07 	call	0xfa4	; 0xfa4 <auto_mount>
    4928:	18 2f       	mov	r17, r24
	if (res != FR_OK) LEAVE_FF(dj.fs, res);
    492a:	88 23       	and	r24, r24
    492c:	09 f0       	breq	.+2      	; 0x4930 <f_mkdir+0x50>
    492e:	51 c1       	rjmp	.+674    	; 0x4bd2 <f_mkdir+0x2f2>

	INITBUF(dj, sfn, lfn);
    4930:	ce 01       	movw	r24, r28
    4932:	01 96       	adiw	r24, 0x01	; 1
    4934:	9a a3       	std	Y+34, r25	; 0x22
    4936:	89 a3       	std	Y+33, r24	; 0x21
    4938:	86 e9       	ldi	r24, 0x96	; 150
    493a:	94 e0       	ldi	r25, 0x04	; 4
    493c:	9c a3       	std	Y+36, r25	; 0x24
    493e:	8b a3       	std	Y+35, r24	; 0x23
	res = follow_path(&dj, path);			/* Follow the file path */
    4940:	6f a1       	ldd	r22, Y+39	; 0x27
    4942:	78 a5       	ldd	r23, Y+40	; 0x28
    4944:	ce 01       	movw	r24, r28
    4946:	0d 96       	adiw	r24, 0x0d	; 13
    4948:	0e 94 54 15 	call	0x2aa8	; 0x2aa8 <follow_path>
    494c:	18 2f       	mov	r17, r24
	if (res == FR_OK) res = FR_EXIST;		/* Any file or directory is already existing */
    494e:	88 23       	and	r24, r24
    4950:	11 f4       	brne	.+4      	; 0x4956 <f_mkdir+0x76>
    4952:	18 e0       	ldi	r17, 0x08	; 8
    4954:	3e c1       	rjmp	.+636    	; 0x4bd2 <f_mkdir+0x2f2>
	if (res != FR_NO_FILE)					/* Any error occured */
    4956:	84 30       	cpi	r24, 0x04	; 4
    4958:	09 f0       	breq	.+2      	; 0x495c <f_mkdir+0x7c>
    495a:	3b c1       	rjmp	.+630    	; 0x4bd2 <f_mkdir+0x2f2>
		LEAVE_FF(dj.fs, res);

	dclst = create_chain(dj.fs, 0);			/* Allocate a new cluster for new directory table */
    495c:	89 89       	ldd	r24, Y+17	; 0x11
    495e:	9a 89       	ldd	r25, Y+18	; 0x12
    4960:	40 e0       	ldi	r20, 0x00	; 0
    4962:	50 e0       	ldi	r21, 0x00	; 0
    4964:	60 e0       	ldi	r22, 0x00	; 0
    4966:	70 e0       	ldi	r23, 0x00	; 0
    4968:	0e 94 ce 0e 	call	0x1d9c	; 0x1d9c <create_chain>
    496c:	4b 01       	movw	r8, r22
    496e:	5c 01       	movw	r10, r24
	res = FR_OK;
	if (dclst == 0) res = FR_DENIED;
    4970:	61 15       	cp	r22, r1
    4972:	71 05       	cpc	r23, r1
    4974:	81 05       	cpc	r24, r1
    4976:	91 05       	cpc	r25, r1
    4978:	11 f4       	brne	.+4      	; 0x497e <f_mkdir+0x9e>
    497a:	17 e0       	ldi	r17, 0x07	; 7
    497c:	2a c1       	rjmp	.+596    	; 0x4bd2 <f_mkdir+0x2f2>
	if (dclst == 1) res = FR_INT_ERR;
    497e:	61 30       	cpi	r22, 0x01	; 1
    4980:	71 05       	cpc	r23, r1
    4982:	81 05       	cpc	r24, r1
    4984:	91 05       	cpc	r25, r1
    4986:	11 f4       	brne	.+4      	; 0x498c <f_mkdir+0xac>
    4988:	12 e0       	ldi	r17, 0x02	; 2
    498a:	23 c1       	rjmp	.+582    	; 0x4bd2 <f_mkdir+0x2f2>
	if (dclst == 0xFFFFFFFF) res = FR_DISK_ERR;
    498c:	6f 3f       	cpi	r22, 0xFF	; 255
    498e:	3f ef       	ldi	r19, 0xFF	; 255
    4990:	73 07       	cpc	r23, r19
    4992:	3f ef       	ldi	r19, 0xFF	; 255
    4994:	83 07       	cpc	r24, r19
    4996:	3f ef       	ldi	r19, 0xFF	; 255
    4998:	93 07       	cpc	r25, r19
    499a:	09 f4       	brne	.+2      	; 0x499e <f_mkdir+0xbe>
    499c:	34 c1       	rjmp	.+616    	; 0x4c06 <f_mkdir+0x326>
	if (res == FR_OK)
		res = move_window(dj.fs, 0);
    499e:	89 89       	ldd	r24, Y+17	; 0x11
    49a0:	9a 89       	ldd	r25, Y+18	; 0x12
    49a2:	40 e0       	ldi	r20, 0x00	; 0
    49a4:	50 e0       	ldi	r21, 0x00	; 0
    49a6:	60 e0       	ldi	r22, 0x00	; 0
    49a8:	70 e0       	ldi	r23, 0x00	; 0
    49aa:	0e 94 90 0b 	call	0x1720	; 0x1720 <move_window>
    49ae:	18 2f       	mov	r17, r24
	if (res != FR_OK) LEAVE_FF(dj.fs, res);
    49b0:	88 23       	and	r24, r24
    49b2:	09 f0       	breq	.+2      	; 0x49b6 <f_mkdir+0xd6>
    49b4:	0e c1       	rjmp	.+540    	; 0x4bd2 <f_mkdir+0x2f2>
	dsect = clust2sect(dj.fs, dclst);
    49b6:	09 89       	ldd	r16, Y+17	; 0x11
    49b8:	1a 89       	ldd	r17, Y+18	; 0x12
DWORD clust2sect (	/* !=0: sector number, 0: failed - invalid cluster# */
	FATFS *fs,		/* File system object */
	DWORD clst		/* Cluster# to be converted */
)
{
	clst -= 2;
    49ba:	6e ef       	ldi	r22, 0xFE	; 254
    49bc:	c6 2e       	mov	r12, r22
    49be:	6f ef       	ldi	r22, 0xFF	; 255
    49c0:	d6 2e       	mov	r13, r22
    49c2:	6f ef       	ldi	r22, 0xFF	; 255
    49c4:	e6 2e       	mov	r14, r22
    49c6:	6f ef       	ldi	r22, 0xFF	; 255
    49c8:	f6 2e       	mov	r15, r22
    49ca:	c8 0c       	add	r12, r8
    49cc:	d9 1c       	adc	r13, r9
    49ce:	ea 1c       	adc	r14, r10
    49d0:	fb 1c       	adc	r15, r11
	if (clst >= (fs->max_clust - 2)) return 0;		/* Invalid cluster# */
    49d2:	f8 01       	movw	r30, r16
    49d4:	84 8d       	ldd	r24, Z+28	; 0x1c
    49d6:	95 8d       	ldd	r25, Z+29	; 0x1d
    49d8:	a6 8d       	ldd	r26, Z+30	; 0x1e
    49da:	b7 8d       	ldd	r27, Z+31	; 0x1f
    49dc:	02 97       	sbiw	r24, 0x02	; 2
    49de:	a1 09       	sbc	r26, r1
    49e0:	b1 09       	sbc	r27, r1
    49e2:	c8 16       	cp	r12, r24
    49e4:	d9 06       	cpc	r13, r25
    49e6:	ea 06       	cpc	r14, r26
    49e8:	fb 06       	cpc	r15, r27
    49ea:	20 f0       	brcs	.+8      	; 0x49f4 <f_mkdir+0x114>
    49ec:	44 24       	eor	r4, r4
    49ee:	55 24       	eor	r5, r5
    49f0:	32 01       	movw	r6, r4
    49f2:	14 c0       	rjmp	.+40     	; 0x4a1c <f_mkdir+0x13c>
	return clst * fs->csize + fs->database;
    49f4:	f8 01       	movw	r30, r16
    49f6:	22 81       	ldd	r18, Z+2	; 0x02
    49f8:	30 e0       	ldi	r19, 0x00	; 0
    49fa:	40 e0       	ldi	r20, 0x00	; 0
    49fc:	50 e0       	ldi	r21, 0x00	; 0
    49fe:	c7 01       	movw	r24, r14
    4a00:	b6 01       	movw	r22, r12
    4a02:	0e 94 2e 28 	call	0x505c	; 0x505c <__mulsi3>
    4a06:	2b 01       	movw	r4, r22
    4a08:	3c 01       	movw	r6, r24
    4a0a:	f8 01       	movw	r30, r16
    4a0c:	80 a5       	ldd	r24, Z+40	; 0x28
    4a0e:	91 a5       	ldd	r25, Z+41	; 0x29
    4a10:	a2 a5       	ldd	r26, Z+42	; 0x2a
    4a12:	b3 a5       	ldd	r27, Z+43	; 0x2b
    4a14:	48 0e       	add	r4, r24
    4a16:	59 1e       	adc	r5, r25
    4a18:	6a 1e       	adc	r6, r26
    4a1a:	7b 1e       	adc	r7, r27
	if (res == FR_OK)
		res = move_window(dj.fs, 0);
	if (res != FR_OK) LEAVE_FF(dj.fs, res);
	dsect = clust2sect(dj.fs, dclst);

	dir = dj.fs->win;						/* Initialize the new directory table */
    4a1c:	50 e3       	ldi	r21, 0x30	; 48
    4a1e:	25 2e       	mov	r2, r21
    4a20:	31 2c       	mov	r3, r1
    4a22:	20 0e       	add	r2, r16
    4a24:	31 1e       	adc	r3, r17
    4a26:	f1 01       	movw	r30, r2
    4a28:	80 e0       	ldi	r24, 0x00	; 0
    4a2a:	92 e0       	ldi	r25, 0x02	; 2
    4a2c:	01 c0       	rjmp	.+2      	; 0x4a30 <f_mkdir+0x150>

/* Fill memory */
static
void mem_set (void* dst, int val, int cnt) {
	char *d = (char*)dst;
	while (cnt--) *d++ = (char)val;
    4a2e:	11 92       	st	Z+, r1
    4a30:	01 97       	sbiw	r24, 0x01	; 1
    4a32:	2f ef       	ldi	r18, 0xFF	; 255
    4a34:	8f 3f       	cpi	r24, 0xFF	; 255
    4a36:	92 07       	cpc	r25, r18
    4a38:	d1 f7       	brne	.-12     	; 0x4a2e <f_mkdir+0x14e>
    4a3a:	f1 01       	movw	r30, r2
    4a3c:	8b e0       	ldi	r24, 0x0B	; 11
    4a3e:	90 e0       	ldi	r25, 0x00	; 0
	dsect = clust2sect(dj.fs, dclst);

	dir = dj.fs->win;						/* Initialize the new directory table */
	mem_set(dir, 0, SS(dj.fs));
	mem_set(dir+DIR_Name, ' ', 8+3);		/* Create "." entry */
	dir[DIR_Name] = '.';
    4a40:	20 e2       	ldi	r18, 0x20	; 32
    4a42:	01 c0       	rjmp	.+2      	; 0x4a46 <f_mkdir+0x166>
    4a44:	21 93       	st	Z+, r18
    4a46:	01 97       	sbiw	r24, 0x01	; 1
    4a48:	3f ef       	ldi	r19, 0xFF	; 255
    4a4a:	8f 3f       	cpi	r24, 0xFF	; 255
    4a4c:	93 07       	cpc	r25, r19
    4a4e:	d1 f7       	brne	.-12     	; 0x4a44 <f_mkdir+0x164>
    4a50:	8e e2       	ldi	r24, 0x2E	; 46
    4a52:	f8 01       	movw	r30, r16
    4a54:	80 ab       	std	Z+48, r24	; 0x30
	dir[DIR_Attr] = AM_DIR;
    4a56:	80 e1       	ldi	r24, 0x10	; 16
    4a58:	83 af       	std	Z+59, r24	; 0x3b
	tim = get_fattime();
    4a5a:	0e 94 60 00 	call	0xc0	; 0xc0 <get_fattime>
	ST_DWORD(dir+DIR_WrtTime, tim);
    4a5e:	68 ab       	std	Y+48, r22	; 0x30
    4a60:	0a 5b       	subi	r16, 0xBA	; 186
    4a62:	1f 4f       	sbci	r17, 0xFF	; 255
    4a64:	f8 01       	movw	r30, r16
    4a66:	61 93       	st	Z+, r22
    4a68:	27 2f       	mov	r18, r23
    4a6a:	33 27       	eor	r19, r19
    4a6c:	2f a7       	std	Y+47, r18	; 0x2f
    4a6e:	21 93       	st	Z+, r18
    4a70:	9c 01       	movw	r18, r24
    4a72:	44 27       	eor	r20, r20
    4a74:	55 27       	eor	r21, r21
    4a76:	2e a7       	std	Y+46, r18	; 0x2e
    4a78:	21 93       	st	Z+, r18
    4a7a:	69 2f       	mov	r22, r25
    4a7c:	77 27       	eor	r23, r23
    4a7e:	88 27       	eor	r24, r24
    4a80:	99 27       	eor	r25, r25
    4a82:	6d a7       	std	Y+45, r22	; 0x2d
    4a84:	61 93       	st	Z+, r22
	ST_WORD(dir+DIR_FstClusLO, dclst);
    4a86:	8c a6       	std	Y+44, r8	; 0x2c
    4a88:	81 92       	st	Z+, r8
    4a8a:	8f 01       	movw	r16, r30
    4a8c:	89 2d       	mov	r24, r9
    4a8e:	99 27       	eor	r25, r25
    4a90:	8b a7       	std	Y+43, r24	; 0x2b
    4a92:	80 83       	st	Z, r24
	ST_WORD(dir+DIR_FstClusHI, dclst >> 16);
    4a94:	c5 01       	movw	r24, r10
    4a96:	aa 27       	eor	r26, r26
    4a98:	bb 27       	eor	r27, r27
    4a9a:	8a a7       	std	Y+42, r24	; 0x2a
    4a9c:	07 50       	subi	r16, 0x07	; 7
    4a9e:	10 40       	sbci	r17, 0x00	; 0
    4aa0:	f8 01       	movw	r30, r16
    4aa2:	81 93       	st	Z+, r24
    4aa4:	8f 01       	movw	r16, r30
    4aa6:	89 2f       	mov	r24, r25
    4aa8:	99 27       	eor	r25, r25
    4aaa:	89 a7       	std	Y+41, r24	; 0x29
    4aac:	80 83       	st	Z, r24
    4aae:	05 54       	subi	r16, 0x45	; 69
    4ab0:	10 40       	sbci	r17, 0x00	; 0
    4ab2:	f1 01       	movw	r30, r2
    4ab4:	20 e2       	ldi	r18, 0x20	; 32
    4ab6:	30 e0       	ldi	r19, 0x00	; 0
    4ab8:	03 c0       	rjmp	.+6      	; 0x4ac0 <f_mkdir+0x1e0>
/* Copy memory to memory */
static
void mem_cpy (void* dst, const void* src, int cnt) {
	char *d = (char*)dst;
	const char *s = (const char *)src;
	while (cnt--) *d++ = *s++;
    4aba:	80 81       	ld	r24, Z
    4abc:	80 a3       	std	Z+32, r24	; 0x20
    4abe:	31 96       	adiw	r30, 0x01	; 1
    4ac0:	21 50       	subi	r18, 0x01	; 1
    4ac2:	30 40       	sbci	r19, 0x00	; 0
    4ac4:	8f ef       	ldi	r24, 0xFF	; 255
    4ac6:	2f 3f       	cpi	r18, 0xFF	; 255
    4ac8:	38 07       	cpc	r19, r24
    4aca:	b9 f7       	brne	.-18     	; 0x4aba <f_mkdir+0x1da>
	tim = get_fattime();
	ST_DWORD(dir+DIR_WrtTime, tim);
	ST_WORD(dir+DIR_FstClusLO, dclst);
	ST_WORD(dir+DIR_FstClusHI, dclst >> 16);
	mem_cpy(dir+32, dir, 32); 			/* Create ".." entry */
	dir[33] = '.';
    4acc:	0f 5a       	subi	r16, 0xAF	; 175
    4ace:	1f 4f       	sbci	r17, 0xFF	; 255
    4ad0:	8e e2       	ldi	r24, 0x2E	; 46
    4ad2:	f8 01       	movw	r30, r16
    4ad4:	80 83       	st	Z, r24
    4ad6:	01 55       	subi	r16, 0x51	; 81
    4ad8:	10 40       	sbci	r17, 0x00	; 0
	pclst = dj.sclust;
    4ada:	2b 89       	ldd	r18, Y+19	; 0x13
    4adc:	3c 89       	ldd	r19, Y+20	; 0x14
    4ade:	4d 89       	ldd	r20, Y+21	; 0x15
    4ae0:	5e 89       	ldd	r21, Y+22	; 0x16
	if (dj.fs->fs_type == FS_FAT32 && pclst == dj.fs->dirbase)
    4ae2:	e9 89       	ldd	r30, Y+17	; 0x11
    4ae4:	fa 89       	ldd	r31, Y+18	; 0x12
    4ae6:	80 81       	ld	r24, Z
    4ae8:	83 30       	cpi	r24, 0x03	; 3
    4aea:	69 f4       	brne	.+26     	; 0x4b06 <f_mkdir+0x226>
    4aec:	84 a1       	ldd	r24, Z+36	; 0x24
    4aee:	95 a1       	ldd	r25, Z+37	; 0x25
    4af0:	a6 a1       	ldd	r26, Z+38	; 0x26
    4af2:	b7 a1       	ldd	r27, Z+39	; 0x27
    4af4:	28 17       	cp	r18, r24
    4af6:	39 07       	cpc	r19, r25
    4af8:	4a 07       	cpc	r20, r26
    4afa:	5b 07       	cpc	r21, r27
    4afc:	21 f4       	brne	.+8      	; 0x4b06 <f_mkdir+0x226>
    4afe:	20 e0       	ldi	r18, 0x00	; 0
    4b00:	30 e0       	ldi	r19, 0x00	; 0
    4b02:	40 e0       	ldi	r20, 0x00	; 0
    4b04:	50 e0       	ldi	r21, 0x00	; 0
		pclst = 0;
	ST_WORD(dir+32+DIR_FstClusLO, pclst);
    4b06:	06 59       	subi	r16, 0x96	; 150
    4b08:	1f 4f       	sbci	r17, 0xFF	; 255
    4b0a:	f8 01       	movw	r30, r16
    4b0c:	21 93       	st	Z+, r18
    4b0e:	8f 01       	movw	r16, r30
    4b10:	83 2f       	mov	r24, r19
    4b12:	99 27       	eor	r25, r25
    4b14:	80 83       	st	Z, r24
	ST_WORD(dir+32+DIR_FstClusHI, pclst >> 16);
    4b16:	ca 01       	movw	r24, r20
    4b18:	aa 27       	eor	r26, r26
    4b1a:	bb 27       	eor	r27, r27
    4b1c:	07 50       	subi	r16, 0x07	; 7
    4b1e:	10 40       	sbci	r17, 0x00	; 0
    4b20:	f8 01       	movw	r30, r16
    4b22:	81 93       	st	Z+, r24
    4b24:	89 2f       	mov	r24, r25
    4b26:	99 27       	eor	r25, r25
    4b28:	80 83       	st	Z, r24
    4b2a:	73 01       	movw	r14, r6
    4b2c:	62 01       	movw	r12, r4
	for (n = 0; n < dj.fs->csize; n++) {	/* Write dot entries and clear left sectors */
		dj.fs->winsect = dsect++;
		dj.fs->wflag = 1;
    4b2e:	01 e0       	ldi	r16, 0x01	; 1
    4b30:	1f c0       	rjmp	.+62     	; 0x4b70 <f_mkdir+0x290>
	if (dj.fs->fs_type == FS_FAT32 && pclst == dj.fs->dirbase)
		pclst = 0;
	ST_WORD(dir+32+DIR_FstClusLO, pclst);
	ST_WORD(dir+32+DIR_FstClusHI, pclst >> 16);
	for (n = 0; n < dj.fs->csize; n++) {	/* Write dot entries and clear left sectors */
		dj.fs->winsect = dsect++;
    4b32:	c4 a6       	std	Z+44, r12	; 0x2c
    4b34:	d5 a6       	std	Z+45, r13	; 0x2d
    4b36:	e6 a6       	std	Z+46, r14	; 0x2e
    4b38:	f7 a6       	std	Z+47, r15	; 0x2f
		dj.fs->wflag = 1;
    4b3a:	04 83       	std	Z+4, r16	; 0x04
		res = move_window(dj.fs, 0);
    4b3c:	cf 01       	movw	r24, r30
    4b3e:	40 e0       	ldi	r20, 0x00	; 0
    4b40:	50 e0       	ldi	r21, 0x00	; 0
    4b42:	60 e0       	ldi	r22, 0x00	; 0
    4b44:	70 e0       	ldi	r23, 0x00	; 0
    4b46:	0e 94 90 0b 	call	0x1720	; 0x1720 <move_window>
    4b4a:	18 2f       	mov	r17, r24
		if (res) LEAVE_FF(dj.fs, res);
    4b4c:	88 23       	and	r24, r24
    4b4e:	09 f0       	breq	.+2      	; 0x4b52 <f_mkdir+0x272>
    4b50:	40 c0       	rjmp	.+128    	; 0x4bd2 <f_mkdir+0x2f2>
    4b52:	f1 01       	movw	r30, r2
    4b54:	80 e0       	ldi	r24, 0x00	; 0
    4b56:	92 e0       	ldi	r25, 0x02	; 2
    4b58:	01 c0       	rjmp	.+2      	; 0x4b5c <f_mkdir+0x27c>

/* Fill memory */
static
void mem_set (void* dst, int val, int cnt) {
	char *d = (char*)dst;
	while (cnt--) *d++ = (char)val;
    4b5a:	11 92       	st	Z+, r1
    4b5c:	01 97       	sbiw	r24, 0x01	; 1
    4b5e:	2f ef       	ldi	r18, 0xFF	; 255
    4b60:	8f 3f       	cpi	r24, 0xFF	; 255
    4b62:	92 07       	cpc	r25, r18
    4b64:	d1 f7       	brne	.-12     	; 0x4b5a <f_mkdir+0x27a>
	if (dj.fs->fs_type == FS_FAT32 && pclst == dj.fs->dirbase)
		pclst = 0;
	ST_WORD(dir+32+DIR_FstClusLO, pclst);
	ST_WORD(dir+32+DIR_FstClusHI, pclst >> 16);
	for (n = 0; n < dj.fs->csize; n++) {	/* Write dot entries and clear left sectors */
		dj.fs->winsect = dsect++;
    4b66:	08 94       	sec
    4b68:	c1 1c       	adc	r12, r1
    4b6a:	d1 1c       	adc	r13, r1
    4b6c:	e1 1c       	adc	r14, r1
    4b6e:	f1 1c       	adc	r15, r1
	pclst = dj.sclust;
	if (dj.fs->fs_type == FS_FAT32 && pclst == dj.fs->dirbase)
		pclst = 0;
	ST_WORD(dir+32+DIR_FstClusLO, pclst);
	ST_WORD(dir+32+DIR_FstClusHI, pclst >> 16);
	for (n = 0; n < dj.fs->csize; n++) {	/* Write dot entries and clear left sectors */
    4b70:	e9 89       	ldd	r30, Y+17	; 0x11
    4b72:	fa 89       	ldd	r31, Y+18	; 0x12
    4b74:	9c 2d       	mov	r25, r12
    4b76:	94 19       	sub	r25, r4
    4b78:	82 81       	ldd	r24, Z+2	; 0x02
    4b7a:	98 17       	cp	r25, r24
    4b7c:	d0 f2       	brcs	.-76     	; 0x4b32 <f_mkdir+0x252>
		res = move_window(dj.fs, 0);
		if (res) LEAVE_FF(dj.fs, res);
		mem_set(dir, 0, SS(dj.fs));
	}

	res = dir_register(&dj);
    4b7e:	ce 01       	movw	r24, r28
    4b80:	0d 96       	adiw	r24, 0x0d	; 13
    4b82:	0e 94 34 18 	call	0x3068	; 0x3068 <dir_register>
    4b86:	18 2f       	mov	r17, r24
	if (res != FR_OK) {
    4b88:	88 23       	and	r24, r24
    4b8a:	39 f0       	breq	.+14     	; 0x4b9a <f_mkdir+0x2ba>
		remove_chain(dj.fs, dclst);
    4b8c:	89 89       	ldd	r24, Y+17	; 0x11
    4b8e:	9a 89       	ldd	r25, Y+18	; 0x12
    4b90:	b5 01       	movw	r22, r10
    4b92:	a4 01       	movw	r20, r8
    4b94:	0e 94 c1 11 	call	0x2382	; 0x2382 <remove_chain>
    4b98:	1c c0       	rjmp	.+56     	; 0x4bd2 <f_mkdir+0x2f2>
	} else {
		dir = dj.dir;
    4b9a:	ef 8d       	ldd	r30, Y+31	; 0x1f
    4b9c:	f8 a1       	ldd	r31, Y+32	; 0x20
		dir[DIR_Attr] = AM_DIR;					/* Attribute */
    4b9e:	80 e1       	ldi	r24, 0x10	; 16
    4ba0:	83 87       	std	Z+11, r24	; 0x0b
		ST_DWORD(dir+DIR_WrtTime, tim);			/* Crated time */
    4ba2:	38 a9       	ldd	r19, Y+48	; 0x30
    4ba4:	36 8b       	std	Z+22, r19	; 0x16
    4ba6:	8f a5       	ldd	r24, Y+47	; 0x2f
    4ba8:	87 8b       	std	Z+23, r24	; 0x17
    4baa:	2e a5       	ldd	r18, Y+46	; 0x2e
    4bac:	20 8f       	std	Z+24, r18	; 0x18
    4bae:	3d a5       	ldd	r19, Y+45	; 0x2d
    4bb0:	31 8f       	std	Z+25, r19	; 0x19
		ST_WORD(dir+DIR_FstClusLO, dclst);		/* Table start cluster */
    4bb2:	8c a5       	ldd	r24, Y+44	; 0x2c
    4bb4:	82 8f       	std	Z+26, r24	; 0x1a
    4bb6:	2b a5       	ldd	r18, Y+43	; 0x2b
    4bb8:	23 8f       	std	Z+27, r18	; 0x1b
		ST_WORD(dir+DIR_FstClusHI, dclst >> 16);
    4bba:	3a a5       	ldd	r19, Y+42	; 0x2a
    4bbc:	34 8b       	std	Z+20, r19	; 0x14
    4bbe:	89 a5       	ldd	r24, Y+41	; 0x29
    4bc0:	85 8b       	std	Z+21, r24	; 0x15
		dj.fs->wflag = 1;
    4bc2:	e9 89       	ldd	r30, Y+17	; 0x11
    4bc4:	fa 89       	ldd	r31, Y+18	; 0x12
    4bc6:	81 e0       	ldi	r24, 0x01	; 1
    4bc8:	84 83       	std	Z+4, r24	; 0x04
		res = sync(dj.fs);
    4bca:	cf 01       	movw	r24, r30
    4bcc:	0e 94 43 21 	call	0x4286	; 0x4286 <sync>
    4bd0:	18 2f       	mov	r17, r24
	}

	LEAVE_FF(dj.fs, res);
}
    4bd2:	81 2f       	mov	r24, r17
    4bd4:	e0 96       	adiw	r28, 0x30	; 48
    4bd6:	0f b6       	in	r0, 0x3f	; 63
    4bd8:	f8 94       	cli
    4bda:	de bf       	out	0x3e, r29	; 62
    4bdc:	0f be       	out	0x3f, r0	; 63
    4bde:	cd bf       	out	0x3d, r28	; 61
    4be0:	cf 91       	pop	r28
    4be2:	df 91       	pop	r29
    4be4:	1f 91       	pop	r17
    4be6:	0f 91       	pop	r16
    4be8:	ff 90       	pop	r15
    4bea:	ef 90       	pop	r14
    4bec:	df 90       	pop	r13
    4bee:	cf 90       	pop	r12
    4bf0:	bf 90       	pop	r11
    4bf2:	af 90       	pop	r10
    4bf4:	9f 90       	pop	r9
    4bf6:	8f 90       	pop	r8
    4bf8:	7f 90       	pop	r7
    4bfa:	6f 90       	pop	r6
    4bfc:	5f 90       	pop	r5
    4bfe:	4f 90       	pop	r4
    4c00:	3f 90       	pop	r3
    4c02:	2f 90       	pop	r2
    4c04:	08 95       	ret
		dir[DIR_Attr] = AM_DIR;					/* Attribute */
		ST_DWORD(dir+DIR_WrtTime, tim);			/* Crated time */
		ST_WORD(dir+DIR_FstClusLO, dclst);		/* Table start cluster */
		ST_WORD(dir+DIR_FstClusHI, dclst >> 16);
		dj.fs->wflag = 1;
		res = sync(dj.fs);
    4c06:	11 e0       	ldi	r17, 0x01	; 1
    4c08:	e4 cf       	rjmp	.-56     	; 0x4bd2 <f_mkdir+0x2f2>

00004c0a <f_sync>:
/*-----------------------------------------------------------------------*/

FRESULT f_sync (
	FIL *fp		/* Pointer to the file object */
)
{
    4c0a:	0f 93       	push	r16
    4c0c:	1f 93       	push	r17
    4c0e:	cf 93       	push	r28
    4c10:	df 93       	push	r29
    4c12:	ec 01       	movw	r28, r24
	FRESULT res;
	DWORD tim;
	BYTE *dir;


	res = validate(fp->fs, fp->id);		/* Check validity of the object */
    4c14:	6a 81       	ldd	r22, Y+2	; 0x02
    4c16:	7b 81       	ldd	r23, Y+3	; 0x03
    4c18:	88 81       	ld	r24, Y
    4c1a:	99 81       	ldd	r25, Y+1	; 0x01
    4c1c:	0e 94 6b 07 	call	0xed6	; 0xed6 <validate>
    4c20:	98 2f       	mov	r25, r24
	if (res == FR_OK) {
    4c22:	88 23       	and	r24, r24
    4c24:	09 f0       	breq	.+2      	; 0x4c28 <f_sync+0x1e>
    4c26:	5c c0       	rjmp	.+184    	; 0x4ce0 <f_sync+0xd6>
		if (fp->flag & FA__WRITTEN) {	/* Has the file been written? */
    4c28:	8c 81       	ldd	r24, Y+4	; 0x04
    4c2a:	85 ff       	sbrs	r24, 5
    4c2c:	59 c0       	rjmp	.+178    	; 0x4ce0 <f_sync+0xd6>
					LEAVE_FF(fp->fs, FR_DISK_ERR);
				fp->flag &= (BYTE)~FA__DIRTY;
			}
#endif
			/* Update the directory entry */
			res = move_window(fp->fs, fp->dir_sect);
    4c2e:	4a 8d       	ldd	r20, Y+26	; 0x1a
    4c30:	5b 8d       	ldd	r21, Y+27	; 0x1b
    4c32:	6c 8d       	ldd	r22, Y+28	; 0x1c
    4c34:	7d 8d       	ldd	r23, Y+29	; 0x1d
    4c36:	88 81       	ld	r24, Y
    4c38:	99 81       	ldd	r25, Y+1	; 0x01
    4c3a:	0e 94 90 0b 	call	0x1720	; 0x1720 <move_window>
    4c3e:	98 2f       	mov	r25, r24
			if (res == FR_OK) {
    4c40:	88 23       	and	r24, r24
    4c42:	09 f0       	breq	.+2      	; 0x4c46 <f_sync+0x3c>
    4c44:	4d c0       	rjmp	.+154    	; 0x4ce0 <f_sync+0xd6>
				dir = fp->dir_ptr;
    4c46:	0e 8d       	ldd	r16, Y+30	; 0x1e
    4c48:	1f 8d       	ldd	r17, Y+31	; 0x1f
				dir[DIR_Attr] |= AM_ARC;					/* Set archive bit */
    4c4a:	f8 01       	movw	r30, r16
    4c4c:	83 85       	ldd	r24, Z+11	; 0x0b
    4c4e:	80 62       	ori	r24, 0x20	; 32
    4c50:	83 87       	std	Z+11, r24	; 0x0b
				ST_DWORD(dir+DIR_FileSize, fp->fsize);		/* Update file size */
    4c52:	8a 85       	ldd	r24, Y+10	; 0x0a
    4c54:	84 8f       	std	Z+28, r24	; 0x1c
    4c56:	8b 85       	ldd	r24, Y+11	; 0x0b
    4c58:	85 8f       	std	Z+29, r24	; 0x1d
    4c5a:	8a 85       	ldd	r24, Y+10	; 0x0a
    4c5c:	9b 85       	ldd	r25, Y+11	; 0x0b
    4c5e:	ac 85       	ldd	r26, Y+12	; 0x0c
    4c60:	bd 85       	ldd	r27, Y+13	; 0x0d
    4c62:	cd 01       	movw	r24, r26
    4c64:	aa 27       	eor	r26, r26
    4c66:	bb 27       	eor	r27, r27
    4c68:	86 8f       	std	Z+30, r24	; 0x1e
    4c6a:	8a 85       	ldd	r24, Y+10	; 0x0a
    4c6c:	9b 85       	ldd	r25, Y+11	; 0x0b
    4c6e:	ac 85       	ldd	r26, Y+12	; 0x0c
    4c70:	bd 85       	ldd	r27, Y+13	; 0x0d
    4c72:	8b 2f       	mov	r24, r27
    4c74:	99 27       	eor	r25, r25
    4c76:	aa 27       	eor	r26, r26
    4c78:	bb 27       	eor	r27, r27
    4c7a:	87 8f       	std	Z+31, r24	; 0x1f
				ST_WORD(dir+DIR_FstClusLO, fp->org_clust);	/* Update start cluster */
    4c7c:	8e 85       	ldd	r24, Y+14	; 0x0e
    4c7e:	82 8f       	std	Z+26, r24	; 0x1a
    4c80:	8f 85       	ldd	r24, Y+15	; 0x0f
    4c82:	83 8f       	std	Z+27, r24	; 0x1b
				ST_WORD(dir+DIR_FstClusHI, fp->org_clust >> 16);
    4c84:	8e 85       	ldd	r24, Y+14	; 0x0e
    4c86:	9f 85       	ldd	r25, Y+15	; 0x0f
    4c88:	a8 89       	ldd	r26, Y+16	; 0x10
    4c8a:	b9 89       	ldd	r27, Y+17	; 0x11
    4c8c:	cd 01       	movw	r24, r26
    4c8e:	aa 27       	eor	r26, r26
    4c90:	bb 27       	eor	r27, r27
    4c92:	84 8b       	std	Z+20, r24	; 0x14
    4c94:	8e 85       	ldd	r24, Y+14	; 0x0e
    4c96:	9f 85       	ldd	r25, Y+15	; 0x0f
    4c98:	a8 89       	ldd	r26, Y+16	; 0x10
    4c9a:	b9 89       	ldd	r27, Y+17	; 0x11
    4c9c:	cd 01       	movw	r24, r26
    4c9e:	aa 27       	eor	r26, r26
    4ca0:	bb 27       	eor	r27, r27
    4ca2:	89 2f       	mov	r24, r25
    4ca4:	99 27       	eor	r25, r25
    4ca6:	85 8b       	std	Z+21, r24	; 0x15
				tim = get_fattime();					/* Updated time */
    4ca8:	0e 94 60 00 	call	0xc0	; 0xc0 <get_fattime>
				ST_DWORD(dir+DIR_WrtTime, tim);
    4cac:	f8 01       	movw	r30, r16
    4cae:	66 8b       	std	Z+22, r22	; 0x16
    4cb0:	27 2f       	mov	r18, r23
    4cb2:	33 27       	eor	r19, r19
    4cb4:	27 8b       	std	Z+23, r18	; 0x17
    4cb6:	9c 01       	movw	r18, r24
    4cb8:	44 27       	eor	r20, r20
    4cba:	55 27       	eor	r21, r21
    4cbc:	20 8f       	std	Z+24, r18	; 0x18
    4cbe:	69 2f       	mov	r22, r25
    4cc0:	77 27       	eor	r23, r23
    4cc2:	88 27       	eor	r24, r24
    4cc4:	99 27       	eor	r25, r25
    4cc6:	61 8f       	std	Z+25, r22	; 0x19
				fp->flag &= (BYTE)~FA__WRITTEN;
    4cc8:	8c 81       	ldd	r24, Y+4	; 0x04
    4cca:	8f 7d       	andi	r24, 0xDF	; 223
    4ccc:	8c 83       	std	Y+4, r24	; 0x04
				fp->fs->wflag = 1;
    4cce:	e8 81       	ld	r30, Y
    4cd0:	f9 81       	ldd	r31, Y+1	; 0x01
    4cd2:	81 e0       	ldi	r24, 0x01	; 1
    4cd4:	84 83       	std	Z+4, r24	; 0x04
				res = sync(fp->fs);
    4cd6:	88 81       	ld	r24, Y
    4cd8:	99 81       	ldd	r25, Y+1	; 0x01
    4cda:	0e 94 43 21 	call	0x4286	; 0x4286 <sync>
    4cde:	98 2f       	mov	r25, r24
			}
		}
	}

	LEAVE_FF(fp->fs, res);
}
    4ce0:	89 2f       	mov	r24, r25
    4ce2:	df 91       	pop	r29
    4ce4:	cf 91       	pop	r28
    4ce6:	1f 91       	pop	r17
    4ce8:	0f 91       	pop	r16
    4cea:	08 95       	ret

00004cec <f_close>:
/*-----------------------------------------------------------------------*/

FRESULT f_close (
	FIL *fp		/* Pointer to the file object to be closed */
)
{
    4cec:	cf 93       	push	r28
    4cee:	df 93       	push	r29
    4cf0:	ec 01       	movw	r28, r24
#if _FS_READONLY
	res = validate(fp->fs, fp->id);
	if (res == FR_OK) fp->fs = NULL;
	LEAVE_FF(fp->fs, res);
#else
	res = f_sync(fp);
    4cf2:	0e 94 05 26 	call	0x4c0a	; 0x4c0a <f_sync>
	if (res == FR_OK) fp->fs = NULL;
    4cf6:	88 23       	and	r24, r24
    4cf8:	11 f4       	brne	.+4      	; 0x4cfe <f_close+0x12>
    4cfa:	19 82       	std	Y+1, r1	; 0x01
    4cfc:	18 82       	st	Y, r1
	return res;
#endif
}
    4cfe:	df 91       	pop	r29
    4d00:	cf 91       	pop	r28
    4d02:	08 95       	ret

00004d04 <f_open>:
FRESULT f_open (
	FIL *fp,			/* Pointer to the blank file object */
	const char *path,	/* Pointer to the file name */
	BYTE mode			/* Access mode and file open mode flags */
)
{
    4d04:	5f 92       	push	r5
    4d06:	6f 92       	push	r6
    4d08:	7f 92       	push	r7
    4d0a:	8f 92       	push	r8
    4d0c:	9f 92       	push	r9
    4d0e:	af 92       	push	r10
    4d10:	bf 92       	push	r11
    4d12:	cf 92       	push	r12
    4d14:	df 92       	push	r13
    4d16:	ef 92       	push	r14
    4d18:	ff 92       	push	r15
    4d1a:	0f 93       	push	r16
    4d1c:	1f 93       	push	r17
    4d1e:	df 93       	push	r29
    4d20:	cf 93       	push	r28
    4d22:	cd b7       	in	r28, 0x3d	; 61
    4d24:	de b7       	in	r29, 0x3e	; 62
    4d26:	a8 97       	sbiw	r28, 0x28	; 40
    4d28:	0f b6       	in	r0, 0x3f	; 63
    4d2a:	f8 94       	cli
    4d2c:	de bf       	out	0x3e, r29	; 62
    4d2e:	0f be       	out	0x3f, r0	; 63
    4d30:	cd bf       	out	0x3d, r28	; 61
    4d32:	3c 01       	movw	r6, r24
    4d34:	78 a7       	std	Y+40, r23	; 0x28
    4d36:	6f a3       	std	Y+39, r22	; 0x27
	DIR dj;
	NAMEBUF(sfn, lfn);
	BYTE *dir;


	fp->fs = NULL;		/* Clear file object */
    4d38:	dc 01       	movw	r26, r24
    4d3a:	1d 92       	st	X+, r1
    4d3c:	1c 92       	st	X, r1
#if !_FS_READONLY
	mode &= (FA_READ | FA_WRITE | FA_CREATE_ALWAYS | FA_OPEN_ALWAYS | FA_CREATE_NEW);
    4d3e:	6f e1       	ldi	r22, 0x1F	; 31
    4d40:	56 2e       	mov	r5, r22
    4d42:	54 22       	and	r5, r20
	res = auto_mount(&path, &dj.fs, (BYTE)(mode & (FA_WRITE | FA_CREATE_ALWAYS | FA_OPEN_ALWAYS | FA_CREATE_NEW)));
    4d44:	8e 01       	movw	r16, r28
    4d46:	03 5f       	subi	r16, 0xF3	; 243
    4d48:	1f 4f       	sbci	r17, 0xFF	; 255
    4d4a:	4e 71       	andi	r20, 0x1E	; 30
    4d4c:	ce 01       	movw	r24, r28
    4d4e:	87 96       	adiw	r24, 0x27	; 39
    4d50:	be 01       	movw	r22, r28
    4d52:	6f 5e       	subi	r22, 0xEF	; 239
    4d54:	7f 4f       	sbci	r23, 0xFF	; 255
    4d56:	0e 94 d2 07 	call	0xfa4	; 0xfa4 <auto_mount>
#else
	mode &= FA_READ;
	res = auto_mount(&path, &dj.fs, 0);
#endif
	if (res != FR_OK) LEAVE_FF(dj.fs, res);
    4d5a:	88 23       	and	r24, r24
    4d5c:	11 f0       	breq	.+4      	; 0x4d62 <f_open+0x5e>
    4d5e:	28 2f       	mov	r18, r24
    4d60:	3b c1       	rjmp	.+630    	; 0x4fd8 <f_open+0x2d4>
	INITBUF(dj, sfn, lfn);
    4d62:	ce 01       	movw	r24, r28
    4d64:	01 96       	adiw	r24, 0x01	; 1
    4d66:	9a a3       	std	Y+34, r25	; 0x22
    4d68:	89 a3       	std	Y+33, r24	; 0x21
    4d6a:	86 e9       	ldi	r24, 0x96	; 150
    4d6c:	94 e0       	ldi	r25, 0x04	; 4
    4d6e:	9c a3       	std	Y+36, r25	; 0x24
    4d70:	8b a3       	std	Y+35, r24	; 0x23
	res = follow_path(&dj, path);	/* Follow the file path */
    4d72:	6f a1       	ldd	r22, Y+39	; 0x27
    4d74:	78 a5       	ldd	r23, Y+40	; 0x28
    4d76:	c8 01       	movw	r24, r16
    4d78:	0e 94 54 15 	call	0x2aa8	; 0x2aa8 <follow_path>
    4d7c:	28 2f       	mov	r18, r24

#if !_FS_READONLY
	/* Create or Open a file */
	if (mode & (FA_CREATE_ALWAYS | FA_OPEN_ALWAYS | FA_CREATE_NEW)) {
    4d7e:	45 2d       	mov	r20, r5
    4d80:	50 e0       	ldi	r21, 0x00	; 0
    4d82:	ca 01       	movw	r24, r20
    4d84:	8c 71       	andi	r24, 0x1C	; 28
    4d86:	90 70       	andi	r25, 0x00	; 0
    4d88:	89 2b       	or	r24, r25
    4d8a:	09 f4       	brne	.+2      	; 0x4d8e <f_open+0x8a>
    4d8c:	88 c0       	rjmp	.+272    	; 0x4e9e <f_open+0x19a>
		DWORD ps, cl;

		if (res != FR_OK) {		/* No file, create new */
    4d8e:	22 23       	and	r18, r18
    4d90:	79 f0       	breq	.+30     	; 0x4db0 <f_open+0xac>
			if (res == FR_NO_FILE)
    4d92:	24 30       	cpi	r18, 0x04	; 4
    4d94:	09 f0       	breq	.+2      	; 0x4d98 <f_open+0x94>
    4d96:	20 c1       	rjmp	.+576    	; 0x4fd8 <f_open+0x2d4>
				res = dir_register(&dj);
    4d98:	c8 01       	movw	r24, r16
    4d9a:	0e 94 34 18 	call	0x3068	; 0x3068 <dir_register>
    4d9e:	28 2f       	mov	r18, r24
			if (res != FR_OK) LEAVE_FF(dj.fs, res);
    4da0:	88 23       	and	r24, r24
    4da2:	09 f0       	breq	.+2      	; 0x4da6 <f_open+0xa2>
    4da4:	19 c1       	rjmp	.+562    	; 0x4fd8 <f_open+0x2d4>
			mode |= FA_CREATE_ALWAYS;
    4da6:	b8 e0       	ldi	r27, 0x08	; 8
    4da8:	5b 2a       	or	r5, r27
			dir = dj.dir;
    4daa:	cf 8c       	ldd	r12, Y+31	; 0x1f
    4dac:	d8 a0       	ldd	r13, Y+32	; 0x20
    4dae:	5b c0       	rjmp	.+182    	; 0x4e66 <f_open+0x162>
		}
		else {					/* Any object is already existing */
			if (mode & FA_CREATE_NEW)			/* Cannot create new */
    4db0:	52 fe       	sbrs	r5, 2
    4db2:	02 c0       	rjmp	.+4      	; 0x4db8 <f_open+0xb4>
    4db4:	28 e0       	ldi	r18, 0x08	; 8
    4db6:	10 c1       	rjmp	.+544    	; 0x4fd8 <f_open+0x2d4>
				LEAVE_FF(dj.fs, FR_EXIST);
			dir = dj.dir;
    4db8:	cf 8c       	ldd	r12, Y+31	; 0x1f
    4dba:	d8 a0       	ldd	r13, Y+32	; 0x20
			if (!dir || (dir[DIR_Attr] & (AM_RDO | AM_DIR)))	/* Cannot overwrite it (R/O or DIR) */
    4dbc:	c1 14       	cp	r12, r1
    4dbe:	d1 04       	cpc	r13, r1
    4dc0:	09 f4       	brne	.+2      	; 0x4dc4 <f_open+0xc0>
    4dc2:	07 c1       	rjmp	.+526    	; 0x4fd2 <f_open+0x2ce>
    4dc4:	f6 01       	movw	r30, r12
    4dc6:	83 85       	ldd	r24, Z+11	; 0x0b
    4dc8:	81 71       	andi	r24, 0x11	; 17
    4dca:	09 f0       	breq	.+2      	; 0x4dce <f_open+0xca>
    4dcc:	02 c1       	rjmp	.+516    	; 0x4fd2 <f_open+0x2ce>
				LEAVE_FF(dj.fs, FR_DENIED);
			if (mode & FA_CREATE_ALWAYS) {		/* Resize it to zero if needed */
    4dce:	53 fe       	sbrs	r5, 3
    4dd0:	4a c0       	rjmp	.+148    	; 0x4e66 <f_open+0x162>
				cl = ((DWORD)LD_WORD(dir+DIR_FstClusHI) << 16) | LD_WORD(dir+DIR_FstClusLO);	/* Get start cluster */
    4dd2:	95 89       	ldd	r25, Z+21	; 0x15
    4dd4:	80 e0       	ldi	r24, 0x00	; 0
    4dd6:	24 89       	ldd	r18, Z+20	; 0x14
    4dd8:	30 e0       	ldi	r19, 0x00	; 0
    4dda:	82 2b       	or	r24, r18
    4ddc:	93 2b       	or	r25, r19
    4dde:	a0 e0       	ldi	r26, 0x00	; 0
    4de0:	b0 e0       	ldi	r27, 0x00	; 0
    4de2:	8c 01       	movw	r16, r24
    4de4:	ff 24       	eor	r15, r15
    4de6:	ee 24       	eor	r14, r14
    4de8:	93 8d       	ldd	r25, Z+27	; 0x1b
    4dea:	80 e0       	ldi	r24, 0x00	; 0
    4dec:	22 8d       	ldd	r18, Z+26	; 0x1a
    4dee:	30 e0       	ldi	r19, 0x00	; 0
    4df0:	82 2b       	or	r24, r18
    4df2:	93 2b       	or	r25, r19
    4df4:	a0 e0       	ldi	r26, 0x00	; 0
    4df6:	b0 e0       	ldi	r27, 0x00	; 0
    4df8:	e8 2a       	or	r14, r24
    4dfa:	f9 2a       	or	r15, r25
    4dfc:	0a 2b       	or	r16, r26
    4dfe:	1b 2b       	or	r17, r27
				ST_WORD(dir+DIR_FstClusHI, 0);	/* cluster = 0 */
    4e00:	14 8a       	std	Z+20, r1	; 0x14
    4e02:	15 8a       	std	Z+21, r1	; 0x15
				ST_WORD(dir+DIR_FstClusLO, 0);
    4e04:	12 8e       	std	Z+26, r1	; 0x1a
    4e06:	13 8e       	std	Z+27, r1	; 0x1b
				ST_DWORD(dir+DIR_FileSize, 0);	/* size = 0 */
    4e08:	14 8e       	std	Z+28, r1	; 0x1c
    4e0a:	15 8e       	std	Z+29, r1	; 0x1d
    4e0c:	16 8e       	std	Z+30, r1	; 0x1e
    4e0e:	17 8e       	std	Z+31, r1	; 0x1f
				dj.fs->wflag = 1;
    4e10:	e9 89       	ldd	r30, Y+17	; 0x11
    4e12:	fa 89       	ldd	r31, Y+18	; 0x12
    4e14:	81 e0       	ldi	r24, 0x01	; 1
    4e16:	84 83       	std	Z+4, r24	; 0x04
				ps = dj.fs->winsect;			/* Remove the cluster chain */
    4e18:	84 a4       	ldd	r8, Z+44	; 0x2c
    4e1a:	95 a4       	ldd	r9, Z+45	; 0x2d
    4e1c:	a6 a4       	ldd	r10, Z+46	; 0x2e
    4e1e:	b7 a4       	ldd	r11, Z+47	; 0x2f
				if (cl) {
    4e20:	e1 14       	cp	r14, r1
    4e22:	f1 04       	cpc	r15, r1
    4e24:	01 05       	cpc	r16, r1
    4e26:	11 05       	cpc	r17, r1
    4e28:	a1 f0       	breq	.+40     	; 0x4e52 <f_open+0x14e>
					res = remove_chain(dj.fs, cl);
    4e2a:	cf 01       	movw	r24, r30
    4e2c:	b8 01       	movw	r22, r16
    4e2e:	a7 01       	movw	r20, r14
    4e30:	0e 94 c1 11 	call	0x2382	; 0x2382 <remove_chain>
    4e34:	28 2f       	mov	r18, r24
					if (res) LEAVE_FF(dj.fs, res);
    4e36:	88 23       	and	r24, r24
    4e38:	09 f0       	breq	.+2      	; 0x4e3c <f_open+0x138>
    4e3a:	ce c0       	rjmp	.+412    	; 0x4fd8 <f_open+0x2d4>
					dj.fs->last_clust = cl - 1;	/* Reuse the cluster hole */
    4e3c:	e9 89       	ldd	r30, Y+17	; 0x11
    4e3e:	fa 89       	ldd	r31, Y+18	; 0x12
    4e40:	08 94       	sec
    4e42:	e1 08       	sbc	r14, r1
    4e44:	f1 08       	sbc	r15, r1
    4e46:	01 09       	sbc	r16, r1
    4e48:	11 09       	sbc	r17, r1
    4e4a:	e4 86       	std	Z+12, r14	; 0x0c
    4e4c:	f5 86       	std	Z+13, r15	; 0x0d
    4e4e:	06 87       	std	Z+14, r16	; 0x0e
    4e50:	17 87       	std	Z+15, r17	; 0x0f
				}
				res = move_window(dj.fs, ps);
    4e52:	89 89       	ldd	r24, Y+17	; 0x11
    4e54:	9a 89       	ldd	r25, Y+18	; 0x12
    4e56:	b5 01       	movw	r22, r10
    4e58:	a4 01       	movw	r20, r8
    4e5a:	0e 94 90 0b 	call	0x1720	; 0x1720 <move_window>
    4e5e:	28 2f       	mov	r18, r24
				if (res != FR_OK) LEAVE_FF(dj.fs, res);
    4e60:	88 23       	and	r24, r24
    4e62:	09 f0       	breq	.+2      	; 0x4e66 <f_open+0x162>
    4e64:	b9 c0       	rjmp	.+370    	; 0x4fd8 <f_open+0x2d4>
			}
		}
		if (mode & FA_CREATE_ALWAYS) {
    4e66:	53 fe       	sbrs	r5, 3
    4e68:	2c c0       	rjmp	.+88     	; 0x4ec2 <f_open+0x1be>
			dir[DIR_Attr] = 0;					/* Reset attribute */
    4e6a:	d6 01       	movw	r26, r12
    4e6c:	1b 96       	adiw	r26, 0x0b	; 11
    4e6e:	1c 92       	st	X, r1
			ps = get_fattime();
    4e70:	0e 94 60 00 	call	0xc0	; 0xc0 <get_fattime>
			ST_DWORD(dir+DIR_CrtTime, ps);		/* Created time */
    4e74:	f6 01       	movw	r30, r12
    4e76:	66 87       	std	Z+14, r22	; 0x0e
    4e78:	27 2f       	mov	r18, r23
    4e7a:	33 27       	eor	r19, r19
    4e7c:	27 87       	std	Z+15, r18	; 0x0f
    4e7e:	9c 01       	movw	r18, r24
    4e80:	44 27       	eor	r20, r20
    4e82:	55 27       	eor	r21, r21
    4e84:	20 8b       	std	Z+16, r18	; 0x10
    4e86:	69 2f       	mov	r22, r25
    4e88:	77 27       	eor	r23, r23
    4e8a:	88 27       	eor	r24, r24
    4e8c:	99 27       	eor	r25, r25
    4e8e:	61 8b       	std	Z+17, r22	; 0x11
			dj.fs->wflag = 1;
    4e90:	e9 89       	ldd	r30, Y+17	; 0x11
    4e92:	fa 89       	ldd	r31, Y+18	; 0x12
    4e94:	81 e0       	ldi	r24, 0x01	; 1
    4e96:	84 83       	std	Z+4, r24	; 0x04
			mode |= FA__WRITTEN;				/* Set file changed flag */
    4e98:	f0 e2       	ldi	r31, 0x20	; 32
    4e9a:	5f 2a       	or	r5, r31
    4e9c:	12 c0       	rjmp	.+36     	; 0x4ec2 <f_open+0x1be>
		}
	}
	/* Open an existing file */
	else {
#endif /* !_FS_READONLY */
		if (res != FR_OK) LEAVE_FF(dj.fs, res);	/* Follow failed */
    4e9e:	22 23       	and	r18, r18
    4ea0:	09 f0       	breq	.+2      	; 0x4ea4 <f_open+0x1a0>
    4ea2:	9a c0       	rjmp	.+308    	; 0x4fd8 <f_open+0x2d4>
		dir = dj.dir;
    4ea4:	cf 8c       	ldd	r12, Y+31	; 0x1f
    4ea6:	d8 a0       	ldd	r13, Y+32	; 0x20
		if (!dir || (dir[DIR_Attr] & AM_DIR))	/* It is a directory */
    4ea8:	c1 14       	cp	r12, r1
    4eaa:	d1 04       	cpc	r13, r1
    4eac:	09 f4       	brne	.+2      	; 0x4eb0 <f_open+0x1ac>
    4eae:	93 c0       	rjmp	.+294    	; 0x4fd6 <f_open+0x2d2>
    4eb0:	d6 01       	movw	r26, r12
    4eb2:	1b 96       	adiw	r26, 0x0b	; 11
    4eb4:	8c 91       	ld	r24, X
    4eb6:	84 fd       	sbrc	r24, 4
    4eb8:	8e c0       	rjmp	.+284    	; 0x4fd6 <f_open+0x2d2>
			LEAVE_FF(dj.fs, FR_NO_FILE);
#if !_FS_READONLY
		if ((mode & FA_WRITE) && (dir[DIR_Attr] & AM_RDO)) /* R/O violation */
    4eba:	51 fe       	sbrs	r5, 1
    4ebc:	02 c0       	rjmp	.+4      	; 0x4ec2 <f_open+0x1be>
    4ebe:	80 fd       	sbrc	r24, 0
    4ec0:	88 c0       	rjmp	.+272    	; 0x4fd2 <f_open+0x2ce>
			LEAVE_FF(dj.fs, FR_DENIED);
	}
	fp->dir_sect = dj.fs->winsect;		/* Pointer to the directory entry */
    4ec2:	e9 89       	ldd	r30, Y+17	; 0x11
    4ec4:	fa 89       	ldd	r31, Y+18	; 0x12
    4ec6:	24 a5       	ldd	r18, Z+44	; 0x2c
    4ec8:	35 a5       	ldd	r19, Z+45	; 0x2d
    4eca:	46 a5       	ldd	r20, Z+46	; 0x2e
    4ecc:	57 a5       	ldd	r21, Z+47	; 0x2f
    4ece:	d3 01       	movw	r26, r6
    4ed0:	5a 96       	adiw	r26, 0x1a	; 26
    4ed2:	2d 93       	st	X+, r18
    4ed4:	3d 93       	st	X+, r19
    4ed6:	4d 93       	st	X+, r20
    4ed8:	5c 93       	st	X, r21
    4eda:	5d 97       	sbiw	r26, 0x1d	; 29
	fp->dir_ptr = dj.dir;
    4edc:	8f 8d       	ldd	r24, Y+31	; 0x1f
    4ede:	98 a1       	ldd	r25, Y+32	; 0x20
    4ee0:	5f 96       	adiw	r26, 0x1f	; 31
    4ee2:	9c 93       	st	X, r25
    4ee4:	8e 93       	st	-X, r24
    4ee6:	5e 97       	sbiw	r26, 0x1e	; 30
#endif
	fp->flag = mode;					/* File access mode */
    4ee8:	14 96       	adiw	r26, 0x04	; 4
    4eea:	5c 92       	st	X, r5
	fp->org_clust =						/* File start cluster */
    4eec:	d6 01       	movw	r26, r12
    4eee:	55 96       	adiw	r26, 0x15	; 21
    4ef0:	3c 91       	ld	r19, X
    4ef2:	55 97       	sbiw	r26, 0x15	; 21
    4ef4:	20 e0       	ldi	r18, 0x00	; 0
    4ef6:	54 96       	adiw	r26, 0x14	; 20
    4ef8:	8c 91       	ld	r24, X
    4efa:	54 97       	sbiw	r26, 0x14	; 20
    4efc:	90 e0       	ldi	r25, 0x00	; 0
    4efe:	28 2b       	or	r18, r24
    4f00:	39 2b       	or	r19, r25
    4f02:	40 e0       	ldi	r20, 0x00	; 0
    4f04:	50 e0       	ldi	r21, 0x00	; 0
    4f06:	a9 01       	movw	r20, r18
    4f08:	33 27       	eor	r19, r19
    4f0a:	22 27       	eor	r18, r18
    4f0c:	5b 96       	adiw	r26, 0x1b	; 27
    4f0e:	9c 91       	ld	r25, X
    4f10:	5b 97       	sbiw	r26, 0x1b	; 27
    4f12:	80 e0       	ldi	r24, 0x00	; 0
    4f14:	5a 96       	adiw	r26, 0x1a	; 26
    4f16:	6c 91       	ld	r22, X
    4f18:	70 e0       	ldi	r23, 0x00	; 0
    4f1a:	86 2b       	or	r24, r22
    4f1c:	97 2b       	or	r25, r23
    4f1e:	a0 e0       	ldi	r26, 0x00	; 0
    4f20:	b0 e0       	ldi	r27, 0x00	; 0
    4f22:	28 2b       	or	r18, r24
    4f24:	39 2b       	or	r19, r25
    4f26:	4a 2b       	or	r20, r26
    4f28:	5b 2b       	or	r21, r27
    4f2a:	d3 01       	movw	r26, r6
    4f2c:	1e 96       	adiw	r26, 0x0e	; 14
    4f2e:	2d 93       	st	X+, r18
    4f30:	3d 93       	st	X+, r19
    4f32:	4d 93       	st	X+, r20
    4f34:	5c 93       	st	X, r21
    4f36:	51 97       	sbiw	r26, 0x11	; 17
		((DWORD)LD_WORD(dir+DIR_FstClusHI) << 16) | LD_WORD(dir+DIR_FstClusLO);
	fp->fsize = LD_DWORD(dir+DIR_FileSize);	/* File size */
    4f38:	d6 01       	movw	r26, r12
    4f3a:	5f 96       	adiw	r26, 0x1f	; 31
    4f3c:	2c 91       	ld	r18, X
    4f3e:	5f 97       	sbiw	r26, 0x1f	; 31
    4f40:	30 e0       	ldi	r19, 0x00	; 0
    4f42:	40 e0       	ldi	r20, 0x00	; 0
    4f44:	50 e0       	ldi	r21, 0x00	; 0
    4f46:	52 2f       	mov	r21, r18
    4f48:	44 27       	eor	r20, r20
    4f4a:	33 27       	eor	r19, r19
    4f4c:	22 27       	eor	r18, r18
    4f4e:	5e 96       	adiw	r26, 0x1e	; 30
    4f50:	8c 91       	ld	r24, X
    4f52:	90 e0       	ldi	r25, 0x00	; 0
    4f54:	a0 e0       	ldi	r26, 0x00	; 0
    4f56:	b0 e0       	ldi	r27, 0x00	; 0
    4f58:	dc 01       	movw	r26, r24
    4f5a:	99 27       	eor	r25, r25
    4f5c:	88 27       	eor	r24, r24
    4f5e:	28 2b       	or	r18, r24
    4f60:	39 2b       	or	r19, r25
    4f62:	4a 2b       	or	r20, r26
    4f64:	5b 2b       	or	r21, r27
    4f66:	d6 01       	movw	r26, r12
    4f68:	5c 96       	adiw	r26, 0x1c	; 28
    4f6a:	8c 91       	ld	r24, X
    4f6c:	90 e0       	ldi	r25, 0x00	; 0
    4f6e:	a0 e0       	ldi	r26, 0x00	; 0
    4f70:	b0 e0       	ldi	r27, 0x00	; 0
    4f72:	28 2b       	or	r18, r24
    4f74:	39 2b       	or	r19, r25
    4f76:	4a 2b       	or	r20, r26
    4f78:	5b 2b       	or	r21, r27
    4f7a:	d6 01       	movw	r26, r12
    4f7c:	5d 96       	adiw	r26, 0x1d	; 29
    4f7e:	9c 91       	ld	r25, X
    4f80:	80 e0       	ldi	r24, 0x00	; 0
    4f82:	a0 e0       	ldi	r26, 0x00	; 0
    4f84:	b0 e0       	ldi	r27, 0x00	; 0
    4f86:	28 2b       	or	r18, r24
    4f88:	39 2b       	or	r19, r25
    4f8a:	4a 2b       	or	r20, r26
    4f8c:	5b 2b       	or	r21, r27
    4f8e:	d3 01       	movw	r26, r6
    4f90:	1a 96       	adiw	r26, 0x0a	; 10
    4f92:	2d 93       	st	X+, r18
    4f94:	3d 93       	st	X+, r19
    4f96:	4d 93       	st	X+, r20
    4f98:	5c 93       	st	X, r21
    4f9a:	1d 97       	sbiw	r26, 0x0d	; 13
	fp->fptr = 0; fp->csect = 255;		/* File pointer */
    4f9c:	16 96       	adiw	r26, 0x06	; 6
    4f9e:	1d 92       	st	X+, r1
    4fa0:	1d 92       	st	X+, r1
    4fa2:	1d 92       	st	X+, r1
    4fa4:	1c 92       	st	X, r1
    4fa6:	19 97       	sbiw	r26, 0x09	; 9
    4fa8:	8f ef       	ldi	r24, 0xFF	; 255
    4faa:	15 96       	adiw	r26, 0x05	; 5
    4fac:	8c 93       	st	X, r24
    4fae:	15 97       	sbiw	r26, 0x05	; 5
	fp->dsect = 0;
    4fb0:	56 96       	adiw	r26, 0x16	; 22
    4fb2:	1d 92       	st	X+, r1
    4fb4:	1d 92       	st	X+, r1
    4fb6:	1d 92       	st	X+, r1
    4fb8:	1c 92       	st	X, r1
    4fba:	59 97       	sbiw	r26, 0x19	; 25
	fp->fs = dj.fs; fp->id = dj.fs->id;	/* Owner file system object of the file */
    4fbc:	11 96       	adiw	r26, 0x01	; 1
    4fbe:	fc 93       	st	X, r31
    4fc0:	ee 93       	st	-X, r30
    4fc2:	86 81       	ldd	r24, Z+6	; 0x06
    4fc4:	97 81       	ldd	r25, Z+7	; 0x07
    4fc6:	13 96       	adiw	r26, 0x03	; 3
    4fc8:	9c 93       	st	X, r25
    4fca:	8e 93       	st	-X, r24
    4fcc:	12 97       	sbiw	r26, 0x02	; 2
    4fce:	20 e0       	ldi	r18, 0x00	; 0
    4fd0:	03 c0       	rjmp	.+6      	; 0x4fd8 <f_open+0x2d4>

	LEAVE_FF(dj.fs, FR_OK);
    4fd2:	27 e0       	ldi	r18, 0x07	; 7
    4fd4:	01 c0       	rjmp	.+2      	; 0x4fd8 <f_open+0x2d4>
    4fd6:	24 e0       	ldi	r18, 0x04	; 4
}
    4fd8:	82 2f       	mov	r24, r18
    4fda:	a8 96       	adiw	r28, 0x28	; 40
    4fdc:	0f b6       	in	r0, 0x3f	; 63
    4fde:	f8 94       	cli
    4fe0:	de bf       	out	0x3e, r29	; 62
    4fe2:	0f be       	out	0x3f, r0	; 63
    4fe4:	cd bf       	out	0x3d, r28	; 61
    4fe6:	cf 91       	pop	r28
    4fe8:	df 91       	pop	r29
    4fea:	1f 91       	pop	r17
    4fec:	0f 91       	pop	r16
    4fee:	ff 90       	pop	r15
    4ff0:	ef 90       	pop	r14
    4ff2:	df 90       	pop	r13
    4ff4:	cf 90       	pop	r12
    4ff6:	bf 90       	pop	r11
    4ff8:	af 90       	pop	r10
    4ffa:	9f 90       	pop	r9
    4ffc:	8f 90       	pop	r8
    4ffe:	7f 90       	pop	r7
    5000:	6f 90       	pop	r6
    5002:	5f 90       	pop	r5
    5004:	08 95       	ret

00005006 <ff_convert>:

WCHAR ff_convert (	/* Converted code, 0 means conversion error */
	WCHAR	src,	/* Character code to be converted */
	UINT	dir		/* 0: Unicode to OEMCP, 1: OEMCP to Unicode */
)
{
    5006:	fc 01       	movw	r30, r24
	const WCHAR *p;
	WCHAR c;


	if (src < 0x80) {	/* ASCII */
    5008:	80 38       	cpi	r24, 0x80	; 128
    500a:	91 05       	cpc	r25, r1
    500c:	10 f4       	brcc	.+4      	; 0x5012 <ff_convert+0xc>
    500e:	9c 01       	movw	r18, r24
    5010:	23 c0       	rjmp	.+70     	; 0x5058 <ff_convert+0x52>
		c = src;

	} else {
		if (dir) {		/* OEMCP to Unicode */
    5012:	67 2b       	or	r22, r23
    5014:	71 f0       	breq	.+28     	; 0x5032 <ff_convert+0x2c>
			c = (src >= 0x100) ? 0 : Tbl[src - 0x80];
    5016:	8f 3f       	cpi	r24, 0xFF	; 255
    5018:	91 05       	cpc	r25, r1
    501a:	21 f0       	breq	.+8      	; 0x5024 <ff_convert+0x1e>
    501c:	18 f0       	brcs	.+6      	; 0x5024 <ff_convert+0x1e>
    501e:	20 e0       	ldi	r18, 0x00	; 0
    5020:	30 e0       	ldi	r19, 0x00	; 0
    5022:	1a c0       	rjmp	.+52     	; 0x5058 <ff_convert+0x52>
    5024:	ee 0f       	add	r30, r30
    5026:	ff 1f       	adc	r31, r31
    5028:	e4 5a       	subi	r30, 0xA4	; 164
    502a:	ff 4f       	sbci	r31, 0xFF	; 255
    502c:	20 81       	ld	r18, Z
    502e:	31 81       	ldd	r19, Z+1	; 0x01
    5030:	13 c0       	rjmp	.+38     	; 0x5058 <ff_convert+0x52>
    5032:	ac e5       	ldi	r26, 0x5C	; 92
    5034:	b1 e0       	ldi	r27, 0x01	; 1
    5036:	20 e0       	ldi	r18, 0x00	; 0
    5038:	30 e0       	ldi	r19, 0x00	; 0

		} else {		/* Unicode to OEMCP */
			for (c = 0; c < 0x80; c++) {
				if (src == Tbl[c]) break;
    503a:	8d 91       	ld	r24, X+
    503c:	9c 91       	ld	r25, X
    503e:	11 97       	sbiw	r26, 0x01	; 1
    5040:	e8 17       	cp	r30, r24
    5042:	f9 07       	cpc	r31, r25
    5044:	31 f0       	breq	.+12     	; 0x5052 <ff_convert+0x4c>
	} else {
		if (dir) {		/* OEMCP to Unicode */
			c = (src >= 0x100) ? 0 : Tbl[src - 0x80];

		} else {		/* Unicode to OEMCP */
			for (c = 0; c < 0x80; c++) {
    5046:	2f 5f       	subi	r18, 0xFF	; 255
    5048:	3f 4f       	sbci	r19, 0xFF	; 255
    504a:	12 96       	adiw	r26, 0x02	; 2
    504c:	20 38       	cpi	r18, 0x80	; 128
    504e:	31 05       	cpc	r19, r1
    5050:	a1 f7       	brne	.-24     	; 0x503a <ff_convert+0x34>
				if (src == Tbl[c]) break;
			}
			c = (c + 0x80) & 0xFF;
    5052:	20 58       	subi	r18, 0x80	; 128
    5054:	3f 4f       	sbci	r19, 0xFF	; 255
    5056:	30 70       	andi	r19, 0x00	; 0
		}
	}

	return c;
}
    5058:	c9 01       	movw	r24, r18
    505a:	08 95       	ret

0000505c <__mulsi3>:
    505c:	62 9f       	mul	r22, r18
    505e:	d0 01       	movw	r26, r0
    5060:	73 9f       	mul	r23, r19
    5062:	f0 01       	movw	r30, r0
    5064:	82 9f       	mul	r24, r18
    5066:	e0 0d       	add	r30, r0
    5068:	f1 1d       	adc	r31, r1
    506a:	64 9f       	mul	r22, r20
    506c:	e0 0d       	add	r30, r0
    506e:	f1 1d       	adc	r31, r1
    5070:	92 9f       	mul	r25, r18
    5072:	f0 0d       	add	r31, r0
    5074:	83 9f       	mul	r24, r19
    5076:	f0 0d       	add	r31, r0
    5078:	74 9f       	mul	r23, r20
    507a:	f0 0d       	add	r31, r0
    507c:	65 9f       	mul	r22, r21
    507e:	f0 0d       	add	r31, r0
    5080:	99 27       	eor	r25, r25
    5082:	72 9f       	mul	r23, r18
    5084:	b0 0d       	add	r27, r0
    5086:	e1 1d       	adc	r30, r1
    5088:	f9 1f       	adc	r31, r25
    508a:	63 9f       	mul	r22, r19
    508c:	b0 0d       	add	r27, r0
    508e:	e1 1d       	adc	r30, r1
    5090:	f9 1f       	adc	r31, r25
    5092:	bd 01       	movw	r22, r26
    5094:	cf 01       	movw	r24, r30
    5096:	11 24       	eor	r1, r1
    5098:	08 95       	ret

0000509a <__udivmodhi4>:
    509a:	aa 1b       	sub	r26, r26
    509c:	bb 1b       	sub	r27, r27
    509e:	51 e1       	ldi	r21, 0x11	; 17
    50a0:	07 c0       	rjmp	.+14     	; 0x50b0 <__udivmodhi4_ep>

000050a2 <__udivmodhi4_loop>:
    50a2:	aa 1f       	adc	r26, r26
    50a4:	bb 1f       	adc	r27, r27
    50a6:	a6 17       	cp	r26, r22
    50a8:	b7 07       	cpc	r27, r23
    50aa:	10 f0       	brcs	.+4      	; 0x50b0 <__udivmodhi4_ep>
    50ac:	a6 1b       	sub	r26, r22
    50ae:	b7 0b       	sbc	r27, r23

000050b0 <__udivmodhi4_ep>:
    50b0:	88 1f       	adc	r24, r24
    50b2:	99 1f       	adc	r25, r25
    50b4:	5a 95       	dec	r21
    50b6:	a9 f7       	brne	.-22     	; 0x50a2 <__udivmodhi4_loop>
    50b8:	80 95       	com	r24
    50ba:	90 95       	com	r25
    50bc:	bc 01       	movw	r22, r24
    50be:	cd 01       	movw	r24, r26
    50c0:	08 95       	ret

000050c2 <__udivmodsi4>:
    50c2:	a1 e2       	ldi	r26, 0x21	; 33
    50c4:	1a 2e       	mov	r1, r26
    50c6:	aa 1b       	sub	r26, r26
    50c8:	bb 1b       	sub	r27, r27
    50ca:	fd 01       	movw	r30, r26
    50cc:	0d c0       	rjmp	.+26     	; 0x50e8 <__udivmodsi4_ep>

000050ce <__udivmodsi4_loop>:
    50ce:	aa 1f       	adc	r26, r26
    50d0:	bb 1f       	adc	r27, r27
    50d2:	ee 1f       	adc	r30, r30
    50d4:	ff 1f       	adc	r31, r31
    50d6:	a2 17       	cp	r26, r18
    50d8:	b3 07       	cpc	r27, r19
    50da:	e4 07       	cpc	r30, r20
    50dc:	f5 07       	cpc	r31, r21
    50de:	20 f0       	brcs	.+8      	; 0x50e8 <__udivmodsi4_ep>
    50e0:	a2 1b       	sub	r26, r18
    50e2:	b3 0b       	sbc	r27, r19
    50e4:	e4 0b       	sbc	r30, r20
    50e6:	f5 0b       	sbc	r31, r21

000050e8 <__udivmodsi4_ep>:
    50e8:	66 1f       	adc	r22, r22
    50ea:	77 1f       	adc	r23, r23
    50ec:	88 1f       	adc	r24, r24
    50ee:	99 1f       	adc	r25, r25
    50f0:	1a 94       	dec	r1
    50f2:	69 f7       	brne	.-38     	; 0x50ce <__udivmodsi4_loop>
    50f4:	60 95       	com	r22
    50f6:	70 95       	com	r23
    50f8:	80 95       	com	r24
    50fa:	90 95       	com	r25
    50fc:	9b 01       	movw	r18, r22
    50fe:	ac 01       	movw	r20, r24
    5100:	bd 01       	movw	r22, r26
    5102:	cf 01       	movw	r24, r30
    5104:	08 95       	ret

00005106 <sprintf>:
    5106:	ae e0       	ldi	r26, 0x0E	; 14
    5108:	b0 e0       	ldi	r27, 0x00	; 0
    510a:	e9 e8       	ldi	r30, 0x89	; 137
    510c:	f8 e2       	ldi	r31, 0x28	; 40
    510e:	0c 94 32 2b 	jmp	0x5664	; 0x5664 <__prologue_saves__+0x1c>
    5112:	0d 89       	ldd	r16, Y+21	; 0x15
    5114:	1e 89       	ldd	r17, Y+22	; 0x16
    5116:	86 e0       	ldi	r24, 0x06	; 6
    5118:	8c 83       	std	Y+4, r24	; 0x04
    511a:	1a 83       	std	Y+2, r17	; 0x02
    511c:	09 83       	std	Y+1, r16	; 0x01
    511e:	8f ef       	ldi	r24, 0xFF	; 255
    5120:	9f e7       	ldi	r25, 0x7F	; 127
    5122:	9e 83       	std	Y+6, r25	; 0x06
    5124:	8d 83       	std	Y+5, r24	; 0x05
    5126:	9e 01       	movw	r18, r28
    5128:	27 5e       	subi	r18, 0xE7	; 231
    512a:	3f 4f       	sbci	r19, 0xFF	; 255
    512c:	ce 01       	movw	r24, r28
    512e:	01 96       	adiw	r24, 0x01	; 1
    5130:	6f 89       	ldd	r22, Y+23	; 0x17
    5132:	78 8d       	ldd	r23, Y+24	; 0x18
    5134:	a9 01       	movw	r20, r18
    5136:	0e 94 a7 28 	call	0x514e	; 0x514e <vfprintf>
    513a:	2f 81       	ldd	r18, Y+7	; 0x07
    513c:	38 85       	ldd	r19, Y+8	; 0x08
    513e:	02 0f       	add	r16, r18
    5140:	13 1f       	adc	r17, r19
    5142:	f8 01       	movw	r30, r16
    5144:	10 82       	st	Z, r1
    5146:	2e 96       	adiw	r28, 0x0e	; 14
    5148:	e4 e0       	ldi	r30, 0x04	; 4
    514a:	0c 94 4e 2b 	jmp	0x569c	; 0x569c <__epilogue_restores__+0x1c>

0000514e <vfprintf>:
    514e:	ab e0       	ldi	r26, 0x0B	; 11
    5150:	b0 e0       	ldi	r27, 0x00	; 0
    5152:	ed ea       	ldi	r30, 0xAD	; 173
    5154:	f8 e2       	ldi	r31, 0x28	; 40
    5156:	0c 94 24 2b 	jmp	0x5648	; 0x5648 <__prologue_saves__>
    515a:	3c 01       	movw	r6, r24
    515c:	2b 01       	movw	r4, r22
    515e:	5a 01       	movw	r10, r20
    5160:	fc 01       	movw	r30, r24
    5162:	17 82       	std	Z+7, r1	; 0x07
    5164:	16 82       	std	Z+6, r1	; 0x06
    5166:	83 81       	ldd	r24, Z+3	; 0x03
    5168:	81 fd       	sbrc	r24, 1
    516a:	03 c0       	rjmp	.+6      	; 0x5172 <vfprintf+0x24>
    516c:	6f ef       	ldi	r22, 0xFF	; 255
    516e:	7f ef       	ldi	r23, 0xFF	; 255
    5170:	c6 c1       	rjmp	.+908    	; 0x54fe <vfprintf+0x3b0>
    5172:	9a e0       	ldi	r25, 0x0A	; 10
    5174:	89 2e       	mov	r8, r25
    5176:	1e 01       	movw	r2, r28
    5178:	08 94       	sec
    517a:	21 1c       	adc	r2, r1
    517c:	31 1c       	adc	r3, r1
    517e:	f3 01       	movw	r30, r6
    5180:	23 81       	ldd	r18, Z+3	; 0x03
    5182:	f2 01       	movw	r30, r4
    5184:	23 fd       	sbrc	r18, 3
    5186:	85 91       	lpm	r24, Z+
    5188:	23 ff       	sbrs	r18, 3
    518a:	81 91       	ld	r24, Z+
    518c:	2f 01       	movw	r4, r30
    518e:	88 23       	and	r24, r24
    5190:	09 f4       	brne	.+2      	; 0x5194 <vfprintf+0x46>
    5192:	b2 c1       	rjmp	.+868    	; 0x54f8 <vfprintf+0x3aa>
    5194:	85 32       	cpi	r24, 0x25	; 37
    5196:	39 f4       	brne	.+14     	; 0x51a6 <vfprintf+0x58>
    5198:	23 fd       	sbrc	r18, 3
    519a:	85 91       	lpm	r24, Z+
    519c:	23 ff       	sbrs	r18, 3
    519e:	81 91       	ld	r24, Z+
    51a0:	2f 01       	movw	r4, r30
    51a2:	85 32       	cpi	r24, 0x25	; 37
    51a4:	29 f4       	brne	.+10     	; 0x51b0 <vfprintf+0x62>
    51a6:	90 e0       	ldi	r25, 0x00	; 0
    51a8:	b3 01       	movw	r22, r6
    51aa:	0e 94 9a 2a 	call	0x5534	; 0x5534 <fputc>
    51ae:	e7 cf       	rjmp	.-50     	; 0x517e <vfprintf+0x30>
    51b0:	98 2f       	mov	r25, r24
    51b2:	ff 24       	eor	r15, r15
    51b4:	ee 24       	eor	r14, r14
    51b6:	99 24       	eor	r9, r9
    51b8:	ff e1       	ldi	r31, 0x1F	; 31
    51ba:	ff 15       	cp	r31, r15
    51bc:	d0 f0       	brcs	.+52     	; 0x51f2 <vfprintf+0xa4>
    51be:	9b 32       	cpi	r25, 0x2B	; 43
    51c0:	69 f0       	breq	.+26     	; 0x51dc <vfprintf+0x8e>
    51c2:	9c 32       	cpi	r25, 0x2C	; 44
    51c4:	28 f4       	brcc	.+10     	; 0x51d0 <vfprintf+0x82>
    51c6:	90 32       	cpi	r25, 0x20	; 32
    51c8:	59 f0       	breq	.+22     	; 0x51e0 <vfprintf+0x92>
    51ca:	93 32       	cpi	r25, 0x23	; 35
    51cc:	91 f4       	brne	.+36     	; 0x51f2 <vfprintf+0xa4>
    51ce:	0e c0       	rjmp	.+28     	; 0x51ec <vfprintf+0x9e>
    51d0:	9d 32       	cpi	r25, 0x2D	; 45
    51d2:	49 f0       	breq	.+18     	; 0x51e6 <vfprintf+0x98>
    51d4:	90 33       	cpi	r25, 0x30	; 48
    51d6:	69 f4       	brne	.+26     	; 0x51f2 <vfprintf+0xa4>
    51d8:	41 e0       	ldi	r20, 0x01	; 1
    51da:	24 c0       	rjmp	.+72     	; 0x5224 <vfprintf+0xd6>
    51dc:	52 e0       	ldi	r21, 0x02	; 2
    51de:	f5 2a       	or	r15, r21
    51e0:	84 e0       	ldi	r24, 0x04	; 4
    51e2:	f8 2a       	or	r15, r24
    51e4:	28 c0       	rjmp	.+80     	; 0x5236 <vfprintf+0xe8>
    51e6:	98 e0       	ldi	r25, 0x08	; 8
    51e8:	f9 2a       	or	r15, r25
    51ea:	25 c0       	rjmp	.+74     	; 0x5236 <vfprintf+0xe8>
    51ec:	e0 e1       	ldi	r30, 0x10	; 16
    51ee:	fe 2a       	or	r15, r30
    51f0:	22 c0       	rjmp	.+68     	; 0x5236 <vfprintf+0xe8>
    51f2:	f7 fc       	sbrc	r15, 7
    51f4:	29 c0       	rjmp	.+82     	; 0x5248 <vfprintf+0xfa>
    51f6:	89 2f       	mov	r24, r25
    51f8:	80 53       	subi	r24, 0x30	; 48
    51fa:	8a 30       	cpi	r24, 0x0A	; 10
    51fc:	70 f4       	brcc	.+28     	; 0x521a <vfprintf+0xcc>
    51fe:	f6 fe       	sbrs	r15, 6
    5200:	05 c0       	rjmp	.+10     	; 0x520c <vfprintf+0xbe>
    5202:	98 9c       	mul	r9, r8
    5204:	90 2c       	mov	r9, r0
    5206:	11 24       	eor	r1, r1
    5208:	98 0e       	add	r9, r24
    520a:	15 c0       	rjmp	.+42     	; 0x5236 <vfprintf+0xe8>
    520c:	e8 9c       	mul	r14, r8
    520e:	e0 2c       	mov	r14, r0
    5210:	11 24       	eor	r1, r1
    5212:	e8 0e       	add	r14, r24
    5214:	f0 e2       	ldi	r31, 0x20	; 32
    5216:	ff 2a       	or	r15, r31
    5218:	0e c0       	rjmp	.+28     	; 0x5236 <vfprintf+0xe8>
    521a:	9e 32       	cpi	r25, 0x2E	; 46
    521c:	29 f4       	brne	.+10     	; 0x5228 <vfprintf+0xda>
    521e:	f6 fc       	sbrc	r15, 6
    5220:	6b c1       	rjmp	.+726    	; 0x54f8 <vfprintf+0x3aa>
    5222:	40 e4       	ldi	r20, 0x40	; 64
    5224:	f4 2a       	or	r15, r20
    5226:	07 c0       	rjmp	.+14     	; 0x5236 <vfprintf+0xe8>
    5228:	9c 36       	cpi	r25, 0x6C	; 108
    522a:	19 f4       	brne	.+6      	; 0x5232 <vfprintf+0xe4>
    522c:	50 e8       	ldi	r21, 0x80	; 128
    522e:	f5 2a       	or	r15, r21
    5230:	02 c0       	rjmp	.+4      	; 0x5236 <vfprintf+0xe8>
    5232:	98 36       	cpi	r25, 0x68	; 104
    5234:	49 f4       	brne	.+18     	; 0x5248 <vfprintf+0xfa>
    5236:	f2 01       	movw	r30, r4
    5238:	23 fd       	sbrc	r18, 3
    523a:	95 91       	lpm	r25, Z+
    523c:	23 ff       	sbrs	r18, 3
    523e:	91 91       	ld	r25, Z+
    5240:	2f 01       	movw	r4, r30
    5242:	99 23       	and	r25, r25
    5244:	09 f0       	breq	.+2      	; 0x5248 <vfprintf+0xfa>
    5246:	b8 cf       	rjmp	.-144    	; 0x51b8 <vfprintf+0x6a>
    5248:	89 2f       	mov	r24, r25
    524a:	85 54       	subi	r24, 0x45	; 69
    524c:	83 30       	cpi	r24, 0x03	; 3
    524e:	18 f0       	brcs	.+6      	; 0x5256 <vfprintf+0x108>
    5250:	80 52       	subi	r24, 0x20	; 32
    5252:	83 30       	cpi	r24, 0x03	; 3
    5254:	38 f4       	brcc	.+14     	; 0x5264 <vfprintf+0x116>
    5256:	44 e0       	ldi	r20, 0x04	; 4
    5258:	50 e0       	ldi	r21, 0x00	; 0
    525a:	a4 0e       	add	r10, r20
    525c:	b5 1e       	adc	r11, r21
    525e:	5f e3       	ldi	r21, 0x3F	; 63
    5260:	59 83       	std	Y+1, r21	; 0x01
    5262:	0f c0       	rjmp	.+30     	; 0x5282 <vfprintf+0x134>
    5264:	93 36       	cpi	r25, 0x63	; 99
    5266:	31 f0       	breq	.+12     	; 0x5274 <vfprintf+0x126>
    5268:	93 37       	cpi	r25, 0x73	; 115
    526a:	79 f0       	breq	.+30     	; 0x528a <vfprintf+0x13c>
    526c:	93 35       	cpi	r25, 0x53	; 83
    526e:	09 f0       	breq	.+2      	; 0x5272 <vfprintf+0x124>
    5270:	56 c0       	rjmp	.+172    	; 0x531e <vfprintf+0x1d0>
    5272:	20 c0       	rjmp	.+64     	; 0x52b4 <vfprintf+0x166>
    5274:	f5 01       	movw	r30, r10
    5276:	80 81       	ld	r24, Z
    5278:	89 83       	std	Y+1, r24	; 0x01
    527a:	42 e0       	ldi	r20, 0x02	; 2
    527c:	50 e0       	ldi	r21, 0x00	; 0
    527e:	a4 0e       	add	r10, r20
    5280:	b5 1e       	adc	r11, r21
    5282:	61 01       	movw	r12, r2
    5284:	01 e0       	ldi	r16, 0x01	; 1
    5286:	10 e0       	ldi	r17, 0x00	; 0
    5288:	12 c0       	rjmp	.+36     	; 0x52ae <vfprintf+0x160>
    528a:	f5 01       	movw	r30, r10
    528c:	c0 80       	ld	r12, Z
    528e:	d1 80       	ldd	r13, Z+1	; 0x01
    5290:	f6 fc       	sbrc	r15, 6
    5292:	03 c0       	rjmp	.+6      	; 0x529a <vfprintf+0x14c>
    5294:	6f ef       	ldi	r22, 0xFF	; 255
    5296:	7f ef       	ldi	r23, 0xFF	; 255
    5298:	02 c0       	rjmp	.+4      	; 0x529e <vfprintf+0x150>
    529a:	69 2d       	mov	r22, r9
    529c:	70 e0       	ldi	r23, 0x00	; 0
    529e:	42 e0       	ldi	r20, 0x02	; 2
    52a0:	50 e0       	ldi	r21, 0x00	; 0
    52a2:	a4 0e       	add	r10, r20
    52a4:	b5 1e       	adc	r11, r21
    52a6:	c6 01       	movw	r24, r12
    52a8:	0e 94 8f 2a 	call	0x551e	; 0x551e <strnlen>
    52ac:	8c 01       	movw	r16, r24
    52ae:	5f e7       	ldi	r21, 0x7F	; 127
    52b0:	f5 22       	and	r15, r21
    52b2:	14 c0       	rjmp	.+40     	; 0x52dc <vfprintf+0x18e>
    52b4:	f5 01       	movw	r30, r10
    52b6:	c0 80       	ld	r12, Z
    52b8:	d1 80       	ldd	r13, Z+1	; 0x01
    52ba:	f6 fc       	sbrc	r15, 6
    52bc:	03 c0       	rjmp	.+6      	; 0x52c4 <vfprintf+0x176>
    52be:	6f ef       	ldi	r22, 0xFF	; 255
    52c0:	7f ef       	ldi	r23, 0xFF	; 255
    52c2:	02 c0       	rjmp	.+4      	; 0x52c8 <vfprintf+0x17a>
    52c4:	69 2d       	mov	r22, r9
    52c6:	70 e0       	ldi	r23, 0x00	; 0
    52c8:	42 e0       	ldi	r20, 0x02	; 2
    52ca:	50 e0       	ldi	r21, 0x00	; 0
    52cc:	a4 0e       	add	r10, r20
    52ce:	b5 1e       	adc	r11, r21
    52d0:	c6 01       	movw	r24, r12
    52d2:	0e 94 84 2a 	call	0x5508	; 0x5508 <strnlen_P>
    52d6:	8c 01       	movw	r16, r24
    52d8:	50 e8       	ldi	r21, 0x80	; 128
    52da:	f5 2a       	or	r15, r21
    52dc:	f3 fe       	sbrs	r15, 3
    52de:	07 c0       	rjmp	.+14     	; 0x52ee <vfprintf+0x1a0>
    52e0:	1a c0       	rjmp	.+52     	; 0x5316 <vfprintf+0x1c8>
    52e2:	80 e2       	ldi	r24, 0x20	; 32
    52e4:	90 e0       	ldi	r25, 0x00	; 0
    52e6:	b3 01       	movw	r22, r6
    52e8:	0e 94 9a 2a 	call	0x5534	; 0x5534 <fputc>
    52ec:	ea 94       	dec	r14
    52ee:	8e 2d       	mov	r24, r14
    52f0:	90 e0       	ldi	r25, 0x00	; 0
    52f2:	08 17       	cp	r16, r24
    52f4:	19 07       	cpc	r17, r25
    52f6:	a8 f3       	brcs	.-22     	; 0x52e2 <vfprintf+0x194>
    52f8:	0e c0       	rjmp	.+28     	; 0x5316 <vfprintf+0x1c8>
    52fa:	f6 01       	movw	r30, r12
    52fc:	f7 fc       	sbrc	r15, 7
    52fe:	85 91       	lpm	r24, Z+
    5300:	f7 fe       	sbrs	r15, 7
    5302:	81 91       	ld	r24, Z+
    5304:	6f 01       	movw	r12, r30
    5306:	90 e0       	ldi	r25, 0x00	; 0
    5308:	b3 01       	movw	r22, r6
    530a:	0e 94 9a 2a 	call	0x5534	; 0x5534 <fputc>
    530e:	e1 10       	cpse	r14, r1
    5310:	ea 94       	dec	r14
    5312:	01 50       	subi	r16, 0x01	; 1
    5314:	10 40       	sbci	r17, 0x00	; 0
    5316:	01 15       	cp	r16, r1
    5318:	11 05       	cpc	r17, r1
    531a:	79 f7       	brne	.-34     	; 0x52fa <vfprintf+0x1ac>
    531c:	ea c0       	rjmp	.+468    	; 0x54f2 <vfprintf+0x3a4>
    531e:	94 36       	cpi	r25, 0x64	; 100
    5320:	11 f0       	breq	.+4      	; 0x5326 <vfprintf+0x1d8>
    5322:	99 36       	cpi	r25, 0x69	; 105
    5324:	69 f5       	brne	.+90     	; 0x5380 <vfprintf+0x232>
    5326:	f7 fe       	sbrs	r15, 7
    5328:	08 c0       	rjmp	.+16     	; 0x533a <vfprintf+0x1ec>
    532a:	f5 01       	movw	r30, r10
    532c:	20 81       	ld	r18, Z
    532e:	31 81       	ldd	r19, Z+1	; 0x01
    5330:	42 81       	ldd	r20, Z+2	; 0x02
    5332:	53 81       	ldd	r21, Z+3	; 0x03
    5334:	84 e0       	ldi	r24, 0x04	; 4
    5336:	90 e0       	ldi	r25, 0x00	; 0
    5338:	0a c0       	rjmp	.+20     	; 0x534e <vfprintf+0x200>
    533a:	f5 01       	movw	r30, r10
    533c:	80 81       	ld	r24, Z
    533e:	91 81       	ldd	r25, Z+1	; 0x01
    5340:	9c 01       	movw	r18, r24
    5342:	44 27       	eor	r20, r20
    5344:	37 fd       	sbrc	r19, 7
    5346:	40 95       	com	r20
    5348:	54 2f       	mov	r21, r20
    534a:	82 e0       	ldi	r24, 0x02	; 2
    534c:	90 e0       	ldi	r25, 0x00	; 0
    534e:	a8 0e       	add	r10, r24
    5350:	b9 1e       	adc	r11, r25
    5352:	9f e6       	ldi	r25, 0x6F	; 111
    5354:	f9 22       	and	r15, r25
    5356:	57 ff       	sbrs	r21, 7
    5358:	09 c0       	rjmp	.+18     	; 0x536c <vfprintf+0x21e>
    535a:	50 95       	com	r21
    535c:	40 95       	com	r20
    535e:	30 95       	com	r19
    5360:	21 95       	neg	r18
    5362:	3f 4f       	sbci	r19, 0xFF	; 255
    5364:	4f 4f       	sbci	r20, 0xFF	; 255
    5366:	5f 4f       	sbci	r21, 0xFF	; 255
    5368:	e0 e8       	ldi	r30, 0x80	; 128
    536a:	fe 2a       	or	r15, r30
    536c:	ca 01       	movw	r24, r20
    536e:	b9 01       	movw	r22, r18
    5370:	a1 01       	movw	r20, r2
    5372:	2a e0       	ldi	r18, 0x0A	; 10
    5374:	30 e0       	ldi	r19, 0x00	; 0
    5376:	0e 94 c6 2a 	call	0x558c	; 0x558c <__ultoa_invert>
    537a:	d8 2e       	mov	r13, r24
    537c:	d2 18       	sub	r13, r2
    537e:	40 c0       	rjmp	.+128    	; 0x5400 <vfprintf+0x2b2>
    5380:	95 37       	cpi	r25, 0x75	; 117
    5382:	29 f4       	brne	.+10     	; 0x538e <vfprintf+0x240>
    5384:	1f 2d       	mov	r17, r15
    5386:	1f 7e       	andi	r17, 0xEF	; 239
    5388:	2a e0       	ldi	r18, 0x0A	; 10
    538a:	30 e0       	ldi	r19, 0x00	; 0
    538c:	1d c0       	rjmp	.+58     	; 0x53c8 <vfprintf+0x27a>
    538e:	1f 2d       	mov	r17, r15
    5390:	19 7f       	andi	r17, 0xF9	; 249
    5392:	9f 36       	cpi	r25, 0x6F	; 111
    5394:	61 f0       	breq	.+24     	; 0x53ae <vfprintf+0x260>
    5396:	90 37       	cpi	r25, 0x70	; 112
    5398:	20 f4       	brcc	.+8      	; 0x53a2 <vfprintf+0x254>
    539a:	98 35       	cpi	r25, 0x58	; 88
    539c:	09 f0       	breq	.+2      	; 0x53a0 <vfprintf+0x252>
    539e:	ac c0       	rjmp	.+344    	; 0x54f8 <vfprintf+0x3aa>
    53a0:	0f c0       	rjmp	.+30     	; 0x53c0 <vfprintf+0x272>
    53a2:	90 37       	cpi	r25, 0x70	; 112
    53a4:	39 f0       	breq	.+14     	; 0x53b4 <vfprintf+0x266>
    53a6:	98 37       	cpi	r25, 0x78	; 120
    53a8:	09 f0       	breq	.+2      	; 0x53ac <vfprintf+0x25e>
    53aa:	a6 c0       	rjmp	.+332    	; 0x54f8 <vfprintf+0x3aa>
    53ac:	04 c0       	rjmp	.+8      	; 0x53b6 <vfprintf+0x268>
    53ae:	28 e0       	ldi	r18, 0x08	; 8
    53b0:	30 e0       	ldi	r19, 0x00	; 0
    53b2:	0a c0       	rjmp	.+20     	; 0x53c8 <vfprintf+0x27a>
    53b4:	10 61       	ori	r17, 0x10	; 16
    53b6:	14 fd       	sbrc	r17, 4
    53b8:	14 60       	ori	r17, 0x04	; 4
    53ba:	20 e1       	ldi	r18, 0x10	; 16
    53bc:	30 e0       	ldi	r19, 0x00	; 0
    53be:	04 c0       	rjmp	.+8      	; 0x53c8 <vfprintf+0x27a>
    53c0:	14 fd       	sbrc	r17, 4
    53c2:	16 60       	ori	r17, 0x06	; 6
    53c4:	20 e1       	ldi	r18, 0x10	; 16
    53c6:	32 e0       	ldi	r19, 0x02	; 2
    53c8:	17 ff       	sbrs	r17, 7
    53ca:	08 c0       	rjmp	.+16     	; 0x53dc <vfprintf+0x28e>
    53cc:	f5 01       	movw	r30, r10
    53ce:	60 81       	ld	r22, Z
    53d0:	71 81       	ldd	r23, Z+1	; 0x01
    53d2:	82 81       	ldd	r24, Z+2	; 0x02
    53d4:	93 81       	ldd	r25, Z+3	; 0x03
    53d6:	44 e0       	ldi	r20, 0x04	; 4
    53d8:	50 e0       	ldi	r21, 0x00	; 0
    53da:	08 c0       	rjmp	.+16     	; 0x53ec <vfprintf+0x29e>
    53dc:	f5 01       	movw	r30, r10
    53de:	80 81       	ld	r24, Z
    53e0:	91 81       	ldd	r25, Z+1	; 0x01
    53e2:	bc 01       	movw	r22, r24
    53e4:	80 e0       	ldi	r24, 0x00	; 0
    53e6:	90 e0       	ldi	r25, 0x00	; 0
    53e8:	42 e0       	ldi	r20, 0x02	; 2
    53ea:	50 e0       	ldi	r21, 0x00	; 0
    53ec:	a4 0e       	add	r10, r20
    53ee:	b5 1e       	adc	r11, r21
    53f0:	a1 01       	movw	r20, r2
    53f2:	0e 94 c6 2a 	call	0x558c	; 0x558c <__ultoa_invert>
    53f6:	d8 2e       	mov	r13, r24
    53f8:	d2 18       	sub	r13, r2
    53fa:	8f e7       	ldi	r24, 0x7F	; 127
    53fc:	f8 2e       	mov	r15, r24
    53fe:	f1 22       	and	r15, r17
    5400:	f6 fe       	sbrs	r15, 6
    5402:	0b c0       	rjmp	.+22     	; 0x541a <vfprintf+0x2cc>
    5404:	5e ef       	ldi	r21, 0xFE	; 254
    5406:	f5 22       	and	r15, r21
    5408:	d9 14       	cp	r13, r9
    540a:	38 f4       	brcc	.+14     	; 0x541a <vfprintf+0x2cc>
    540c:	f4 fe       	sbrs	r15, 4
    540e:	07 c0       	rjmp	.+14     	; 0x541e <vfprintf+0x2d0>
    5410:	f2 fc       	sbrc	r15, 2
    5412:	05 c0       	rjmp	.+10     	; 0x541e <vfprintf+0x2d0>
    5414:	8f ee       	ldi	r24, 0xEF	; 239
    5416:	f8 22       	and	r15, r24
    5418:	02 c0       	rjmp	.+4      	; 0x541e <vfprintf+0x2d0>
    541a:	1d 2d       	mov	r17, r13
    541c:	01 c0       	rjmp	.+2      	; 0x5420 <vfprintf+0x2d2>
    541e:	19 2d       	mov	r17, r9
    5420:	f4 fe       	sbrs	r15, 4
    5422:	0d c0       	rjmp	.+26     	; 0x543e <vfprintf+0x2f0>
    5424:	fe 01       	movw	r30, r28
    5426:	ed 0d       	add	r30, r13
    5428:	f1 1d       	adc	r31, r1
    542a:	80 81       	ld	r24, Z
    542c:	80 33       	cpi	r24, 0x30	; 48
    542e:	19 f4       	brne	.+6      	; 0x5436 <vfprintf+0x2e8>
    5430:	99 ee       	ldi	r25, 0xE9	; 233
    5432:	f9 22       	and	r15, r25
    5434:	08 c0       	rjmp	.+16     	; 0x5446 <vfprintf+0x2f8>
    5436:	1f 5f       	subi	r17, 0xFF	; 255
    5438:	f2 fe       	sbrs	r15, 2
    543a:	05 c0       	rjmp	.+10     	; 0x5446 <vfprintf+0x2f8>
    543c:	03 c0       	rjmp	.+6      	; 0x5444 <vfprintf+0x2f6>
    543e:	8f 2d       	mov	r24, r15
    5440:	86 78       	andi	r24, 0x86	; 134
    5442:	09 f0       	breq	.+2      	; 0x5446 <vfprintf+0x2f8>
    5444:	1f 5f       	subi	r17, 0xFF	; 255
    5446:	0f 2d       	mov	r16, r15
    5448:	f3 fc       	sbrc	r15, 3
    544a:	14 c0       	rjmp	.+40     	; 0x5474 <vfprintf+0x326>
    544c:	f0 fe       	sbrs	r15, 0
    544e:	0f c0       	rjmp	.+30     	; 0x546e <vfprintf+0x320>
    5450:	1e 15       	cp	r17, r14
    5452:	10 f0       	brcs	.+4      	; 0x5458 <vfprintf+0x30a>
    5454:	9d 2c       	mov	r9, r13
    5456:	0b c0       	rjmp	.+22     	; 0x546e <vfprintf+0x320>
    5458:	9d 2c       	mov	r9, r13
    545a:	9e 0c       	add	r9, r14
    545c:	91 1a       	sub	r9, r17
    545e:	1e 2d       	mov	r17, r14
    5460:	06 c0       	rjmp	.+12     	; 0x546e <vfprintf+0x320>
    5462:	80 e2       	ldi	r24, 0x20	; 32
    5464:	90 e0       	ldi	r25, 0x00	; 0
    5466:	b3 01       	movw	r22, r6
    5468:	0e 94 9a 2a 	call	0x5534	; 0x5534 <fputc>
    546c:	1f 5f       	subi	r17, 0xFF	; 255
    546e:	1e 15       	cp	r17, r14
    5470:	c0 f3       	brcs	.-16     	; 0x5462 <vfprintf+0x314>
    5472:	04 c0       	rjmp	.+8      	; 0x547c <vfprintf+0x32e>
    5474:	1e 15       	cp	r17, r14
    5476:	10 f4       	brcc	.+4      	; 0x547c <vfprintf+0x32e>
    5478:	e1 1a       	sub	r14, r17
    547a:	01 c0       	rjmp	.+2      	; 0x547e <vfprintf+0x330>
    547c:	ee 24       	eor	r14, r14
    547e:	04 ff       	sbrs	r16, 4
    5480:	0f c0       	rjmp	.+30     	; 0x54a0 <vfprintf+0x352>
    5482:	80 e3       	ldi	r24, 0x30	; 48
    5484:	90 e0       	ldi	r25, 0x00	; 0
    5486:	b3 01       	movw	r22, r6
    5488:	0e 94 9a 2a 	call	0x5534	; 0x5534 <fputc>
    548c:	02 ff       	sbrs	r16, 2
    548e:	1d c0       	rjmp	.+58     	; 0x54ca <vfprintf+0x37c>
    5490:	01 fd       	sbrc	r16, 1
    5492:	03 c0       	rjmp	.+6      	; 0x549a <vfprintf+0x34c>
    5494:	88 e7       	ldi	r24, 0x78	; 120
    5496:	90 e0       	ldi	r25, 0x00	; 0
    5498:	0e c0       	rjmp	.+28     	; 0x54b6 <vfprintf+0x368>
    549a:	88 e5       	ldi	r24, 0x58	; 88
    549c:	90 e0       	ldi	r25, 0x00	; 0
    549e:	0b c0       	rjmp	.+22     	; 0x54b6 <vfprintf+0x368>
    54a0:	80 2f       	mov	r24, r16
    54a2:	86 78       	andi	r24, 0x86	; 134
    54a4:	91 f0       	breq	.+36     	; 0x54ca <vfprintf+0x37c>
    54a6:	01 ff       	sbrs	r16, 1
    54a8:	02 c0       	rjmp	.+4      	; 0x54ae <vfprintf+0x360>
    54aa:	8b e2       	ldi	r24, 0x2B	; 43
    54ac:	01 c0       	rjmp	.+2      	; 0x54b0 <vfprintf+0x362>
    54ae:	80 e2       	ldi	r24, 0x20	; 32
    54b0:	f7 fc       	sbrc	r15, 7
    54b2:	8d e2       	ldi	r24, 0x2D	; 45
    54b4:	90 e0       	ldi	r25, 0x00	; 0
    54b6:	b3 01       	movw	r22, r6
    54b8:	0e 94 9a 2a 	call	0x5534	; 0x5534 <fputc>
    54bc:	06 c0       	rjmp	.+12     	; 0x54ca <vfprintf+0x37c>
    54be:	80 e3       	ldi	r24, 0x30	; 48
    54c0:	90 e0       	ldi	r25, 0x00	; 0
    54c2:	b3 01       	movw	r22, r6
    54c4:	0e 94 9a 2a 	call	0x5534	; 0x5534 <fputc>
    54c8:	9a 94       	dec	r9
    54ca:	d9 14       	cp	r13, r9
    54cc:	c0 f3       	brcs	.-16     	; 0x54be <vfprintf+0x370>
    54ce:	da 94       	dec	r13
    54d0:	f1 01       	movw	r30, r2
    54d2:	ed 0d       	add	r30, r13
    54d4:	f1 1d       	adc	r31, r1
    54d6:	80 81       	ld	r24, Z
    54d8:	90 e0       	ldi	r25, 0x00	; 0
    54da:	b3 01       	movw	r22, r6
    54dc:	0e 94 9a 2a 	call	0x5534	; 0x5534 <fputc>
    54e0:	dd 20       	and	r13, r13
    54e2:	a9 f7       	brne	.-22     	; 0x54ce <vfprintf+0x380>
    54e4:	06 c0       	rjmp	.+12     	; 0x54f2 <vfprintf+0x3a4>
    54e6:	80 e2       	ldi	r24, 0x20	; 32
    54e8:	90 e0       	ldi	r25, 0x00	; 0
    54ea:	b3 01       	movw	r22, r6
    54ec:	0e 94 9a 2a 	call	0x5534	; 0x5534 <fputc>
    54f0:	ea 94       	dec	r14
    54f2:	ee 20       	and	r14, r14
    54f4:	c1 f7       	brne	.-16     	; 0x54e6 <vfprintf+0x398>
    54f6:	43 ce       	rjmp	.-890    	; 0x517e <vfprintf+0x30>
    54f8:	f3 01       	movw	r30, r6
    54fa:	66 81       	ldd	r22, Z+6	; 0x06
    54fc:	77 81       	ldd	r23, Z+7	; 0x07
    54fe:	cb 01       	movw	r24, r22
    5500:	2b 96       	adiw	r28, 0x0b	; 11
    5502:	e2 e1       	ldi	r30, 0x12	; 18
    5504:	0c 94 40 2b 	jmp	0x5680	; 0x5680 <__epilogue_restores__>

00005508 <strnlen_P>:
    5508:	fc 01       	movw	r30, r24
    550a:	05 90       	lpm	r0, Z+
    550c:	61 50       	subi	r22, 0x01	; 1
    550e:	70 40       	sbci	r23, 0x00	; 0
    5510:	01 10       	cpse	r0, r1
    5512:	d8 f7       	brcc	.-10     	; 0x550a <strnlen_P+0x2>
    5514:	80 95       	com	r24
    5516:	90 95       	com	r25
    5518:	8e 0f       	add	r24, r30
    551a:	9f 1f       	adc	r25, r31
    551c:	08 95       	ret

0000551e <strnlen>:
    551e:	fc 01       	movw	r30, r24
    5520:	61 50       	subi	r22, 0x01	; 1
    5522:	70 40       	sbci	r23, 0x00	; 0
    5524:	01 90       	ld	r0, Z+
    5526:	01 10       	cpse	r0, r1
    5528:	d8 f7       	brcc	.-10     	; 0x5520 <strnlen+0x2>
    552a:	80 95       	com	r24
    552c:	90 95       	com	r25
    552e:	8e 0f       	add	r24, r30
    5530:	9f 1f       	adc	r25, r31
    5532:	08 95       	ret

00005534 <fputc>:
    5534:	0f 93       	push	r16
    5536:	1f 93       	push	r17
    5538:	cf 93       	push	r28
    553a:	df 93       	push	r29
    553c:	8c 01       	movw	r16, r24
    553e:	eb 01       	movw	r28, r22
    5540:	8b 81       	ldd	r24, Y+3	; 0x03
    5542:	81 ff       	sbrs	r24, 1
    5544:	1b c0       	rjmp	.+54     	; 0x557c <fputc+0x48>
    5546:	82 ff       	sbrs	r24, 2
    5548:	0d c0       	rjmp	.+26     	; 0x5564 <fputc+0x30>
    554a:	2e 81       	ldd	r18, Y+6	; 0x06
    554c:	3f 81       	ldd	r19, Y+7	; 0x07
    554e:	8c 81       	ldd	r24, Y+4	; 0x04
    5550:	9d 81       	ldd	r25, Y+5	; 0x05
    5552:	28 17       	cp	r18, r24
    5554:	39 07       	cpc	r19, r25
    5556:	64 f4       	brge	.+24     	; 0x5570 <fputc+0x3c>
    5558:	e8 81       	ld	r30, Y
    555a:	f9 81       	ldd	r31, Y+1	; 0x01
    555c:	01 93       	st	Z+, r16
    555e:	f9 83       	std	Y+1, r31	; 0x01
    5560:	e8 83       	st	Y, r30
    5562:	06 c0       	rjmp	.+12     	; 0x5570 <fputc+0x3c>
    5564:	e8 85       	ldd	r30, Y+8	; 0x08
    5566:	f9 85       	ldd	r31, Y+9	; 0x09
    5568:	80 2f       	mov	r24, r16
    556a:	09 95       	icall
    556c:	89 2b       	or	r24, r25
    556e:	31 f4       	brne	.+12     	; 0x557c <fputc+0x48>
    5570:	8e 81       	ldd	r24, Y+6	; 0x06
    5572:	9f 81       	ldd	r25, Y+7	; 0x07
    5574:	01 96       	adiw	r24, 0x01	; 1
    5576:	9f 83       	std	Y+7, r25	; 0x07
    5578:	8e 83       	std	Y+6, r24	; 0x06
    557a:	02 c0       	rjmp	.+4      	; 0x5580 <fputc+0x4c>
    557c:	0f ef       	ldi	r16, 0xFF	; 255
    557e:	1f ef       	ldi	r17, 0xFF	; 255
    5580:	c8 01       	movw	r24, r16
    5582:	df 91       	pop	r29
    5584:	cf 91       	pop	r28
    5586:	1f 91       	pop	r17
    5588:	0f 91       	pop	r16
    558a:	08 95       	ret

0000558c <__ultoa_invert>:
    558c:	fa 01       	movw	r30, r20
    558e:	aa 27       	eor	r26, r26
    5590:	28 30       	cpi	r18, 0x08	; 8
    5592:	51 f1       	breq	.+84     	; 0x55e8 <__ultoa_invert+0x5c>
    5594:	20 31       	cpi	r18, 0x10	; 16
    5596:	81 f1       	breq	.+96     	; 0x55f8 <__ultoa_invert+0x6c>
    5598:	e8 94       	clt
    559a:	6f 93       	push	r22
    559c:	6e 7f       	andi	r22, 0xFE	; 254
    559e:	6e 5f       	subi	r22, 0xFE	; 254
    55a0:	7f 4f       	sbci	r23, 0xFF	; 255
    55a2:	8f 4f       	sbci	r24, 0xFF	; 255
    55a4:	9f 4f       	sbci	r25, 0xFF	; 255
    55a6:	af 4f       	sbci	r26, 0xFF	; 255
    55a8:	b1 e0       	ldi	r27, 0x01	; 1
    55aa:	3e d0       	rcall	.+124    	; 0x5628 <__ultoa_invert+0x9c>
    55ac:	b4 e0       	ldi	r27, 0x04	; 4
    55ae:	3c d0       	rcall	.+120    	; 0x5628 <__ultoa_invert+0x9c>
    55b0:	67 0f       	add	r22, r23
    55b2:	78 1f       	adc	r23, r24
    55b4:	89 1f       	adc	r24, r25
    55b6:	9a 1f       	adc	r25, r26
    55b8:	a1 1d       	adc	r26, r1
    55ba:	68 0f       	add	r22, r24
    55bc:	79 1f       	adc	r23, r25
    55be:	8a 1f       	adc	r24, r26
    55c0:	91 1d       	adc	r25, r1
    55c2:	a1 1d       	adc	r26, r1
    55c4:	6a 0f       	add	r22, r26
    55c6:	71 1d       	adc	r23, r1
    55c8:	81 1d       	adc	r24, r1
    55ca:	91 1d       	adc	r25, r1
    55cc:	a1 1d       	adc	r26, r1
    55ce:	20 d0       	rcall	.+64     	; 0x5610 <__ultoa_invert+0x84>
    55d0:	09 f4       	brne	.+2      	; 0x55d4 <__ultoa_invert+0x48>
    55d2:	68 94       	set
    55d4:	3f 91       	pop	r19
    55d6:	2a e0       	ldi	r18, 0x0A	; 10
    55d8:	26 9f       	mul	r18, r22
    55da:	11 24       	eor	r1, r1
    55dc:	30 19       	sub	r19, r0
    55de:	30 5d       	subi	r19, 0xD0	; 208
    55e0:	31 93       	st	Z+, r19
    55e2:	de f6       	brtc	.-74     	; 0x559a <__ultoa_invert+0xe>
    55e4:	cf 01       	movw	r24, r30
    55e6:	08 95       	ret
    55e8:	46 2f       	mov	r20, r22
    55ea:	47 70       	andi	r20, 0x07	; 7
    55ec:	40 5d       	subi	r20, 0xD0	; 208
    55ee:	41 93       	st	Z+, r20
    55f0:	b3 e0       	ldi	r27, 0x03	; 3
    55f2:	0f d0       	rcall	.+30     	; 0x5612 <__ultoa_invert+0x86>
    55f4:	c9 f7       	brne	.-14     	; 0x55e8 <__ultoa_invert+0x5c>
    55f6:	f6 cf       	rjmp	.-20     	; 0x55e4 <__ultoa_invert+0x58>
    55f8:	46 2f       	mov	r20, r22
    55fa:	4f 70       	andi	r20, 0x0F	; 15
    55fc:	40 5d       	subi	r20, 0xD0	; 208
    55fe:	4a 33       	cpi	r20, 0x3A	; 58
    5600:	18 f0       	brcs	.+6      	; 0x5608 <__ultoa_invert+0x7c>
    5602:	49 5d       	subi	r20, 0xD9	; 217
    5604:	31 fd       	sbrc	r19, 1
    5606:	40 52       	subi	r20, 0x20	; 32
    5608:	41 93       	st	Z+, r20
    560a:	02 d0       	rcall	.+4      	; 0x5610 <__ultoa_invert+0x84>
    560c:	a9 f7       	brne	.-22     	; 0x55f8 <__ultoa_invert+0x6c>
    560e:	ea cf       	rjmp	.-44     	; 0x55e4 <__ultoa_invert+0x58>
    5610:	b4 e0       	ldi	r27, 0x04	; 4
    5612:	a6 95       	lsr	r26
    5614:	97 95       	ror	r25
    5616:	87 95       	ror	r24
    5618:	77 95       	ror	r23
    561a:	67 95       	ror	r22
    561c:	ba 95       	dec	r27
    561e:	c9 f7       	brne	.-14     	; 0x5612 <__ultoa_invert+0x86>
    5620:	00 97       	sbiw	r24, 0x00	; 0
    5622:	61 05       	cpc	r22, r1
    5624:	71 05       	cpc	r23, r1
    5626:	08 95       	ret
    5628:	9b 01       	movw	r18, r22
    562a:	ac 01       	movw	r20, r24
    562c:	0a 2e       	mov	r0, r26
    562e:	06 94       	lsr	r0
    5630:	57 95       	ror	r21
    5632:	47 95       	ror	r20
    5634:	37 95       	ror	r19
    5636:	27 95       	ror	r18
    5638:	ba 95       	dec	r27
    563a:	c9 f7       	brne	.-14     	; 0x562e <__ultoa_invert+0xa2>
    563c:	62 0f       	add	r22, r18
    563e:	73 1f       	adc	r23, r19
    5640:	84 1f       	adc	r24, r20
    5642:	95 1f       	adc	r25, r21
    5644:	a0 1d       	adc	r26, r0
    5646:	08 95       	ret

00005648 <__prologue_saves__>:
    5648:	2f 92       	push	r2
    564a:	3f 92       	push	r3
    564c:	4f 92       	push	r4
    564e:	5f 92       	push	r5
    5650:	6f 92       	push	r6
    5652:	7f 92       	push	r7
    5654:	8f 92       	push	r8
    5656:	9f 92       	push	r9
    5658:	af 92       	push	r10
    565a:	bf 92       	push	r11
    565c:	cf 92       	push	r12
    565e:	df 92       	push	r13
    5660:	ef 92       	push	r14
    5662:	ff 92       	push	r15
    5664:	0f 93       	push	r16
    5666:	1f 93       	push	r17
    5668:	cf 93       	push	r28
    566a:	df 93       	push	r29
    566c:	cd b7       	in	r28, 0x3d	; 61
    566e:	de b7       	in	r29, 0x3e	; 62
    5670:	ca 1b       	sub	r28, r26
    5672:	db 0b       	sbc	r29, r27
    5674:	0f b6       	in	r0, 0x3f	; 63
    5676:	f8 94       	cli
    5678:	de bf       	out	0x3e, r29	; 62
    567a:	0f be       	out	0x3f, r0	; 63
    567c:	cd bf       	out	0x3d, r28	; 61
    567e:	09 94       	ijmp

00005680 <__epilogue_restores__>:
    5680:	2a 88       	ldd	r2, Y+18	; 0x12
    5682:	39 88       	ldd	r3, Y+17	; 0x11
    5684:	48 88       	ldd	r4, Y+16	; 0x10
    5686:	5f 84       	ldd	r5, Y+15	; 0x0f
    5688:	6e 84       	ldd	r6, Y+14	; 0x0e
    568a:	7d 84       	ldd	r7, Y+13	; 0x0d
    568c:	8c 84       	ldd	r8, Y+12	; 0x0c
    568e:	9b 84       	ldd	r9, Y+11	; 0x0b
    5690:	aa 84       	ldd	r10, Y+10	; 0x0a
    5692:	b9 84       	ldd	r11, Y+9	; 0x09
    5694:	c8 84       	ldd	r12, Y+8	; 0x08
    5696:	df 80       	ldd	r13, Y+7	; 0x07
    5698:	ee 80       	ldd	r14, Y+6	; 0x06
    569a:	fd 80       	ldd	r15, Y+5	; 0x05
    569c:	0c 81       	ldd	r16, Y+4	; 0x04
    569e:	1b 81       	ldd	r17, Y+3	; 0x03
    56a0:	aa 81       	ldd	r26, Y+2	; 0x02
    56a2:	b9 81       	ldd	r27, Y+1	; 0x01
    56a4:	ce 0f       	add	r28, r30
    56a6:	d1 1d       	adc	r29, r1
    56a8:	0f b6       	in	r0, 0x3f	; 63
    56aa:	f8 94       	cli
    56ac:	de bf       	out	0x3e, r29	; 62
    56ae:	0f be       	out	0x3f, r0	; 63
    56b0:	cd bf       	out	0x3d, r28	; 61
    56b2:	ed 01       	movw	r28, r26
    56b4:	08 95       	ret

000056b6 <_exit>:
    56b6:	f8 94       	cli

000056b8 <__stop_program>:
    56b8:	ff cf       	rjmp	.-2      	; 0x56b8 <__stop_program>
