
OSCILLOSCOPE_v2.0.elf:     file format elf32-avr

Sections:
Idx Name          Size      VMA       LMA       File off  Algn
  0 .text         00002cee  00000000  00000000  00000094  2**1
                  CONTENTS, ALLOC, LOAD, READONLY, CODE
  1 .data         000000f6  00800060  00002cee  00002d82  2**0
                  CONTENTS, ALLOC, LOAD, DATA
  2 .bss          00000288  00800156  00800156  00002e78  2**0
                  ALLOC
  3 .comment      0000005c  00000000  00000000  00002e78  2**0
                  CONTENTS, READONLY
  4 .debug_aranges 000000e8  00000000  00000000  00002ed4  2**0
                  CONTENTS, READONLY, DEBUGGING
  5 .debug_info   000020ef  00000000  00000000  00002fbc  2**0
                  CONTENTS, READONLY, DEBUGGING
  6 .debug_abbrev 00000304  00000000  00000000  000050ab  2**0
                  CONTENTS, READONLY, DEBUGGING
  7 .debug_line   0000054a  00000000  00000000  000053af  2**0
                  CONTENTS, READONLY, DEBUGGING
  8 .debug_frame  00000484  00000000  00000000  000058fc  2**2
                  CONTENTS, READONLY, DEBUGGING
  9 .debug_str    00000372  00000000  00000000  00005d80  2**0
                  CONTENTS, READONLY, DEBUGGING
 10 .debug_loc    000015a9  00000000  00000000  000060f2  2**0
                  CONTENTS, READONLY, DEBUGGING
 11 .debug_ranges 000000f0  00000000  00000000  0000769b  2**0
                  CONTENTS, READONLY, DEBUGGING

Disassembly of section .text:

00000000 <__vectors>:
       0:	0c 94 54 08 	jmp	0x10a8	; 0x10a8 <__ctors_end>
       4:	0c 94 71 08 	jmp	0x10e2	; 0x10e2 <__bad_interrupt>
       8:	0c 94 71 08 	jmp	0x10e2	; 0x10e2 <__bad_interrupt>
       c:	0c 94 71 08 	jmp	0x10e2	; 0x10e2 <__bad_interrupt>
      10:	0c 94 71 08 	jmp	0x10e2	; 0x10e2 <__bad_interrupt>
      14:	0c 94 71 08 	jmp	0x10e2	; 0x10e2 <__bad_interrupt>
      18:	0c 94 71 08 	jmp	0x10e2	; 0x10e2 <__bad_interrupt>
      1c:	0c 94 71 08 	jmp	0x10e2	; 0x10e2 <__bad_interrupt>
      20:	0c 94 71 08 	jmp	0x10e2	; 0x10e2 <__bad_interrupt>
      24:	0c 94 34 10 	jmp	0x2068	; 0x2068 <__vector_9>
      28:	0c 94 71 08 	jmp	0x10e2	; 0x10e2 <__bad_interrupt>
      2c:	0c 94 71 08 	jmp	0x10e2	; 0x10e2 <__bad_interrupt>
      30:	0c 94 71 08 	jmp	0x10e2	; 0x10e2 <__bad_interrupt>
      34:	0c 94 71 08 	jmp	0x10e2	; 0x10e2 <__bad_interrupt>
      38:	0c 94 71 08 	jmp	0x10e2	; 0x10e2 <__bad_interrupt>
      3c:	0c 94 71 08 	jmp	0x10e2	; 0x10e2 <__bad_interrupt>
      40:	0c 94 71 08 	jmp	0x10e2	; 0x10e2 <__bad_interrupt>
      44:	0c 94 71 08 	jmp	0x10e2	; 0x10e2 <__bad_interrupt>
      48:	0c 94 71 08 	jmp	0x10e2	; 0x10e2 <__bad_interrupt>
      4c:	0c 94 71 08 	jmp	0x10e2	; 0x10e2 <__bad_interrupt>
      50:	0c 94 71 08 	jmp	0x10e2	; 0x10e2 <__bad_interrupt>

00000054 <BigFont>:
	...
      78:	07 00 0f 80 0f 80 0f 80 0f 80 0f 80 07 00 07 00     ................
      88:	00 00 00 00 07 00 07 00 07 00 00 00 00 00 0e 38     ...............8
      98:	0e 38 0e 38 0e 38 06 30 00 00 00 00 00 00 00 00     .8.8.8.0........
	...
      b4:	00 00 0c 30 0c 30 0c 30 7f fe 7f fe 0c 30 0c 30     ...0.0.0.....0.0
      c4:	0c 30 0c 30 7f fe 7f fe 0c 30 0c 30 0c 30 00 00     .0.0.....0.0.0..
      d4:	00 00 02 40 02 40 0f f8 1f f8 1a 40 1a 40 1f f0     ...@.@.....@.@..
      e4:	0f f8 02 58 02 58 1f f8 1f f0 02 40 02 40 00 00     ...X.X.....@.@..
      f4:	00 00 00 00 00 00 0e 10 0e 30 0e 70 00 e0 01 c0     .........0.p....
     104:	03 80 07 00 0e 70 0c 70 08 70 00 00 00 00 00 00     .....p.p.p......
     114:	00 00 00 00 0f 00 19 80 19 80 19 80 0f 00 0f 08     ................
     124:	0f 98 19 f8 18 f0 18 e0 19 f0 0f 98 00 00 00 00     ................
     134:	00 00 00 00 07 00 07 00 07 00 0e 00 00 00 00 00     ................
	...
     158:	00 f0 01 c0 03 80 07 00 0e 00 0e 00 0e 00 0e 00     ................
     168:	07 00 03 80 01 c0 00 f0 00 00 00 00 00 00 00 00     ................
     178:	0f 00 03 80 01 c0 00 e0 00 70 00 70 00 70 00 70     .........p.p.p.p
     188:	00 e0 01 c0 03 80 0f 00 00 00 00 00 00 00 00 00     ................
     198:	01 80 11 88 09 90 07 e0 07 e0 3f fc 3f fc 07 e0     ..........?.?...
     1a8:	07 e0 09 90 11 88 01 80 00 00 00 00 00 00 00 00     ................
     1b8:	00 00 00 00 01 80 01 80 01 80 0f f0 0f f0 01 80     ................
     1c8:	01 80 01 80 00 00 00 00 00 00 00 00 00 00 00 00     ................
	...
     1e8:	00 00 07 00 07 00 07 00 0e 00 00 00 00 00 00 00     ................
	...
     200:	00 00 1f f8 1f f8 00 00 00 00 00 00 00 00 00 00     ................
	...
     228:	00 00 07 00 07 00 07 00 00 00 00 00 00 00 00 00     ................
     238:	00 02 00 06 00 0e 00 1c 00 38 00 70 00 e0 01 c0     .........8.p....
     248:	03 80 07 00 0e 00 1c 00 00 00 00 00 00 00 00 00     ................
     258:	0f f0 1c 38 1c 78 1c f8 1c f8 1d b8 1d b8 1f 38     ...8.x.........8
     268:	1f 38 1e 38 1c 38 0f f0 00 00 00 00 00 00 00 00     .8.8.8..........
     278:	01 80 01 80 03 80 1f 80 1f 80 03 80 03 80 03 80     ................
     288:	03 80 03 80 03 80 1f f0 00 00 00 00 00 00 00 00     ................
     298:	0f e0 1c 70 1c 38 00 38 00 70 00 e0 01 c0 03 80     ...p.8.8.p......
     2a8:	07 00 0e 38 1c 38 1f f8 00 00 00 00 00 00 00 00     ...8.8..........
     2b8:	0f e0 1c 70 1c 38 00 38 00 70 03 c0 03 c0 00 70     ...p.8.8.p.....p
     2c8:	00 38 1c 38 1c 70 0f e0 00 00 00 00 00 00 00 00     .8.8.p..........
     2d8:	00 e0 01 e0 03 e0 06 e0 0c e0 18 e0 1f f8 1f f8     ................
     2e8:	00 e0 00 e0 00 e0 03 f8 00 00 00 00 00 00 00 00     ................
     2f8:	1f f8 1c 00 1c 00 1c 00 1c 00 1f e0 1f f0 00 78     ...............x
     308:	00 38 1c 38 1c 70 0f e0 00 00 00 00 00 00 00 00     .8.8.p..........
     318:	03 e0 07 00 0e 00 1c 00 1c 00 1f f0 1f f8 1c 38     ...............8
     328:	1c 38 1c 38 1c 38 0f f0 00 00 00 00 00 00 00 00     .8.8.8..........
     338:	1f fc 1c 1c 1c 1c 1c 1c 00 1c 00 38 00 70 00 e0     ...........8.p..
     348:	01 c0 03 80 03 80 03 80 00 00 00 00 00 00 00 00     ................
     358:	0f f0 1c 38 1c 38 1c 38 1f 38 07 e0 07 e0 1c f8     ...8.8.8.8......
     368:	1c 38 1c 38 1c 38 0f f0 00 00 00 00 00 00 00 00     .8.8.8..........
     378:	0f f0 1c 38 1c 38 1c 38 1c 38 1f f8 0f f8 00 38     ...8.8.8.8.....8
     388:	00 38 00 70 00 e0 07 c0 00 00 00 00 00 00 00 00     .8.p............
     398:	00 00 00 00 03 80 03 80 03 80 00 00 00 00 03 80     ................
     3a8:	03 80 03 80 00 00 00 00 00 00 00 00 00 00 00 00     ................
     3b8:	00 00 00 00 03 80 03 80 03 80 00 00 00 00 03 80     ................
     3c8:	03 80 03 80 07 00 00 00 00 00 00 00 00 00 00 70     ...............p
     3d8:	00 e0 01 c0 03 80 07 00 0e 00 1c 00 1c 00 0e 00     ................
     3e8:	07 00 03 80 01 c0 00 e0 00 70 00 00 00 00 00 00     .........p......
     3f8:	00 00 00 00 00 00 3f fc 3f fc 00 00 00 00 3f fc     ......?.?.....?.
     408:	3f fc 00 00 00 00 00 00 00 00 00 00 00 00 1c 00     ?...............
     418:	0e 00 07 00 03 80 01 c0 00 e0 00 70 00 70 00 e0     ...........p.p..
     428:	01 c0 03 80 07 00 0e 00 1c 00 00 00 00 00 03 c0     ................
     438:	0f f0 1e 78 18 38 00 38 00 70 00 e0 01 c0 01 c0     ...x.8.8.p......
     448:	00 00 00 00 01 c0 01 c0 01 c0 00 00 00 00 0f f8     ................
     458:	1c 1c 1c 1c 1c 1c 1c 1c 1c fc 1c fc 1c fc 1c fc     ................
     468:	1c 00 1c 00 1c 00 1f f0 07 f8 00 00 00 00 00 00     ................
     478:	03 c0 07 e0 0e 70 1c 38 1c 38 1c 38 1c 38 1f f8     .....p.8.8.8.8..
     488:	1c 38 1c 38 1c 38 1c 38 00 00 00 00 00 00 00 00     .8.8.8.8........
     498:	1f f0 0e 38 0e 38 0e 38 0e 38 0f f0 0f f0 0e 38     ...8.8.8.8.....8
     4a8:	0e 38 0e 38 0e 38 1f f0 00 00 00 00 00 00 00 00     .8.8.8..........
     4b8:	07 f0 0e 38 1c 38 1c 00 1c 00 1c 00 1c 00 1c 00     ...8.8..........
     4c8:	1c 00 1c 38 0e 38 07 f0 00 00 00 00 00 00 00 00     ...8.8..........
     4d8:	1f e0 0e 70 0e 38 0e 38 0e 38 0e 38 0e 38 0e 38     ...p.8.8.8.8.8.8
     4e8:	0e 38 0e 38 0e 70 1f e0 00 00 00 00 00 00 00 00     .8.8.p..........
     4f8:	1f f8 0e 18 0e 08 0e 00 0e 30 0f f0 0f f0 0e 30     .........0.....0
     508:	0e 00 0e 08 0e 18 1f f8 00 00 00 00 00 00 00 00     ................
     518:	1f f8 0e 18 0e 08 0e 00 0e 30 0f f0 0f f0 0e 30     .........0.....0
     528:	0e 00 0e 00 0e 00 1f 00 00 00 00 00 00 00 00 00     ................
     538:	07 f0 0e 38 1c 38 1c 38 1c 00 1c 00 1c 00 1c f8     ...8.8.8........
     548:	1c 38 1c 38 0e 38 07 f8 00 00 00 00 00 00 00 00     .8.8.8..........
     558:	1c 70 1c 70 1c 70 1c 70 1c 70 1f f0 1f f0 1c 70     .p.p.p.p.p.....p
     568:	1c 70 1c 70 1c 70 1c 70 00 00 00 00 00 00 00 00     .p.p.p.p........
     578:	0f e0 03 80 03 80 03 80 03 80 03 80 03 80 03 80     ................
     588:	03 80 03 80 03 80 0f e0 00 00 00 00 00 00 00 00     ................
     598:	01 fc 00 70 00 70 00 70 00 70 00 70 00 70 38 70     ...p.p.p.p.p.p8p
     5a8:	38 70 38 70 38 70 0f e0 00 00 00 00 00 00 00 00     8p8p8p..........
     5b8:	1e 38 0e 38 0e 70 0e e0 0f c0 0f 80 0f 80 0f c0     .8.8.p..........
     5c8:	0e e0 0e 70 0e 38 1e 38 00 00 00 00 00 00 00 00     ...p.8.8........
     5d8:	1f 00 0e 00 0e 00 0e 00 0e 00 0e 00 0e 00 0e 00     ................
     5e8:	0e 08 0e 18 0e 38 1f f8 00 00 00 00 00 00 00 00     .....8..........
     5f8:	1c 1c 1e 3c 1f 7c 1f fc 1f fc 1d dc 1c 9c 1c 1c     ...<.|..........
     608:	1c 1c 1c 1c 1c 1c 1c 1c 00 00 00 00 00 00 00 00     ................
     618:	1c 1c 1c 1c 1e 1c 1f 1c 1f 9c 1d dc 1c fc 1c 7c     ...............|
     628:	1c 3c 1c 1c 1c 1c 1c 1c 00 00 00 00 00 00 00 00     .<..............
     638:	03 e0 07 f0 0e 38 1c 1c 1c 1c 1c 1c 1c 1c 1c 1c     .....8..........
     648:	1c 1c 0e 38 07 f0 03 e0 00 00 00 00 00 00 00 00     ...8............
     658:	1f f0 0e 38 0e 38 0e 38 0e 38 0f f0 0f f0 0e 00     ...8.8.8.8......
     668:	0e 00 0e 00 0e 00 1f 00 00 00 00 00 00 00 00 00     ................
     678:	03 e0 0f 78 0e 38 1c 1c 1c 1c 1c 1c 1c 1c 1c 7c     ...x.8.........|
     688:	1c fc 0f f8 0f f8 00 38 00 fc 00 00 00 00 00 00     .......8........
     698:	1f f0 0e 38 0e 38 0e 38 0e 38 0f f0 0f f0 0e 70     ...8.8.8.8.....p
     6a8:	0e 38 0e 38 0e 38 1e 38 00 00 00 00 00 00 00 00     .8.8.8.8........
     6b8:	0f f0 1c 38 1c 38 1c 38 1c 00 0f e0 07 f0 00 38     ...8.8.8.......8
     6c8:	1c 38 1c 38 1c 38 0f f0 00 00 00 00 00 00 00 00     .8.8.8..........
     6d8:	1f fc 19 cc 11 c4 01 c0 01 c0 01 c0 01 c0 01 c0     ................
     6e8:	01 c0 01 c0 01 c0 07 f0 00 00 00 00 00 00 00 00     ................
     6f8:	1c 70 1c 70 1c 70 1c 70 1c 70 1c 70 1c 70 1c 70     .p.p.p.p.p.p.p.p
     708:	1c 70 1c 70 1c 70 0f e0 00 00 00 00 00 00 00 00     .p.p.p..........
     718:	1c 70 1c 70 1c 70 1c 70 1c 70 1c 70 1c 70 1c 70     .p.p.p.p.p.p.p.p
     728:	1c 70 0e e0 07 c0 03 80 00 00 00 00 00 00 00 00     .p..............
     738:	1c 1c 1c 1c 1c 1c 1c 1c 1c 1c 1c 9c 1c 9c 1c 9c     ................
     748:	0f f8 0f f8 07 70 07 70 00 00 00 00 00 00 00 00     .....p.p........
     758:	1c 70 1c 70 1c 70 0e e0 07 c0 03 80 03 80 07 c0     .p.p.p..........
     768:	0e e0 1c 70 1c 70 1c 70 00 00 00 00 00 00 00 00     ...p.p.p........
     778:	1c 70 1c 70 1c 70 1c 70 1c 70 0e e0 07 c0 03 80     .p.p.p.p.p......
     788:	03 80 03 80 03 80 0f e0 00 00 00 00 00 00 00 00     ................
     798:	1f f8 1c 38 18 38 10 70 00 e0 01 c0 03 80 07 00     ...8.8.p........
     7a8:	0e 08 1c 18 1c 38 1f f8 00 00 00 00 00 00 00 00     .....8..........
     7b8:	07 f0 07 00 07 00 07 00 07 00 07 00 07 00 07 00     ................
     7c8:	07 00 07 00 07 00 07 f0 00 00 00 00 00 00 00 00     ................
     7d8:	10 00 18 00 1c 00 0e 00 07 00 03 80 01 c0 00 e0     ................
     7e8:	00 70 00 38 00 1c 00 07 00 00 00 00 00 00 00 00     .p.8............
     7f8:	07 f0 00 70 00 70 00 70 00 70 00 70 00 70 00 70     ...p.p.p.p.p.p.p
     808:	00 70 00 70 00 70 07 f0 00 00 00 00 00 00 01 80     .p.p.p..........
     818:	03 c0 07 e0 0e 70 1c 38 00 00 00 00 00 00 00 00     .....p.8........
	...
     850:	7f ff 7f ff 00 00 00 00 1c 00 1c 00 07 00 07 00     ................
	...
     880:	0f e0 00 70 00 70 0f f0 1c 70 1c 70 1c 70 0f d8     ...p.p...p.p.p..
	...
     898:	1e 00 0e 00 0e 00 0e 00 0f f0 0e 38 0e 38 0e 38     ...........8.8.8
     8a8:	0e 38 0e 38 0e 38 1b f0 00 00 00 00 00 00 00 00     .8.8.8..........
	...
     8c0:	0f e0 1c 70 1c 70 1c 00 1c 00 1c 70 1c 70 0f e0     ...p.p.....p.p..
	...
     8d8:	00 f8 00 70 00 70 00 70 0f f0 1c 70 1c 70 1c 70     ...p.p.p...p.p.p
     8e8:	1c 70 1c 70 1c 70 0f d8 00 00 00 00 00 00 00 00     .p.p.p..........
	...
     900:	0f e0 1c 70 1c 70 1f f0 1c 00 1c 70 1c 70 0f e0     ...p.p.....p.p..
	...
     918:	03 e0 07 70 07 70 07 00 07 00 1f e0 1f e0 07 00     ...p.p..........
     928:	07 00 07 00 07 00 1f c0 00 00 00 00 00 00 00 00     ................
	...
     940:	0f d8 1c 70 1c 70 1c 70 1c 70 0f f0 07 f0 00 70     ...p.p.p.p.....p
     950:	1c 70 0f e0 00 00 00 00 1e 00 0e 00 0e 00 0e 00     .p..............
     960:	0e f0 0f 38 0f 38 0e 38 0e 38 0e 38 0e 38 1e 38     ...8.8.8.8.8.8.8
	...
     978:	01 c0 01 c0 01 c0 00 00 0f c0 01 c0 01 c0 01 c0     ................
     988:	01 c0 01 c0 01 c0 0f f8 00 00 00 00 00 00 00 00     ................
     998:	00 70 00 70 00 70 00 00 03 f0 00 70 00 70 00 70     .p.p.p.....p.p.p
     9a8:	00 70 00 70 00 70 1c 70 0c f0 07 e0 00 00 00 00     .p.p.p.p........
     9b8:	1e 00 0e 00 0e 00 0e 00 0e 38 0e 70 0e e0 0f c0     .........8.p....
     9c8:	0e e0 0e 70 0e 38 1e 38 00 00 00 00 00 00 00 00     ...p.8.8........
     9d8:	0f c0 01 c0 01 c0 01 c0 01 c0 01 c0 01 c0 01 c0     ................
     9e8:	01 c0 01 c0 01 c0 0f f8 00 00 00 00 00 00 00 00     ................
	...
     a00:	1f f8 1c 9c 1c 9c 1c 9c 1c 9c 1c 9c 1c 9c 1c 9c     ................
	...
     a20:	1f e0 1c 70 1c 70 1c 70 1c 70 1c 70 1c 70 1c 70     ...p.p.p.p.p.p.p
	...
     a40:	0f e0 1c 70 1c 70 1c 70 1c 70 1c 70 1c 70 0f e0     ...p.p.p.p.p.p..
	...
     a60:	1b f0 0e 38 0e 38 0e 38 0e 38 0e 38 0f f0 0e 00     ...8.8.8.8.8....
     a70:	0e 00 1f 00 00 00 00 00 00 00 00 00 00 00 00 00     ................
     a80:	1f b0 38 e0 38 e0 38 e0 38 e0 38 e0 1f e0 00 e0     ..8.8.8.8.8.....
     a90:	00 e0 01 f0 00 00 00 00 00 00 00 00 00 00 00 00     ................
     aa0:	1e f0 0f f8 0f 38 0e 00 0e 00 0e 00 0e 00 1f 00     .....8..........
	...
     ac0:	0f e0 1c 30 1c 30 0f 80 03 e0 18 70 18 70 0f e0     ...0.0.....p.p..
	...
     ad8:	00 00 01 00 03 00 07 00 1f f0 07 00 07 00 07 00     ................
     ae8:	07 00 07 70 07 70 03 e0 00 00 00 00 00 00 00 00     ...p.p..........
	...
     b00:	1c 70 1c 70 1c 70 1c 70 1c 70 1c 70 1c 70 0f d8     .p.p.p.p.p.p.p..
	...
     b20:	1c 70 1c 70 1c 70 1c 70 1c 70 0e e0 07 c0 03 80     .p.p.p.p.p......
	...
     b40:	1c 1c 1c 1c 1c 1c 1c 9c 1c 9c 0f f8 07 70 07 70     .............p.p
	...
     b60:	1c e0 1c e0 0f c0 07 80 07 80 0f c0 1c e0 1c e0     ................
	...
     b80:	0e 38 0e 38 0e 38 0e 38 0e 38 07 f0 03 e0 00 e0     .8.8.8.8.8......
     b90:	01 c0 1f 80 00 00 00 00 00 00 00 00 00 00 00 00     ................
     ba0:	1f e0 18 e0 11 c0 03 80 07 00 0e 20 1c 60 1f e0     ........... .`..
	...
     bb8:	01 f8 03 80 03 80 03 80 07 00 1c 00 1c 00 07 00     ................
     bc8:	03 80 03 80 03 80 01 f8 00 00 00 00 00 00 01 c0     ................
     bd8:	01 c0 01 c0 01 c0 01 c0 01 c0 01 c0 01 c0 01 c0     ................
     be8:	01 c0 01 c0 01 c0 01 c0 01 c0 00 00 00 00 00 00     ................
     bf8:	1f 80 01 c0 01 c0 01 c0 00 e0 00 38 00 38 00 e0     ...........8.8..
     c08:	01 c0 01 c0 01 c0 1f 80 00 00 00 00 00 00 00 00     ................
     c18:	1f 1c 3b 9c 39 dc 38 f8 00 00 00 00 00 00 00 00     ..;.9.8.........
	...

00000c34 <SmallFont>:
	...
     c40:	00 00 20 20 30 50 50 78 48 cc 00 00 00 28 50 50     ..  0PPxH....(PP
	...
     c58:	00 00 28 28 fc 28 50 fc 50 50 00 00 00 20 78 a8     ..((.(P.PP... x.
     c68:	a0 60 30 28 a8 f0 20 00 00 00 48 a8 b0 50 28 34     .`0(.. ...H..P(4
     c78:	54 48 00 00 00 00 20 50 50 78 a8 a8 90 6c 00 00     TH.... PPx...l..
     c88:	00 40 40 80 00 00 00 00 00 00 00 00 00 04 08 10     .@@.............
     c98:	10 10 10 10 10 08 04 00 00 40 20 10 10 10 10 10     .........@ .....
     ca8:	10 20 40 00 00 00 00 20 a8 70 70 a8 20 00 00 00     . @.... .pp. ...
     cb8:	00 00 20 20 20 f8 20 20 20 00 00 00 00 00 00 00     ..   .   .......
     cc8:	00 00 00 00 00 40 40 80 00 00 00 00 00 f8 00 00     .....@@.........
	...
     ce4:	00 40 00 00 00 08 10 10 10 20 20 40 40 40 80 00     .@.......  @@@..
     cf4:	00 00 70 88 88 88 88 88 88 70 00 00 00 00 20 60     ..p......p.... `
     d04:	20 20 20 20 20 70 00 00 00 00 70 88 88 10 20 40          p....p... @
     d14:	80 f8 00 00 00 00 70 88 08 30 08 08 88 70 00 00     ......p..0...p..
     d24:	00 00 10 30 50 50 90 78 10 18 00 00 00 00 f8 80     ...0PP.x........
     d34:	80 f0 08 08 88 70 00 00 00 00 70 90 80 f0 88 88     .....p....p.....
     d44:	88 70 00 00 00 00 f8 90 10 20 20 20 20 20 00 00     .p.......     ..
     d54:	00 00 70 88 88 70 88 88 88 70 00 00 00 00 70 88     ..p..p...p....p.
     d64:	88 88 78 08 48 70 00 00 00 00 00 00 20 00 00 00     ..x.Hp...... ...
     d74:	00 20 00 00 00 00 00 00 00 20 00 00 00 20 20 00     . ....... ...  .
     d84:	00 04 08 10 20 40 20 10 08 04 00 00 00 00 00 00     .... @ .........
     d94:	f8 00 00 f8 00 00 00 00 00 40 20 10 08 04 08 10     .........@ .....
     da4:	20 40 00 00 00 00 70 88 88 10 20 20 00 20 00 00      @....p...  . ..
     db4:	00 00 70 88 98 a8 a8 b8 80 78 00 00 00 00 20 20     ..p......x....  
     dc4:	30 50 50 78 48 cc 00 00 00 00 f0 48 48 70 48 48     0PPxH......HHpHH
     dd4:	48 f0 00 00 00 00 78 88 80 80 80 80 88 70 00 00     H.....x......p..
     de4:	00 00 f0 48 48 48 48 48 48 f0 00 00 00 00 f8 48     ...HHHHHH......H
     df4:	50 70 50 40 48 f8 00 00 00 00 f8 48 50 70 50 40     PpP@H......HPpP@
     e04:	40 e0 00 00 00 00 38 48 80 80 9c 88 48 30 00 00     @.....8H....H0..
     e14:	00 00 cc 48 48 78 48 48 48 cc 00 00 00 00 f8 20     ...HHxHHH...... 
     e24:	20 20 20 20 20 f8 00 00 00 00 7c 10 10 10 10 10          .....|.....
     e34:	10 90 e0 00 00 00 ec 48 50 60 50 50 48 ec 00 00     .......HP`PPH...
     e44:	00 00 e0 40 40 40 40 40 44 fc 00 00 00 00 d8 d8     ...@@@@@D.......
     e54:	d8 d8 a8 a8 a8 a8 00 00 00 00 dc 48 68 68 58 58     ...........HhhXX
     e64:	48 e8 00 00 00 00 70 88 88 88 88 88 88 70 00 00     H.....p......p..
     e74:	00 00 f0 48 48 70 40 40 40 e0 00 00 00 00 70 88     ...HHp@@@.....p.
     e84:	88 88 88 e8 98 70 18 00 00 00 f0 48 48 70 50 48     .....p.....HHpPH
     e94:	48 ec 00 00 00 00 78 88 80 60 10 08 88 f0 00 00     H.....x..`......
     ea4:	00 00 f8 a8 20 20 20 20 20 70 00 00 00 00 cc 48     ....     p.....H
     eb4:	48 48 48 48 48 30 00 00 00 00 cc 48 48 50 50 30     HHHHH0.....HHPP0
     ec4:	20 20 00 00 00 00 a8 a8 a8 70 50 50 50 50 00 00       .......pPPPP..
     ed4:	00 00 d8 50 50 20 20 50 50 d8 00 00 00 00 d8 50     ...PP  PP......P
     ee4:	50 20 20 20 20 70 00 00 00 00 f8 90 10 20 20 40     P    p.......  @
     ef4:	48 f8 00 00 00 38 20 20 20 20 20 20 20 20 38 00     H....8        8.
     f04:	00 40 40 40 20 20 10 10 10 08 00 00 00 70 10 10     .@@@  .......p..
     f14:	10 10 10 10 10 10 70 00 00 20 50 00 00 00 00 00     ......p.. P.....
	...
     f30:	00 00 00 fc 00 20 00 00 00 00 00 00 00 00 00 00     ..... ..........
     f40:	00 00 00 00 00 30 48 38 48 3c 00 00 00 00 c0 40     .....0H8H<.....@
     f50:	40 70 48 48 48 70 00 00 00 00 00 00 00 38 48 40     @pHHHp.......8H@
     f60:	40 38 00 00 00 00 18 08 08 38 48 48 48 3c 00 00     @8.......8HHH<..
     f70:	00 00 00 00 00 30 48 78 40 38 00 00 00 00 1c 20     .....0Hx@8..... 
     f80:	20 78 20 20 20 78 00 00 00 00 00 00 00 3c 48 30      x   x.......<H0
     f90:	40 78 44 38 00 00 c0 40 40 70 48 48 48 ec 00 00     @xD8...@@pHHH...
     fa0:	00 00 20 00 00 60 20 20 20 70 00 00 00 00 10 00     .. ..`   p......
     fb0:	00 30 10 10 10 10 10 e0 00 00 c0 40 40 5c 50 70     .0.........@@\Pp
     fc0:	48 ec 00 00 00 00 e0 20 20 20 20 20 20 f8 00 00     H......      ...
     fd0:	00 00 00 00 00 f0 a8 a8 a8 a8 00 00 00 00 00 00     ................
     fe0:	00 f0 48 48 48 ec 00 00 00 00 00 00 00 30 48 48     ..HHH........0HH
     ff0:	48 30 00 00 00 00 00 00 00 f0 48 48 48 70 40 e0     H0........HHHp@.
    1000:	00 00 00 00 00 38 48 48 48 38 08 1c 00 00 00 00     .....8HHH8......
    1010:	00 d8 60 40 40 e0 00 00 00 00 00 00 00 78 40 30     ..`@@........x@0
    1020:	08 78 00 00 00 00 00 20 20 70 20 20 20 18 00 00     .x.....  p   ...
    1030:	00 00 00 00 00 d8 48 48 48 3c 00 00 00 00 00 00     ......HHH<......
    1040:	00 ec 48 50 30 20 00 00 00 00 00 00 00 a8 a8 70     ..HP0 .........p
    1050:	50 50 00 00 00 00 00 00 00 d8 50 20 50 d8 00 00     PP........P P...
    1060:	00 00 00 00 00 ec 48 50 30 20 20 c0 00 00 00 00     ......HP0  .....
    1070:	00 78 10 20 20 78 00 00 00 18 10 10 10 20 10 10     .x.  x....... ..
    1080:	10 10 18 00 10 10 10 10 10 10 10 10 10 10 10 10     ................
    1090:	00 60 20 20 20 10 20 20 20 20 60 00 40 a4 18 00     .`   .    `.@...
	...

000010a8 <__ctors_end>:
    10a8:	11 24       	eor	r1, r1
    10aa:	1f be       	out	0x3f, r1	; 63
    10ac:	cf e5       	ldi	r28, 0x5F	; 95
    10ae:	d4 e0       	ldi	r29, 0x04	; 4
    10b0:	de bf       	out	0x3e, r29	; 62
    10b2:	cd bf       	out	0x3d, r28	; 61

000010b4 <__do_copy_data>:
    10b4:	11 e0       	ldi	r17, 0x01	; 1
    10b6:	a0 e6       	ldi	r26, 0x60	; 96
    10b8:	b0 e0       	ldi	r27, 0x00	; 0
    10ba:	ee ee       	ldi	r30, 0xEE	; 238
    10bc:	fc e2       	ldi	r31, 0x2C	; 44
    10be:	02 c0       	rjmp	.+4      	; 0x10c4 <__do_copy_data+0x10>
    10c0:	05 90       	lpm	r0, Z+
    10c2:	0d 92       	st	X+, r0
    10c4:	a6 35       	cpi	r26, 0x56	; 86
    10c6:	b1 07       	cpc	r27, r17
    10c8:	d9 f7       	brne	.-10     	; 0x10c0 <__do_copy_data+0xc>

000010ca <__do_clear_bss>:
    10ca:	23 e0       	ldi	r18, 0x03	; 3
    10cc:	a6 e5       	ldi	r26, 0x56	; 86
    10ce:	b1 e0       	ldi	r27, 0x01	; 1
    10d0:	01 c0       	rjmp	.+2      	; 0x10d4 <.do_clear_bss_start>

000010d2 <.do_clear_bss_loop>:
    10d2:	1d 92       	st	X+, r1

000010d4 <.do_clear_bss_start>:
    10d4:	ae 3d       	cpi	r26, 0xDE	; 222
    10d6:	b2 07       	cpc	r27, r18
    10d8:	e1 f7       	brne	.-8      	; 0x10d2 <.do_clear_bss_loop>
    10da:	0e 94 a3 0f 	call	0x1f46	; 0x1f46 <main>
    10de:	0c 94 75 16 	jmp	0x2cea	; 0x2cea <_exit>

000010e2 <__bad_interrupt>:
    10e2:	0c 94 00 00 	jmp	0	; 0x0 <__vectors>

000010e6 <Port_Init>:

unsigned int X_SIZE = 0,Y_SIZE = 0;
//-----------------------------------------------------------------------------------------------------------
void Port_Init()
{
	DDR_DATA=0xFF;
    10e6:	8f ef       	ldi	r24, 0xFF	; 255
    10e8:	84 bb       	out	0x14, r24	; 20
	PORT_CMD = 0x00;
    10ea:	12 ba       	out	0x12, r1	; 18
	DDR_CMD|=(1<<LCD_RESET)|(1<<LCD_CS)|(1<<LCD_CD)|(1<<LCD_WR)|(1<<LCD_RD);
    10ec:	81 b3       	in	r24, 0x11	; 17
    10ee:	8f 61       	ori	r24, 0x1F	; 31
    10f0:	81 bb       	out	0x11, r24	; 17
    10f2:	08 95       	ret

000010f4 <TFT_SendCommand>:
}
//-----------------------------------------------------------------------------------------------------------
void TFT_SendCommand(unsigned char cmd)
{
	CD_COMMAND;
    10f4:	92 98       	cbi	0x12, 2	; 18
	RD_IDLE;
    10f6:	90 9a       	sbi	0x12, 0	; 18
	CS_ACTIVE;
    10f8:	93 98       	cbi	0x12, 3	; 18
	PORT_DATA = cmd;
    10fa:	85 bb       	out	0x15, r24	; 21
	WR_STROBE;
    10fc:	91 98       	cbi	0x12, 1	; 18
    10fe:	91 9a       	sbi	0x12, 1	; 18
	CS_IDLE;
    1100:	93 9a       	sbi	0x12, 3	; 18
    1102:	08 95       	ret

00001104 <TFT_SendData>:
}
//-----------------------------------------------------------------------------------------------------------
void TFT_SendData(unsigned char dt)
{
	CD_DATA;
    1104:	92 9a       	sbi	0x12, 2	; 18
	RD_IDLE;
    1106:	90 9a       	sbi	0x12, 0	; 18
	CS_ACTIVE;
    1108:	93 98       	cbi	0x12, 3	; 18
	PORT_DATA = dt;
    110a:	85 bb       	out	0x15, r24	; 21
	//Ship_595(dt);
	WR_STROBE;
    110c:	91 98       	cbi	0x12, 1	; 18
    110e:	91 9a       	sbi	0x12, 1	; 18
	CS_IDLE;		
    1110:	93 9a       	sbi	0x12, 3	; 18
    1112:	08 95       	ret

00001114 <TFT_Write8>:
}
//-----------------------------------------------------------------------------------------------------------
void TFT_Write8(unsigned char dt)
{
	PORT_DATA = dt;
    1114:	85 bb       	out	0x15, r24	; 21
	//Ship_595(dt);
	WR_STROBE;
    1116:	91 98       	cbi	0x12, 1	; 18
    1118:	91 9a       	sbi	0x12, 1	; 18
    111a:	08 95       	ret

0000111c <TFT_SetRotation>:
// 	_delay_us(150);//stabilization time
	return id;
}*/
//-----------------------------------------------------------------------------------------------------------
void TFT_SetRotation(unsigned char r)
{
    111c:	cf 93       	push	r28
    111e:	c8 2f       	mov	r28, r24
	TFT_SendCommand(0x36);
    1120:	86 e3       	ldi	r24, 0x36	; 54
    1122:	0e 94 7a 08 	call	0x10f4	; 0x10f4 <TFT_SendCommand>
	switch(r)
    1126:	c1 30       	cpi	r28, 0x01	; 1
    1128:	b1 f0       	breq	.+44     	; 0x1156 <TFT_SetRotation+0x3a>
    112a:	28 f0       	brcs	.+10     	; 0x1136 <TFT_SetRotation+0x1a>
    112c:	c2 30       	cpi	r28, 0x02	; 2
    112e:	19 f1       	breq	.+70     	; 0x1176 <TFT_SetRotation+0x5a>
    1130:	c3 30       	cpi	r28, 0x03	; 3
    1132:	89 f1       	breq	.+98     	; 0x1196 <TFT_SetRotation+0x7a>
    1134:	3f c0       	rjmp	.+126    	; 0x11b4 <TFT_SetRotation+0x98>
	{
		case 0:
		TFT_SendData(0x48);
    1136:	88 e4       	ldi	r24, 0x48	; 72
    1138:	0e 94 82 08 	call	0x1104	; 0x1104 <TFT_SendData>
		X_SIZE = 240;
    113c:	80 ef       	ldi	r24, 0xF0	; 240
    113e:	90 e0       	ldi	r25, 0x00	; 0
    1140:	90 93 59 01 	sts	0x0159, r25
    1144:	80 93 58 01 	sts	0x0158, r24
		Y_SIZE = 320;
    1148:	80 e4       	ldi	r24, 0x40	; 64
    114a:	91 e0       	ldi	r25, 0x01	; 1
    114c:	90 93 57 01 	sts	0x0157, r25
    1150:	80 93 56 01 	sts	0x0156, r24
		break;
    1154:	2f c0       	rjmp	.+94     	; 0x11b4 <TFT_SetRotation+0x98>
		case 1:
		TFT_SendData(0x28);
    1156:	88 e2       	ldi	r24, 0x28	; 40
    1158:	0e 94 82 08 	call	0x1104	; 0x1104 <TFT_SendData>
		X_SIZE = 320;
    115c:	80 e4       	ldi	r24, 0x40	; 64
    115e:	91 e0       	ldi	r25, 0x01	; 1
    1160:	90 93 59 01 	sts	0x0159, r25
    1164:	80 93 58 01 	sts	0x0158, r24
		Y_SIZE = 240;
    1168:	80 ef       	ldi	r24, 0xF0	; 240
    116a:	90 e0       	ldi	r25, 0x00	; 0
    116c:	90 93 57 01 	sts	0x0157, r25
    1170:	80 93 56 01 	sts	0x0156, r24
		break;
    1174:	1f c0       	rjmp	.+62     	; 0x11b4 <TFT_SetRotation+0x98>
		case 2:
		TFT_SendData(0x88);
    1176:	88 e8       	ldi	r24, 0x88	; 136
    1178:	0e 94 82 08 	call	0x1104	; 0x1104 <TFT_SendData>
		X_SIZE = 240;
    117c:	80 ef       	ldi	r24, 0xF0	; 240
    117e:	90 e0       	ldi	r25, 0x00	; 0
    1180:	90 93 59 01 	sts	0x0159, r25
    1184:	80 93 58 01 	sts	0x0158, r24
		Y_SIZE = 320;
    1188:	80 e4       	ldi	r24, 0x40	; 64
    118a:	91 e0       	ldi	r25, 0x01	; 1
    118c:	90 93 57 01 	sts	0x0157, r25
    1190:	80 93 56 01 	sts	0x0156, r24
		break;
    1194:	0f c0       	rjmp	.+30     	; 0x11b4 <TFT_SetRotation+0x98>
		case 3:
		TFT_SendData(0xE8);
    1196:	88 ee       	ldi	r24, 0xE8	; 232
    1198:	0e 94 82 08 	call	0x1104	; 0x1104 <TFT_SendData>
		X_SIZE = 320;
    119c:	80 e4       	ldi	r24, 0x40	; 64
    119e:	91 e0       	ldi	r25, 0x01	; 1
    11a0:	90 93 59 01 	sts	0x0159, r25
    11a4:	80 93 58 01 	sts	0x0158, r24
		Y_SIZE = 240;
    11a8:	80 ef       	ldi	r24, 0xF0	; 240
    11aa:	90 e0       	ldi	r25, 0x00	; 0
    11ac:	90 93 57 01 	sts	0x0157, r25
    11b0:	80 93 56 01 	sts	0x0156, r24
		break;
	}
}
    11b4:	cf 91       	pop	r28
    11b6:	08 95       	ret

000011b8 <TFT_Flood>:
//-----------------------------------------------------------------------------------------------------------
void TFT_Flood(unsigned short color,unsigned long len)
{
    11b8:	af 92       	push	r10
    11ba:	bf 92       	push	r11
    11bc:	cf 92       	push	r12
    11be:	df 92       	push	r13
    11c0:	ef 92       	push	r14
    11c2:	ff 92       	push	r15
    11c4:	0f 93       	push	r16
    11c6:	1f 93       	push	r17
    11c8:	cf 93       	push	r28
    11ca:	df 93       	push	r29
    11cc:	c8 2f       	mov	r28, r24
    11ce:	d9 2f       	mov	r29, r25
    11d0:	6a 01       	movw	r12, r20
    11d2:	7b 01       	movw	r14, r22
	unsigned short blocks;
	unsigned char i,hi = color>>8,lo=color;
    11d4:	19 2f       	mov	r17, r25
    11d6:	08 2f       	mov	r16, r24
	CS_ACTIVE;
    11d8:	93 98       	cbi	0x12, 3	; 18
	CD_COMMAND;
    11da:	92 98       	cbi	0x12, 2	; 18
	TFT_Write8(0x2C);
    11dc:	8c e2       	ldi	r24, 0x2C	; 44
    11de:	0e 94 8a 08 	call	0x1114	; 0x1114 <TFT_Write8>
	CD_DATA;
    11e2:	92 9a       	sbi	0x12, 2	; 18
	TFT_Write8(hi);
    11e4:	8d 2f       	mov	r24, r29
    11e6:	0e 94 8a 08 	call	0x1114	; 0x1114 <TFT_Write8>
	TFT_Write8(lo);
    11ea:	8c 2f       	mov	r24, r28
    11ec:	0e 94 8a 08 	call	0x1114	; 0x1114 <TFT_Write8>
	len--;
    11f0:	81 e0       	ldi	r24, 0x01	; 1
    11f2:	c8 1a       	sub	r12, r24
    11f4:	d1 08       	sbc	r13, r1
    11f6:	e1 08       	sbc	r14, r1
    11f8:	f1 08       	sbc	r15, r1
	blocks=(unsigned short)(len/64);//64pitxel/block
    11fa:	b7 01       	movw	r22, r14
    11fc:	a6 01       	movw	r20, r12
    11fe:	68 94       	set
    1200:	15 f8       	bld	r1, 5
    1202:	76 95       	lsr	r23
    1204:	67 95       	ror	r22
    1206:	57 95       	ror	r21
    1208:	47 95       	ror	r20
    120a:	16 94       	lsr	r1
    120c:	d1 f7       	brne	.-12     	; 0x1202 <TFT_Flood+0x4a>
    120e:	9a 01       	movw	r18, r20
	if (hi==lo)
    1210:	dc 17       	cp	r29, r28
    1212:	29 f0       	breq	.+10     	; 0x121e <TFT_Flood+0x66>
    1214:	ea 01       	movw	r28, r20
			WR_STROBE;
		}
	}//end if
	else
	{
		while(blocks--)
    1216:	68 94       	set
    1218:	aa 24       	eor	r10, r10
    121a:	a4 f8       	bld	r10, 4
    121c:	41 c0       	rjmp	.+130    	; 0x12a0 <TFT_Flood+0xe8>
	TFT_Write8(lo);
	len--;
	blocks=(unsigned short)(len/64);//64pitxel/block
	if (hi==lo)
	{
		while(blocks--)
    121e:	90 e1       	ldi	r25, 0x10	; 16
    1220:	12 c0       	rjmp	.+36     	; 0x1246 <TFT_Flood+0x8e>
		{
			i=16;
			do 
			{
				WR_STROBE;WR_STROBE;WR_STROBE;WR_STROBE;//2byte/pitxel
    1222:	91 98       	cbi	0x12, 1	; 18
    1224:	91 9a       	sbi	0x12, 1	; 18
    1226:	91 98       	cbi	0x12, 1	; 18
    1228:	91 9a       	sbi	0x12, 1	; 18
    122a:	91 98       	cbi	0x12, 1	; 18
    122c:	91 9a       	sbi	0x12, 1	; 18
    122e:	91 98       	cbi	0x12, 1	; 18
    1230:	91 9a       	sbi	0x12, 1	; 18
				WR_STROBE;WR_STROBE;WR_STROBE;WR_STROBE;//x4pitxel
    1232:	91 98       	cbi	0x12, 1	; 18
    1234:	91 9a       	sbi	0x12, 1	; 18
    1236:	91 98       	cbi	0x12, 1	; 18
    1238:	91 9a       	sbi	0x12, 1	; 18
    123a:	91 98       	cbi	0x12, 1	; 18
    123c:	91 9a       	sbi	0x12, 1	; 18
    123e:	91 98       	cbi	0x12, 1	; 18
    1240:	91 9a       	sbi	0x12, 1	; 18
    1242:	81 50       	subi	r24, 0x01	; 1
			} 
			while (--i);
    1244:	71 f7       	brne	.-36     	; 0x1222 <TFT_Flood+0x6a>
	TFT_Write8(lo);
	len--;
	blocks=(unsigned short)(len/64);//64pitxel/block
	if (hi==lo)
	{
		while(blocks--)
    1246:	21 50       	subi	r18, 0x01	; 1
    1248:	31 09       	sbc	r19, r1
    124a:	10 f0       	brcs	.+4      	; 0x1250 <TFT_Flood+0x98>
    124c:	89 2f       	mov	r24, r25
    124e:	e9 cf       	rjmp	.-46     	; 0x1222 <TFT_Flood+0x6a>
				WR_STROBE;WR_STROBE;WR_STROBE;WR_STROBE;//x4pitxel
			} 
			while (--i);
		}
		//Fill any remaining pixel(1 to 64)
		for (i=(unsigned char)len&63;i--;)
    1250:	9c 2d       	mov	r25, r12
    1252:	9f 73       	andi	r25, 0x3F	; 63
    1254:	8f ef       	ldi	r24, 0xFF	; 255
    1256:	89 0f       	add	r24, r25
    1258:	99 23       	and	r25, r25
    125a:	91 f1       	breq	.+100    	; 0x12c0 <TFT_Flood+0x108>
		{
			WR_STROBE;
    125c:	91 98       	cbi	0x12, 1	; 18
    125e:	91 9a       	sbi	0x12, 1	; 18
			WR_STROBE;
    1260:	91 98       	cbi	0x12, 1	; 18
    1262:	91 9a       	sbi	0x12, 1	; 18
				WR_STROBE;WR_STROBE;WR_STROBE;WR_STROBE;//x4pitxel
			} 
			while (--i);
		}
		//Fill any remaining pixel(1 to 64)
		for (i=(unsigned char)len&63;i--;)
    1264:	81 50       	subi	r24, 0x01	; 1
    1266:	d0 f7       	brcc	.-12     	; 0x125c <TFT_Flood+0xa4>
    1268:	2b c0       	rjmp	.+86     	; 0x12c0 <TFT_Flood+0x108>
		while(blocks--)
		{
			i=16;
			do
			{
				TFT_Write8(hi);	TFT_Write8(lo);	TFT_Write8(hi);	TFT_Write8(lo);//2byte/pitxel
    126a:	81 2f       	mov	r24, r17
    126c:	0e 94 8a 08 	call	0x1114	; 0x1114 <TFT_Write8>
    1270:	80 2f       	mov	r24, r16
    1272:	0e 94 8a 08 	call	0x1114	; 0x1114 <TFT_Write8>
    1276:	81 2f       	mov	r24, r17
    1278:	0e 94 8a 08 	call	0x1114	; 0x1114 <TFT_Write8>
    127c:	80 2f       	mov	r24, r16
    127e:	0e 94 8a 08 	call	0x1114	; 0x1114 <TFT_Write8>
				TFT_Write8(hi);	TFT_Write8(lo);	TFT_Write8(hi);	TFT_Write8(lo);//x4pitxel
    1282:	81 2f       	mov	r24, r17
    1284:	0e 94 8a 08 	call	0x1114	; 0x1114 <TFT_Write8>
    1288:	80 2f       	mov	r24, r16
    128a:	0e 94 8a 08 	call	0x1114	; 0x1114 <TFT_Write8>
    128e:	81 2f       	mov	r24, r17
    1290:	0e 94 8a 08 	call	0x1114	; 0x1114 <TFT_Write8>
    1294:	80 2f       	mov	r24, r16
    1296:	0e 94 8a 08 	call	0x1114	; 0x1114 <TFT_Write8>
    129a:	ba 94       	dec	r11
			}
			while (--i);
    129c:	31 f7       	brne	.-52     	; 0x126a <TFT_Flood+0xb2>
    129e:	21 97       	sbiw	r28, 0x01	; 1
			WR_STROBE;
		}
	}//end if
	else
	{
		while(blocks--)
    12a0:	20 97       	sbiw	r28, 0x00	; 0
    12a2:	11 f0       	breq	.+4      	; 0x12a8 <TFT_Flood+0xf0>
    12a4:	ba 2c       	mov	r11, r10
    12a6:	e1 cf       	rjmp	.-62     	; 0x126a <TFT_Flood+0xb2>
				TFT_Write8(hi);	TFT_Write8(lo);	TFT_Write8(hi);	TFT_Write8(lo);//x4pitxel
			}
			while (--i);
		}
		//Fill any remaining pixel(1 to 64)
		for (i=(unsigned char)len&63;i--;)
    12a8:	8c 2d       	mov	r24, r12
    12aa:	8f 73       	andi	r24, 0x3F	; 63
    12ac:	49 f0       	breq	.+18     	; 0x12c0 <TFT_Flood+0x108>
    12ae:	c8 2e       	mov	r12, r24
		{
			TFT_Write8(hi);
    12b0:	81 2f       	mov	r24, r17
    12b2:	0e 94 8a 08 	call	0x1114	; 0x1114 <TFT_Write8>
			TFT_Write8(lo);
    12b6:	80 2f       	mov	r24, r16
    12b8:	0e 94 8a 08 	call	0x1114	; 0x1114 <TFT_Write8>
    12bc:	ca 94       	dec	r12
				TFT_Write8(hi);	TFT_Write8(lo);	TFT_Write8(hi);	TFT_Write8(lo);//x4pitxel
			}
			while (--i);
		}
		//Fill any remaining pixel(1 to 64)
		for (i=(unsigned char)len&63;i--;)
    12be:	c1 f7       	brne	.-16     	; 0x12b0 <TFT_Flood+0xf8>
		{
			TFT_Write8(hi);
			TFT_Write8(lo);
		}
	}
	CS_IDLE;
    12c0:	93 9a       	sbi	0x12, 3	; 18
	
}
    12c2:	df 91       	pop	r29
    12c4:	cf 91       	pop	r28
    12c6:	1f 91       	pop	r17
    12c8:	0f 91       	pop	r16
    12ca:	ff 90       	pop	r15
    12cc:	ef 90       	pop	r14
    12ce:	df 90       	pop	r13
    12d0:	cf 90       	pop	r12
    12d2:	bf 90       	pop	r11
    12d4:	af 90       	pop	r10
    12d6:	08 95       	ret

000012d8 <TFT_Reset>:
//-----------------------------------------------------------------------------------------------------------
void TFT_Reset(void)
{
	CS_IDLE;
    12d8:	93 9a       	sbi	0x12, 3	; 18
	WR_IDLE;
    12da:	91 9a       	sbi	0x12, 1	; 18
	RD_IDLE;
    12dc:	90 9a       	sbi	0x12, 0	; 18
	RESET_ACTIVE;
    12de:	94 98       	cbi	0x12, 4	; 18
// 	_delay_ms(2);
	RESET_IDLE;
    12e0:	94 9a       	sbi	0x12, 4	; 18
	CS_ACTIVE;
    12e2:	93 98       	cbi	0x12, 3	; 18
	TFT_SendCommand(0x01);//Softwear Reset
    12e4:	81 e0       	ldi	r24, 0x01	; 1
    12e6:	0e 94 7a 08 	call	0x10f4	; 0x10f4 <TFT_SendCommand>
    12ea:	83 e0       	ldi	r24, 0x03	; 3
	for (uint8_t i=0;i<3;i++)
		WR_STROBE;
    12ec:	91 98       	cbi	0x12, 1	; 18
    12ee:	91 9a       	sbi	0x12, 1	; 18
    12f0:	81 50       	subi	r24, 0x01	; 1
	RESET_ACTIVE;
// 	_delay_ms(2);
	RESET_IDLE;
	CS_ACTIVE;
	TFT_SendCommand(0x01);//Softwear Reset
	for (uint8_t i=0;i<3;i++)
    12f2:	e1 f7       	brne	.-8      	; 0x12ec <TFT_Reset+0x14>
		WR_STROBE;
	CS_IDLE;
    12f4:	93 9a       	sbi	0x12, 3	; 18
    12f6:	08 95       	ret

000012f8 <TFT_WriteReg32>:
	
}
//-----------------------------------------------------------------------------------------------------------
void TFT_WriteReg32(unsigned char r,unsigned long d)
{
    12f8:	0f 93       	push	r16
    12fa:	1f 93       	push	r17
    12fc:	cf 93       	push	r28
    12fe:	df 93       	push	r29
    1300:	c4 2f       	mov	r28, r20
    1302:	d5 2f       	mov	r29, r21
    1304:	16 2f       	mov	r17, r22
    1306:	07 2f       	mov	r16, r23
	CS_ACTIVE;
    1308:	93 98       	cbi	0x12, 3	; 18
	CD_COMMAND;
    130a:	92 98       	cbi	0x12, 2	; 18
	TFT_Write8(r);
    130c:	0e 94 8a 08 	call	0x1114	; 0x1114 <TFT_Write8>
	CD_DATA;
    1310:	92 9a       	sbi	0x12, 2	; 18
// 	_delay_us(10);
	TFT_Write8(d>>24);
    1312:	80 2f       	mov	r24, r16
    1314:	0e 94 8a 08 	call	0x1114	; 0x1114 <TFT_Write8>
// 	_delay_us(10);
	TFT_Write8(d>>16);
    1318:	81 2f       	mov	r24, r17
    131a:	0e 94 8a 08 	call	0x1114	; 0x1114 <TFT_Write8>
// 	_delay_us(10);
	TFT_Write8(d>>8);
    131e:	8d 2f       	mov	r24, r29
    1320:	0e 94 8a 08 	call	0x1114	; 0x1114 <TFT_Write8>
// 	_delay_us(10);
	TFT_Write8(d);
    1324:	8c 2f       	mov	r24, r28
    1326:	0e 94 8a 08 	call	0x1114	; 0x1114 <TFT_Write8>
	CS_IDLE;
    132a:	93 9a       	sbi	0x12, 3	; 18
}
    132c:	df 91       	pop	r29
    132e:	cf 91       	pop	r28
    1330:	1f 91       	pop	r17
    1332:	0f 91       	pop	r16
    1334:	08 95       	ret

00001336 <TFT_SetAddrWindow>:
//-----------------------------------------------------------------------------------------------------------
void TFT_SetAddrWindow(unsigned int x1,unsigned int y1,unsigned int x2,unsigned int y2)
{
    1336:	0f 93       	push	r16
    1338:	1f 93       	push	r17
    133a:	cf 93       	push	r28
    133c:	df 93       	push	r29
    133e:	fc 01       	movw	r30, r24
    1340:	8b 01       	movw	r16, r22
    1342:	ca 01       	movw	r24, r20
    1344:	e9 01       	movw	r28, r18
	unsigned long t;
	CS_ACTIVE;
    1346:	93 98       	cbi	0x12, 3	; 18
	t=x1;
    1348:	af 01       	movw	r20, r30
    134a:	60 e0       	ldi	r22, 0x00	; 0
    134c:	70 e0       	ldi	r23, 0x00	; 0
	t<<=16;
    134e:	ba 01       	movw	r22, r20
    1350:	55 27       	eor	r21, r21
    1352:	44 27       	eor	r20, r20
	t|=x2;
    1354:	a0 e0       	ldi	r26, 0x00	; 0
    1356:	b0 e0       	ldi	r27, 0x00	; 0
    1358:	48 2b       	or	r20, r24
    135a:	59 2b       	or	r21, r25
    135c:	6a 2b       	or	r22, r26
    135e:	7b 2b       	or	r23, r27
	TFT_WriteReg32(0x2A,t);//Set Column
    1360:	8a e2       	ldi	r24, 0x2A	; 42
    1362:	0e 94 7c 09 	call	0x12f8	; 0x12f8 <TFT_WriteReg32>
	t=y1;
    1366:	a8 01       	movw	r20, r16
    1368:	60 e0       	ldi	r22, 0x00	; 0
    136a:	70 e0       	ldi	r23, 0x00	; 0
	t<<=16;
    136c:	ba 01       	movw	r22, r20
    136e:	55 27       	eor	r21, r21
    1370:	44 27       	eor	r20, r20
	t|=y2;
    1372:	ce 01       	movw	r24, r28
    1374:	a0 e0       	ldi	r26, 0x00	; 0
    1376:	b0 e0       	ldi	r27, 0x00	; 0
    1378:	48 2b       	or	r20, r24
    137a:	59 2b       	or	r21, r25
    137c:	6a 2b       	or	r22, r26
    137e:	7b 2b       	or	r23, r27
	TFT_WriteReg32(0x2B,t);//Set Page
    1380:	8b e2       	ldi	r24, 0x2B	; 43
    1382:	0e 94 7c 09 	call	0x12f8	; 0x12f8 <TFT_WriteReg32>
	CS_IDLE;
    1386:	93 9a       	sbi	0x12, 3	; 18
}
    1388:	df 91       	pop	r29
    138a:	cf 91       	pop	r28
    138c:	1f 91       	pop	r17
    138e:	0f 91       	pop	r16
    1390:	08 95       	ret

00001392 <TFT_DrawPixel>:
//-----------------------------------------------------------------------------------------------------------
void TFT_DrawPixel(int x,int y,unsigned int color)
{
    1392:	cf 93       	push	r28
    1394:	df 93       	push	r29
    1396:	c4 2f       	mov	r28, r20
    1398:	d5 2f       	mov	r29, r21
	if ((x<0)||(y<0)||(x>=X_SIZE)||(y>=Y_SIZE))
    139a:	99 23       	and	r25, r25
    139c:	6c f1       	brlt	.+90     	; 0x13f8 <TFT_DrawPixel+0x66>
    139e:	77 23       	and	r23, r23
    13a0:	5c f1       	brlt	.+86     	; 0x13f8 <TFT_DrawPixel+0x66>
    13a2:	20 91 58 01 	lds	r18, 0x0158
    13a6:	30 91 59 01 	lds	r19, 0x0159
    13aa:	82 17       	cp	r24, r18
    13ac:	93 07       	cpc	r25, r19
    13ae:	20 f5       	brcc	.+72     	; 0x13f8 <TFT_DrawPixel+0x66>
    13b0:	20 91 56 01 	lds	r18, 0x0156
    13b4:	30 91 57 01 	lds	r19, 0x0157
    13b8:	62 17       	cp	r22, r18
    13ba:	73 07       	cpc	r23, r19
    13bc:	e8 f4       	brcc	.+58     	; 0x13f8 <TFT_DrawPixel+0x66>
	return;
	CS_ACTIVE;
    13be:	93 98       	cbi	0x12, 3	; 18
	TFT_SetAddrWindow(x,y,X_SIZE-1,Y_SIZE-1);
    13c0:	20 91 56 01 	lds	r18, 0x0156
    13c4:	30 91 57 01 	lds	r19, 0x0157
    13c8:	21 50       	subi	r18, 0x01	; 1
    13ca:	31 09       	sbc	r19, r1
    13cc:	e0 91 58 01 	lds	r30, 0x0158
    13d0:	f0 91 59 01 	lds	r31, 0x0159
    13d4:	af 01       	movw	r20, r30
    13d6:	41 50       	subi	r20, 0x01	; 1
    13d8:	51 09       	sbc	r21, r1
    13da:	0e 94 9b 09 	call	0x1336	; 0x1336 <TFT_SetAddrWindow>
	CS_ACTIVE;
    13de:	93 98       	cbi	0x12, 3	; 18
	CD_COMMAND;
    13e0:	92 98       	cbi	0x12, 2	; 18
	TFT_Write8(0x2C);
    13e2:	8c e2       	ldi	r24, 0x2C	; 44
    13e4:	0e 94 8a 08 	call	0x1114	; 0x1114 <TFT_Write8>
	CD_DATA;
    13e8:	92 9a       	sbi	0x12, 2	; 18
	TFT_Write8(color>>8);
    13ea:	8d 2f       	mov	r24, r29
    13ec:	0e 94 8a 08 	call	0x1114	; 0x1114 <TFT_Write8>
	TFT_Write8(color);
    13f0:	8c 2f       	mov	r24, r28
    13f2:	0e 94 8a 08 	call	0x1114	; 0x1114 <TFT_Write8>
	CS_IDLE;
    13f6:	93 9a       	sbi	0x12, 3	; 18
}
    13f8:	df 91       	pop	r29
    13fa:	cf 91       	pop	r28
    13fc:	08 95       	ret

000013fe <TFT_FillScreen>:
//-----------------------------------------------------------------------------------------------------------
void TFT_FillScreen(unsigned int color)
{
    13fe:	cf 93       	push	r28
    1400:	df 93       	push	r29
    1402:	ec 01       	movw	r28, r24
	TFT_SetAddrWindow(0,0,X_SIZE-1,Y_SIZE-1);
    1404:	20 91 56 01 	lds	r18, 0x0156
    1408:	30 91 57 01 	lds	r19, 0x0157
    140c:	21 50       	subi	r18, 0x01	; 1
    140e:	31 09       	sbc	r19, r1
    1410:	40 91 58 01 	lds	r20, 0x0158
    1414:	50 91 59 01 	lds	r21, 0x0159
    1418:	41 50       	subi	r20, 0x01	; 1
    141a:	51 09       	sbc	r21, r1
    141c:	60 e0       	ldi	r22, 0x00	; 0
    141e:	70 e0       	ldi	r23, 0x00	; 0
    1420:	80 e0       	ldi	r24, 0x00	; 0
    1422:	90 e0       	ldi	r25, 0x00	; 0
    1424:	0e 94 9b 09 	call	0x1336	; 0x1336 <TFT_SetAddrWindow>
	TFT_Flood(color,(long)X_SIZE*(long)Y_SIZE);
    1428:	20 91 58 01 	lds	r18, 0x0158
    142c:	30 91 59 01 	lds	r19, 0x0159
    1430:	a0 91 56 01 	lds	r26, 0x0156
    1434:	b0 91 57 01 	lds	r27, 0x0157
    1438:	0e 94 81 13 	call	0x2702	; 0x2702 <__umulhisi3>
    143c:	ab 01       	movw	r20, r22
    143e:	bc 01       	movw	r22, r24
    1440:	ce 01       	movw	r24, r28
    1442:	0e 94 dc 08 	call	0x11b8	; 0x11b8 <TFT_Flood>
}
    1446:	df 91       	pop	r29
    1448:	cf 91       	pop	r28
    144a:	08 95       	ret

0000144c <TFT_DrawLineY>:
//-----------------------------------------------------------------------------------------------------------

//-----------------------------------------------------------------------------------------------------------
void TFT_DrawLineY(unsigned int x,unsigned int y1,unsigned int y2,unsigned int color)
{
    144c:	ef 92       	push	r14
    144e:	ff 92       	push	r15
    1450:	0f 93       	push	r16
    1452:	1f 93       	push	r17
    1454:	cf 93       	push	r28
    1456:	df 93       	push	r29
    1458:	8b 01       	movw	r16, r22
    145a:	ea 01       	movw	r28, r20
    145c:	79 01       	movw	r14, r18
	if ((x>=X_SIZE)|(y1>=Y_SIZE)|(y2>=Y_SIZE))
    145e:	20 91 56 01 	lds	r18, 0x0156
    1462:	30 91 57 01 	lds	r19, 0x0157
    1466:	51 e0       	ldi	r21, 0x01	; 1
    1468:	62 17       	cp	r22, r18
    146a:	73 07       	cpc	r23, r19
    146c:	08 f4       	brcc	.+2      	; 0x1470 <TFT_DrawLineY+0x24>
    146e:	50 e0       	ldi	r21, 0x00	; 0
    1470:	41 e0       	ldi	r20, 0x01	; 1
    1472:	c2 17       	cp	r28, r18
    1474:	d3 07       	cpc	r29, r19
    1476:	08 f4       	brcc	.+2      	; 0x147a <TFT_DrawLineY+0x2e>
    1478:	40 e0       	ldi	r20, 0x00	; 0
    147a:	45 2b       	or	r20, r21
    147c:	11 f5       	brne	.+68     	; 0x14c2 <TFT_DrawLineY+0x76>
    147e:	41 e0       	ldi	r20, 0x01	; 1
    1480:	20 91 58 01 	lds	r18, 0x0158
    1484:	30 91 59 01 	lds	r19, 0x0159
    1488:	82 17       	cp	r24, r18
    148a:	93 07       	cpc	r25, r19
    148c:	08 f4       	brcc	.+2      	; 0x1490 <TFT_DrawLineY+0x44>
    148e:	40 e0       	ldi	r20, 0x00	; 0
    1490:	41 11       	cpse	r20, r1
    1492:	17 c0       	rjmp	.+46     	; 0x14c2 <TFT_DrawLineY+0x76>
	return;
	if (y1>y2)
    1494:	c0 17       	cp	r28, r16
    1496:	d1 07       	cpc	r29, r17
    1498:	28 f4       	brcc	.+10     	; 0x14a4 <TFT_DrawLineY+0x58>
    149a:	30 2f       	mov	r19, r16
    149c:	21 2f       	mov	r18, r17
	swap(y1,y2);
    149e:	8e 01       	movw	r16, r28
    14a0:	c3 2f       	mov	r28, r19
    14a2:	d2 2f       	mov	r29, r18
	TFT_SetAddrWindow(x,y1,x,y2);
    14a4:	9e 01       	movw	r18, r28
    14a6:	ac 01       	movw	r20, r24
    14a8:	b8 01       	movw	r22, r16
    14aa:	0e 94 9b 09 	call	0x1336	; 0x1336 <TFT_SetAddrWindow>
	TFT_Flood(color,(long)(y2-y1+1));
    14ae:	ae 01       	movw	r20, r28
    14b0:	4f 5f       	subi	r20, 0xFF	; 255
    14b2:	5f 4f       	sbci	r21, 0xFF	; 255
    14b4:	40 1b       	sub	r20, r16
    14b6:	51 0b       	sbc	r21, r17
    14b8:	60 e0       	ldi	r22, 0x00	; 0
    14ba:	70 e0       	ldi	r23, 0x00	; 0
    14bc:	c7 01       	movw	r24, r14
    14be:	0e 94 dc 08 	call	0x11b8	; 0x11b8 <TFT_Flood>
}
    14c2:	df 91       	pop	r29
    14c4:	cf 91       	pop	r28
    14c6:	1f 91       	pop	r17
    14c8:	0f 91       	pop	r16
    14ca:	ff 90       	pop	r15
    14cc:	ef 90       	pop	r14
    14ce:	08 95       	ret

000014d0 <TFT_DrawLineX>:
//-----------------------------------------------------------------------------------------------------------
void TFT_DrawLineX(unsigned int x1,unsigned int x2,unsigned int y,unsigned int color)
{
    14d0:	ef 92       	push	r14
    14d2:	ff 92       	push	r15
    14d4:	0f 93       	push	r16
    14d6:	1f 93       	push	r17
    14d8:	cf 93       	push	r28
    14da:	df 93       	push	r29
    14dc:	8c 01       	movw	r16, r24
    14de:	eb 01       	movw	r28, r22
    14e0:	ba 01       	movw	r22, r20
    14e2:	79 01       	movw	r14, r18
	if ((x1>=X_SIZE)|(x2>=X_SIZE)|(y>=Y_SIZE))
    14e4:	80 91 58 01 	lds	r24, 0x0158
    14e8:	90 91 59 01 	lds	r25, 0x0159
    14ec:	51 e0       	ldi	r21, 0x01	; 1
    14ee:	c8 17       	cp	r28, r24
    14f0:	d9 07       	cpc	r29, r25
    14f2:	08 f4       	brcc	.+2      	; 0x14f6 <TFT_DrawLineX+0x26>
    14f4:	50 e0       	ldi	r21, 0x00	; 0
    14f6:	41 e0       	ldi	r20, 0x01	; 1
    14f8:	20 91 56 01 	lds	r18, 0x0156
    14fc:	30 91 57 01 	lds	r19, 0x0157
    1500:	62 17       	cp	r22, r18
    1502:	73 07       	cpc	r23, r19
    1504:	08 f4       	brcc	.+2      	; 0x1508 <TFT_DrawLineX+0x38>
    1506:	40 e0       	ldi	r20, 0x00	; 0
    1508:	45 2b       	or	r20, r21
    150a:	f1 f4       	brne	.+60     	; 0x1548 <TFT_DrawLineX+0x78>
    150c:	21 e0       	ldi	r18, 0x01	; 1
    150e:	08 17       	cp	r16, r24
    1510:	19 07       	cpc	r17, r25
    1512:	08 f4       	brcc	.+2      	; 0x1516 <TFT_DrawLineX+0x46>
    1514:	20 e0       	ldi	r18, 0x00	; 0
    1516:	21 11       	cpse	r18, r1
    1518:	17 c0       	rjmp	.+46     	; 0x1548 <TFT_DrawLineX+0x78>
		return;
	if (x1>x2)
    151a:	c0 17       	cp	r28, r16
    151c:	d1 07       	cpc	r29, r17
    151e:	28 f4       	brcc	.+10     	; 0x152a <TFT_DrawLineX+0x5a>
    1520:	90 2f       	mov	r25, r16
    1522:	81 2f       	mov	r24, r17
		swap(x1,x2);
    1524:	8e 01       	movw	r16, r28
    1526:	c9 2f       	mov	r28, r25
    1528:	d8 2f       	mov	r29, r24
	TFT_SetAddrWindow(x1,y,x2,y);
    152a:	9b 01       	movw	r18, r22
    152c:	ae 01       	movw	r20, r28
    152e:	c8 01       	movw	r24, r16
    1530:	0e 94 9b 09 	call	0x1336	; 0x1336 <TFT_SetAddrWindow>
	TFT_Flood(color,(long)(x2-x1+1));
    1534:	ae 01       	movw	r20, r28
    1536:	4f 5f       	subi	r20, 0xFF	; 255
    1538:	5f 4f       	sbci	r21, 0xFF	; 255
    153a:	40 1b       	sub	r20, r16
    153c:	51 0b       	sbc	r21, r17
    153e:	60 e0       	ldi	r22, 0x00	; 0
    1540:	70 e0       	ldi	r23, 0x00	; 0
    1542:	c7 01       	movw	r24, r14
    1544:	0e 94 dc 08 	call	0x11b8	; 0x11b8 <TFT_Flood>
}
    1548:	df 91       	pop	r29
    154a:	cf 91       	pop	r28
    154c:	1f 91       	pop	r17
    154e:	0f 91       	pop	r16
    1550:	ff 90       	pop	r15
    1552:	ef 90       	pop	r14
    1554:	08 95       	ret

00001556 <TFT_DrawRectangle>:
//-----------------------------------------------------------------------------------------------------------

//-----------------------------------------------------------------------------------------------------------
void TFT_DrawRectangle(unsigned int x1,unsigned int y1,unsigned int x2,unsigned int y2,unsigned int color)
{
    1556:	af 92       	push	r10
    1558:	bf 92       	push	r11
    155a:	cf 92       	push	r12
    155c:	df 92       	push	r13
    155e:	ef 92       	push	r14
    1560:	ff 92       	push	r15
    1562:	0f 93       	push	r16
    1564:	1f 93       	push	r17
    1566:	cf 93       	push	r28
    1568:	df 93       	push	r29
    156a:	5c 01       	movw	r10, r24
    156c:	eb 01       	movw	r28, r22
    156e:	6a 01       	movw	r12, r20
    1570:	79 01       	movw	r14, r18
	if ((x1>=X_SIZE)|(x2>=X_SIZE)|(y1>=Y_SIZE)|(y2>=Y_SIZE))
    1572:	80 91 58 01 	lds	r24, 0x0158
    1576:	90 91 59 01 	lds	r25, 0x0159
    157a:	40 91 56 01 	lds	r20, 0x0156
    157e:	50 91 57 01 	lds	r21, 0x0157
    1582:	31 e0       	ldi	r19, 0x01	; 1
    1584:	64 17       	cp	r22, r20
    1586:	75 07       	cpc	r23, r21
    1588:	08 f4       	brcc	.+2      	; 0x158c <TFT_DrawRectangle+0x36>
    158a:	30 e0       	ldi	r19, 0x00	; 0
    158c:	21 e0       	ldi	r18, 0x01	; 1
    158e:	e4 16       	cp	r14, r20
    1590:	f5 06       	cpc	r15, r21
    1592:	08 f4       	brcc	.+2      	; 0x1596 <TFT_DrawRectangle+0x40>
    1594:	20 e0       	ldi	r18, 0x00	; 0
    1596:	32 2b       	or	r19, r18
    1598:	21 e0       	ldi	r18, 0x01	; 1
    159a:	c8 16       	cp	r12, r24
    159c:	d9 06       	cpc	r13, r25
    159e:	08 f4       	brcc	.+2      	; 0x15a2 <TFT_DrawRectangle+0x4c>
    15a0:	20 e0       	ldi	r18, 0x00	; 0
    15a2:	23 2b       	or	r18, r19
    15a4:	f9 f4       	brne	.+62     	; 0x15e4 <TFT_DrawRectangle+0x8e>
    15a6:	21 e0       	ldi	r18, 0x01	; 1
    15a8:	a8 16       	cp	r10, r24
    15aa:	b9 06       	cpc	r11, r25
    15ac:	08 f4       	brcc	.+2      	; 0x15b0 <TFT_DrawRectangle+0x5a>
    15ae:	20 e0       	ldi	r18, 0x00	; 0
    15b0:	21 11       	cpse	r18, r1
    15b2:	18 c0       	rjmp	.+48     	; 0x15e4 <TFT_DrawRectangle+0x8e>
		return;
	TFT_DrawLineX(x1,x2,y1,color);
    15b4:	98 01       	movw	r18, r16
    15b6:	ae 01       	movw	r20, r28
    15b8:	b6 01       	movw	r22, r12
    15ba:	c5 01       	movw	r24, r10
    15bc:	0e 94 68 0a 	call	0x14d0	; 0x14d0 <TFT_DrawLineX>
	TFT_DrawLineY(x2,y1,y2,color);
    15c0:	98 01       	movw	r18, r16
    15c2:	a7 01       	movw	r20, r14
    15c4:	be 01       	movw	r22, r28
    15c6:	c6 01       	movw	r24, r12
    15c8:	0e 94 26 0a 	call	0x144c	; 0x144c <TFT_DrawLineY>
	TFT_DrawLineX(x1,x2,y2,color);
    15cc:	98 01       	movw	r18, r16
    15ce:	a7 01       	movw	r20, r14
    15d0:	b6 01       	movw	r22, r12
    15d2:	c5 01       	movw	r24, r10
    15d4:	0e 94 68 0a 	call	0x14d0	; 0x14d0 <TFT_DrawLineX>
	TFT_DrawLineY(x1,y1,y2,color);
    15d8:	98 01       	movw	r18, r16
    15da:	a7 01       	movw	r20, r14
    15dc:	be 01       	movw	r22, r28
    15de:	c5 01       	movw	r24, r10
    15e0:	0e 94 26 0a 	call	0x144c	; 0x144c <TFT_DrawLineY>
}
    15e4:	df 91       	pop	r29
    15e6:	cf 91       	pop	r28
    15e8:	1f 91       	pop	r17
    15ea:	0f 91       	pop	r16
    15ec:	ff 90       	pop	r15
    15ee:	ef 90       	pop	r14
    15f0:	df 90       	pop	r13
    15f2:	cf 90       	pop	r12
    15f4:	bf 90       	pop	r11
    15f6:	af 90       	pop	r10
    15f8:	08 95       	ret

000015fa <TFT_PutChar>:
//-----------------------------------------------------------------------------------------------------------

//-----------------------------------------------------------------------------------------------------------
void TFT_PutChar(unsigned int x, unsigned int y,unsigned char charr,unsigned char size, unsigned int color)
{
    15fa:	2f 92       	push	r2
    15fc:	3f 92       	push	r3
    15fe:	4f 92       	push	r4
    1600:	5f 92       	push	r5
    1602:	6f 92       	push	r6
    1604:	7f 92       	push	r7
    1606:	8f 92       	push	r8
    1608:	9f 92       	push	r9
    160a:	af 92       	push	r10
    160c:	bf 92       	push	r11
    160e:	cf 92       	push	r12
    1610:	df 92       	push	r13
    1612:	ef 92       	push	r14
    1614:	ff 92       	push	r15
    1616:	0f 93       	push	r16
    1618:	1f 93       	push	r17
    161a:	cf 93       	push	r28
    161c:	df 93       	push	r29
    161e:	00 d0       	rcall	.+0      	; 0x1620 <TFT_PutChar+0x26>
    1620:	00 d0       	rcall	.+0      	; 0x1622 <TFT_PutChar+0x28>
    1622:	00 d0       	rcall	.+0      	; 0x1624 <TFT_PutChar+0x2a>
    1624:	cd b7       	in	r28, 0x3d	; 61
    1626:	de b7       	in	r29, 0x3e	; 62
    1628:	1b 01       	movw	r2, r22
	//Small Font
	switch(size)
    162a:	22 23       	and	r18, r18
    162c:	21 f0       	breq	.+8      	; 0x1636 <TFT_PutChar+0x3c>
    162e:	21 30       	cpi	r18, 0x01	; 1
    1630:	09 f4       	brne	.+2      	; 0x1634 <TFT_PutChar+0x3a>
    1632:	55 c0       	rjmp	.+170    	; 0x16de <TFT_PutChar+0xe4>
    1634:	e1 c0       	rjmp	.+450    	; 0x17f8 <TFT_PutChar+0x1fe>
    1636:	24 2f       	mov	r18, r20
    1638:	30 e0       	ldi	r19, 0x00	; 0
    163a:	a9 01       	movw	r20, r18
    163c:	40 52       	subi	r20, 0x20	; 32
    163e:	51 09       	sbc	r21, r1
    1640:	ba 01       	movw	r22, r20
    1642:	66 0f       	add	r22, r22
    1644:	77 1f       	adc	r23, r23
    1646:	46 0f       	add	r20, r22
    1648:	57 1f       	adc	r21, r23
    164a:	44 0f       	add	r20, r20
    164c:	55 1f       	adc	r21, r21
    164e:	44 0f       	add	r20, r20
    1650:	55 1f       	adc	r21, r21
    1652:	ba 01       	movw	r22, r20
    1654:	61 5c       	subi	r22, 0xC1	; 193
    1656:	73 4f       	sbci	r23, 0xF3	; 243
    1658:	6b 01       	movw	r12, r22
    165a:	a9 01       	movw	r20, r18
    165c:	44 0f       	add	r20, r20
    165e:	55 1f       	adc	r21, r21
    1660:	24 0f       	add	r18, r20
    1662:	35 1f       	adc	r19, r21
    1664:	22 0f       	add	r18, r18
    1666:	33 1f       	adc	r19, r19
    1668:	22 0f       	add	r18, r18
    166a:	33 1f       	adc	r19, r19
    166c:	f9 01       	movw	r30, r18
    166e:	ed 54       	subi	r30, 0x4D	; 77
    1670:	f5 4f       	sbci	r31, 0xF5	; 245
    1672:	5f 01       	movw	r10, r30
}
//-----------------------------------------------------------------------------------------------------------

//-----------------------------------------------------------------------------------------------------------
void TFT_PutChar(unsigned int x, unsigned int y,unsigned char charr,unsigned char size, unsigned int color)
{
    1674:	68 2e       	mov	r6, r24
    1676:	79 2e       	mov	r7, r25
    1678:	81 2c       	mov	r8, r1
    167a:	91 2c       	mov	r9, r1
    167c:	2b c0       	rjmp	.+86     	; 0x16d4 <TFT_PutChar+0xda>
		case SMALL:
		for(int cot=0;cot<12;cot++)
		{
			for (int hang=0;hang<8;hang++)
			{
				if((pgm_read_byte(&SmallFont[charr-32][11-cot])<<hang)&0x80)
    167e:	f6 01       	movw	r30, r12
    1680:	84 91       	lpm	r24, Z
    1682:	90 e0       	ldi	r25, 0x00	; 0
    1684:	04 2c       	mov	r0, r4
    1686:	02 c0       	rjmp	.+4      	; 0x168c <TFT_PutChar+0x92>
    1688:	88 0f       	add	r24, r24
    168a:	99 1f       	adc	r25, r25
    168c:	0a 94       	dec	r0
    168e:	e2 f7       	brpl	.-8      	; 0x1688 <TFT_PutChar+0x8e>
    1690:	87 ff       	sbrs	r24, 7
    1692:	06 c0       	rjmp	.+12     	; 0x16a0 <TFT_PutChar+0xa6>
					TFT_DrawPixel(x+hang,y+cot,color);
    1694:	a8 01       	movw	r20, r16
    1696:	b1 01       	movw	r22, r2
    1698:	c7 01       	movw	r24, r14
    169a:	0e 94 c9 09 	call	0x1392	; 0x1392 <TFT_DrawPixel>
    169e:	06 c0       	rjmp	.+12     	; 0x16ac <TFT_PutChar+0xb2>
				else
					TFT_DrawPixel(x+hang,y+cot,SCREEN_COLOR);
    16a0:	48 2d       	mov	r20, r8
    16a2:	59 2d       	mov	r21, r9
    16a4:	b1 01       	movw	r22, r2
    16a6:	c7 01       	movw	r24, r14
    16a8:	0e 94 c9 09 	call	0x1392	; 0x1392 <TFT_DrawPixel>
	switch(size)
	{	
		case SMALL:
		for(int cot=0;cot<12;cot++)
		{
			for (int hang=0;hang<8;hang++)
    16ac:	ff ef       	ldi	r31, 0xFF	; 255
    16ae:	4f 1a       	sub	r4, r31
    16b0:	5f 0a       	sbc	r5, r31
    16b2:	2f ef       	ldi	r18, 0xFF	; 255
    16b4:	e2 1a       	sub	r14, r18
    16b6:	f2 0a       	sbc	r15, r18
    16b8:	38 e0       	ldi	r19, 0x08	; 8
    16ba:	43 16       	cp	r4, r19
    16bc:	51 04       	cpc	r5, r1
    16be:	f9 f6       	brne	.-66     	; 0x167e <TFT_PutChar+0x84>
    16c0:	4f ef       	ldi	r20, 0xFF	; 255
    16c2:	24 1a       	sub	r2, r20
    16c4:	34 0a       	sbc	r3, r20
    16c6:	51 e0       	ldi	r21, 0x01	; 1
    16c8:	c5 1a       	sub	r12, r21
    16ca:	d1 08       	sbc	r13, r1
{
	//Small Font
	switch(size)
	{	
		case SMALL:
		for(int cot=0;cot<12;cot++)
    16cc:	ca 14       	cp	r12, r10
    16ce:	db 04       	cpc	r13, r11
    16d0:	09 f4       	brne	.+2      	; 0x16d4 <TFT_PutChar+0xda>
    16d2:	92 c0       	rjmp	.+292    	; 0x17f8 <TFT_PutChar+0x1fe>
}
//-----------------------------------------------------------------------------------------------------------

//-----------------------------------------------------------------------------------------------------------
void TFT_PutChar(unsigned int x, unsigned int y,unsigned char charr,unsigned char size, unsigned int color)
{
    16d4:	e6 2c       	mov	r14, r6
    16d6:	f7 2c       	mov	r15, r7
    16d8:	48 2c       	mov	r4, r8
    16da:	59 2c       	mov	r5, r9
    16dc:	d0 cf       	rjmp	.-96     	; 0x167e <TFT_PutChar+0x84>
    16de:	60 e2       	ldi	r22, 0x20	; 32
    16e0:	46 9f       	mul	r20, r22
    16e2:	90 01       	movw	r18, r0
    16e4:	11 24       	eor	r1, r1
    16e6:	f9 01       	movw	r30, r18
    16e8:	ed 58       	subi	r30, 0x8D	; 141
    16ea:	f3 40       	sbci	r31, 0x03	; 3
    16ec:	6f 01       	movw	r12, r30
	//Small Font
	switch(size)
    16ee:	66 24       	eor	r6, r6
    16f0:	6a 94       	dec	r6
    16f2:	76 2c       	mov	r7, r6
    16f4:	a1 2c       	mov	r10, r1
    16f6:	b1 2c       	mov	r11, r1
			}
			else
			for (int cot=0;cot<8;cot++)
			{
				if((pgm_read_byte(&BigFont[charr-32][31-hang]))<<cot&0x80)
					TFT_DrawPixel(x+cot,y+(hang-1)/2,color);
    16f8:	8b 83       	std	Y+3, r24	; 0x03
    16fa:	9c 83       	std	Y+4, r25	; 0x04
    16fc:	51 2c       	mov	r5, r1
    16fe:	41 2c       	mov	r4, r1
    1700:	9c 01       	movw	r18, r24
    1702:	28 5f       	subi	r18, 0xF8	; 248
    1704:	3f 4f       	sbci	r19, 0xFF	; 255
    1706:	3a 83       	std	Y+2, r19	; 0x02
    1708:	29 83       	std	Y+1, r18	; 0x01
		break;
		//Big Font
		case BIG:
		for(int hang=0;hang<32;hang++)
		{
			if (hang%2==0)
    170a:	a0 fc       	sbrc	r10, 0
    170c:	34 c0       	rjmp	.+104    	; 0x1776 <TFT_PutChar+0x17c>
			for (int cot=0;cot<8;cot++)
			{
				if((pgm_read_byte(&BigFont[charr-32][31-hang]))<<cot&0x80)
					TFT_DrawPixel(x+8+cot,y+hang/2,color);
    170e:	45 01       	movw	r8, r10
    1710:	bb 20       	and	r11, r11
    1712:	1c f4       	brge	.+6      	; 0x171a <TFT_PutChar+0x120>
    1714:	3f ef       	ldi	r19, 0xFF	; 255
    1716:	83 1a       	sub	r8, r19
    1718:	93 0a       	sbc	r9, r19
    171a:	95 94       	asr	r9
    171c:	87 94       	ror	r8
    171e:	82 0c       	add	r8, r2
    1720:	93 1c       	adc	r9, r3
    1722:	e9 80       	ldd	r14, Y+1	; 0x01
    1724:	fa 80       	ldd	r15, Y+2	; 0x02
    1726:	5d 82       	std	Y+5, r5	; 0x05
    1728:	4e 82       	std	Y+6, r4	; 0x06
		for(int hang=0;hang<32;hang++)
		{
			if (hang%2==0)
			for (int cot=0;cot<8;cot++)
			{
				if((pgm_read_byte(&BigFont[charr-32][31-hang]))<<cot&0x80)
    172a:	f6 01       	movw	r30, r12
    172c:	84 91       	lpm	r24, Z
    172e:	90 e0       	ldi	r25, 0x00	; 0
    1730:	0d 80       	ldd	r0, Y+5	; 0x05
    1732:	02 c0       	rjmp	.+4      	; 0x1738 <TFT_PutChar+0x13e>
    1734:	88 0f       	add	r24, r24
    1736:	99 1f       	adc	r25, r25
    1738:	0a 94       	dec	r0
    173a:	e2 f7       	brpl	.-8      	; 0x1734 <TFT_PutChar+0x13a>
    173c:	87 ff       	sbrs	r24, 7
    173e:	06 c0       	rjmp	.+12     	; 0x174c <TFT_PutChar+0x152>
					TFT_DrawPixel(x+8+cot,y+hang/2,color);
    1740:	a8 01       	movw	r20, r16
    1742:	b4 01       	movw	r22, r8
    1744:	c7 01       	movw	r24, r14
    1746:	0e 94 c9 09 	call	0x1392	; 0x1392 <TFT_DrawPixel>
    174a:	06 c0       	rjmp	.+12     	; 0x1758 <TFT_PutChar+0x15e>
				else
					TFT_DrawPixel(x+8+cot,y+hang/2,SCREEN_COLOR);
    174c:	45 2d       	mov	r20, r5
    174e:	54 2d       	mov	r21, r4
    1750:	b4 01       	movw	r22, r8
    1752:	c7 01       	movw	r24, r14
    1754:	0e 94 c9 09 	call	0x1392	; 0x1392 <TFT_DrawPixel>
		//Big Font
		case BIG:
		for(int hang=0;hang<32;hang++)
		{
			if (hang%2==0)
			for (int cot=0;cot<8;cot++)
    1758:	2d 81       	ldd	r18, Y+5	; 0x05
    175a:	3e 81       	ldd	r19, Y+6	; 0x06
    175c:	2f 5f       	subi	r18, 0xFF	; 255
    175e:	3f 4f       	sbci	r19, 0xFF	; 255
    1760:	3e 83       	std	Y+6, r19	; 0x06
    1762:	2d 83       	std	Y+5, r18	; 0x05
    1764:	3f ef       	ldi	r19, 0xFF	; 255
    1766:	e3 1a       	sub	r14, r19
    1768:	f3 0a       	sbc	r15, r19
    176a:	4d 81       	ldd	r20, Y+5	; 0x05
    176c:	5e 81       	ldd	r21, Y+6	; 0x06
    176e:	48 30       	cpi	r20, 0x08	; 8
    1770:	51 05       	cpc	r21, r1
    1772:	d9 f6       	brne	.-74     	; 0x172a <TFT_PutChar+0x130>
    1774:	33 c0       	rjmp	.+102    	; 0x17dc <TFT_PutChar+0x1e2>
			}
			else
			for (int cot=0;cot<8;cot++)
			{
				if((pgm_read_byte(&BigFont[charr-32][31-hang]))<<cot&0x80)
					TFT_DrawPixel(x+cot,y+(hang-1)/2,color);
    1776:	43 01       	movw	r8, r6
    1778:	77 20       	and	r7, r7
    177a:	1c f4       	brge	.+6      	; 0x1782 <TFT_PutChar+0x188>
    177c:	5f ef       	ldi	r21, 0xFF	; 255
    177e:	85 1a       	sub	r8, r21
    1780:	95 0a       	sbc	r9, r21
    1782:	95 94       	asr	r9
    1784:	87 94       	ror	r8
    1786:	82 0c       	add	r8, r2
    1788:	93 1c       	adc	r9, r3
    178a:	eb 80       	ldd	r14, Y+3	; 0x03
    178c:	fc 80       	ldd	r15, Y+4	; 0x04
    178e:	5d 82       	std	Y+5, r5	; 0x05
    1790:	4e 82       	std	Y+6, r4	; 0x06
					TFT_DrawPixel(x+8+cot,y+hang/2,SCREEN_COLOR);
			}
			else
			for (int cot=0;cot<8;cot++)
			{
				if((pgm_read_byte(&BigFont[charr-32][31-hang]))<<cot&0x80)
    1792:	f6 01       	movw	r30, r12
    1794:	84 91       	lpm	r24, Z
    1796:	90 e0       	ldi	r25, 0x00	; 0
    1798:	0d 80       	ldd	r0, Y+5	; 0x05
    179a:	02 c0       	rjmp	.+4      	; 0x17a0 <TFT_PutChar+0x1a6>
    179c:	88 0f       	add	r24, r24
    179e:	99 1f       	adc	r25, r25
    17a0:	0a 94       	dec	r0
    17a2:	e2 f7       	brpl	.-8      	; 0x179c <TFT_PutChar+0x1a2>
    17a4:	87 ff       	sbrs	r24, 7
    17a6:	06 c0       	rjmp	.+12     	; 0x17b4 <TFT_PutChar+0x1ba>
					TFT_DrawPixel(x+cot,y+(hang-1)/2,color);
    17a8:	a8 01       	movw	r20, r16
    17aa:	b4 01       	movw	r22, r8
    17ac:	c7 01       	movw	r24, r14
    17ae:	0e 94 c9 09 	call	0x1392	; 0x1392 <TFT_DrawPixel>
    17b2:	06 c0       	rjmp	.+12     	; 0x17c0 <TFT_PutChar+0x1c6>
				else
					TFT_DrawPixel(x+cot,y+(hang-1)/2,SCREEN_COLOR);
    17b4:	45 2d       	mov	r20, r5
    17b6:	54 2d       	mov	r21, r4
    17b8:	b4 01       	movw	r22, r8
    17ba:	c7 01       	movw	r24, r14
    17bc:	0e 94 c9 09 	call	0x1392	; 0x1392 <TFT_DrawPixel>
					TFT_DrawPixel(x+8+cot,y+hang/2,color);
				else
					TFT_DrawPixel(x+8+cot,y+hang/2,SCREEN_COLOR);
			}
			else
			for (int cot=0;cot<8;cot++)
    17c0:	2d 81       	ldd	r18, Y+5	; 0x05
    17c2:	3e 81       	ldd	r19, Y+6	; 0x06
    17c4:	2f 5f       	subi	r18, 0xFF	; 255
    17c6:	3f 4f       	sbci	r19, 0xFF	; 255
    17c8:	3e 83       	std	Y+6, r19	; 0x06
    17ca:	2d 83       	std	Y+5, r18	; 0x05
    17cc:	3f ef       	ldi	r19, 0xFF	; 255
    17ce:	e3 1a       	sub	r14, r19
    17d0:	f3 0a       	sbc	r15, r19
    17d2:	4d 81       	ldd	r20, Y+5	; 0x05
    17d4:	5e 81       	ldd	r21, Y+6	; 0x06
    17d6:	48 30       	cpi	r20, 0x08	; 8
    17d8:	51 05       	cpc	r21, r1
    17da:	d9 f6       	brne	.-74     	; 0x1792 <TFT_PutChar+0x198>
			}
		}
		break;
		//Big Font
		case BIG:
		for(int hang=0;hang<32;hang++)
    17dc:	5f ef       	ldi	r21, 0xFF	; 255
    17de:	a5 1a       	sub	r10, r21
    17e0:	b5 0a       	sbc	r11, r21
    17e2:	61 e0       	ldi	r22, 0x01	; 1
    17e4:	c6 1a       	sub	r12, r22
    17e6:	d1 08       	sbc	r13, r1
    17e8:	7f ef       	ldi	r23, 0xFF	; 255
    17ea:	67 1a       	sub	r6, r23
    17ec:	77 0a       	sbc	r7, r23
    17ee:	80 e2       	ldi	r24, 0x20	; 32
    17f0:	a8 16       	cp	r10, r24
    17f2:	b1 04       	cpc	r11, r1
    17f4:	09 f0       	breq	.+2      	; 0x17f8 <TFT_PutChar+0x1fe>
    17f6:	89 cf       	rjmp	.-238    	; 0x170a <TFT_PutChar+0x110>
					TFT_DrawPixel(x+cot,y+(hang-1)/2,SCREEN_COLOR);
			}
		}
		break;
	}
}
    17f8:	26 96       	adiw	r28, 0x06	; 6
    17fa:	0f b6       	in	r0, 0x3f	; 63
    17fc:	f8 94       	cli
    17fe:	de bf       	out	0x3e, r29	; 62
    1800:	0f be       	out	0x3f, r0	; 63
    1802:	cd bf       	out	0x3d, r28	; 61
    1804:	df 91       	pop	r29
    1806:	cf 91       	pop	r28
    1808:	1f 91       	pop	r17
    180a:	0f 91       	pop	r16
    180c:	ff 90       	pop	r15
    180e:	ef 90       	pop	r14
    1810:	df 90       	pop	r13
    1812:	cf 90       	pop	r12
    1814:	bf 90       	pop	r11
    1816:	af 90       	pop	r10
    1818:	9f 90       	pop	r9
    181a:	8f 90       	pop	r8
    181c:	7f 90       	pop	r7
    181e:	6f 90       	pop	r6
    1820:	5f 90       	pop	r5
    1822:	4f 90       	pop	r4
    1824:	3f 90       	pop	r3
    1826:	2f 90       	pop	r2
    1828:	08 95       	ret

0000182a <TFT_Print>:
//-----------------------------------------------------------------------------------------------------------
void TFT_Print(unsigned int x, unsigned int y,char *text,unsigned char size, unsigned int color)
{
    182a:	9f 92       	push	r9
    182c:	af 92       	push	r10
    182e:	bf 92       	push	r11
    1830:	cf 92       	push	r12
    1832:	df 92       	push	r13
    1834:	ef 92       	push	r14
    1836:	ff 92       	push	r15
    1838:	0f 93       	push	r16
    183a:	1f 93       	push	r17
    183c:	cf 93       	push	r28
    183e:	df 93       	push	r29
    1840:	7c 01       	movw	r14, r24
    1842:	5b 01       	movw	r10, r22
    1844:	92 2e       	mov	r9, r18
    1846:	68 01       	movw	r12, r16
    1848:	c4 2f       	mov	r28, r20
    184a:	d5 2f       	mov	r29, r21
	while(*text)
    184c:	12 c0       	rjmp	.+36     	; 0x1872 <TFT_Print+0x48>
	{
		TFT_PutChar(x,y,*text++,size,color);
    184e:	86 01       	movw	r16, r12
    1850:	29 2d       	mov	r18, r9
    1852:	b5 01       	movw	r22, r10
    1854:	c7 01       	movw	r24, r14
    1856:	0e 94 fd 0a 	call	0x15fa	; 0x15fa <TFT_PutChar>
		switch(size)
    185a:	99 20       	and	r9, r9
    185c:	39 f0       	breq	.+14     	; 0x186c <TFT_Print+0x42>
    185e:	81 e0       	ldi	r24, 0x01	; 1
    1860:	98 12       	cpse	r9, r24
    1862:	07 c0       	rjmp	.+14     	; 0x1872 <TFT_Print+0x48>
		{
			case BIG:
				x+=13;
    1864:	8d e0       	ldi	r24, 0x0D	; 13
    1866:	e8 0e       	add	r14, r24
    1868:	f1 1c       	adc	r15, r1
				break;
    186a:	03 c0       	rjmp	.+6      	; 0x1872 <TFT_Print+0x48>
			case SMALL:
				x+=7;
    186c:	87 e0       	ldi	r24, 0x07	; 7
    186e:	e8 0e       	add	r14, r24
    1870:	f1 1c       	adc	r15, r1
	}
}
//-----------------------------------------------------------------------------------------------------------
void TFT_Print(unsigned int x, unsigned int y,char *text,unsigned char size, unsigned int color)
{
	while(*text)
    1872:	49 91       	ld	r20, Y+
    1874:	41 11       	cpse	r20, r1
    1876:	eb cf       	rjmp	.-42     	; 0x184e <TFT_Print+0x24>
			case SMALL:
				x+=7;
				break;
		}
	}
}
    1878:	df 91       	pop	r29
    187a:	cf 91       	pop	r28
    187c:	1f 91       	pop	r17
    187e:	0f 91       	pop	r16
    1880:	ff 90       	pop	r15
    1882:	ef 90       	pop	r14
    1884:	df 90       	pop	r13
    1886:	cf 90       	pop	r12
    1888:	bf 90       	pop	r11
    188a:	af 90       	pop	r10
    188c:	9f 90       	pop	r9
    188e:	08 95       	ret

00001890 <TFT_Number_Dec>:
//-----------------------------------------------------------------------------------------------------------

//-----------------------------------------------------------------------------------------------------------
void TFT_Number_Dec(unsigned int x, unsigned int y,long number,unsigned char size, unsigned int color)
{
    1890:	3f 92       	push	r3
    1892:	4f 92       	push	r4
    1894:	5f 92       	push	r5
    1896:	6f 92       	push	r6
    1898:	7f 92       	push	r7
    189a:	8f 92       	push	r8
    189c:	9f 92       	push	r9
    189e:	af 92       	push	r10
    18a0:	bf 92       	push	r11
    18a2:	cf 92       	push	r12
    18a4:	df 92       	push	r13
    18a6:	ef 92       	push	r14
    18a8:	ff 92       	push	r15
    18aa:	0f 93       	push	r16
    18ac:	1f 93       	push	r17
    18ae:	cf 93       	push	r28
    18b0:	df 93       	push	r29
    18b2:	cd b7       	in	r28, 0x3d	; 61
    18b4:	de b7       	in	r29, 0x3e	; 62
    18b6:	2a 97       	sbiw	r28, 0x0a	; 10
    18b8:	0f b6       	in	r0, 0x3f	; 63
    18ba:	f8 94       	cli
    18bc:	de bf       	out	0x3e, r29	; 62
    18be:	0f be       	out	0x3f, r0	; 63
    18c0:	cd bf       	out	0x3d, r28	; 61
    18c2:	5c 01       	movw	r10, r24
    18c4:	4b 01       	movw	r8, r22
    18c6:	29 01       	movw	r4, r18
    18c8:	3a 01       	movw	r6, r20
    18ca:	30 2e       	mov	r3, r16
	char dis[10];
	sprintf(dis, "%li", number);
    18cc:	7f 92       	push	r7
    18ce:	6f 92       	push	r6
    18d0:	5f 92       	push	r5
    18d2:	2f 93       	push	r18
    18d4:	88 e6       	ldi	r24, 0x68	; 104
    18d6:	90 e0       	ldi	r25, 0x00	; 0
    18d8:	9f 93       	push	r25
    18da:	8f 93       	push	r24
    18dc:	ce 01       	movw	r24, r28
    18de:	01 96       	adiw	r24, 0x01	; 1
    18e0:	6c 01       	movw	r12, r24
    18e2:	df 92       	push	r13
    18e4:	8f 93       	push	r24
    18e6:	0e 94 a4 13 	call	0x2748	; 0x2748 <sprintf>
	TFT_Print(x, y,dis,size,color);
    18ea:	87 01       	movw	r16, r14
    18ec:	23 2d       	mov	r18, r3
    18ee:	a6 01       	movw	r20, r12
    18f0:	b4 01       	movw	r22, r8
    18f2:	c5 01       	movw	r24, r10
    18f4:	0e 94 15 0c 	call	0x182a	; 0x182a <TFT_Print>
	if (number < 10)
    18f8:	0f b6       	in	r0, 0x3f	; 63
    18fa:	f8 94       	cli
    18fc:	de bf       	out	0x3e, r29	; 62
    18fe:	0f be       	out	0x3f, r0	; 63
    1900:	cd bf       	out	0x3d, r28	; 61
    1902:	9a e0       	ldi	r25, 0x0A	; 10
    1904:	49 16       	cp	r4, r25
    1906:	51 04       	cpc	r5, r1
    1908:	61 04       	cpc	r6, r1
    190a:	71 04       	cpc	r7, r1
    190c:	3c f4       	brge	.+14     	; 0x191c <TFT_Number_Dec+0x8c>
	{
		TFT_PutChar(x+13, y ,' ', BIG, color);
    190e:	21 e0       	ldi	r18, 0x01	; 1
    1910:	40 e2       	ldi	r20, 0x20	; 32
    1912:	b4 01       	movw	r22, r8
    1914:	c5 01       	movw	r24, r10
    1916:	0d 96       	adiw	r24, 0x0d	; 13
    1918:	0e 94 fd 0a 	call	0x15fa	; 0x15fa <TFT_PutChar>
	}
}
    191c:	2a 96       	adiw	r28, 0x0a	; 10
    191e:	0f b6       	in	r0, 0x3f	; 63
    1920:	f8 94       	cli
    1922:	de bf       	out	0x3e, r29	; 62
    1924:	0f be       	out	0x3f, r0	; 63
    1926:	cd bf       	out	0x3d, r28	; 61
    1928:	df 91       	pop	r29
    192a:	cf 91       	pop	r28
    192c:	1f 91       	pop	r17
    192e:	0f 91       	pop	r16
    1930:	ff 90       	pop	r15
    1932:	ef 90       	pop	r14
    1934:	df 90       	pop	r13
    1936:	cf 90       	pop	r12
    1938:	bf 90       	pop	r11
    193a:	af 90       	pop	r10
    193c:	9f 90       	pop	r9
    193e:	8f 90       	pop	r8
    1940:	7f 90       	pop	r7
    1942:	6f 90       	pop	r6
    1944:	5f 90       	pop	r5
    1946:	4f 90       	pop	r4
    1948:	3f 90       	pop	r3
    194a:	08 95       	ret

0000194c <TFT_Init>:
//-----------------------------------------------------------------------------------------------------------
void TFT_Init(void)
{
	//char str[10];
	Port_Init();
    194c:	0e 94 73 08 	call	0x10e6	; 0x10e6 <Port_Init>
	TFT_Reset();
    1950:	0e 94 6c 09 	call	0x12d8	; 0x12d8 <TFT_Reset>
	#else
		//round up by default
		__ticks_dc = (uint32_t)(ceil(fabs(__tmp)));
	#endif

	__builtin_avr_delay_cycles(__ticks_dc);
    1954:	2f ef       	ldi	r18, 0xFF	; 255
    1956:	81 ee       	ldi	r24, 0xE1	; 225
    1958:	94 e0       	ldi	r25, 0x04	; 4
    195a:	21 50       	subi	r18, 0x01	; 1
    195c:	80 40       	sbci	r24, 0x00	; 0
    195e:	90 40       	sbci	r25, 0x00	; 0
    1960:	e1 f7       	brne	.-8      	; 0x195a <TFT_Init+0xe>
    1962:	00 c0       	rjmp	.+0      	; 0x1964 <TFT_Init+0x18>
    1964:	00 00       	nop
	_delay_ms(100);
	//dtt=TFT_ReadReg(0xD3);
	CS_ACTIVE;
    1966:	93 98       	cbi	0x12, 3	; 18
	/*move_LCD(1,1);
	sprintf(str,"0x%08lX",dtt);
	print_LCD(str);
	move_LCD(2,1);
	vietso_dec_LCD(dtt);*/
	TFT_SendCommand(0x01);//software reset
    1968:	81 e0       	ldi	r24, 0x01	; 1
    196a:	0e 94 7a 08 	call	0x10f4	; 0x10f4 <TFT_SendCommand>
	TFT_SendCommand(0xCB);//power ctrl A
    196e:	8b ec       	ldi	r24, 0xCB	; 203
    1970:	0e 94 7a 08 	call	0x10f4	; 0x10f4 <TFT_SendCommand>
	TFT_SendData(0x39);
    1974:	89 e3       	ldi	r24, 0x39	; 57
    1976:	0e 94 82 08 	call	0x1104	; 0x1104 <TFT_SendData>
	TFT_SendData(0x2C);
    197a:	8c e2       	ldi	r24, 0x2C	; 44
    197c:	0e 94 82 08 	call	0x1104	; 0x1104 <TFT_SendData>
	TFT_SendData(0x00);
    1980:	80 e0       	ldi	r24, 0x00	; 0
    1982:	0e 94 82 08 	call	0x1104	; 0x1104 <TFT_SendData>
	TFT_SendData(0x34);
    1986:	84 e3       	ldi	r24, 0x34	; 52
    1988:	0e 94 82 08 	call	0x1104	; 0x1104 <TFT_SendData>
	TFT_SendData(0x02);
    198c:	82 e0       	ldi	r24, 0x02	; 2
    198e:	0e 94 82 08 	call	0x1104	; 0x1104 <TFT_SendData>
	TFT_SendCommand(0xCF);// power ctrl B
    1992:	8f ec       	ldi	r24, 0xCF	; 207
    1994:	0e 94 7a 08 	call	0x10f4	; 0x10f4 <TFT_SendCommand>
	TFT_SendData(0x00);
    1998:	80 e0       	ldi	r24, 0x00	; 0
    199a:	0e 94 82 08 	call	0x1104	; 0x1104 <TFT_SendData>
	TFT_SendData(0xC1);
    199e:	81 ec       	ldi	r24, 0xC1	; 193
    19a0:	0e 94 82 08 	call	0x1104	; 0x1104 <TFT_SendData>
	TFT_SendData(0x30);
    19a4:	80 e3       	ldi	r24, 0x30	; 48
    19a6:	0e 94 82 08 	call	0x1104	; 0x1104 <TFT_SendData>
	TFT_SendCommand(0xE8);//driver timing A
    19aa:	88 ee       	ldi	r24, 0xE8	; 232
    19ac:	0e 94 7a 08 	call	0x10f4	; 0x10f4 <TFT_SendCommand>
	TFT_SendData(0x85);
    19b0:	85 e8       	ldi	r24, 0x85	; 133
    19b2:	0e 94 82 08 	call	0x1104	; 0x1104 <TFT_SendData>
	TFT_SendData(0x00);
    19b6:	80 e0       	ldi	r24, 0x00	; 0
    19b8:	0e 94 82 08 	call	0x1104	; 0x1104 <TFT_SendData>
	TFT_SendData(0x78);
    19bc:	88 e7       	ldi	r24, 0x78	; 120
    19be:	0e 94 82 08 	call	0x1104	; 0x1104 <TFT_SendData>
	TFT_SendCommand(0xEA);//driver B
    19c2:	8a ee       	ldi	r24, 0xEA	; 234
    19c4:	0e 94 7a 08 	call	0x10f4	; 0x10f4 <TFT_SendCommand>
	TFT_SendData(0x00);
    19c8:	80 e0       	ldi	r24, 0x00	; 0
    19ca:	0e 94 82 08 	call	0x1104	; 0x1104 <TFT_SendData>
	TFT_SendData(0x00);
    19ce:	80 e0       	ldi	r24, 0x00	; 0
    19d0:	0e 94 82 08 	call	0x1104	; 0x1104 <TFT_SendData>
	TFT_SendCommand(0xED);//power on
    19d4:	8d ee       	ldi	r24, 0xED	; 237
    19d6:	0e 94 7a 08 	call	0x10f4	; 0x10f4 <TFT_SendCommand>
	
	TFT_SendData(0x64);
    19da:	84 e6       	ldi	r24, 0x64	; 100
    19dc:	0e 94 82 08 	call	0x1104	; 0x1104 <TFT_SendData>
	TFT_SendData(0x03);
    19e0:	83 e0       	ldi	r24, 0x03	; 3
    19e2:	0e 94 82 08 	call	0x1104	; 0x1104 <TFT_SendData>
	TFT_SendData(0x12);
    19e6:	82 e1       	ldi	r24, 0x12	; 18
    19e8:	0e 94 82 08 	call	0x1104	; 0x1104 <TFT_SendData>
	TFT_SendData(0x81);
    19ec:	81 e8       	ldi	r24, 0x81	; 129
    19ee:	0e 94 82 08 	call	0x1104	; 0x1104 <TFT_SendData>
	TFT_SendCommand(0xF7);//pump ratio ctrl
    19f2:	87 ef       	ldi	r24, 0xF7	; 247
    19f4:	0e 94 7a 08 	call	0x10f4	; 0x10f4 <TFT_SendCommand>
	TFT_SendData(0x20);
    19f8:	80 e2       	ldi	r24, 0x20	; 32
    19fa:	0e 94 82 08 	call	0x1104	; 0x1104 <TFT_SendData>
	TFT_SendCommand(0xC0);//power ctr1
    19fe:	80 ec       	ldi	r24, 0xC0	; 192
    1a00:	0e 94 7a 08 	call	0x10f4	; 0x10f4 <TFT_SendCommand>
	TFT_SendData(0x10);
    1a04:	80 e1       	ldi	r24, 0x10	; 16
    1a06:	0e 94 82 08 	call	0x1104	; 0x1104 <TFT_SendData>
	TFT_SendCommand(0xC1);//power ctr2
    1a0a:	81 ec       	ldi	r24, 0xC1	; 193
    1a0c:	0e 94 7a 08 	call	0x10f4	; 0x10f4 <TFT_SendCommand>
	TFT_SendData(0x10);
    1a10:	80 e1       	ldi	r24, 0x10	; 16
    1a12:	0e 94 82 08 	call	0x1104	; 0x1104 <TFT_SendData>
	TFT_SendCommand(0xC5);//VCOM ctrl1
    1a16:	85 ec       	ldi	r24, 0xC5	; 197
    1a18:	0e 94 7a 08 	call	0x10f4	; 0x10f4 <TFT_SendCommand>
	TFT_SendData(0x3E);
    1a1c:	8e e3       	ldi	r24, 0x3E	; 62
    1a1e:	0e 94 82 08 	call	0x1104	; 0x1104 <TFT_SendData>
	TFT_SendData(0x28);
    1a22:	88 e2       	ldi	r24, 0x28	; 40
    1a24:	0e 94 82 08 	call	0x1104	; 0x1104 <TFT_SendData>
	TFT_SendCommand(0xC7);//VCOM ctrl2
    1a28:	87 ec       	ldi	r24, 0xC7	; 199
    1a2a:	0e 94 7a 08 	call	0x10f4	; 0x10f4 <TFT_SendCommand>
	TFT_SendData(0x86);
    1a2e:	86 e8       	ldi	r24, 0x86	; 134
    1a30:	0e 94 82 08 	call	0x1104	; 0x1104 <TFT_SendData>
	TFT_SetRotation(1);
    1a34:	81 e0       	ldi	r24, 0x01	; 1
    1a36:	0e 94 8e 08 	call	0x111c	; 0x111c <TFT_SetRotation>
	TFT_SendCommand(0x3A);//Pixel Format
    1a3a:	8a e3       	ldi	r24, 0x3A	; 58
    1a3c:	0e 94 7a 08 	call	0x10f4	; 0x10f4 <TFT_SendCommand>
	TFT_SendData(0x55);//16bit
    1a40:	85 e5       	ldi	r24, 0x55	; 85
    1a42:	0e 94 82 08 	call	0x1104	; 0x1104 <TFT_SendData>
	TFT_SendCommand(0xB1);
    1a46:	81 eb       	ldi	r24, 0xB1	; 177
    1a48:	0e 94 7a 08 	call	0x10f4	; 0x10f4 <TFT_SendCommand>
	TFT_SendData(0x00);
    1a4c:	80 e0       	ldi	r24, 0x00	; 0
    1a4e:	0e 94 82 08 	call	0x1104	; 0x1104 <TFT_SendData>
	TFT_SendData(0x18);//
    1a52:	88 e1       	ldi	r24, 0x18	; 24
    1a54:	0e 94 82 08 	call	0x1104	; 0x1104 <TFT_SendData>
	TFT_SendCommand(0xB6);//Display Function ctrl
    1a58:	86 eb       	ldi	r24, 0xB6	; 182
    1a5a:	0e 94 7a 08 	call	0x10f4	; 0x10f4 <TFT_SendCommand>
	TFT_SendData(0x08);
    1a5e:	88 e0       	ldi	r24, 0x08	; 8
    1a60:	0e 94 82 08 	call	0x1104	; 0x1104 <TFT_SendData>
	TFT_SendData(0x82);//
    1a64:	82 e8       	ldi	r24, 0x82	; 130
    1a66:	0e 94 82 08 	call	0x1104	; 0x1104 <TFT_SendData>
	TFT_SendData(0x27);//320
    1a6a:	87 e2       	ldi	r24, 0x27	; 39
    1a6c:	0e 94 82 08 	call	0x1104	; 0x1104 <TFT_SendData>
	TFT_SendCommand(0xF2);//Enable 3G
    1a70:	82 ef       	ldi	r24, 0xF2	; 242
    1a72:	0e 94 7a 08 	call	0x10f4	; 0x10f4 <TFT_SendCommand>
	TFT_SendData(0x00);
    1a76:	80 e0       	ldi	r24, 0x00	; 0
    1a78:	0e 94 82 08 	call	0x1104	; 0x1104 <TFT_SendData>
	TFT_SendCommand(0x26);//Gamma Curve
    1a7c:	86 e2       	ldi	r24, 0x26	; 38
    1a7e:	0e 94 7a 08 	call	0x10f4	; 0x10f4 <TFT_SendCommand>
	TFT_SendData(0x01);
    1a82:	81 e0       	ldi	r24, 0x01	; 1
    1a84:	0e 94 82 08 	call	0x1104	; 0x1104 <TFT_SendData>
	TFT_SendCommand(0xE0);//Position Gamma  Curve
    1a88:	80 ee       	ldi	r24, 0xE0	; 224
    1a8a:	0e 94 7a 08 	call	0x10f4	; 0x10f4 <TFT_SendCommand>
	TFT_SendData(0x0F);
    1a8e:	8f e0       	ldi	r24, 0x0F	; 15
    1a90:	0e 94 82 08 	call	0x1104	; 0x1104 <TFT_SendData>
	TFT_SendData(0x31);
    1a94:	81 e3       	ldi	r24, 0x31	; 49
    1a96:	0e 94 82 08 	call	0x1104	; 0x1104 <TFT_SendData>
	TFT_SendData(0x2B);
    1a9a:	8b e2       	ldi	r24, 0x2B	; 43
    1a9c:	0e 94 82 08 	call	0x1104	; 0x1104 <TFT_SendData>
	TFT_SendData(0x0C);
    1aa0:	8c e0       	ldi	r24, 0x0C	; 12
    1aa2:	0e 94 82 08 	call	0x1104	; 0x1104 <TFT_SendData>
	TFT_SendData(0x0E);
    1aa6:	8e e0       	ldi	r24, 0x0E	; 14
    1aa8:	0e 94 82 08 	call	0x1104	; 0x1104 <TFT_SendData>
	TFT_SendData(0x08);
    1aac:	88 e0       	ldi	r24, 0x08	; 8
    1aae:	0e 94 82 08 	call	0x1104	; 0x1104 <TFT_SendData>
	TFT_SendData(0x4E);
    1ab2:	8e e4       	ldi	r24, 0x4E	; 78
    1ab4:	0e 94 82 08 	call	0x1104	; 0x1104 <TFT_SendData>
	TFT_SendData(0xF1);
    1ab8:	81 ef       	ldi	r24, 0xF1	; 241
    1aba:	0e 94 82 08 	call	0x1104	; 0x1104 <TFT_SendData>
	TFT_SendData(0x37);
    1abe:	87 e3       	ldi	r24, 0x37	; 55
    1ac0:	0e 94 82 08 	call	0x1104	; 0x1104 <TFT_SendData>
	TFT_SendData(0x07);
    1ac4:	87 e0       	ldi	r24, 0x07	; 7
    1ac6:	0e 94 82 08 	call	0x1104	; 0x1104 <TFT_SendData>
	TFT_SendData(0x10);
    1aca:	80 e1       	ldi	r24, 0x10	; 16
    1acc:	0e 94 82 08 	call	0x1104	; 0x1104 <TFT_SendData>
	TFT_SendData(0x03);
    1ad0:	83 e0       	ldi	r24, 0x03	; 3
    1ad2:	0e 94 82 08 	call	0x1104	; 0x1104 <TFT_SendData>
	TFT_SendData(0X0E);
    1ad6:	8e e0       	ldi	r24, 0x0E	; 14
    1ad8:	0e 94 82 08 	call	0x1104	; 0x1104 <TFT_SendData>
	TFT_SendData(0X09);
    1adc:	89 e0       	ldi	r24, 0x09	; 9
    1ade:	0e 94 82 08 	call	0x1104	; 0x1104 <TFT_SendData>
	TFT_SendData(0x00);
    1ae2:	80 e0       	ldi	r24, 0x00	; 0
    1ae4:	0e 94 82 08 	call	0x1104	; 0x1104 <TFT_SendData>
	TFT_SendCommand(0xE1);//Negative Gamma  Correct
    1ae8:	81 ee       	ldi	r24, 0xE1	; 225
    1aea:	0e 94 7a 08 	call	0x10f4	; 0x10f4 <TFT_SendCommand>
	TFT_SendData(0x00);
    1aee:	80 e0       	ldi	r24, 0x00	; 0
    1af0:	0e 94 82 08 	call	0x1104	; 0x1104 <TFT_SendData>
	TFT_SendData(0x0E);
    1af4:	8e e0       	ldi	r24, 0x0E	; 14
    1af6:	0e 94 82 08 	call	0x1104	; 0x1104 <TFT_SendData>
	TFT_SendData(0x14);
    1afa:	84 e1       	ldi	r24, 0x14	; 20
    1afc:	0e 94 82 08 	call	0x1104	; 0x1104 <TFT_SendData>
	TFT_SendData(0x03);
    1b00:	83 e0       	ldi	r24, 0x03	; 3
    1b02:	0e 94 82 08 	call	0x1104	; 0x1104 <TFT_SendData>
	TFT_SendData(0x11);
    1b06:	81 e1       	ldi	r24, 0x11	; 17
    1b08:	0e 94 82 08 	call	0x1104	; 0x1104 <TFT_SendData>
	TFT_SendData(0x07);
    1b0c:	87 e0       	ldi	r24, 0x07	; 7
    1b0e:	0e 94 82 08 	call	0x1104	; 0x1104 <TFT_SendData>
	TFT_SendData(0x31);
    1b12:	81 e3       	ldi	r24, 0x31	; 49
    1b14:	0e 94 82 08 	call	0x1104	; 0x1104 <TFT_SendData>
	TFT_SendData(0xC1);
    1b18:	81 ec       	ldi	r24, 0xC1	; 193
    1b1a:	0e 94 82 08 	call	0x1104	; 0x1104 <TFT_SendData>
	TFT_SendData(0x48);
    1b1e:	88 e4       	ldi	r24, 0x48	; 72
    1b20:	0e 94 82 08 	call	0x1104	; 0x1104 <TFT_SendData>
	TFT_SendData(0x08);
    1b24:	88 e0       	ldi	r24, 0x08	; 8
    1b26:	0e 94 82 08 	call	0x1104	; 0x1104 <TFT_SendData>
	TFT_SendData(0x0F);
    1b2a:	8f e0       	ldi	r24, 0x0F	; 15
    1b2c:	0e 94 82 08 	call	0x1104	; 0x1104 <TFT_SendData>
	TFT_SendData(0x0C);
    1b30:	8c e0       	ldi	r24, 0x0C	; 12
    1b32:	0e 94 82 08 	call	0x1104	; 0x1104 <TFT_SendData>
	TFT_SendData(0x31);
    1b36:	81 e3       	ldi	r24, 0x31	; 49
    1b38:	0e 94 82 08 	call	0x1104	; 0x1104 <TFT_SendData>
	TFT_SendData(0x36);
    1b3c:	86 e3       	ldi	r24, 0x36	; 54
    1b3e:	0e 94 82 08 	call	0x1104	; 0x1104 <TFT_SendData>
	TFT_SendData(0x0F);
    1b42:	8f e0       	ldi	r24, 0x0F	; 15
    1b44:	0e 94 82 08 	call	0x1104	; 0x1104 <TFT_SendData>
	TFT_SendCommand(0X11);
    1b48:	81 e1       	ldi	r24, 0x11	; 17
    1b4a:	0e 94 7a 08 	call	0x10f4	; 0x10f4 <TFT_SendCommand>
    1b4e:	2f ef       	ldi	r18, 0xFF	; 255
    1b50:	82 e5       	ldi	r24, 0x52	; 82
    1b52:	97 e0       	ldi	r25, 0x07	; 7
    1b54:	21 50       	subi	r18, 0x01	; 1
    1b56:	80 40       	sbci	r24, 0x00	; 0
    1b58:	90 40       	sbci	r25, 0x00	; 0
    1b5a:	e1 f7       	brne	.-8      	; 0x1b54 <TFT_Init+0x208>
    1b5c:	00 c0       	rjmp	.+0      	; 0x1b5e <TFT_Init+0x212>
    1b5e:	00 00       	nop
	_delay_ms(150);
	TFT_SendCommand(0X29);
    1b60:	89 e2       	ldi	r24, 0x29	; 41
    1b62:	0e 94 7a 08 	call	0x10f4	; 0x10f4 <TFT_SendCommand>
	TFT_SendData(0x2C);
    1b66:	8c e2       	ldi	r24, 0x2C	; 44
    1b68:	0e 94 82 08 	call	0x1104	; 0x1104 <TFT_SendData>
    1b6c:	2f ef       	ldi	r18, 0xFF	; 255
    1b6e:	82 e5       	ldi	r24, 0x52	; 82
    1b70:	97 e0       	ldi	r25, 0x07	; 7
    1b72:	21 50       	subi	r18, 0x01	; 1
    1b74:	80 40       	sbci	r24, 0x00	; 0
    1b76:	90 40       	sbci	r25, 0x00	; 0
    1b78:	e1 f7       	brne	.-8      	; 0x1b72 <TFT_Init+0x226>
    1b7a:	00 c0       	rjmp	.+0      	; 0x1b7c <TFT_Init+0x230>
    1b7c:	00 00       	nop
    1b7e:	08 95       	ret

00001b80 <TFT_Number_thapphan>:
	_delay_ms(150);
	
}
//-----------------------------------------------------------------------------------------------------------
void TFT_Number_thapphan(unsigned int x, unsigned int y,float number,unsigned char size, unsigned int color)
{
    1b80:	4f 92       	push	r4
    1b82:	5f 92       	push	r5
    1b84:	6f 92       	push	r6
    1b86:	7f 92       	push	r7
    1b88:	9f 92       	push	r9
    1b8a:	af 92       	push	r10
    1b8c:	bf 92       	push	r11
    1b8e:	cf 92       	push	r12
    1b90:	df 92       	push	r13
    1b92:	ef 92       	push	r14
    1b94:	ff 92       	push	r15
    1b96:	0f 93       	push	r16
    1b98:	1f 93       	push	r17
    1b9a:	cf 93       	push	r28
    1b9c:	df 93       	push	r29
    1b9e:	ec 01       	movw	r28, r24
    1ba0:	6b 01       	movw	r12, r22
    1ba2:	ca 01       	movw	r24, r20
    1ba4:	b9 01       	movw	r22, r18
    1ba6:	90 2e       	mov	r9, r16
    1ba8:	57 01       	movw	r10, r14
	int q;
	q=(number*10)/10;
    1baa:	20 e0       	ldi	r18, 0x00	; 0
    1bac:	30 e0       	ldi	r19, 0x00	; 0
    1bae:	40 e2       	ldi	r20, 0x20	; 32
    1bb0:	51 e4       	ldi	r21, 0x41	; 65
    1bb2:	0e 94 0a 13 	call	0x2614	; 0x2614 <__mulsf3>
    1bb6:	2b 01       	movw	r4, r22
    1bb8:	3c 01       	movw	r6, r24
    1bba:	20 e0       	ldi	r18, 0x00	; 0
    1bbc:	30 e0       	ldi	r19, 0x00	; 0
    1bbe:	40 e2       	ldi	r20, 0x20	; 32
    1bc0:	51 e4       	ldi	r21, 0x41	; 65
    1bc2:	0e 94 e3 11 	call	0x23c6	; 0x23c6 <__divsf3>
    1bc6:	0e 94 4b 12 	call	0x2496	; 0x2496 <__fixsfsi>
	TFT_Number_Dec(x, y, q, size, color);
    1bca:	9b 01       	movw	r18, r22
    1bcc:	44 27       	eor	r20, r20
    1bce:	37 fd       	sbrc	r19, 7
    1bd0:	40 95       	com	r20
    1bd2:	54 2f       	mov	r21, r20
    1bd4:	b6 01       	movw	r22, r12
    1bd6:	ce 01       	movw	r24, r28
    1bd8:	0e 94 48 0c 	call	0x1890	; 0x1890 <TFT_Number_Dec>
	TFT_PutChar(x + 13, y, '.', size, color);
    1bdc:	85 01       	movw	r16, r10
    1bde:	29 2d       	mov	r18, r9
    1be0:	4e e2       	ldi	r20, 0x2E	; 46
    1be2:	b6 01       	movw	r22, r12
    1be4:	ce 01       	movw	r24, r28
    1be6:	0d 96       	adiw	r24, 0x0d	; 13
    1be8:	0e 94 fd 0a 	call	0x15fa	; 0x15fa <TFT_PutChar>
	q=(int)(number*10);
    1bec:	c3 01       	movw	r24, r6
    1bee:	b2 01       	movw	r22, r4
    1bf0:	0e 94 4b 12 	call	0x2496	; 0x2496 <__fixsfsi>
	q=q%10;
    1bf4:	cb 01       	movw	r24, r22
    1bf6:	6a e0       	ldi	r22, 0x0A	; 10
    1bf8:	70 e0       	ldi	r23, 0x00	; 0
    1bfa:	0e 94 6d 13 	call	0x26da	; 0x26da <__divmodhi4>
	TFT_Number_Dec(x + 26, y, q, size, color);
    1bfe:	9c 01       	movw	r18, r24
    1c00:	44 27       	eor	r20, r20
    1c02:	37 fd       	sbrc	r19, 7
    1c04:	40 95       	com	r20
    1c06:	54 2f       	mov	r21, r20
    1c08:	09 2d       	mov	r16, r9
    1c0a:	b6 01       	movw	r22, r12
    1c0c:	ce 01       	movw	r24, r28
    1c0e:	4a 96       	adiw	r24, 0x1a	; 26
    1c10:	0e 94 48 0c 	call	0x1890	; 0x1890 <TFT_Number_Dec>
    1c14:	df 91       	pop	r29
    1c16:	cf 91       	pop	r28
    1c18:	1f 91       	pop	r17
    1c1a:	0f 91       	pop	r16
    1c1c:	ff 90       	pop	r15
    1c1e:	ef 90       	pop	r14
    1c20:	df 90       	pop	r13
    1c22:	cf 90       	pop	r12
    1c24:	bf 90       	pop	r11
    1c26:	af 90       	pop	r10
    1c28:	9f 90       	pop	r9
    1c2a:	7f 90       	pop	r7
    1c2c:	6f 90       	pop	r6
    1c2e:	5f 90       	pop	r5
    1c30:	4f 90       	pop	r4
    1c32:	08 95       	ret

00001c34 <read_ADC>:
float div_volt = 4;
int y[320];
//----------------------------------------------------------------------------------------------
int read_ADC(int adc_channel)// Chuong trinh con doc ADC theo tung kenh.
{
	ADMUX=adc_channel|0x40;// Thiet lap thanh ghi ADMUX theo kenh ADC can doc.
    1c34:	80 64       	ori	r24, 0x40	; 64
    1c36:	87 b9       	out	0x07, r24	; 7
	ADCSRA|=(1<<ADSC);// Bat dau chuyen doi.
    1c38:	36 9a       	sbi	0x06, 6	; 6
	while(inbit(ADCSRA,ADIF)==0); // Cho den khi bit ADIF = 1.
    1c3a:	34 9b       	sbis	0x06, 4	; 6
    1c3c:	fe cf       	rjmp	.-4      	; 0x1c3a <read_ADC+0x6>
	return ADCW;// Tra lai gia tri ADC doc duoc cho ham read_ADC.
    1c3e:	84 b1       	in	r24, 0x04	; 4
    1c40:	95 b1       	in	r25, 0x05	; 5
}
    1c42:	08 95       	ret

00001c44 <init_ADC>:
//----------------------------------------------------------------------------------------------
void init_ADC()// Khoi tao bo ADC
{
	setb(ADMUX,REFS0);
    1c44:	3e 9a       	sbi	0x07, 6	; 7
	ADCSRA=(1<<ADEN)|(1<<ADPS2);
    1c46:	84 e8       	ldi	r24, 0x84	; 132
    1c48:	86 b9       	out	0x06, r24	; 6
    1c4a:	08 95       	ret

00001c4c <Set_Pos_y>:
}
//----------------------------------------------------------------------------------------------
void Set_Pos_y(int y)// Chuong trinh con hien thi toa do (x, y) moi ln LCD.
{
    1c4c:	bc 01       	movw	r22, r24
	TFT_SetAddrWindow(x, y, x, y+ 1);
    1c4e:	80 91 66 00 	lds	r24, 0x0066
    1c52:	90 91 67 00 	lds	r25, 0x0067
    1c56:	9b 01       	movw	r18, r22
    1c58:	2f 5f       	subi	r18, 0xFF	; 255
    1c5a:	3f 4f       	sbci	r19, 0xFF	; 255
    1c5c:	ac 01       	movw	r20, r24
    1c5e:	0e 94 9b 09 	call	0x1336	; 0x1336 <TFT_SetAddrWindow>
	TFT_Flood(COLOR_OSCIL,3);
    1c62:	43 e0       	ldi	r20, 0x03	; 3
    1c64:	50 e0       	ldi	r21, 0x00	; 0
    1c66:	60 e0       	ldi	r22, 0x00	; 0
    1c68:	70 e0       	ldi	r23, 0x00	; 0
    1c6a:	80 ee       	ldi	r24, 0xE0	; 224
    1c6c:	97 e0       	ldi	r25, 0x07	; 7
    1c6e:	0e 94 dc 08 	call	0x11b8	; 0x11b8 <TFT_Flood>
    1c72:	08 95       	ret

00001c74 <Clear_Pos_y>:
}
//----------------------------------------------------------------------------------------------
void Clear_Pos_y(int y)// Chuong trinh con xoa toa do (x, y) cu v chinh lai luoi toa do.
{
    1c74:	cf 93       	push	r28
    1c76:	df 93       	push	r29
    1c78:	ec 01       	movw	r28, r24
	if ((x%20 == 0) && (y != 0))
    1c7a:	e0 91 66 00 	lds	r30, 0x0066
    1c7e:	f0 91 67 00 	lds	r31, 0x0067
    1c82:	cf 01       	movw	r24, r30
    1c84:	64 e1       	ldi	r22, 0x14	; 20
    1c86:	70 e0       	ldi	r23, 0x00	; 0
    1c88:	0e 94 6d 13 	call	0x26da	; 0x26da <__divmodhi4>
    1c8c:	89 2b       	or	r24, r25
    1c8e:	d9 f4       	brne	.+54     	; 0x1cc6 <Clear_Pos_y+0x52>
    1c90:	20 97       	sbiw	r28, 0x00	; 0
    1c92:	09 f4       	brne	.+2      	; 0x1c96 <Clear_Pos_y+0x22>
    1c94:	49 c0       	rjmp	.+146    	; 0x1d28 <Clear_Pos_y+0xb4>
	{	
		TFT_SetAddrWindow(x, y, x, y+ 1);
    1c96:	9e 01       	movw	r18, r28
    1c98:	2f 5f       	subi	r18, 0xFF	; 255
    1c9a:	3f 4f       	sbci	r19, 0xFF	; 255
    1c9c:	af 01       	movw	r20, r30
    1c9e:	be 01       	movw	r22, r28
    1ca0:	cf 01       	movw	r24, r30
    1ca2:	0e 94 9b 09 	call	0x1336	; 0x1336 <TFT_SetAddrWindow>
		TFT_Flood(COLOR_NET,3);
    1ca6:	43 e0       	ldi	r20, 0x03	; 3
    1ca8:	50 e0       	ldi	r21, 0x00	; 0
    1caa:	60 e0       	ldi	r22, 0x00	; 0
    1cac:	70 e0       	ldi	r23, 0x00	; 0
    1cae:	80 e0       	ldi	r24, 0x00	; 0
    1cb0:	98 ef       	ldi	r25, 0xF8	; 248
    1cb2:	0e 94 dc 08 	call	0x11b8	; 0x11b8 <TFT_Flood>
	else
	{
		TFT_SetAddrWindow(x, y, x, y+ 1);
		TFT_Flood(SCREEN_COLOR,3);
	}
	if ((y%20 == 0)&&(y != 0))
    1cb6:	ce 01       	movw	r24, r28
    1cb8:	64 e1       	ldi	r22, 0x14	; 20
    1cba:	70 e0       	ldi	r23, 0x00	; 0
    1cbc:	0e 94 6d 13 	call	0x26da	; 0x26da <__divmodhi4>
    1cc0:	00 97       	sbiw	r24, 0x00	; 0
    1cc2:	d1 f0       	breq	.+52     	; 0x1cf8 <Clear_Pos_y+0x84>
    1cc4:	23 c0       	rjmp	.+70     	; 0x1d0c <Clear_Pos_y+0x98>
		TFT_SetAddrWindow(x, y, x, y+ 1);
		TFT_Flood(COLOR_NET,3);
	}
	else
	{
		TFT_SetAddrWindow(x, y, x, y+ 1);
    1cc6:	9e 01       	movw	r18, r28
    1cc8:	2f 5f       	subi	r18, 0xFF	; 255
    1cca:	3f 4f       	sbci	r19, 0xFF	; 255
    1ccc:	af 01       	movw	r20, r30
    1cce:	be 01       	movw	r22, r28
    1cd0:	cf 01       	movw	r24, r30
    1cd2:	0e 94 9b 09 	call	0x1336	; 0x1336 <TFT_SetAddrWindow>
		TFT_Flood(SCREEN_COLOR,3);
    1cd6:	43 e0       	ldi	r20, 0x03	; 3
    1cd8:	50 e0       	ldi	r21, 0x00	; 0
    1cda:	60 e0       	ldi	r22, 0x00	; 0
    1cdc:	70 e0       	ldi	r23, 0x00	; 0
    1cde:	80 e0       	ldi	r24, 0x00	; 0
    1ce0:	90 e0       	ldi	r25, 0x00	; 0
    1ce2:	0e 94 dc 08 	call	0x11b8	; 0x11b8 <TFT_Flood>
	}
	if ((y%20 == 0)&&(y != 0))
    1ce6:	ce 01       	movw	r24, r28
    1ce8:	64 e1       	ldi	r22, 0x14	; 20
    1cea:	70 e0       	ldi	r23, 0x00	; 0
    1cec:	0e 94 6d 13 	call	0x26da	; 0x26da <__divmodhi4>
    1cf0:	00 97       	sbiw	r24, 0x00	; 0
    1cf2:	61 f4       	brne	.+24     	; 0x1d0c <Clear_Pos_y+0x98>
    1cf4:	20 97       	sbiw	r28, 0x00	; 0
    1cf6:	41 f1       	breq	.+80     	; 0x1d48 <Clear_Pos_y+0xd4>
		TFT_DrawPixel(x, y,COLOR_NET);
    1cf8:	40 e0       	ldi	r20, 0x00	; 0
    1cfa:	58 ef       	ldi	r21, 0xF8	; 248
    1cfc:	be 01       	movw	r22, r28
    1cfe:	80 91 66 00 	lds	r24, 0x0066
    1d02:	90 91 67 00 	lds	r25, 0x0067
    1d06:	0e 94 c9 09 	call	0x1392	; 0x1392 <TFT_DrawPixel>
    1d0a:	1e c0       	rjmp	.+60     	; 0x1d48 <Clear_Pos_y+0xd4>
	if (y%20 == 19)
    1d0c:	43 97       	sbiw	r24, 0x13	; 19
    1d0e:	e1 f4       	brne	.+56     	; 0x1d48 <Clear_Pos_y+0xd4>
		TFT_DrawPixel(x, y+1,COLOR_NET);
    1d10:	be 01       	movw	r22, r28
    1d12:	6f 5f       	subi	r22, 0xFF	; 255
    1d14:	7f 4f       	sbci	r23, 0xFF	; 255
    1d16:	40 e0       	ldi	r20, 0x00	; 0
    1d18:	58 ef       	ldi	r21, 0xF8	; 248
    1d1a:	80 91 66 00 	lds	r24, 0x0066
    1d1e:	90 91 67 00 	lds	r25, 0x0067
    1d22:	0e 94 c9 09 	call	0x1392	; 0x1392 <TFT_DrawPixel>
    1d26:	10 c0       	rjmp	.+32     	; 0x1d48 <Clear_Pos_y+0xd4>
		TFT_SetAddrWindow(x, y, x, y+ 1);
		TFT_Flood(COLOR_NET,3);
	}
	else
	{
		TFT_SetAddrWindow(x, y, x, y+ 1);
    1d28:	9e 01       	movw	r18, r28
    1d2a:	2f 5f       	subi	r18, 0xFF	; 255
    1d2c:	3f 4f       	sbci	r19, 0xFF	; 255
    1d2e:	af 01       	movw	r20, r30
    1d30:	be 01       	movw	r22, r28
    1d32:	cf 01       	movw	r24, r30
    1d34:	0e 94 9b 09 	call	0x1336	; 0x1336 <TFT_SetAddrWindow>
		TFT_Flood(SCREEN_COLOR,3);
    1d38:	43 e0       	ldi	r20, 0x03	; 3
    1d3a:	50 e0       	ldi	r21, 0x00	; 0
    1d3c:	60 e0       	ldi	r22, 0x00	; 0
    1d3e:	70 e0       	ldi	r23, 0x00	; 0
    1d40:	80 e0       	ldi	r24, 0x00	; 0
    1d42:	90 e0       	ldi	r25, 0x00	; 0
    1d44:	0e 94 dc 08 	call	0x11b8	; 0x11b8 <TFT_Flood>
	}
	if ((y%20 == 0)&&(y != 0))
		TFT_DrawPixel(x, y,COLOR_NET);
	if (y%20 == 19)
		TFT_DrawPixel(x, y+1,COLOR_NET);
}
    1d48:	df 91       	pop	r29
    1d4a:	cf 91       	pop	r28
    1d4c:	08 95       	ret

00001d4e <Start>:
//----------------------------------------------------------------------------------------------
void Start()// Giao dien khoi dau may do xung
{
    1d4e:	cf 92       	push	r12
    1d50:	df 92       	push	r13
    1d52:	ef 92       	push	r14
    1d54:	ff 92       	push	r15
    1d56:	0f 93       	push	r16
    1d58:	1f 93       	push	r17
    1d5a:	cf 93       	push	r28
    1d5c:	df 93       	push	r29
	TFT_FillScreen(SCREEN_COLOR);
    1d5e:	80 e0       	ldi	r24, 0x00	; 0
    1d60:	90 e0       	ldi	r25, 0x00	; 0
    1d62:	0e 94 ff 09 	call	0x13fe	; 0x13fe <TFT_FillScreen>
	TFT_Print(0, 215, "/*", BIG, COLOR_OSCIL);
    1d66:	00 ee       	ldi	r16, 0xE0	; 224
    1d68:	17 e0       	ldi	r17, 0x07	; 7
    1d6a:	21 e0       	ldi	r18, 0x01	; 1
    1d6c:	4c e6       	ldi	r20, 0x6C	; 108
    1d6e:	50 e0       	ldi	r21, 0x00	; 0
    1d70:	67 ed       	ldi	r22, 0xD7	; 215
    1d72:	70 e0       	ldi	r23, 0x00	; 0
    1d74:	80 e0       	ldi	r24, 0x00	; 0
    1d76:	90 e0       	ldi	r25, 0x00	; 0
    1d78:	0e 94 15 0c 	call	0x182a	; 0x182a <TFT_Print>
	TFT_Print(0, 190, " * DO AN VI DIEU KHIEN", BIG, COLOR_OSCIL);
    1d7c:	21 e0       	ldi	r18, 0x01	; 1
    1d7e:	4f e6       	ldi	r20, 0x6F	; 111
    1d80:	50 e0       	ldi	r21, 0x00	; 0
    1d82:	6e eb       	ldi	r22, 0xBE	; 190
    1d84:	70 e0       	ldi	r23, 0x00	; 0
    1d86:	80 e0       	ldi	r24, 0x00	; 0
    1d88:	90 e0       	ldi	r25, 0x00	; 0
    1d8a:	0e 94 15 0c 	call	0x182a	; 0x182a <TFT_Print>
	TFT_Print(0, 165, " * DE TAI: MAY DO XUNG", BIG, COLOR_OSCIL);
    1d8e:	21 e0       	ldi	r18, 0x01	; 1
    1d90:	46 e8       	ldi	r20, 0x86	; 134
    1d92:	50 e0       	ldi	r21, 0x00	; 0
    1d94:	65 ea       	ldi	r22, 0xA5	; 165
    1d96:	70 e0       	ldi	r23, 0x00	; 0
    1d98:	80 e0       	ldi	r24, 0x00	; 0
    1d9a:	90 e0       	ldi	r25, 0x00	; 0
    1d9c:	0e 94 15 0c 	call	0x182a	; 0x182a <TFT_Print>
	TFT_Print(0, 140, " * SVTH: VAN BA TAI", BIG, COLOR_OSCIL);
    1da0:	21 e0       	ldi	r18, 0x01	; 1
    1da2:	4d e9       	ldi	r20, 0x9D	; 157
    1da4:	50 e0       	ldi	r21, 0x00	; 0
    1da6:	6c e8       	ldi	r22, 0x8C	; 140
    1da8:	70 e0       	ldi	r23, 0x00	; 0
    1daa:	80 e0       	ldi	r24, 0x00	; 0
    1dac:	90 e0       	ldi	r25, 0x00	; 0
    1dae:	0e 94 15 0c 	call	0x182a	; 0x182a <TFT_Print>
	TFT_Print(0, 115, " * GVHD: DANG PHUOC VINH", BIG, COLOR_OSCIL);
    1db2:	21 e0       	ldi	r18, 0x01	; 1
    1db4:	41 eb       	ldi	r20, 0xB1	; 177
    1db6:	50 e0       	ldi	r21, 0x00	; 0
    1db8:	63 e7       	ldi	r22, 0x73	; 115
    1dba:	70 e0       	ldi	r23, 0x00	; 0
    1dbc:	80 e0       	ldi	r24, 0x00	; 0
    1dbe:	90 e0       	ldi	r25, 0x00	; 0
    1dc0:	0e 94 15 0c 	call	0x182a	; 0x182a <TFT_Print>
	TFT_Print(0, 90, " * LOP : 13CDT1", BIG, COLOR_OSCIL);
    1dc4:	21 e0       	ldi	r18, 0x01	; 1
    1dc6:	4a ec       	ldi	r20, 0xCA	; 202
    1dc8:	50 e0       	ldi	r21, 0x00	; 0
    1dca:	6a e5       	ldi	r22, 0x5A	; 90
    1dcc:	70 e0       	ldi	r23, 0x00	; 0
    1dce:	80 e0       	ldi	r24, 0x00	; 0
    1dd0:	90 e0       	ldi	r25, 0x00	; 0
    1dd2:	0e 94 15 0c 	call	0x182a	; 0x182a <TFT_Print>
	TFT_Print(0, 65, " * NHOM: 13.05B", BIG, COLOR_OSCIL);
    1dd6:	21 e0       	ldi	r18, 0x01	; 1
    1dd8:	4a ed       	ldi	r20, 0xDA	; 218
    1dda:	50 e0       	ldi	r21, 0x00	; 0
    1ddc:	61 e4       	ldi	r22, 0x41	; 65
    1dde:	70 e0       	ldi	r23, 0x00	; 0
    1de0:	80 e0       	ldi	r24, 0x00	; 0
    1de2:	90 e0       	ldi	r25, 0x00	; 0
    1de4:	0e 94 15 0c 	call	0x182a	; 0x182a <TFT_Print>
	TFT_Print(0, 40, " * MSSV: 101130174", BIG, COLOR_OSCIL);
    1de8:	21 e0       	ldi	r18, 0x01	; 1
    1dea:	4a ee       	ldi	r20, 0xEA	; 234
    1dec:	50 e0       	ldi	r21, 0x00	; 0
    1dee:	68 e2       	ldi	r22, 0x28	; 40
    1df0:	70 e0       	ldi	r23, 0x00	; 0
    1df2:	80 e0       	ldi	r24, 0x00	; 0
    1df4:	90 e0       	ldi	r25, 0x00	; 0
    1df6:	0e 94 15 0c 	call	0x182a	; 0x182a <TFT_Print>
	TFT_Print(0, 15, " */", BIG, COLOR_OSCIL);
    1dfa:	21 e0       	ldi	r18, 0x01	; 1
    1dfc:	4d ef       	ldi	r20, 0xFD	; 253
    1dfe:	50 e0       	ldi	r21, 0x00	; 0
    1e00:	6f e0       	ldi	r22, 0x0F	; 15
    1e02:	70 e0       	ldi	r23, 0x00	; 0
    1e04:	80 e0       	ldi	r24, 0x00	; 0
    1e06:	90 e0       	ldi	r25, 0x00	; 0
    1e08:	0e 94 15 0c 	call	0x182a	; 0x182a <TFT_Print>
    1e0c:	2f ef       	ldi	r18, 0xFF	; 255
    1e0e:	3e ee       	ldi	r19, 0xEE	; 238
    1e10:	87 ee       	ldi	r24, 0xE7	; 231
    1e12:	90 e0       	ldi	r25, 0x00	; 0
    1e14:	21 50       	subi	r18, 0x01	; 1
    1e16:	30 40       	sbci	r19, 0x00	; 0
    1e18:	80 40       	sbci	r24, 0x00	; 0
    1e1a:	90 40       	sbci	r25, 0x00	; 0
    1e1c:	d9 f7       	brne	.-10     	; 0x1e14 <Start+0xc6>
    1e1e:	00 c0       	rjmp	.+0      	; 0x1e20 <Start+0xd2>
    1e20:	00 00       	nop
	_delay_ms(5700);
	TFT_FillScreen(SCREEN_COLOR);
    1e22:	80 e0       	ldi	r24, 0x00	; 0
    1e24:	90 e0       	ldi	r25, 0x00	; 0
    1e26:	0e 94 ff 09 	call	0x13fe	; 0x13fe <TFT_FillScreen>
	TFT_Print(65, 180, "R-OSCILLOSCOPE", BIG, COLOR_OSCIL);
    1e2a:	21 e0       	ldi	r18, 0x01	; 1
    1e2c:	41 e0       	ldi	r20, 0x01	; 1
    1e2e:	51 e0       	ldi	r21, 0x01	; 1
    1e30:	64 eb       	ldi	r22, 0xB4	; 180
    1e32:	70 e0       	ldi	r23, 0x00	; 0
    1e34:	81 e4       	ldi	r24, 0x41	; 65
    1e36:	90 e0       	ldi	r25, 0x00	; 0
    1e38:	0e 94 15 0c 	call	0x182a	; 0x182a <TFT_Print>
	TFT_Print(75, 145, "LOADING:   %", BIG, COLOR_OSCIL);
    1e3c:	21 e0       	ldi	r18, 0x01	; 1
    1e3e:	40 e1       	ldi	r20, 0x10	; 16
    1e40:	51 e0       	ldi	r21, 0x01	; 1
    1e42:	61 e9       	ldi	r22, 0x91	; 145
    1e44:	70 e0       	ldi	r23, 0x00	; 0
    1e46:	8b e4       	ldi	r24, 0x4B	; 75
    1e48:	90 e0       	ldi	r25, 0x00	; 0
    1e4a:	0e 94 15 0c 	call	0x182a	; 0x182a <TFT_Print>
	TFT_DrawRectangle(9, 109, 310, 127, BLUE );
    1e4e:	0f e1       	ldi	r16, 0x1F	; 31
    1e50:	10 e0       	ldi	r17, 0x00	; 0
    1e52:	2f e7       	ldi	r18, 0x7F	; 127
    1e54:	30 e0       	ldi	r19, 0x00	; 0
    1e56:	46 e3       	ldi	r20, 0x36	; 54
    1e58:	51 e0       	ldi	r21, 0x01	; 1
    1e5a:	6d e6       	ldi	r22, 0x6D	; 109
    1e5c:	70 e0       	ldi	r23, 0x00	; 0
    1e5e:	89 e0       	ldi	r24, 0x09	; 9
    1e60:	90 e0       	ldi	r25, 0x00	; 0
    1e62:	0e 94 ab 0a 	call	0x1556	; 0x1556 <TFT_DrawRectangle>
	TFT_DrawRectangle(7, 107, 312, 129, BLUE );
    1e66:	21 e8       	ldi	r18, 0x81	; 129
    1e68:	30 e0       	ldi	r19, 0x00	; 0
    1e6a:	48 e3       	ldi	r20, 0x38	; 56
    1e6c:	51 e0       	ldi	r21, 0x01	; 1
    1e6e:	6b e6       	ldi	r22, 0x6B	; 107
    1e70:	70 e0       	ldi	r23, 0x00	; 0
    1e72:	87 e0       	ldi	r24, 0x07	; 7
    1e74:	90 e0       	ldi	r25, 0x00	; 0
    1e76:	0e 94 ab 0a 	call	0x1556	; 0x1556 <TFT_DrawRectangle>
	for (int count = 10; count < 310; count++)
    1e7a:	ca e0       	ldi	r28, 0x0A	; 10
    1e7c:	d0 e0       	ldi	r29, 0x00	; 0
	{
		TFT_Number_Dec(175, 145, (count - 10)/3 + 1, BIG, COLOR_OSCIL);
    1e7e:	0f 2e       	mov	r0, r31
    1e80:	f3 e0       	ldi	r31, 0x03	; 3
    1e82:	cf 2e       	mov	r12, r31
    1e84:	d1 2c       	mov	r13, r1
    1e86:	f0 2d       	mov	r31, r0
    1e88:	ce 01       	movw	r24, r28
    1e8a:	0a 97       	sbiw	r24, 0x0a	; 10
    1e8c:	b6 01       	movw	r22, r12
    1e8e:	0e 94 6d 13 	call	0x26da	; 0x26da <__divmodhi4>
    1e92:	9b 01       	movw	r18, r22
    1e94:	2f 5f       	subi	r18, 0xFF	; 255
    1e96:	3f 4f       	sbci	r19, 0xFF	; 255
    1e98:	44 27       	eor	r20, r20
    1e9a:	37 fd       	sbrc	r19, 7
    1e9c:	40 95       	com	r20
    1e9e:	54 2f       	mov	r21, r20
    1ea0:	0f 2e       	mov	r0, r31
    1ea2:	f0 ee       	ldi	r31, 0xE0	; 224
    1ea4:	ef 2e       	mov	r14, r31
    1ea6:	f7 e0       	ldi	r31, 0x07	; 7
    1ea8:	ff 2e       	mov	r15, r31
    1eaa:	f0 2d       	mov	r31, r0
    1eac:	01 e0       	ldi	r16, 0x01	; 1
    1eae:	61 e9       	ldi	r22, 0x91	; 145
    1eb0:	70 e0       	ldi	r23, 0x00	; 0
    1eb2:	8f ea       	ldi	r24, 0xAF	; 175
    1eb4:	90 e0       	ldi	r25, 0x00	; 0
    1eb6:	0e 94 48 0c 	call	0x1890	; 0x1890 <TFT_Number_Dec>
		TFT_DrawLineY(count, 110, 126, MAGENTA);
    1eba:	2f e1       	ldi	r18, 0x1F	; 31
    1ebc:	38 ef       	ldi	r19, 0xF8	; 248
    1ebe:	4e e7       	ldi	r20, 0x7E	; 126
    1ec0:	50 e0       	ldi	r21, 0x00	; 0
    1ec2:	6e e6       	ldi	r22, 0x6E	; 110
    1ec4:	70 e0       	ldi	r23, 0x00	; 0
    1ec6:	ce 01       	movw	r24, r28
    1ec8:	0e 94 26 0a 	call	0x144c	; 0x144c <TFT_DrawLineY>
	TFT_FillScreen(SCREEN_COLOR);
	TFT_Print(65, 180, "R-OSCILLOSCOPE", BIG, COLOR_OSCIL);
	TFT_Print(75, 145, "LOADING:   %", BIG, COLOR_OSCIL);
	TFT_DrawRectangle(9, 109, 310, 127, BLUE );
	TFT_DrawRectangle(7, 107, 312, 129, BLUE );
	for (int count = 10; count < 310; count++)
    1ecc:	21 96       	adiw	r28, 0x01	; 1
    1ece:	c6 33       	cpi	r28, 0x36	; 54
    1ed0:	21 e0       	ldi	r18, 0x01	; 1
    1ed2:	d2 07       	cpc	r29, r18
    1ed4:	c9 f6       	brne	.-78     	; 0x1e88 <Start+0x13a>
    1ed6:	3f ef       	ldi	r19, 0xFF	; 255
    1ed8:	87 ea       	ldi	r24, 0xA7	; 167
    1eda:	91 e6       	ldi	r25, 0x61	; 97
    1edc:	31 50       	subi	r19, 0x01	; 1
    1ede:	80 40       	sbci	r24, 0x00	; 0
    1ee0:	90 40       	sbci	r25, 0x00	; 0
    1ee2:	e1 f7       	brne	.-8      	; 0x1edc <Start+0x18e>
    1ee4:	00 c0       	rjmp	.+0      	; 0x1ee6 <Start+0x198>
    1ee6:	00 00       	nop
	{
		TFT_Number_Dec(175, 145, (count - 10)/3 + 1, BIG, COLOR_OSCIL);
		TFT_DrawLineY(count, 110, 126, MAGENTA);
	}
	_delay_ms(2000);
	TFT_Print(75, 75, "   DONE!!!   ", BIG, COLOR_OSCIL);
    1ee8:	00 ee       	ldi	r16, 0xE0	; 224
    1eea:	17 e0       	ldi	r17, 0x07	; 7
    1eec:	21 e0       	ldi	r18, 0x01	; 1
    1eee:	4d e1       	ldi	r20, 0x1D	; 29
    1ef0:	51 e0       	ldi	r21, 0x01	; 1
    1ef2:	6b e4       	ldi	r22, 0x4B	; 75
    1ef4:	70 e0       	ldi	r23, 0x00	; 0
    1ef6:	8b e4       	ldi	r24, 0x4B	; 75
    1ef8:	90 e0       	ldi	r25, 0x00	; 0
    1efa:	0e 94 15 0c 	call	0x182a	; 0x182a <TFT_Print>
    1efe:	2f ef       	ldi	r18, 0xFF	; 255
    1f00:	37 ea       	ldi	r19, 0xA7	; 167
    1f02:	81 e6       	ldi	r24, 0x61	; 97
    1f04:	21 50       	subi	r18, 0x01	; 1
    1f06:	30 40       	sbci	r19, 0x00	; 0
    1f08:	80 40       	sbci	r24, 0x00	; 0
    1f0a:	e1 f7       	brne	.-8      	; 0x1f04 <Start+0x1b6>
    1f0c:	00 c0       	rjmp	.+0      	; 0x1f0e <Start+0x1c0>
    1f0e:	00 00       	nop
	_delay_ms(2000);
	TFT_Print(20, 40, "''LET THE GAME BEGIN''", BIG, COLOR_OSCIL);
    1f10:	21 e0       	ldi	r18, 0x01	; 1
    1f12:	4b e2       	ldi	r20, 0x2B	; 43
    1f14:	51 e0       	ldi	r21, 0x01	; 1
    1f16:	68 e2       	ldi	r22, 0x28	; 40
    1f18:	70 e0       	ldi	r23, 0x00	; 0
    1f1a:	84 e1       	ldi	r24, 0x14	; 20
    1f1c:	90 e0       	ldi	r25, 0x00	; 0
    1f1e:	0e 94 15 0c 	call	0x182a	; 0x182a <TFT_Print>
    1f22:	9f ef       	ldi	r25, 0xFF	; 255
    1f24:	27 ea       	ldi	r18, 0xA7	; 167
    1f26:	31 e6       	ldi	r19, 0x61	; 97
    1f28:	91 50       	subi	r25, 0x01	; 1
    1f2a:	20 40       	sbci	r18, 0x00	; 0
    1f2c:	30 40       	sbci	r19, 0x00	; 0
    1f2e:	e1 f7       	brne	.-8      	; 0x1f28 <Start+0x1da>
    1f30:	00 c0       	rjmp	.+0      	; 0x1f32 <Start+0x1e4>
    1f32:	00 00       	nop
	_delay_ms(2000);
}
    1f34:	df 91       	pop	r29
    1f36:	cf 91       	pop	r28
    1f38:	1f 91       	pop	r17
    1f3a:	0f 91       	pop	r16
    1f3c:	ff 90       	pop	r15
    1f3e:	ef 90       	pop	r14
    1f40:	df 90       	pop	r13
    1f42:	cf 90       	pop	r12
    1f44:	08 95       	ret

00001f46 <main>:
//----------------------------------------------------------------------------------------------
int main(void)
{
	init_ADC();// Khoi dong bo chuyen doi ADC.
    1f46:	0e 94 22 0e 	call	0x1c44	; 0x1c44 <init_ADC>
	TFT_Init();// Khoi dong LCD.
    1f4a:	0e 94 a6 0c 	call	0x194c	; 0x194c <TFT_Init>
	TFT_SetRotation(LEFT);// Thiet lap huong cua LCD.
    1f4e:	81 e0       	ldi	r24, 0x01	; 1
    1f50:	0e 94 8e 08 	call	0x111c	; 0x111c <TFT_SetRotation>
	TFT_FillScreen(SCREEN_COLOR);// Thiet lap mau nen LCD.
    1f54:	80 e0       	ldi	r24, 0x00	; 0
    1f56:	90 e0       	ldi	r25, 0x00	; 0
    1f58:	0e 94 ff 09 	call	0x13fe	; 0x13fe <TFT_FillScreen>
	setb(PORTD, 7);// Cng tac OFF_SWITCH, thiet lap chn cua cng tac la input.
    1f5c:	97 9a       	sbi	0x12, 7	; 18
	clrb(DDRD, 7);
    1f5e:	8f 98       	cbi	0x11, 7	; 17
    1f60:	2f ef       	ldi	r18, 0xFF	; 255
    1f62:	83 ed       	ldi	r24, 0xD3	; 211
    1f64:	90 e3       	ldi	r25, 0x30	; 48
    1f66:	21 50       	subi	r18, 0x01	; 1
    1f68:	80 40       	sbci	r24, 0x00	; 0
    1f6a:	90 40       	sbci	r25, 0x00	; 0
    1f6c:	e1 f7       	brne	.-8      	; 0x1f66 <main+0x20>
    1f6e:	00 c0       	rjmp	.+0      	; 0x1f70 <main+0x2a>
    1f70:	00 00       	nop
	_delay_ms(1000);
	if (inbit(PIND, 7) == 0)
    1f72:	87 99       	sbic	0x10, 7	; 16
    1f74:	6a c0       	rjmp	.+212    	; 0x204a <main+0x104>
		Start();
    1f76:	0e 94 a7 0e 	call	0x1d4e	; 0x1d4e <Start>
	TFT_FillScreen(SCREEN_COLOR);// Thiet lap mau nen LCD.
    1f7a:	80 e0       	ldi	r24, 0x00	; 0
    1f7c:	90 e0       	ldi	r25, 0x00	; 0
    1f7e:	0e 94 ff 09 	call	0x13fe	; 0x13fe <TFT_FillScreen>
	TCCR0|=(1<<CS00)|(1<<CS01);// Thiet lap he so chia cho bo dem timer0 bang 64.
    1f82:	83 b7       	in	r24, 0x33	; 51
    1f84:	83 60       	ori	r24, 0x03	; 3
    1f86:	83 bf       	out	0x33, r24	; 51
 	for (count = 0;count<16; count++)// Ve luoi toa do moi  20*20 pixel.
    1f88:	10 92 dd 03 	sts	0x03DD, r1
    1f8c:	10 92 dc 03 	sts	0x03DC, r1
    1f90:	67 c0       	rjmp	.+206    	; 0x2060 <main+0x11a>
		TFT_DrawLineY(count*20, 20, 239, COLOR_NET);
    1f92:	20 e0       	ldi	r18, 0x00	; 0
    1f94:	38 ef       	ldi	r19, 0xF8	; 248
    1f96:	4f ee       	ldi	r20, 0xEF	; 239
    1f98:	50 e0       	ldi	r21, 0x00	; 0
    1f9a:	64 e1       	ldi	r22, 0x14	; 20
    1f9c:	70 e0       	ldi	r23, 0x00	; 0
    1f9e:	fc 01       	movw	r30, r24
    1fa0:	ce 9f       	mul	r28, r30
    1fa2:	c0 01       	movw	r24, r0
    1fa4:	cf 9f       	mul	r28, r31
    1fa6:	90 0d       	add	r25, r0
    1fa8:	11 24       	eor	r1, r1
    1faa:	0e 94 26 0a 	call	0x144c	; 0x144c <TFT_DrawLineY>
	_delay_ms(1000);
	if (inbit(PIND, 7) == 0)
		Start();
	TFT_FillScreen(SCREEN_COLOR);// Thiet lap mau nen LCD.
	TCCR0|=(1<<CS00)|(1<<CS01);// Thiet lap he so chia cho bo dem timer0 bang 64.
 	for (count = 0;count<16; count++)// Ve luoi toa do moi  20*20 pixel.
    1fae:	80 91 dc 03 	lds	r24, 0x03DC
    1fb2:	90 91 dd 03 	lds	r25, 0x03DD
    1fb6:	01 96       	adiw	r24, 0x01	; 1
    1fb8:	90 93 dd 03 	sts	0x03DD, r25
    1fbc:	80 93 dc 03 	sts	0x03DC, r24
    1fc0:	80 31       	cpi	r24, 0x10	; 16
    1fc2:	91 05       	cpc	r25, r1
    1fc4:	34 f3       	brlt	.-52     	; 0x1f92 <main+0x4c>
		TFT_DrawLineY(count*20, 20, 239, COLOR_NET);
	for (count = 1;count<12; count++)// Ve luoi toa do moi  20*20 pixel.
    1fc6:	81 e0       	ldi	r24, 0x01	; 1
    1fc8:	90 e0       	ldi	r25, 0x00	; 0
    1fca:	90 93 dd 03 	sts	0x03DD, r25
    1fce:	80 93 dc 03 	sts	0x03DC, r24
		TFT_DrawLineX(0, 319, count*20,  COLOR_NET);
    1fd2:	c4 e1       	ldi	r28, 0x14	; 20
    1fd4:	c8 9f       	mul	r28, r24
    1fd6:	a0 01       	movw	r20, r0
    1fd8:	c9 9f       	mul	r28, r25
    1fda:	50 0d       	add	r21, r0
    1fdc:	11 24       	eor	r1, r1
    1fde:	20 e0       	ldi	r18, 0x00	; 0
    1fe0:	38 ef       	ldi	r19, 0xF8	; 248
    1fe2:	6f e3       	ldi	r22, 0x3F	; 63
    1fe4:	71 e0       	ldi	r23, 0x01	; 1
    1fe6:	80 e0       	ldi	r24, 0x00	; 0
    1fe8:	90 e0       	ldi	r25, 0x00	; 0
    1fea:	0e 94 68 0a 	call	0x14d0	; 0x14d0 <TFT_DrawLineX>
		Start();
	TFT_FillScreen(SCREEN_COLOR);// Thiet lap mau nen LCD.
	TCCR0|=(1<<CS00)|(1<<CS01);// Thiet lap he so chia cho bo dem timer0 bang 64.
 	for (count = 0;count<16; count++)// Ve luoi toa do moi  20*20 pixel.
		TFT_DrawLineY(count*20, 20, 239, COLOR_NET);
	for (count = 1;count<12; count++)// Ve luoi toa do moi  20*20 pixel.
    1fee:	80 91 dc 03 	lds	r24, 0x03DC
    1ff2:	90 91 dd 03 	lds	r25, 0x03DD
    1ff6:	01 96       	adiw	r24, 0x01	; 1
    1ff8:	90 93 dd 03 	sts	0x03DD, r25
    1ffc:	80 93 dc 03 	sts	0x03DC, r24
    2000:	8c 30       	cpi	r24, 0x0C	; 12
    2002:	91 05       	cpc	r25, r1
    2004:	3c f3       	brlt	.-50     	; 0x1fd4 <main+0x8e>
		TFT_DrawLineX(0, 319, count*20,  COLOR_NET);
	TFT_Print(0	 , 0, "T=  ms", BIG, COLOR_TEXT);
    2006:	00 ee       	ldi	r16, 0xE0	; 224
    2008:	1f ef       	ldi	r17, 0xFF	; 255
    200a:	21 e0       	ldi	r18, 0x01	; 1
    200c:	42 e4       	ldi	r20, 0x42	; 66
    200e:	51 e0       	ldi	r21, 0x01	; 1
    2010:	60 e0       	ldi	r22, 0x00	; 0
    2012:	70 e0       	ldi	r23, 0x00	; 0
    2014:	80 e0       	ldi	r24, 0x00	; 0
    2016:	90 e0       	ldi	r25, 0x00	; 0
    2018:	0e 94 15 0c 	call	0x182a	; 0x182a <TFT_Print>
	TFT_Print(106, 0, "V=     v", BIG, COLOR_TEXT);
    201c:	21 e0       	ldi	r18, 0x01	; 1
    201e:	49 e4       	ldi	r20, 0x49	; 73
    2020:	51 e0       	ldi	r21, 0x01	; 1
    2022:	60 e0       	ldi	r22, 0x00	; 0
    2024:	70 e0       	ldi	r23, 0x00	; 0
    2026:	8a e6       	ldi	r24, 0x6A	; 106
    2028:	90 e0       	ldi	r25, 0x00	; 0
    202a:	0e 94 15 0c 	call	0x182a	; 0x182a <TFT_Print>
	TFT_Print(212, 0, "P=", BIG, COLOR_TEXT);
    202e:	21 e0       	ldi	r18, 0x01	; 1
    2030:	42 e5       	ldi	r20, 0x52	; 82
    2032:	51 e0       	ldi	r21, 0x01	; 1
    2034:	60 e0       	ldi	r22, 0x00	; 0
    2036:	70 e0       	ldi	r23, 0x00	; 0
    2038:	84 ed       	ldi	r24, 0xD4	; 212
    203a:	90 e0       	ldi	r25, 0x00	; 0
    203c:	0e 94 15 0c 	call	0x182a	; 0x182a <TFT_Print>
 	TIMSK|= 1<<TOIE0;// Bat ngat timer0.
    2040:	89 b7       	in	r24, 0x39	; 57
    2042:	81 60       	ori	r24, 0x01	; 1
    2044:	89 bf       	out	0x39, r24	; 57
	sei();// Bat ngat toan cuc.
    2046:	78 94       	sei
    2048:	ff cf       	rjmp	.-2      	; 0x2048 <main+0x102>
	setb(PORTD, 7);// Cng tac OFF_SWITCH, thiet lap chn cua cng tac la input.
	clrb(DDRD, 7);
	_delay_ms(1000);
	if (inbit(PIND, 7) == 0)
		Start();
	TFT_FillScreen(SCREEN_COLOR);// Thiet lap mau nen LCD.
    204a:	80 e0       	ldi	r24, 0x00	; 0
    204c:	90 e0       	ldi	r25, 0x00	; 0
    204e:	0e 94 ff 09 	call	0x13fe	; 0x13fe <TFT_FillScreen>
	TCCR0|=(1<<CS00)|(1<<CS01);// Thiet lap he so chia cho bo dem timer0 bang 64.
    2052:	83 b7       	in	r24, 0x33	; 51
    2054:	83 60       	ori	r24, 0x03	; 3
    2056:	83 bf       	out	0x33, r24	; 51
 	for (count = 0;count<16; count++)// Ve luoi toa do moi  20*20 pixel.
    2058:	10 92 dd 03 	sts	0x03DD, r1
    205c:	10 92 dc 03 	sts	0x03DC, r1
	TFT_Print(20, 40, "''LET THE GAME BEGIN''", BIG, COLOR_OSCIL);
	_delay_ms(2000);
}
//----------------------------------------------------------------------------------------------
int main(void)
{
    2060:	80 e0       	ldi	r24, 0x00	; 0
    2062:	90 e0       	ldi	r25, 0x00	; 0
	if (inbit(PIND, 7) == 0)
		Start();
	TFT_FillScreen(SCREEN_COLOR);// Thiet lap mau nen LCD.
	TCCR0|=(1<<CS00)|(1<<CS01);// Thiet lap he so chia cho bo dem timer0 bang 64.
 	for (count = 0;count<16; count++)// Ve luoi toa do moi  20*20 pixel.
		TFT_DrawLineY(count*20, 20, 239, COLOR_NET);
    2064:	c4 e1       	ldi	r28, 0x14	; 20
    2066:	95 cf       	rjmp	.-214    	; 0x1f92 <main+0x4c>

00002068 <__vector_9>:
		
    	}// Ket thuc vong lap v han while(1).
}// Ket thuc hm main().
//----------------------------------------------------------------------------------------------
ISR(TIMER0_OVF_vect) // Ham ngat tran timer0.
{
    2068:	1f 92       	push	r1
    206a:	0f 92       	push	r0
    206c:	0f b6       	in	r0, 0x3f	; 63
    206e:	0f 92       	push	r0
    2070:	11 24       	eor	r1, r1
    2072:	cf 92       	push	r12
    2074:	df 92       	push	r13
    2076:	ef 92       	push	r14
    2078:	ff 92       	push	r15
    207a:	0f 93       	push	r16
    207c:	2f 93       	push	r18
    207e:	3f 93       	push	r19
    2080:	4f 93       	push	r20
    2082:	5f 93       	push	r21
    2084:	6f 93       	push	r22
    2086:	7f 93       	push	r23
    2088:	8f 93       	push	r24
    208a:	9f 93       	push	r25
    208c:	af 93       	push	r26
    208e:	bf 93       	push	r27
    2090:	cf 93       	push	r28
    2092:	df 93       	push	r29
    2094:	ef 93       	push	r30
    2096:	ff 93       	push	r31
	x++;// Tang x len 1 don vi.
    2098:	80 91 66 00 	lds	r24, 0x0066
    209c:	90 91 67 00 	lds	r25, 0x0067
    20a0:	01 96       	adiw	r24, 0x01	; 1
    20a2:	90 93 67 00 	sts	0x0067, r25
    20a6:	80 93 66 00 	sts	0x0066, r24
	position = read_ADC(ADC_POSITION)/127 + 1;// doc v tinh toan gia tri Position.
    20aa:	84 e0       	ldi	r24, 0x04	; 4
    20ac:	90 e0       	ldi	r25, 0x00	; 0
    20ae:	0e 94 1a 0e 	call	0x1c34	; 0x1c34 <read_ADC>
    20b2:	6f e7       	ldi	r22, 0x7F	; 127
    20b4:	70 e0       	ldi	r23, 0x00	; 0
    20b6:	0e 94 6d 13 	call	0x26da	; 0x26da <__divmodhi4>
    20ba:	6f 5f       	subi	r22, 0xFF	; 255
    20bc:	7f 4f       	sbci	r23, 0xFF	; 255
    20be:	70 93 5b 01 	sts	0x015B, r23
    20c2:	60 93 5a 01 	sts	0x015A, r22
	if (x >= 320)// Neu x >=320 thi:
    20c6:	80 91 66 00 	lds	r24, 0x0066
    20ca:	90 91 67 00 	lds	r25, 0x0067
    20ce:	80 34       	cpi	r24, 0x40	; 64
    20d0:	91 40       	sbci	r25, 0x01	; 1
    20d2:	0c f4       	brge	.+2      	; 0x20d6 <__vector_9+0x6e>
    20d4:	63 c0       	rjmp	.+198    	; 0x219c <__vector_9+0x134>
	{
		x = 0;// Tro ve diem bat dau tren truc X.
    20d6:	10 92 67 00 	sts	0x0067, r1
    20da:	10 92 66 00 	sts	0x0066, r1
		div_time = 1.25*(4 + div_time)/5;
    20de:	60 91 64 00 	lds	r22, 0x0064
    20e2:	70 91 65 00 	lds	r23, 0x0065
    20e6:	6c 5f       	subi	r22, 0xFC	; 252
    20e8:	7f 4f       	sbci	r23, 0xFF	; 255
    20ea:	88 27       	eor	r24, r24
    20ec:	77 fd       	sbrc	r23, 7
    20ee:	80 95       	com	r24
    20f0:	98 2f       	mov	r25, r24
    20f2:	0e 94 7e 12 	call	0x24fc	; 0x24fc <__floatsisf>
    20f6:	20 e0       	ldi	r18, 0x00	; 0
    20f8:	30 e0       	ldi	r19, 0x00	; 0
    20fa:	40 ea       	ldi	r20, 0xA0	; 160
    20fc:	5f e3       	ldi	r21, 0x3F	; 63
    20fe:	0e 94 0a 13 	call	0x2614	; 0x2614 <__mulsf3>
    2102:	20 e0       	ldi	r18, 0x00	; 0
    2104:	30 e0       	ldi	r19, 0x00	; 0
    2106:	40 ea       	ldi	r20, 0xA0	; 160
    2108:	50 e4       	ldi	r21, 0x40	; 64
    210a:	0e 94 e3 11 	call	0x23c6	; 0x23c6 <__divsf3>
    210e:	0e 94 4b 12 	call	0x2496	; 0x2496 <__fixsfsi>
		div_time*=5;// tnh gi tri T de hien thi len LCD.
    2112:	9b 01       	movw	r18, r22
    2114:	22 0f       	add	r18, r18
    2116:	33 1f       	adc	r19, r19
    2118:	22 0f       	add	r18, r18
    211a:	33 1f       	adc	r19, r19
    211c:	62 0f       	add	r22, r18
    211e:	73 1f       	adc	r23, r19
    2120:	70 93 65 00 	sts	0x0065, r23
    2124:	60 93 64 00 	sts	0x0064, r22
		TFT_Number_Dec(26, 0, div_time, BIG, COLOR_TEXT);// Hien thi gia tri T.
    2128:	9b 01       	movw	r18, r22
    212a:	44 27       	eor	r20, r20
    212c:	37 fd       	sbrc	r19, 7
    212e:	40 95       	com	r20
    2130:	54 2f       	mov	r21, r20
    2132:	0f 2e       	mov	r0, r31
    2134:	f0 ee       	ldi	r31, 0xE0	; 224
    2136:	ef 2e       	mov	r14, r31
    2138:	ff 24       	eor	r15, r15
    213a:	fa 94       	dec	r15
    213c:	f0 2d       	mov	r31, r0
    213e:	01 e0       	ldi	r16, 0x01	; 1
    2140:	60 e0       	ldi	r22, 0x00	; 0
    2142:	70 e0       	ldi	r23, 0x00	; 0
    2144:	8a e1       	ldi	r24, 0x1A	; 26
    2146:	90 e0       	ldi	r25, 0x00	; 0
    2148:	0e 94 48 0c 	call	0x1890	; 0x1890 <TFT_Number_Dec>
		TFT_Number_thapphan(132, 0, 8/div_volt, BIG, COLOR_TEXT);// Hien thi gia tri V.
    214c:	20 91 60 00 	lds	r18, 0x0060
    2150:	30 91 61 00 	lds	r19, 0x0061
    2154:	40 91 62 00 	lds	r20, 0x0062
    2158:	50 91 63 00 	lds	r21, 0x0063
    215c:	60 e0       	ldi	r22, 0x00	; 0
    215e:	70 e0       	ldi	r23, 0x00	; 0
    2160:	80 e0       	ldi	r24, 0x00	; 0
    2162:	91 e4       	ldi	r25, 0x41	; 65
    2164:	0e 94 e3 11 	call	0x23c6	; 0x23c6 <__divsf3>
    2168:	9b 01       	movw	r18, r22
    216a:	ac 01       	movw	r20, r24
    216c:	60 e0       	ldi	r22, 0x00	; 0
    216e:	70 e0       	ldi	r23, 0x00	; 0
    2170:	84 e8       	ldi	r24, 0x84	; 132
    2172:	90 e0       	ldi	r25, 0x00	; 0
    2174:	0e 94 c0 0d 	call	0x1b80	; 0x1b80 <TFT_Number_thapphan>
		TFT_Number_Dec(232, 0, position-1, BIG, COLOR_TEXT);// Hien thi gia tri P.
    2178:	20 91 5a 01 	lds	r18, 0x015A
    217c:	30 91 5b 01 	lds	r19, 0x015B
    2180:	21 50       	subi	r18, 0x01	; 1
    2182:	31 09       	sbc	r19, r1
    2184:	44 27       	eor	r20, r20
    2186:	37 fd       	sbrc	r19, 7
    2188:	40 95       	com	r20
    218a:	54 2f       	mov	r21, r20
    218c:	60 e0       	ldi	r22, 0x00	; 0
    218e:	70 e0       	ldi	r23, 0x00	; 0
    2190:	88 ee       	ldi	r24, 0xE8	; 232
    2192:	90 e0       	ldi	r25, 0x00	; 0
    2194:	0e 94 48 0c 	call	0x1890	; 0x1890 <TFT_Number_Dec>
		while(inbit(PIND, 7) == 0);// Cong tac OFF_SWITCH.
    2198:	87 9b       	sbis	0x10, 7	; 16
    219a:	fe cf       	rjmp	.-4      	; 0x2198 <__vector_9+0x130>
	}// Ket thuc ham if.
	div_time = read_ADC(ADC_TIME)/200 ;// tinh div_time.
    219c:	86 e0       	ldi	r24, 0x06	; 6
    219e:	90 e0       	ldi	r25, 0x00	; 0
    21a0:	0e 94 1a 0e 	call	0x1c34	; 0x1c34 <read_ADC>
    21a4:	68 ec       	ldi	r22, 0xC8	; 200
    21a6:	70 e0       	ldi	r23, 0x00	; 0
    21a8:	0e 94 6d 13 	call	0x26da	; 0x26da <__divmodhi4>
    21ac:	70 93 65 00 	sts	0x0065, r23
    21b0:	60 93 64 00 	sts	0x0064, r22
	div_volt = read_ADC(ADC_VOLT)/127 + 1;// tinh div_volt.
    21b4:	85 e0       	ldi	r24, 0x05	; 5
    21b6:	90 e0       	ldi	r25, 0x00	; 0
    21b8:	0e 94 1a 0e 	call	0x1c34	; 0x1c34 <read_ADC>
    21bc:	6f e7       	ldi	r22, 0x7F	; 127
    21be:	70 e0       	ldi	r23, 0x00	; 0
    21c0:	0e 94 6d 13 	call	0x26da	; 0x26da <__divmodhi4>
    21c4:	6f 5f       	subi	r22, 0xFF	; 255
    21c6:	7f 4f       	sbci	r23, 0xFF	; 255
    21c8:	88 27       	eor	r24, r24
    21ca:	77 fd       	sbrc	r23, 7
    21cc:	80 95       	com	r24
    21ce:	98 2f       	mov	r25, r24
    21d0:	0e 94 7e 12 	call	0x24fc	; 0x24fc <__floatsisf>
    21d4:	60 93 60 00 	sts	0x0060, r22
    21d8:	70 93 61 00 	sts	0x0061, r23
    21dc:	80 93 62 00 	sts	0x0062, r24
    21e0:	90 93 63 00 	sts	0x0063, r25
	Clear_Pos_y(y[x]);// Xoa diem (x, y) cu v chinh lai luoi toa do.
    21e4:	e0 91 66 00 	lds	r30, 0x0066
    21e8:	f0 91 67 00 	lds	r31, 0x0067
    21ec:	ee 0f       	add	r30, r30
    21ee:	ff 1f       	adc	r31, r31
    21f0:	e4 5a       	subi	r30, 0xA4	; 164
    21f2:	fe 4f       	sbci	r31, 0xFE	; 254
    21f4:	80 81       	ld	r24, Z
    21f6:	91 81       	ldd	r25, Z+1	; 0x01
    21f8:	0e 94 3a 0e 	call	0x1c74	; 0x1c74 <Clear_Pos_y>
	y[x] = ((read_ADC(ADC_OSCIL)-512)*div_volt/20.48 + position*20);// Luu lai gia tri (x, y) moi vao mang y[].
    21fc:	c0 91 66 00 	lds	r28, 0x0066
    2200:	d0 91 67 00 	lds	r29, 0x0067
    2204:	87 e0       	ldi	r24, 0x07	; 7
    2206:	90 e0       	ldi	r25, 0x00	; 0
    2208:	0e 94 1a 0e 	call	0x1c34	; 0x1c34 <read_ADC>
    220c:	cc 0f       	add	r28, r28
    220e:	dd 1f       	adc	r29, r29
    2210:	c4 5a       	subi	r28, 0xA4	; 164
    2212:	de 4f       	sbci	r29, 0xFE	; 254
    2214:	92 50       	subi	r25, 0x02	; 2
    2216:	bc 01       	movw	r22, r24
    2218:	88 27       	eor	r24, r24
    221a:	77 fd       	sbrc	r23, 7
    221c:	80 95       	com	r24
    221e:	98 2f       	mov	r25, r24
    2220:	0e 94 7e 12 	call	0x24fc	; 0x24fc <__floatsisf>
    2224:	20 91 60 00 	lds	r18, 0x0060
    2228:	30 91 61 00 	lds	r19, 0x0061
    222c:	40 91 62 00 	lds	r20, 0x0062
    2230:	50 91 63 00 	lds	r21, 0x0063
    2234:	0e 94 0a 13 	call	0x2614	; 0x2614 <__mulsf3>
    2238:	2a e0       	ldi	r18, 0x0A	; 10
    223a:	37 ed       	ldi	r19, 0xD7	; 215
    223c:	43 ea       	ldi	r20, 0xA3	; 163
    223e:	51 e4       	ldi	r21, 0x41	; 65
    2240:	0e 94 e3 11 	call	0x23c6	; 0x23c6 <__divsf3>
    2244:	6b 01       	movw	r12, r22
    2246:	7c 01       	movw	r14, r24
    2248:	80 91 5a 01 	lds	r24, 0x015A
    224c:	90 91 5b 01 	lds	r25, 0x015B
    2250:	24 e1       	ldi	r18, 0x14	; 20
    2252:	28 9f       	mul	r18, r24
    2254:	b0 01       	movw	r22, r0
    2256:	29 9f       	mul	r18, r25
    2258:	70 0d       	add	r23, r0
    225a:	11 24       	eor	r1, r1
    225c:	88 27       	eor	r24, r24
    225e:	77 fd       	sbrc	r23, 7
    2260:	80 95       	com	r24
    2262:	98 2f       	mov	r25, r24
    2264:	0e 94 7e 12 	call	0x24fc	; 0x24fc <__floatsisf>
    2268:	9b 01       	movw	r18, r22
    226a:	ac 01       	movw	r20, r24
    226c:	c7 01       	movw	r24, r14
    226e:	b6 01       	movw	r22, r12
    2270:	0e 94 7f 11 	call	0x22fe	; 0x22fe <__addsf3>
    2274:	0e 94 4b 12 	call	0x2496	; 0x2496 <__fixsfsi>
    2278:	79 83       	std	Y+1, r23	; 0x01
    227a:	68 83       	st	Y, r22
	if (y[x] < 20)
    227c:	80 91 66 00 	lds	r24, 0x0066
    2280:	90 91 67 00 	lds	r25, 0x0067
    2284:	fc 01       	movw	r30, r24
    2286:	ee 0f       	add	r30, r30
    2288:	ff 1f       	adc	r31, r31
    228a:	e4 5a       	subi	r30, 0xA4	; 164
    228c:	fe 4f       	sbci	r31, 0xFE	; 254
    228e:	20 81       	ld	r18, Z
    2290:	31 81       	ldd	r19, Z+1	; 0x01
    2292:	24 31       	cpi	r18, 0x14	; 20
    2294:	31 05       	cpc	r19, r1
    2296:	4c f4       	brge	.+18     	; 0x22aa <__vector_9+0x242>
		y[x] = 240;// Neu gi tri y nam trong vung hien thi cac gia tri P, T, V thi gan cho y 1 gia tri nam ngoai man hinh.
    2298:	fc 01       	movw	r30, r24
    229a:	ee 0f       	add	r30, r30
    229c:	ff 1f       	adc	r31, r31
    229e:	e4 5a       	subi	r30, 0xA4	; 164
    22a0:	fe 4f       	sbci	r31, 0xFE	; 254
    22a2:	20 ef       	ldi	r18, 0xF0	; 240
    22a4:	30 e0       	ldi	r19, 0x00	; 0
    22a6:	31 83       	std	Z+1, r19	; 0x01
    22a8:	20 83       	st	Z, r18
	Set_Pos_y(y[x]);// hien thi diem (x, y) moi len LCD.
    22aa:	fc 01       	movw	r30, r24
    22ac:	ee 0f       	add	r30, r30
    22ae:	ff 1f       	adc	r31, r31
    22b0:	e4 5a       	subi	r30, 0xA4	; 164
    22b2:	fe 4f       	sbci	r31, 0xFE	; 254
    22b4:	80 81       	ld	r24, Z
    22b6:	91 81       	ldd	r25, Z+1	; 0x01
    22b8:	0e 94 26 0e 	call	0x1c4c	; 0x1c4c <Set_Pos_y>
	TCNT0 = 255 - 20*div_time;// Thiet lap lai bien dem Timer0 (TCNT0).
    22bc:	90 91 64 00 	lds	r25, 0x0064
    22c0:	8c ee       	ldi	r24, 0xEC	; 236
    22c2:	98 9f       	mul	r25, r24
    22c4:	80 2d       	mov	r24, r0
    22c6:	11 24       	eor	r1, r1
    22c8:	81 50       	subi	r24, 0x01	; 1
    22ca:	82 bf       	out	0x32, r24	; 50
}// Ket thc ngat trn timer0.
    22cc:	ff 91       	pop	r31
    22ce:	ef 91       	pop	r30
    22d0:	df 91       	pop	r29
    22d2:	cf 91       	pop	r28
    22d4:	bf 91       	pop	r27
    22d6:	af 91       	pop	r26
    22d8:	9f 91       	pop	r25
    22da:	8f 91       	pop	r24
    22dc:	7f 91       	pop	r23
    22de:	6f 91       	pop	r22
    22e0:	5f 91       	pop	r21
    22e2:	4f 91       	pop	r20
    22e4:	3f 91       	pop	r19
    22e6:	2f 91       	pop	r18
    22e8:	0f 91       	pop	r16
    22ea:	ff 90       	pop	r15
    22ec:	ef 90       	pop	r14
    22ee:	df 90       	pop	r13
    22f0:	cf 90       	pop	r12
    22f2:	0f 90       	pop	r0
    22f4:	0f be       	out	0x3f, r0	; 63
    22f6:	0f 90       	pop	r0
    22f8:	1f 90       	pop	r1
    22fa:	18 95       	reti

000022fc <__subsf3>:
    22fc:	50 58       	subi	r21, 0x80	; 128

000022fe <__addsf3>:
    22fe:	bb 27       	eor	r27, r27
    2300:	aa 27       	eor	r26, r26
    2302:	0e d0       	rcall	.+28     	; 0x2320 <__addsf3x>
    2304:	4d c1       	rjmp	.+666    	; 0x25a0 <__fp_round>
    2306:	3e d1       	rcall	.+636    	; 0x2584 <__fp_pscA>
    2308:	30 f0       	brcs	.+12     	; 0x2316 <__addsf3+0x18>
    230a:	43 d1       	rcall	.+646    	; 0x2592 <__fp_pscB>
    230c:	20 f0       	brcs	.+8      	; 0x2316 <__addsf3+0x18>
    230e:	31 f4       	brne	.+12     	; 0x231c <__addsf3+0x1e>
    2310:	9f 3f       	cpi	r25, 0xFF	; 255
    2312:	11 f4       	brne	.+4      	; 0x2318 <__addsf3+0x1a>
    2314:	1e f4       	brtc	.+6      	; 0x231c <__addsf3+0x1e>
    2316:	33 c1       	rjmp	.+614    	; 0x257e <__fp_nan>
    2318:	0e f4       	brtc	.+2      	; 0x231c <__addsf3+0x1e>
    231a:	e0 95       	com	r30
    231c:	e7 fb       	bst	r30, 7
    231e:	29 c1       	rjmp	.+594    	; 0x2572 <__fp_inf>

00002320 <__addsf3x>:
    2320:	e9 2f       	mov	r30, r25
    2322:	4f d1       	rcall	.+670    	; 0x25c2 <__fp_split3>
    2324:	80 f3       	brcs	.-32     	; 0x2306 <__addsf3+0x8>
    2326:	ba 17       	cp	r27, r26
    2328:	62 07       	cpc	r22, r18
    232a:	73 07       	cpc	r23, r19
    232c:	84 07       	cpc	r24, r20
    232e:	95 07       	cpc	r25, r21
    2330:	18 f0       	brcs	.+6      	; 0x2338 <__addsf3x+0x18>
    2332:	71 f4       	brne	.+28     	; 0x2350 <__addsf3x+0x30>
    2334:	9e f5       	brtc	.+102    	; 0x239c <__addsf3x+0x7c>
    2336:	67 c1       	rjmp	.+718    	; 0x2606 <__fp_zero>
    2338:	0e f4       	brtc	.+2      	; 0x233c <__addsf3x+0x1c>
    233a:	e0 95       	com	r30
    233c:	0b 2e       	mov	r0, r27
    233e:	ba 2f       	mov	r27, r26
    2340:	a0 2d       	mov	r26, r0
    2342:	0b 01       	movw	r0, r22
    2344:	b9 01       	movw	r22, r18
    2346:	90 01       	movw	r18, r0
    2348:	0c 01       	movw	r0, r24
    234a:	ca 01       	movw	r24, r20
    234c:	a0 01       	movw	r20, r0
    234e:	11 24       	eor	r1, r1
    2350:	ff 27       	eor	r31, r31
    2352:	59 1b       	sub	r21, r25
    2354:	99 f0       	breq	.+38     	; 0x237c <__addsf3x+0x5c>
    2356:	59 3f       	cpi	r21, 0xF9	; 249
    2358:	50 f4       	brcc	.+20     	; 0x236e <__addsf3x+0x4e>
    235a:	50 3e       	cpi	r21, 0xE0	; 224
    235c:	68 f1       	brcs	.+90     	; 0x23b8 <__addsf3x+0x98>
    235e:	1a 16       	cp	r1, r26
    2360:	f0 40       	sbci	r31, 0x00	; 0
    2362:	a2 2f       	mov	r26, r18
    2364:	23 2f       	mov	r18, r19
    2366:	34 2f       	mov	r19, r20
    2368:	44 27       	eor	r20, r20
    236a:	58 5f       	subi	r21, 0xF8	; 248
    236c:	f3 cf       	rjmp	.-26     	; 0x2354 <__addsf3x+0x34>
    236e:	46 95       	lsr	r20
    2370:	37 95       	ror	r19
    2372:	27 95       	ror	r18
    2374:	a7 95       	ror	r26
    2376:	f0 40       	sbci	r31, 0x00	; 0
    2378:	53 95       	inc	r21
    237a:	c9 f7       	brne	.-14     	; 0x236e <__addsf3x+0x4e>
    237c:	7e f4       	brtc	.+30     	; 0x239c <__addsf3x+0x7c>
    237e:	1f 16       	cp	r1, r31
    2380:	ba 0b       	sbc	r27, r26
    2382:	62 0b       	sbc	r22, r18
    2384:	73 0b       	sbc	r23, r19
    2386:	84 0b       	sbc	r24, r20
    2388:	ba f0       	brmi	.+46     	; 0x23b8 <__addsf3x+0x98>
    238a:	91 50       	subi	r25, 0x01	; 1
    238c:	a1 f0       	breq	.+40     	; 0x23b6 <__addsf3x+0x96>
    238e:	ff 0f       	add	r31, r31
    2390:	bb 1f       	adc	r27, r27
    2392:	66 1f       	adc	r22, r22
    2394:	77 1f       	adc	r23, r23
    2396:	88 1f       	adc	r24, r24
    2398:	c2 f7       	brpl	.-16     	; 0x238a <__addsf3x+0x6a>
    239a:	0e c0       	rjmp	.+28     	; 0x23b8 <__addsf3x+0x98>
    239c:	ba 0f       	add	r27, r26
    239e:	62 1f       	adc	r22, r18
    23a0:	73 1f       	adc	r23, r19
    23a2:	84 1f       	adc	r24, r20
    23a4:	48 f4       	brcc	.+18     	; 0x23b8 <__addsf3x+0x98>
    23a6:	87 95       	ror	r24
    23a8:	77 95       	ror	r23
    23aa:	67 95       	ror	r22
    23ac:	b7 95       	ror	r27
    23ae:	f7 95       	ror	r31
    23b0:	9e 3f       	cpi	r25, 0xFE	; 254
    23b2:	08 f0       	brcs	.+2      	; 0x23b6 <__addsf3x+0x96>
    23b4:	b3 cf       	rjmp	.-154    	; 0x231c <__addsf3+0x1e>
    23b6:	93 95       	inc	r25
    23b8:	88 0f       	add	r24, r24
    23ba:	08 f0       	brcs	.+2      	; 0x23be <__addsf3x+0x9e>
    23bc:	99 27       	eor	r25, r25
    23be:	ee 0f       	add	r30, r30
    23c0:	97 95       	ror	r25
    23c2:	87 95       	ror	r24
    23c4:	08 95       	ret

000023c6 <__divsf3>:
    23c6:	0c d0       	rcall	.+24     	; 0x23e0 <__divsf3x>
    23c8:	eb c0       	rjmp	.+470    	; 0x25a0 <__fp_round>
    23ca:	e3 d0       	rcall	.+454    	; 0x2592 <__fp_pscB>
    23cc:	40 f0       	brcs	.+16     	; 0x23de <__divsf3+0x18>
    23ce:	da d0       	rcall	.+436    	; 0x2584 <__fp_pscA>
    23d0:	30 f0       	brcs	.+12     	; 0x23de <__divsf3+0x18>
    23d2:	21 f4       	brne	.+8      	; 0x23dc <__divsf3+0x16>
    23d4:	5f 3f       	cpi	r21, 0xFF	; 255
    23d6:	19 f0       	breq	.+6      	; 0x23de <__divsf3+0x18>
    23d8:	cc c0       	rjmp	.+408    	; 0x2572 <__fp_inf>
    23da:	51 11       	cpse	r21, r1
    23dc:	15 c1       	rjmp	.+554    	; 0x2608 <__fp_szero>
    23de:	cf c0       	rjmp	.+414    	; 0x257e <__fp_nan>

000023e0 <__divsf3x>:
    23e0:	f0 d0       	rcall	.+480    	; 0x25c2 <__fp_split3>
    23e2:	98 f3       	brcs	.-26     	; 0x23ca <__divsf3+0x4>

000023e4 <__divsf3_pse>:
    23e4:	99 23       	and	r25, r25
    23e6:	c9 f3       	breq	.-14     	; 0x23da <__divsf3+0x14>
    23e8:	55 23       	and	r21, r21
    23ea:	b1 f3       	breq	.-20     	; 0x23d8 <__divsf3+0x12>
    23ec:	95 1b       	sub	r25, r21
    23ee:	55 0b       	sbc	r21, r21
    23f0:	bb 27       	eor	r27, r27
    23f2:	aa 27       	eor	r26, r26
    23f4:	62 17       	cp	r22, r18
    23f6:	73 07       	cpc	r23, r19
    23f8:	84 07       	cpc	r24, r20
    23fa:	38 f0       	brcs	.+14     	; 0x240a <__divsf3_pse+0x26>
    23fc:	9f 5f       	subi	r25, 0xFF	; 255
    23fe:	5f 4f       	sbci	r21, 0xFF	; 255
    2400:	22 0f       	add	r18, r18
    2402:	33 1f       	adc	r19, r19
    2404:	44 1f       	adc	r20, r20
    2406:	aa 1f       	adc	r26, r26
    2408:	a9 f3       	breq	.-22     	; 0x23f4 <__divsf3_pse+0x10>
    240a:	33 d0       	rcall	.+102    	; 0x2472 <__divsf3_pse+0x8e>
    240c:	0e 2e       	mov	r0, r30
    240e:	3a f0       	brmi	.+14     	; 0x241e <__divsf3_pse+0x3a>
    2410:	e0 e8       	ldi	r30, 0x80	; 128
    2412:	30 d0       	rcall	.+96     	; 0x2474 <__divsf3_pse+0x90>
    2414:	91 50       	subi	r25, 0x01	; 1
    2416:	50 40       	sbci	r21, 0x00	; 0
    2418:	e6 95       	lsr	r30
    241a:	00 1c       	adc	r0, r0
    241c:	ca f7       	brpl	.-14     	; 0x2410 <__divsf3_pse+0x2c>
    241e:	29 d0       	rcall	.+82     	; 0x2472 <__divsf3_pse+0x8e>
    2420:	fe 2f       	mov	r31, r30
    2422:	27 d0       	rcall	.+78     	; 0x2472 <__divsf3_pse+0x8e>
    2424:	66 0f       	add	r22, r22
    2426:	77 1f       	adc	r23, r23
    2428:	88 1f       	adc	r24, r24
    242a:	bb 1f       	adc	r27, r27
    242c:	26 17       	cp	r18, r22
    242e:	37 07       	cpc	r19, r23
    2430:	48 07       	cpc	r20, r24
    2432:	ab 07       	cpc	r26, r27
    2434:	b0 e8       	ldi	r27, 0x80	; 128
    2436:	09 f0       	breq	.+2      	; 0x243a <__divsf3_pse+0x56>
    2438:	bb 0b       	sbc	r27, r27
    243a:	80 2d       	mov	r24, r0
    243c:	bf 01       	movw	r22, r30
    243e:	ff 27       	eor	r31, r31
    2440:	93 58       	subi	r25, 0x83	; 131
    2442:	5f 4f       	sbci	r21, 0xFF	; 255
    2444:	2a f0       	brmi	.+10     	; 0x2450 <__divsf3_pse+0x6c>
    2446:	9e 3f       	cpi	r25, 0xFE	; 254
    2448:	51 05       	cpc	r21, r1
    244a:	68 f0       	brcs	.+26     	; 0x2466 <__divsf3_pse+0x82>
    244c:	92 c0       	rjmp	.+292    	; 0x2572 <__fp_inf>
    244e:	dc c0       	rjmp	.+440    	; 0x2608 <__fp_szero>
    2450:	5f 3f       	cpi	r21, 0xFF	; 255
    2452:	ec f3       	brlt	.-6      	; 0x244e <__divsf3_pse+0x6a>
    2454:	98 3e       	cpi	r25, 0xE8	; 232
    2456:	dc f3       	brlt	.-10     	; 0x244e <__divsf3_pse+0x6a>
    2458:	86 95       	lsr	r24
    245a:	77 95       	ror	r23
    245c:	67 95       	ror	r22
    245e:	b7 95       	ror	r27
    2460:	f7 95       	ror	r31
    2462:	9f 5f       	subi	r25, 0xFF	; 255
    2464:	c9 f7       	brne	.-14     	; 0x2458 <__divsf3_pse+0x74>
    2466:	88 0f       	add	r24, r24
    2468:	91 1d       	adc	r25, r1
    246a:	96 95       	lsr	r25
    246c:	87 95       	ror	r24
    246e:	97 f9       	bld	r25, 7
    2470:	08 95       	ret
    2472:	e1 e0       	ldi	r30, 0x01	; 1
    2474:	66 0f       	add	r22, r22
    2476:	77 1f       	adc	r23, r23
    2478:	88 1f       	adc	r24, r24
    247a:	bb 1f       	adc	r27, r27
    247c:	62 17       	cp	r22, r18
    247e:	73 07       	cpc	r23, r19
    2480:	84 07       	cpc	r24, r20
    2482:	ba 07       	cpc	r27, r26
    2484:	20 f0       	brcs	.+8      	; 0x248e <__divsf3_pse+0xaa>
    2486:	62 1b       	sub	r22, r18
    2488:	73 0b       	sbc	r23, r19
    248a:	84 0b       	sbc	r24, r20
    248c:	ba 0b       	sbc	r27, r26
    248e:	ee 1f       	adc	r30, r30
    2490:	88 f7       	brcc	.-30     	; 0x2474 <__divsf3_pse+0x90>
    2492:	e0 95       	com	r30
    2494:	08 95       	ret

00002496 <__fixsfsi>:
    2496:	04 d0       	rcall	.+8      	; 0x24a0 <__fixunssfsi>
    2498:	68 94       	set
    249a:	b1 11       	cpse	r27, r1
    249c:	b5 c0       	rjmp	.+362    	; 0x2608 <__fp_szero>
    249e:	08 95       	ret

000024a0 <__fixunssfsi>:
    24a0:	98 d0       	rcall	.+304    	; 0x25d2 <__fp_splitA>
    24a2:	88 f0       	brcs	.+34     	; 0x24c6 <__fixunssfsi+0x26>
    24a4:	9f 57       	subi	r25, 0x7F	; 127
    24a6:	90 f0       	brcs	.+36     	; 0x24cc <__fixunssfsi+0x2c>
    24a8:	b9 2f       	mov	r27, r25
    24aa:	99 27       	eor	r25, r25
    24ac:	b7 51       	subi	r27, 0x17	; 23
    24ae:	a0 f0       	brcs	.+40     	; 0x24d8 <__fixunssfsi+0x38>
    24b0:	d1 f0       	breq	.+52     	; 0x24e6 <__fixunssfsi+0x46>
    24b2:	66 0f       	add	r22, r22
    24b4:	77 1f       	adc	r23, r23
    24b6:	88 1f       	adc	r24, r24
    24b8:	99 1f       	adc	r25, r25
    24ba:	1a f0       	brmi	.+6      	; 0x24c2 <__fixunssfsi+0x22>
    24bc:	ba 95       	dec	r27
    24be:	c9 f7       	brne	.-14     	; 0x24b2 <__fixunssfsi+0x12>
    24c0:	12 c0       	rjmp	.+36     	; 0x24e6 <__fixunssfsi+0x46>
    24c2:	b1 30       	cpi	r27, 0x01	; 1
    24c4:	81 f0       	breq	.+32     	; 0x24e6 <__fixunssfsi+0x46>
    24c6:	9f d0       	rcall	.+318    	; 0x2606 <__fp_zero>
    24c8:	b1 e0       	ldi	r27, 0x01	; 1
    24ca:	08 95       	ret
    24cc:	9c c0       	rjmp	.+312    	; 0x2606 <__fp_zero>
    24ce:	67 2f       	mov	r22, r23
    24d0:	78 2f       	mov	r23, r24
    24d2:	88 27       	eor	r24, r24
    24d4:	b8 5f       	subi	r27, 0xF8	; 248
    24d6:	39 f0       	breq	.+14     	; 0x24e6 <__fixunssfsi+0x46>
    24d8:	b9 3f       	cpi	r27, 0xF9	; 249
    24da:	cc f3       	brlt	.-14     	; 0x24ce <__fixunssfsi+0x2e>
    24dc:	86 95       	lsr	r24
    24de:	77 95       	ror	r23
    24e0:	67 95       	ror	r22
    24e2:	b3 95       	inc	r27
    24e4:	d9 f7       	brne	.-10     	; 0x24dc <__fixunssfsi+0x3c>
    24e6:	3e f4       	brtc	.+14     	; 0x24f6 <__fixunssfsi+0x56>
    24e8:	90 95       	com	r25
    24ea:	80 95       	com	r24
    24ec:	70 95       	com	r23
    24ee:	61 95       	neg	r22
    24f0:	7f 4f       	sbci	r23, 0xFF	; 255
    24f2:	8f 4f       	sbci	r24, 0xFF	; 255
    24f4:	9f 4f       	sbci	r25, 0xFF	; 255
    24f6:	08 95       	ret

000024f8 <__floatunsisf>:
    24f8:	e8 94       	clt
    24fa:	09 c0       	rjmp	.+18     	; 0x250e <__floatsisf+0x12>

000024fc <__floatsisf>:
    24fc:	97 fb       	bst	r25, 7
    24fe:	3e f4       	brtc	.+14     	; 0x250e <__floatsisf+0x12>
    2500:	90 95       	com	r25
    2502:	80 95       	com	r24
    2504:	70 95       	com	r23
    2506:	61 95       	neg	r22
    2508:	7f 4f       	sbci	r23, 0xFF	; 255
    250a:	8f 4f       	sbci	r24, 0xFF	; 255
    250c:	9f 4f       	sbci	r25, 0xFF	; 255
    250e:	99 23       	and	r25, r25
    2510:	a9 f0       	breq	.+42     	; 0x253c <__floatsisf+0x40>
    2512:	f9 2f       	mov	r31, r25
    2514:	96 e9       	ldi	r25, 0x96	; 150
    2516:	bb 27       	eor	r27, r27
    2518:	93 95       	inc	r25
    251a:	f6 95       	lsr	r31
    251c:	87 95       	ror	r24
    251e:	77 95       	ror	r23
    2520:	67 95       	ror	r22
    2522:	b7 95       	ror	r27
    2524:	f1 11       	cpse	r31, r1
    2526:	f8 cf       	rjmp	.-16     	; 0x2518 <__floatsisf+0x1c>
    2528:	fa f4       	brpl	.+62     	; 0x2568 <__floatsisf+0x6c>
    252a:	bb 0f       	add	r27, r27
    252c:	11 f4       	brne	.+4      	; 0x2532 <__floatsisf+0x36>
    252e:	60 ff       	sbrs	r22, 0
    2530:	1b c0       	rjmp	.+54     	; 0x2568 <__floatsisf+0x6c>
    2532:	6f 5f       	subi	r22, 0xFF	; 255
    2534:	7f 4f       	sbci	r23, 0xFF	; 255
    2536:	8f 4f       	sbci	r24, 0xFF	; 255
    2538:	9f 4f       	sbci	r25, 0xFF	; 255
    253a:	16 c0       	rjmp	.+44     	; 0x2568 <__floatsisf+0x6c>
    253c:	88 23       	and	r24, r24
    253e:	11 f0       	breq	.+4      	; 0x2544 <__floatsisf+0x48>
    2540:	96 e9       	ldi	r25, 0x96	; 150
    2542:	11 c0       	rjmp	.+34     	; 0x2566 <__floatsisf+0x6a>
    2544:	77 23       	and	r23, r23
    2546:	21 f0       	breq	.+8      	; 0x2550 <__floatsisf+0x54>
    2548:	9e e8       	ldi	r25, 0x8E	; 142
    254a:	87 2f       	mov	r24, r23
    254c:	76 2f       	mov	r23, r22
    254e:	05 c0       	rjmp	.+10     	; 0x255a <__floatsisf+0x5e>
    2550:	66 23       	and	r22, r22
    2552:	71 f0       	breq	.+28     	; 0x2570 <__floatsisf+0x74>
    2554:	96 e8       	ldi	r25, 0x86	; 134
    2556:	86 2f       	mov	r24, r22
    2558:	70 e0       	ldi	r23, 0x00	; 0
    255a:	60 e0       	ldi	r22, 0x00	; 0
    255c:	2a f0       	brmi	.+10     	; 0x2568 <__floatsisf+0x6c>
    255e:	9a 95       	dec	r25
    2560:	66 0f       	add	r22, r22
    2562:	77 1f       	adc	r23, r23
    2564:	88 1f       	adc	r24, r24
    2566:	da f7       	brpl	.-10     	; 0x255e <__floatsisf+0x62>
    2568:	88 0f       	add	r24, r24
    256a:	96 95       	lsr	r25
    256c:	87 95       	ror	r24
    256e:	97 f9       	bld	r25, 7
    2570:	08 95       	ret

00002572 <__fp_inf>:
    2572:	97 f9       	bld	r25, 7
    2574:	9f 67       	ori	r25, 0x7F	; 127
    2576:	80 e8       	ldi	r24, 0x80	; 128
    2578:	70 e0       	ldi	r23, 0x00	; 0
    257a:	60 e0       	ldi	r22, 0x00	; 0
    257c:	08 95       	ret

0000257e <__fp_nan>:
    257e:	9f ef       	ldi	r25, 0xFF	; 255
    2580:	80 ec       	ldi	r24, 0xC0	; 192
    2582:	08 95       	ret

00002584 <__fp_pscA>:
    2584:	00 24       	eor	r0, r0
    2586:	0a 94       	dec	r0
    2588:	16 16       	cp	r1, r22
    258a:	17 06       	cpc	r1, r23
    258c:	18 06       	cpc	r1, r24
    258e:	09 06       	cpc	r0, r25
    2590:	08 95       	ret

00002592 <__fp_pscB>:
    2592:	00 24       	eor	r0, r0
    2594:	0a 94       	dec	r0
    2596:	12 16       	cp	r1, r18
    2598:	13 06       	cpc	r1, r19
    259a:	14 06       	cpc	r1, r20
    259c:	05 06       	cpc	r0, r21
    259e:	08 95       	ret

000025a0 <__fp_round>:
    25a0:	09 2e       	mov	r0, r25
    25a2:	03 94       	inc	r0
    25a4:	00 0c       	add	r0, r0
    25a6:	11 f4       	brne	.+4      	; 0x25ac <__fp_round+0xc>
    25a8:	88 23       	and	r24, r24
    25aa:	52 f0       	brmi	.+20     	; 0x25c0 <__fp_round+0x20>
    25ac:	bb 0f       	add	r27, r27
    25ae:	40 f4       	brcc	.+16     	; 0x25c0 <__fp_round+0x20>
    25b0:	bf 2b       	or	r27, r31
    25b2:	11 f4       	brne	.+4      	; 0x25b8 <__fp_round+0x18>
    25b4:	60 ff       	sbrs	r22, 0
    25b6:	04 c0       	rjmp	.+8      	; 0x25c0 <__fp_round+0x20>
    25b8:	6f 5f       	subi	r22, 0xFF	; 255
    25ba:	7f 4f       	sbci	r23, 0xFF	; 255
    25bc:	8f 4f       	sbci	r24, 0xFF	; 255
    25be:	9f 4f       	sbci	r25, 0xFF	; 255
    25c0:	08 95       	ret

000025c2 <__fp_split3>:
    25c2:	57 fd       	sbrc	r21, 7
    25c4:	90 58       	subi	r25, 0x80	; 128
    25c6:	44 0f       	add	r20, r20
    25c8:	55 1f       	adc	r21, r21
    25ca:	59 f0       	breq	.+22     	; 0x25e2 <__fp_splitA+0x10>
    25cc:	5f 3f       	cpi	r21, 0xFF	; 255
    25ce:	71 f0       	breq	.+28     	; 0x25ec <__fp_splitA+0x1a>
    25d0:	47 95       	ror	r20

000025d2 <__fp_splitA>:
    25d2:	88 0f       	add	r24, r24
    25d4:	97 fb       	bst	r25, 7
    25d6:	99 1f       	adc	r25, r25
    25d8:	61 f0       	breq	.+24     	; 0x25f2 <__fp_splitA+0x20>
    25da:	9f 3f       	cpi	r25, 0xFF	; 255
    25dc:	79 f0       	breq	.+30     	; 0x25fc <__fp_splitA+0x2a>
    25de:	87 95       	ror	r24
    25e0:	08 95       	ret
    25e2:	12 16       	cp	r1, r18
    25e4:	13 06       	cpc	r1, r19
    25e6:	14 06       	cpc	r1, r20
    25e8:	55 1f       	adc	r21, r21
    25ea:	f2 cf       	rjmp	.-28     	; 0x25d0 <__fp_split3+0xe>
    25ec:	46 95       	lsr	r20
    25ee:	f1 df       	rcall	.-30     	; 0x25d2 <__fp_splitA>
    25f0:	08 c0       	rjmp	.+16     	; 0x2602 <__fp_splitA+0x30>
    25f2:	16 16       	cp	r1, r22
    25f4:	17 06       	cpc	r1, r23
    25f6:	18 06       	cpc	r1, r24
    25f8:	99 1f       	adc	r25, r25
    25fa:	f1 cf       	rjmp	.-30     	; 0x25de <__fp_splitA+0xc>
    25fc:	86 95       	lsr	r24
    25fe:	71 05       	cpc	r23, r1
    2600:	61 05       	cpc	r22, r1
    2602:	08 94       	sec
    2604:	08 95       	ret

00002606 <__fp_zero>:
    2606:	e8 94       	clt

00002608 <__fp_szero>:
    2608:	bb 27       	eor	r27, r27
    260a:	66 27       	eor	r22, r22
    260c:	77 27       	eor	r23, r23
    260e:	cb 01       	movw	r24, r22
    2610:	97 f9       	bld	r25, 7
    2612:	08 95       	ret

00002614 <__mulsf3>:
    2614:	0b d0       	rcall	.+22     	; 0x262c <__mulsf3x>
    2616:	c4 cf       	rjmp	.-120    	; 0x25a0 <__fp_round>
    2618:	b5 df       	rcall	.-150    	; 0x2584 <__fp_pscA>
    261a:	28 f0       	brcs	.+10     	; 0x2626 <__mulsf3+0x12>
    261c:	ba df       	rcall	.-140    	; 0x2592 <__fp_pscB>
    261e:	18 f0       	brcs	.+6      	; 0x2626 <__mulsf3+0x12>
    2620:	95 23       	and	r25, r21
    2622:	09 f0       	breq	.+2      	; 0x2626 <__mulsf3+0x12>
    2624:	a6 cf       	rjmp	.-180    	; 0x2572 <__fp_inf>
    2626:	ab cf       	rjmp	.-170    	; 0x257e <__fp_nan>
    2628:	11 24       	eor	r1, r1
    262a:	ee cf       	rjmp	.-36     	; 0x2608 <__fp_szero>

0000262c <__mulsf3x>:
    262c:	ca df       	rcall	.-108    	; 0x25c2 <__fp_split3>
    262e:	a0 f3       	brcs	.-24     	; 0x2618 <__mulsf3+0x4>

00002630 <__mulsf3_pse>:
    2630:	95 9f       	mul	r25, r21
    2632:	d1 f3       	breq	.-12     	; 0x2628 <__mulsf3+0x14>
    2634:	95 0f       	add	r25, r21
    2636:	50 e0       	ldi	r21, 0x00	; 0
    2638:	55 1f       	adc	r21, r21
    263a:	62 9f       	mul	r22, r18
    263c:	f0 01       	movw	r30, r0
    263e:	72 9f       	mul	r23, r18
    2640:	bb 27       	eor	r27, r27
    2642:	f0 0d       	add	r31, r0
    2644:	b1 1d       	adc	r27, r1
    2646:	63 9f       	mul	r22, r19
    2648:	aa 27       	eor	r26, r26
    264a:	f0 0d       	add	r31, r0
    264c:	b1 1d       	adc	r27, r1
    264e:	aa 1f       	adc	r26, r26
    2650:	64 9f       	mul	r22, r20
    2652:	66 27       	eor	r22, r22
    2654:	b0 0d       	add	r27, r0
    2656:	a1 1d       	adc	r26, r1
    2658:	66 1f       	adc	r22, r22
    265a:	82 9f       	mul	r24, r18
    265c:	22 27       	eor	r18, r18
    265e:	b0 0d       	add	r27, r0
    2660:	a1 1d       	adc	r26, r1
    2662:	62 1f       	adc	r22, r18
    2664:	73 9f       	mul	r23, r19
    2666:	b0 0d       	add	r27, r0
    2668:	a1 1d       	adc	r26, r1
    266a:	62 1f       	adc	r22, r18
    266c:	83 9f       	mul	r24, r19
    266e:	a0 0d       	add	r26, r0
    2670:	61 1d       	adc	r22, r1
    2672:	22 1f       	adc	r18, r18
    2674:	74 9f       	mul	r23, r20
    2676:	33 27       	eor	r19, r19
    2678:	a0 0d       	add	r26, r0
    267a:	61 1d       	adc	r22, r1
    267c:	23 1f       	adc	r18, r19
    267e:	84 9f       	mul	r24, r20
    2680:	60 0d       	add	r22, r0
    2682:	21 1d       	adc	r18, r1
    2684:	82 2f       	mov	r24, r18
    2686:	76 2f       	mov	r23, r22
    2688:	6a 2f       	mov	r22, r26
    268a:	11 24       	eor	r1, r1
    268c:	9f 57       	subi	r25, 0x7F	; 127
    268e:	50 40       	sbci	r21, 0x00	; 0
    2690:	8a f0       	brmi	.+34     	; 0x26b4 <__mulsf3_pse+0x84>
    2692:	e1 f0       	breq	.+56     	; 0x26cc <__mulsf3_pse+0x9c>
    2694:	88 23       	and	r24, r24
    2696:	4a f0       	brmi	.+18     	; 0x26aa <__mulsf3_pse+0x7a>
    2698:	ee 0f       	add	r30, r30
    269a:	ff 1f       	adc	r31, r31
    269c:	bb 1f       	adc	r27, r27
    269e:	66 1f       	adc	r22, r22
    26a0:	77 1f       	adc	r23, r23
    26a2:	88 1f       	adc	r24, r24
    26a4:	91 50       	subi	r25, 0x01	; 1
    26a6:	50 40       	sbci	r21, 0x00	; 0
    26a8:	a9 f7       	brne	.-22     	; 0x2694 <__mulsf3_pse+0x64>
    26aa:	9e 3f       	cpi	r25, 0xFE	; 254
    26ac:	51 05       	cpc	r21, r1
    26ae:	70 f0       	brcs	.+28     	; 0x26cc <__mulsf3_pse+0x9c>
    26b0:	60 cf       	rjmp	.-320    	; 0x2572 <__fp_inf>
    26b2:	aa cf       	rjmp	.-172    	; 0x2608 <__fp_szero>
    26b4:	5f 3f       	cpi	r21, 0xFF	; 255
    26b6:	ec f3       	brlt	.-6      	; 0x26b2 <__mulsf3_pse+0x82>
    26b8:	98 3e       	cpi	r25, 0xE8	; 232
    26ba:	dc f3       	brlt	.-10     	; 0x26b2 <__mulsf3_pse+0x82>
    26bc:	86 95       	lsr	r24
    26be:	77 95       	ror	r23
    26c0:	67 95       	ror	r22
    26c2:	b7 95       	ror	r27
    26c4:	f7 95       	ror	r31
    26c6:	e7 95       	ror	r30
    26c8:	9f 5f       	subi	r25, 0xFF	; 255
    26ca:	c1 f7       	brne	.-16     	; 0x26bc <__mulsf3_pse+0x8c>
    26cc:	fe 2b       	or	r31, r30
    26ce:	88 0f       	add	r24, r24
    26d0:	91 1d       	adc	r25, r1
    26d2:	96 95       	lsr	r25
    26d4:	87 95       	ror	r24
    26d6:	97 f9       	bld	r25, 7
    26d8:	08 95       	ret

000026da <__divmodhi4>:
    26da:	97 fb       	bst	r25, 7
    26dc:	07 2e       	mov	r0, r23
    26de:	16 f4       	brtc	.+4      	; 0x26e4 <__divmodhi4+0xa>
    26e0:	00 94       	com	r0
    26e2:	07 d0       	rcall	.+14     	; 0x26f2 <__divmodhi4_neg1>
    26e4:	77 fd       	sbrc	r23, 7
    26e6:	09 d0       	rcall	.+18     	; 0x26fa <__divmodhi4_neg2>
    26e8:	0e 94 90 13 	call	0x2720	; 0x2720 <__udivmodhi4>
    26ec:	07 fc       	sbrc	r0, 7
    26ee:	05 d0       	rcall	.+10     	; 0x26fa <__divmodhi4_neg2>
    26f0:	3e f4       	brtc	.+14     	; 0x2700 <__divmodhi4_exit>

000026f2 <__divmodhi4_neg1>:
    26f2:	90 95       	com	r25
    26f4:	81 95       	neg	r24
    26f6:	9f 4f       	sbci	r25, 0xFF	; 255
    26f8:	08 95       	ret

000026fa <__divmodhi4_neg2>:
    26fa:	70 95       	com	r23
    26fc:	61 95       	neg	r22
    26fe:	7f 4f       	sbci	r23, 0xFF	; 255

00002700 <__divmodhi4_exit>:
    2700:	08 95       	ret

00002702 <__umulhisi3>:
    2702:	a2 9f       	mul	r26, r18
    2704:	b0 01       	movw	r22, r0
    2706:	b3 9f       	mul	r27, r19
    2708:	c0 01       	movw	r24, r0
    270a:	a3 9f       	mul	r26, r19
    270c:	70 0d       	add	r23, r0
    270e:	81 1d       	adc	r24, r1
    2710:	11 24       	eor	r1, r1
    2712:	91 1d       	adc	r25, r1
    2714:	b2 9f       	mul	r27, r18
    2716:	70 0d       	add	r23, r0
    2718:	81 1d       	adc	r24, r1
    271a:	11 24       	eor	r1, r1
    271c:	91 1d       	adc	r25, r1
    271e:	08 95       	ret

00002720 <__udivmodhi4>:
    2720:	aa 1b       	sub	r26, r26
    2722:	bb 1b       	sub	r27, r27
    2724:	51 e1       	ldi	r21, 0x11	; 17
    2726:	07 c0       	rjmp	.+14     	; 0x2736 <__udivmodhi4_ep>

00002728 <__udivmodhi4_loop>:
    2728:	aa 1f       	adc	r26, r26
    272a:	bb 1f       	adc	r27, r27
    272c:	a6 17       	cp	r26, r22
    272e:	b7 07       	cpc	r27, r23
    2730:	10 f0       	brcs	.+4      	; 0x2736 <__udivmodhi4_ep>
    2732:	a6 1b       	sub	r26, r22
    2734:	b7 0b       	sbc	r27, r23

00002736 <__udivmodhi4_ep>:
    2736:	88 1f       	adc	r24, r24
    2738:	99 1f       	adc	r25, r25
    273a:	5a 95       	dec	r21
    273c:	a9 f7       	brne	.-22     	; 0x2728 <__udivmodhi4_loop>
    273e:	80 95       	com	r24
    2740:	90 95       	com	r25
    2742:	bc 01       	movw	r22, r24
    2744:	cd 01       	movw	r24, r26
    2746:	08 95       	ret

00002748 <sprintf>:
    2748:	ae e0       	ldi	r26, 0x0E	; 14
    274a:	b0 e0       	ldi	r27, 0x00	; 0
    274c:	ea ea       	ldi	r30, 0xAA	; 170
    274e:	f3 e1       	ldi	r31, 0x13	; 19
    2750:	0c 94 4c 16 	jmp	0x2c98	; 0x2c98 <__prologue_saves__+0x1c>
    2754:	0d 89       	ldd	r16, Y+21	; 0x15
    2756:	1e 89       	ldd	r17, Y+22	; 0x16
    2758:	86 e0       	ldi	r24, 0x06	; 6
    275a:	8c 83       	std	Y+4, r24	; 0x04
    275c:	1a 83       	std	Y+2, r17	; 0x02
    275e:	09 83       	std	Y+1, r16	; 0x01
    2760:	8f ef       	ldi	r24, 0xFF	; 255
    2762:	9f e7       	ldi	r25, 0x7F	; 127
    2764:	9e 83       	std	Y+6, r25	; 0x06
    2766:	8d 83       	std	Y+5, r24	; 0x05
    2768:	ae 01       	movw	r20, r28
    276a:	47 5e       	subi	r20, 0xE7	; 231
    276c:	5f 4f       	sbci	r21, 0xFF	; 255
    276e:	6f 89       	ldd	r22, Y+23	; 0x17
    2770:	78 8d       	ldd	r23, Y+24	; 0x18
    2772:	ce 01       	movw	r24, r28
    2774:	01 96       	adiw	r24, 0x01	; 1
    2776:	0e 94 c6 13 	call	0x278c	; 0x278c <vfprintf>
    277a:	ef 81       	ldd	r30, Y+7	; 0x07
    277c:	f8 85       	ldd	r31, Y+8	; 0x08
    277e:	e0 0f       	add	r30, r16
    2780:	f1 1f       	adc	r31, r17
    2782:	10 82       	st	Z, r1
    2784:	2e 96       	adiw	r28, 0x0e	; 14
    2786:	e4 e0       	ldi	r30, 0x04	; 4
    2788:	0c 94 68 16 	jmp	0x2cd0	; 0x2cd0 <__epilogue_restores__+0x1c>

0000278c <vfprintf>:
    278c:	ac e0       	ldi	r26, 0x0C	; 12
    278e:	b0 e0       	ldi	r27, 0x00	; 0
    2790:	ec ec       	ldi	r30, 0xCC	; 204
    2792:	f3 e1       	ldi	r31, 0x13	; 19
    2794:	0c 94 3e 16 	jmp	0x2c7c	; 0x2c7c <__prologue_saves__>
    2798:	7c 01       	movw	r14, r24
    279a:	6b 01       	movw	r12, r22
    279c:	8a 01       	movw	r16, r20
    279e:	fc 01       	movw	r30, r24
    27a0:	17 82       	std	Z+7, r1	; 0x07
    27a2:	16 82       	std	Z+6, r1	; 0x06
    27a4:	83 81       	ldd	r24, Z+3	; 0x03
    27a6:	81 ff       	sbrs	r24, 1
    27a8:	bd c1       	rjmp	.+890    	; 0x2b24 <vfprintf+0x398>
    27aa:	ce 01       	movw	r24, r28
    27ac:	01 96       	adiw	r24, 0x01	; 1
    27ae:	4c 01       	movw	r8, r24
    27b0:	f7 01       	movw	r30, r14
    27b2:	93 81       	ldd	r25, Z+3	; 0x03
    27b4:	f6 01       	movw	r30, r12
    27b6:	93 fd       	sbrc	r25, 3
    27b8:	85 91       	lpm	r24, Z+
    27ba:	93 ff       	sbrs	r25, 3
    27bc:	81 91       	ld	r24, Z+
    27be:	6f 01       	movw	r12, r30
    27c0:	88 23       	and	r24, r24
    27c2:	09 f4       	brne	.+2      	; 0x27c6 <vfprintf+0x3a>
    27c4:	ab c1       	rjmp	.+854    	; 0x2b1c <vfprintf+0x390>
    27c6:	85 32       	cpi	r24, 0x25	; 37
    27c8:	39 f4       	brne	.+14     	; 0x27d8 <vfprintf+0x4c>
    27ca:	93 fd       	sbrc	r25, 3
    27cc:	85 91       	lpm	r24, Z+
    27ce:	93 ff       	sbrs	r25, 3
    27d0:	81 91       	ld	r24, Z+
    27d2:	6f 01       	movw	r12, r30
    27d4:	85 32       	cpi	r24, 0x25	; 37
    27d6:	29 f4       	brne	.+10     	; 0x27e2 <vfprintf+0x56>
    27d8:	b7 01       	movw	r22, r14
    27da:	90 e0       	ldi	r25, 0x00	; 0
    27dc:	0e 94 ae 15 	call	0x2b5c	; 0x2b5c <fputc>
    27e0:	e7 cf       	rjmp	.-50     	; 0x27b0 <vfprintf+0x24>
    27e2:	51 2c       	mov	r5, r1
    27e4:	31 2c       	mov	r3, r1
    27e6:	20 e0       	ldi	r18, 0x00	; 0
    27e8:	20 32       	cpi	r18, 0x20	; 32
    27ea:	a0 f4       	brcc	.+40     	; 0x2814 <vfprintf+0x88>
    27ec:	8b 32       	cpi	r24, 0x2B	; 43
    27ee:	69 f0       	breq	.+26     	; 0x280a <vfprintf+0x7e>
    27f0:	30 f4       	brcc	.+12     	; 0x27fe <vfprintf+0x72>
    27f2:	80 32       	cpi	r24, 0x20	; 32
    27f4:	59 f0       	breq	.+22     	; 0x280c <vfprintf+0x80>
    27f6:	83 32       	cpi	r24, 0x23	; 35
    27f8:	69 f4       	brne	.+26     	; 0x2814 <vfprintf+0x88>
    27fa:	20 61       	ori	r18, 0x10	; 16
    27fc:	2c c0       	rjmp	.+88     	; 0x2856 <vfprintf+0xca>
    27fe:	8d 32       	cpi	r24, 0x2D	; 45
    2800:	39 f0       	breq	.+14     	; 0x2810 <vfprintf+0x84>
    2802:	80 33       	cpi	r24, 0x30	; 48
    2804:	39 f4       	brne	.+14     	; 0x2814 <vfprintf+0x88>
    2806:	21 60       	ori	r18, 0x01	; 1
    2808:	26 c0       	rjmp	.+76     	; 0x2856 <vfprintf+0xca>
    280a:	22 60       	ori	r18, 0x02	; 2
    280c:	24 60       	ori	r18, 0x04	; 4
    280e:	23 c0       	rjmp	.+70     	; 0x2856 <vfprintf+0xca>
    2810:	28 60       	ori	r18, 0x08	; 8
    2812:	21 c0       	rjmp	.+66     	; 0x2856 <vfprintf+0xca>
    2814:	27 fd       	sbrc	r18, 7
    2816:	27 c0       	rjmp	.+78     	; 0x2866 <vfprintf+0xda>
    2818:	30 ed       	ldi	r19, 0xD0	; 208
    281a:	38 0f       	add	r19, r24
    281c:	3a 30       	cpi	r19, 0x0A	; 10
    281e:	78 f4       	brcc	.+30     	; 0x283e <vfprintf+0xb2>
    2820:	26 ff       	sbrs	r18, 6
    2822:	06 c0       	rjmp	.+12     	; 0x2830 <vfprintf+0xa4>
    2824:	fa e0       	ldi	r31, 0x0A	; 10
    2826:	5f 9e       	mul	r5, r31
    2828:	30 0d       	add	r19, r0
    282a:	11 24       	eor	r1, r1
    282c:	53 2e       	mov	r5, r19
    282e:	13 c0       	rjmp	.+38     	; 0x2856 <vfprintf+0xca>
    2830:	8a e0       	ldi	r24, 0x0A	; 10
    2832:	38 9e       	mul	r3, r24
    2834:	30 0d       	add	r19, r0
    2836:	11 24       	eor	r1, r1
    2838:	33 2e       	mov	r3, r19
    283a:	20 62       	ori	r18, 0x20	; 32
    283c:	0c c0       	rjmp	.+24     	; 0x2856 <vfprintf+0xca>
    283e:	8e 32       	cpi	r24, 0x2E	; 46
    2840:	21 f4       	brne	.+8      	; 0x284a <vfprintf+0xbe>
    2842:	26 fd       	sbrc	r18, 6
    2844:	6b c1       	rjmp	.+726    	; 0x2b1c <vfprintf+0x390>
    2846:	20 64       	ori	r18, 0x40	; 64
    2848:	06 c0       	rjmp	.+12     	; 0x2856 <vfprintf+0xca>
    284a:	8c 36       	cpi	r24, 0x6C	; 108
    284c:	11 f4       	brne	.+4      	; 0x2852 <vfprintf+0xc6>
    284e:	20 68       	ori	r18, 0x80	; 128
    2850:	02 c0       	rjmp	.+4      	; 0x2856 <vfprintf+0xca>
    2852:	88 36       	cpi	r24, 0x68	; 104
    2854:	41 f4       	brne	.+16     	; 0x2866 <vfprintf+0xda>
    2856:	f6 01       	movw	r30, r12
    2858:	93 fd       	sbrc	r25, 3
    285a:	85 91       	lpm	r24, Z+
    285c:	93 ff       	sbrs	r25, 3
    285e:	81 91       	ld	r24, Z+
    2860:	6f 01       	movw	r12, r30
    2862:	81 11       	cpse	r24, r1
    2864:	c1 cf       	rjmp	.-126    	; 0x27e8 <vfprintf+0x5c>
    2866:	98 2f       	mov	r25, r24
    2868:	9f 7d       	andi	r25, 0xDF	; 223
    286a:	95 54       	subi	r25, 0x45	; 69
    286c:	93 30       	cpi	r25, 0x03	; 3
    286e:	28 f4       	brcc	.+10     	; 0x287a <vfprintf+0xee>
    2870:	0c 5f       	subi	r16, 0xFC	; 252
    2872:	1f 4f       	sbci	r17, 0xFF	; 255
    2874:	ff e3       	ldi	r31, 0x3F	; 63
    2876:	f9 83       	std	Y+1, r31	; 0x01
    2878:	0d c0       	rjmp	.+26     	; 0x2894 <vfprintf+0x108>
    287a:	83 36       	cpi	r24, 0x63	; 99
    287c:	31 f0       	breq	.+12     	; 0x288a <vfprintf+0xfe>
    287e:	83 37       	cpi	r24, 0x73	; 115
    2880:	71 f0       	breq	.+28     	; 0x289e <vfprintf+0x112>
    2882:	83 35       	cpi	r24, 0x53	; 83
    2884:	09 f0       	breq	.+2      	; 0x2888 <vfprintf+0xfc>
    2886:	5b c0       	rjmp	.+182    	; 0x293e <vfprintf+0x1b2>
    2888:	22 c0       	rjmp	.+68     	; 0x28ce <vfprintf+0x142>
    288a:	f8 01       	movw	r30, r16
    288c:	80 81       	ld	r24, Z
    288e:	89 83       	std	Y+1, r24	; 0x01
    2890:	0e 5f       	subi	r16, 0xFE	; 254
    2892:	1f 4f       	sbci	r17, 0xFF	; 255
    2894:	44 24       	eor	r4, r4
    2896:	43 94       	inc	r4
    2898:	51 2c       	mov	r5, r1
    289a:	54 01       	movw	r10, r8
    289c:	15 c0       	rjmp	.+42     	; 0x28c8 <vfprintf+0x13c>
    289e:	38 01       	movw	r6, r16
    28a0:	f2 e0       	ldi	r31, 0x02	; 2
    28a2:	6f 0e       	add	r6, r31
    28a4:	71 1c       	adc	r7, r1
    28a6:	f8 01       	movw	r30, r16
    28a8:	a0 80       	ld	r10, Z
    28aa:	b1 80       	ldd	r11, Z+1	; 0x01
    28ac:	26 ff       	sbrs	r18, 6
    28ae:	03 c0       	rjmp	.+6      	; 0x28b6 <vfprintf+0x12a>
    28b0:	65 2d       	mov	r22, r5
    28b2:	70 e0       	ldi	r23, 0x00	; 0
    28b4:	02 c0       	rjmp	.+4      	; 0x28ba <vfprintf+0x12e>
    28b6:	6f ef       	ldi	r22, 0xFF	; 255
    28b8:	7f ef       	ldi	r23, 0xFF	; 255
    28ba:	c5 01       	movw	r24, r10
    28bc:	2c 87       	std	Y+12, r18	; 0x0c
    28be:	0e 94 a3 15 	call	0x2b46	; 0x2b46 <strnlen>
    28c2:	2c 01       	movw	r4, r24
    28c4:	83 01       	movw	r16, r6
    28c6:	2c 85       	ldd	r18, Y+12	; 0x0c
    28c8:	2f 77       	andi	r18, 0x7F	; 127
    28ca:	22 2e       	mov	r2, r18
    28cc:	17 c0       	rjmp	.+46     	; 0x28fc <vfprintf+0x170>
    28ce:	38 01       	movw	r6, r16
    28d0:	f2 e0       	ldi	r31, 0x02	; 2
    28d2:	6f 0e       	add	r6, r31
    28d4:	71 1c       	adc	r7, r1
    28d6:	f8 01       	movw	r30, r16
    28d8:	a0 80       	ld	r10, Z
    28da:	b1 80       	ldd	r11, Z+1	; 0x01
    28dc:	26 ff       	sbrs	r18, 6
    28de:	03 c0       	rjmp	.+6      	; 0x28e6 <vfprintf+0x15a>
    28e0:	65 2d       	mov	r22, r5
    28e2:	70 e0       	ldi	r23, 0x00	; 0
    28e4:	02 c0       	rjmp	.+4      	; 0x28ea <vfprintf+0x15e>
    28e6:	6f ef       	ldi	r22, 0xFF	; 255
    28e8:	7f ef       	ldi	r23, 0xFF	; 255
    28ea:	c5 01       	movw	r24, r10
    28ec:	2c 87       	std	Y+12, r18	; 0x0c
    28ee:	0e 94 98 15 	call	0x2b30	; 0x2b30 <strnlen_P>
    28f2:	2c 01       	movw	r4, r24
    28f4:	2c 85       	ldd	r18, Y+12	; 0x0c
    28f6:	20 68       	ori	r18, 0x80	; 128
    28f8:	22 2e       	mov	r2, r18
    28fa:	83 01       	movw	r16, r6
    28fc:	23 fc       	sbrc	r2, 3
    28fe:	1b c0       	rjmp	.+54     	; 0x2936 <vfprintf+0x1aa>
    2900:	83 2d       	mov	r24, r3
    2902:	90 e0       	ldi	r25, 0x00	; 0
    2904:	48 16       	cp	r4, r24
    2906:	59 06       	cpc	r5, r25
    2908:	b0 f4       	brcc	.+44     	; 0x2936 <vfprintf+0x1aa>
    290a:	b7 01       	movw	r22, r14
    290c:	80 e2       	ldi	r24, 0x20	; 32
    290e:	90 e0       	ldi	r25, 0x00	; 0
    2910:	0e 94 ae 15 	call	0x2b5c	; 0x2b5c <fputc>
    2914:	3a 94       	dec	r3
    2916:	f4 cf       	rjmp	.-24     	; 0x2900 <vfprintf+0x174>
    2918:	f5 01       	movw	r30, r10
    291a:	27 fc       	sbrc	r2, 7
    291c:	85 91       	lpm	r24, Z+
    291e:	27 fe       	sbrs	r2, 7
    2920:	81 91       	ld	r24, Z+
    2922:	5f 01       	movw	r10, r30
    2924:	b7 01       	movw	r22, r14
    2926:	90 e0       	ldi	r25, 0x00	; 0
    2928:	0e 94 ae 15 	call	0x2b5c	; 0x2b5c <fputc>
    292c:	31 10       	cpse	r3, r1
    292e:	3a 94       	dec	r3
    2930:	f1 e0       	ldi	r31, 0x01	; 1
    2932:	4f 1a       	sub	r4, r31
    2934:	51 08       	sbc	r5, r1
    2936:	41 14       	cp	r4, r1
    2938:	51 04       	cpc	r5, r1
    293a:	71 f7       	brne	.-36     	; 0x2918 <vfprintf+0x18c>
    293c:	e5 c0       	rjmp	.+458    	; 0x2b08 <vfprintf+0x37c>
    293e:	84 36       	cpi	r24, 0x64	; 100
    2940:	11 f0       	breq	.+4      	; 0x2946 <vfprintf+0x1ba>
    2942:	89 36       	cpi	r24, 0x69	; 105
    2944:	39 f5       	brne	.+78     	; 0x2994 <vfprintf+0x208>
    2946:	f8 01       	movw	r30, r16
    2948:	27 ff       	sbrs	r18, 7
    294a:	07 c0       	rjmp	.+14     	; 0x295a <vfprintf+0x1ce>
    294c:	60 81       	ld	r22, Z
    294e:	71 81       	ldd	r23, Z+1	; 0x01
    2950:	82 81       	ldd	r24, Z+2	; 0x02
    2952:	93 81       	ldd	r25, Z+3	; 0x03
    2954:	0c 5f       	subi	r16, 0xFC	; 252
    2956:	1f 4f       	sbci	r17, 0xFF	; 255
    2958:	08 c0       	rjmp	.+16     	; 0x296a <vfprintf+0x1de>
    295a:	60 81       	ld	r22, Z
    295c:	71 81       	ldd	r23, Z+1	; 0x01
    295e:	88 27       	eor	r24, r24
    2960:	77 fd       	sbrc	r23, 7
    2962:	80 95       	com	r24
    2964:	98 2f       	mov	r25, r24
    2966:	0e 5f       	subi	r16, 0xFE	; 254
    2968:	1f 4f       	sbci	r17, 0xFF	; 255
    296a:	2f 76       	andi	r18, 0x6F	; 111
    296c:	b2 2e       	mov	r11, r18
    296e:	97 ff       	sbrs	r25, 7
    2970:	09 c0       	rjmp	.+18     	; 0x2984 <vfprintf+0x1f8>
    2972:	90 95       	com	r25
    2974:	80 95       	com	r24
    2976:	70 95       	com	r23
    2978:	61 95       	neg	r22
    297a:	7f 4f       	sbci	r23, 0xFF	; 255
    297c:	8f 4f       	sbci	r24, 0xFF	; 255
    297e:	9f 4f       	sbci	r25, 0xFF	; 255
    2980:	20 68       	ori	r18, 0x80	; 128
    2982:	b2 2e       	mov	r11, r18
    2984:	2a e0       	ldi	r18, 0x0A	; 10
    2986:	30 e0       	ldi	r19, 0x00	; 0
    2988:	a4 01       	movw	r20, r8
    298a:	0e 94 e0 15 	call	0x2bc0	; 0x2bc0 <__ultoa_invert>
    298e:	a8 2e       	mov	r10, r24
    2990:	a8 18       	sub	r10, r8
    2992:	44 c0       	rjmp	.+136    	; 0x2a1c <vfprintf+0x290>
    2994:	85 37       	cpi	r24, 0x75	; 117
    2996:	29 f4       	brne	.+10     	; 0x29a2 <vfprintf+0x216>
    2998:	2f 7e       	andi	r18, 0xEF	; 239
    299a:	b2 2e       	mov	r11, r18
    299c:	2a e0       	ldi	r18, 0x0A	; 10
    299e:	30 e0       	ldi	r19, 0x00	; 0
    29a0:	25 c0       	rjmp	.+74     	; 0x29ec <vfprintf+0x260>
    29a2:	f2 2f       	mov	r31, r18
    29a4:	f9 7f       	andi	r31, 0xF9	; 249
    29a6:	bf 2e       	mov	r11, r31
    29a8:	8f 36       	cpi	r24, 0x6F	; 111
    29aa:	c1 f0       	breq	.+48     	; 0x29dc <vfprintf+0x250>
    29ac:	18 f4       	brcc	.+6      	; 0x29b4 <vfprintf+0x228>
    29ae:	88 35       	cpi	r24, 0x58	; 88
    29b0:	79 f0       	breq	.+30     	; 0x29d0 <vfprintf+0x244>
    29b2:	b4 c0       	rjmp	.+360    	; 0x2b1c <vfprintf+0x390>
    29b4:	80 37       	cpi	r24, 0x70	; 112
    29b6:	19 f0       	breq	.+6      	; 0x29be <vfprintf+0x232>
    29b8:	88 37       	cpi	r24, 0x78	; 120
    29ba:	21 f0       	breq	.+8      	; 0x29c4 <vfprintf+0x238>
    29bc:	af c0       	rjmp	.+350    	; 0x2b1c <vfprintf+0x390>
    29be:	2f 2f       	mov	r18, r31
    29c0:	20 61       	ori	r18, 0x10	; 16
    29c2:	b2 2e       	mov	r11, r18
    29c4:	b4 fe       	sbrs	r11, 4
    29c6:	0d c0       	rjmp	.+26     	; 0x29e2 <vfprintf+0x256>
    29c8:	8b 2d       	mov	r24, r11
    29ca:	84 60       	ori	r24, 0x04	; 4
    29cc:	b8 2e       	mov	r11, r24
    29ce:	09 c0       	rjmp	.+18     	; 0x29e2 <vfprintf+0x256>
    29d0:	24 ff       	sbrs	r18, 4
    29d2:	0a c0       	rjmp	.+20     	; 0x29e8 <vfprintf+0x25c>
    29d4:	9f 2f       	mov	r25, r31
    29d6:	96 60       	ori	r25, 0x06	; 6
    29d8:	b9 2e       	mov	r11, r25
    29da:	06 c0       	rjmp	.+12     	; 0x29e8 <vfprintf+0x25c>
    29dc:	28 e0       	ldi	r18, 0x08	; 8
    29de:	30 e0       	ldi	r19, 0x00	; 0
    29e0:	05 c0       	rjmp	.+10     	; 0x29ec <vfprintf+0x260>
    29e2:	20 e1       	ldi	r18, 0x10	; 16
    29e4:	30 e0       	ldi	r19, 0x00	; 0
    29e6:	02 c0       	rjmp	.+4      	; 0x29ec <vfprintf+0x260>
    29e8:	20 e1       	ldi	r18, 0x10	; 16
    29ea:	32 e0       	ldi	r19, 0x02	; 2
    29ec:	f8 01       	movw	r30, r16
    29ee:	b7 fe       	sbrs	r11, 7
    29f0:	07 c0       	rjmp	.+14     	; 0x2a00 <vfprintf+0x274>
    29f2:	60 81       	ld	r22, Z
    29f4:	71 81       	ldd	r23, Z+1	; 0x01
    29f6:	82 81       	ldd	r24, Z+2	; 0x02
    29f8:	93 81       	ldd	r25, Z+3	; 0x03
    29fa:	0c 5f       	subi	r16, 0xFC	; 252
    29fc:	1f 4f       	sbci	r17, 0xFF	; 255
    29fe:	06 c0       	rjmp	.+12     	; 0x2a0c <vfprintf+0x280>
    2a00:	60 81       	ld	r22, Z
    2a02:	71 81       	ldd	r23, Z+1	; 0x01
    2a04:	80 e0       	ldi	r24, 0x00	; 0
    2a06:	90 e0       	ldi	r25, 0x00	; 0
    2a08:	0e 5f       	subi	r16, 0xFE	; 254
    2a0a:	1f 4f       	sbci	r17, 0xFF	; 255
    2a0c:	a4 01       	movw	r20, r8
    2a0e:	0e 94 e0 15 	call	0x2bc0	; 0x2bc0 <__ultoa_invert>
    2a12:	a8 2e       	mov	r10, r24
    2a14:	a8 18       	sub	r10, r8
    2a16:	fb 2d       	mov	r31, r11
    2a18:	ff 77       	andi	r31, 0x7F	; 127
    2a1a:	bf 2e       	mov	r11, r31
    2a1c:	b6 fe       	sbrs	r11, 6
    2a1e:	0b c0       	rjmp	.+22     	; 0x2a36 <vfprintf+0x2aa>
    2a20:	2b 2d       	mov	r18, r11
    2a22:	2e 7f       	andi	r18, 0xFE	; 254
    2a24:	a5 14       	cp	r10, r5
    2a26:	50 f4       	brcc	.+20     	; 0x2a3c <vfprintf+0x2b0>
    2a28:	b4 fe       	sbrs	r11, 4
    2a2a:	0a c0       	rjmp	.+20     	; 0x2a40 <vfprintf+0x2b4>
    2a2c:	b2 fc       	sbrc	r11, 2
    2a2e:	08 c0       	rjmp	.+16     	; 0x2a40 <vfprintf+0x2b4>
    2a30:	2b 2d       	mov	r18, r11
    2a32:	2e 7e       	andi	r18, 0xEE	; 238
    2a34:	05 c0       	rjmp	.+10     	; 0x2a40 <vfprintf+0x2b4>
    2a36:	7a 2c       	mov	r7, r10
    2a38:	2b 2d       	mov	r18, r11
    2a3a:	03 c0       	rjmp	.+6      	; 0x2a42 <vfprintf+0x2b6>
    2a3c:	7a 2c       	mov	r7, r10
    2a3e:	01 c0       	rjmp	.+2      	; 0x2a42 <vfprintf+0x2b6>
    2a40:	75 2c       	mov	r7, r5
    2a42:	24 ff       	sbrs	r18, 4
    2a44:	0d c0       	rjmp	.+26     	; 0x2a60 <vfprintf+0x2d4>
    2a46:	fe 01       	movw	r30, r28
    2a48:	ea 0d       	add	r30, r10
    2a4a:	f1 1d       	adc	r31, r1
    2a4c:	80 81       	ld	r24, Z
    2a4e:	80 33       	cpi	r24, 0x30	; 48
    2a50:	11 f4       	brne	.+4      	; 0x2a56 <vfprintf+0x2ca>
    2a52:	29 7e       	andi	r18, 0xE9	; 233
    2a54:	09 c0       	rjmp	.+18     	; 0x2a68 <vfprintf+0x2dc>
    2a56:	22 ff       	sbrs	r18, 2
    2a58:	06 c0       	rjmp	.+12     	; 0x2a66 <vfprintf+0x2da>
    2a5a:	73 94       	inc	r7
    2a5c:	73 94       	inc	r7
    2a5e:	04 c0       	rjmp	.+8      	; 0x2a68 <vfprintf+0x2dc>
    2a60:	82 2f       	mov	r24, r18
    2a62:	86 78       	andi	r24, 0x86	; 134
    2a64:	09 f0       	breq	.+2      	; 0x2a68 <vfprintf+0x2dc>
    2a66:	73 94       	inc	r7
    2a68:	23 fd       	sbrc	r18, 3
    2a6a:	13 c0       	rjmp	.+38     	; 0x2a92 <vfprintf+0x306>
    2a6c:	20 ff       	sbrs	r18, 0
    2a6e:	06 c0       	rjmp	.+12     	; 0x2a7c <vfprintf+0x2f0>
    2a70:	5a 2c       	mov	r5, r10
    2a72:	73 14       	cp	r7, r3
    2a74:	18 f4       	brcc	.+6      	; 0x2a7c <vfprintf+0x2f0>
    2a76:	53 0c       	add	r5, r3
    2a78:	57 18       	sub	r5, r7
    2a7a:	73 2c       	mov	r7, r3
    2a7c:	73 14       	cp	r7, r3
    2a7e:	68 f4       	brcc	.+26     	; 0x2a9a <vfprintf+0x30e>
    2a80:	b7 01       	movw	r22, r14
    2a82:	80 e2       	ldi	r24, 0x20	; 32
    2a84:	90 e0       	ldi	r25, 0x00	; 0
    2a86:	2c 87       	std	Y+12, r18	; 0x0c
    2a88:	0e 94 ae 15 	call	0x2b5c	; 0x2b5c <fputc>
    2a8c:	73 94       	inc	r7
    2a8e:	2c 85       	ldd	r18, Y+12	; 0x0c
    2a90:	f5 cf       	rjmp	.-22     	; 0x2a7c <vfprintf+0x2f0>
    2a92:	73 14       	cp	r7, r3
    2a94:	10 f4       	brcc	.+4      	; 0x2a9a <vfprintf+0x30e>
    2a96:	37 18       	sub	r3, r7
    2a98:	01 c0       	rjmp	.+2      	; 0x2a9c <vfprintf+0x310>
    2a9a:	31 2c       	mov	r3, r1
    2a9c:	24 ff       	sbrs	r18, 4
    2a9e:	12 c0       	rjmp	.+36     	; 0x2ac4 <vfprintf+0x338>
    2aa0:	b7 01       	movw	r22, r14
    2aa2:	80 e3       	ldi	r24, 0x30	; 48
    2aa4:	90 e0       	ldi	r25, 0x00	; 0
    2aa6:	2c 87       	std	Y+12, r18	; 0x0c
    2aa8:	0e 94 ae 15 	call	0x2b5c	; 0x2b5c <fputc>
    2aac:	2c 85       	ldd	r18, Y+12	; 0x0c
    2aae:	22 ff       	sbrs	r18, 2
    2ab0:	17 c0       	rjmp	.+46     	; 0x2ae0 <vfprintf+0x354>
    2ab2:	21 ff       	sbrs	r18, 1
    2ab4:	03 c0       	rjmp	.+6      	; 0x2abc <vfprintf+0x330>
    2ab6:	88 e5       	ldi	r24, 0x58	; 88
    2ab8:	90 e0       	ldi	r25, 0x00	; 0
    2aba:	02 c0       	rjmp	.+4      	; 0x2ac0 <vfprintf+0x334>
    2abc:	88 e7       	ldi	r24, 0x78	; 120
    2abe:	90 e0       	ldi	r25, 0x00	; 0
    2ac0:	b7 01       	movw	r22, r14
    2ac2:	0c c0       	rjmp	.+24     	; 0x2adc <vfprintf+0x350>
    2ac4:	82 2f       	mov	r24, r18
    2ac6:	86 78       	andi	r24, 0x86	; 134
    2ac8:	59 f0       	breq	.+22     	; 0x2ae0 <vfprintf+0x354>
    2aca:	21 fd       	sbrc	r18, 1
    2acc:	02 c0       	rjmp	.+4      	; 0x2ad2 <vfprintf+0x346>
    2ace:	80 e2       	ldi	r24, 0x20	; 32
    2ad0:	01 c0       	rjmp	.+2      	; 0x2ad4 <vfprintf+0x348>
    2ad2:	8b e2       	ldi	r24, 0x2B	; 43
    2ad4:	27 fd       	sbrc	r18, 7
    2ad6:	8d e2       	ldi	r24, 0x2D	; 45
    2ad8:	b7 01       	movw	r22, r14
    2ada:	90 e0       	ldi	r25, 0x00	; 0
    2adc:	0e 94 ae 15 	call	0x2b5c	; 0x2b5c <fputc>
    2ae0:	a5 14       	cp	r10, r5
    2ae2:	38 f4       	brcc	.+14     	; 0x2af2 <vfprintf+0x366>
    2ae4:	b7 01       	movw	r22, r14
    2ae6:	80 e3       	ldi	r24, 0x30	; 48
    2ae8:	90 e0       	ldi	r25, 0x00	; 0
    2aea:	0e 94 ae 15 	call	0x2b5c	; 0x2b5c <fputc>
    2aee:	5a 94       	dec	r5
    2af0:	f7 cf       	rjmp	.-18     	; 0x2ae0 <vfprintf+0x354>
    2af2:	aa 94       	dec	r10
    2af4:	f4 01       	movw	r30, r8
    2af6:	ea 0d       	add	r30, r10
    2af8:	f1 1d       	adc	r31, r1
    2afa:	80 81       	ld	r24, Z
    2afc:	b7 01       	movw	r22, r14
    2afe:	90 e0       	ldi	r25, 0x00	; 0
    2b00:	0e 94 ae 15 	call	0x2b5c	; 0x2b5c <fputc>
    2b04:	a1 10       	cpse	r10, r1
    2b06:	f5 cf       	rjmp	.-22     	; 0x2af2 <vfprintf+0x366>
    2b08:	33 20       	and	r3, r3
    2b0a:	09 f4       	brne	.+2      	; 0x2b0e <vfprintf+0x382>
    2b0c:	51 ce       	rjmp	.-862    	; 0x27b0 <vfprintf+0x24>
    2b0e:	b7 01       	movw	r22, r14
    2b10:	80 e2       	ldi	r24, 0x20	; 32
    2b12:	90 e0       	ldi	r25, 0x00	; 0
    2b14:	0e 94 ae 15 	call	0x2b5c	; 0x2b5c <fputc>
    2b18:	3a 94       	dec	r3
    2b1a:	f6 cf       	rjmp	.-20     	; 0x2b08 <vfprintf+0x37c>
    2b1c:	f7 01       	movw	r30, r14
    2b1e:	86 81       	ldd	r24, Z+6	; 0x06
    2b20:	97 81       	ldd	r25, Z+7	; 0x07
    2b22:	02 c0       	rjmp	.+4      	; 0x2b28 <vfprintf+0x39c>
    2b24:	8f ef       	ldi	r24, 0xFF	; 255
    2b26:	9f ef       	ldi	r25, 0xFF	; 255
    2b28:	2c 96       	adiw	r28, 0x0c	; 12
    2b2a:	e2 e1       	ldi	r30, 0x12	; 18
    2b2c:	0c 94 5a 16 	jmp	0x2cb4	; 0x2cb4 <__epilogue_restores__>

00002b30 <strnlen_P>:
    2b30:	fc 01       	movw	r30, r24
    2b32:	05 90       	lpm	r0, Z+
    2b34:	61 50       	subi	r22, 0x01	; 1
    2b36:	70 40       	sbci	r23, 0x00	; 0
    2b38:	01 10       	cpse	r0, r1
    2b3a:	d8 f7       	brcc	.-10     	; 0x2b32 <strnlen_P+0x2>
    2b3c:	80 95       	com	r24
    2b3e:	90 95       	com	r25
    2b40:	8e 0f       	add	r24, r30
    2b42:	9f 1f       	adc	r25, r31
    2b44:	08 95       	ret

00002b46 <strnlen>:
    2b46:	fc 01       	movw	r30, r24
    2b48:	61 50       	subi	r22, 0x01	; 1
    2b4a:	70 40       	sbci	r23, 0x00	; 0
    2b4c:	01 90       	ld	r0, Z+
    2b4e:	01 10       	cpse	r0, r1
    2b50:	d8 f7       	brcc	.-10     	; 0x2b48 <strnlen+0x2>
    2b52:	80 95       	com	r24
    2b54:	90 95       	com	r25
    2b56:	8e 0f       	add	r24, r30
    2b58:	9f 1f       	adc	r25, r31
    2b5a:	08 95       	ret

00002b5c <fputc>:
    2b5c:	0f 93       	push	r16
    2b5e:	1f 93       	push	r17
    2b60:	cf 93       	push	r28
    2b62:	df 93       	push	r29
    2b64:	18 2f       	mov	r17, r24
    2b66:	09 2f       	mov	r16, r25
    2b68:	eb 01       	movw	r28, r22
    2b6a:	8b 81       	ldd	r24, Y+3	; 0x03
    2b6c:	81 fd       	sbrc	r24, 1
    2b6e:	03 c0       	rjmp	.+6      	; 0x2b76 <fputc+0x1a>
    2b70:	8f ef       	ldi	r24, 0xFF	; 255
    2b72:	9f ef       	ldi	r25, 0xFF	; 255
    2b74:	20 c0       	rjmp	.+64     	; 0x2bb6 <fputc+0x5a>
    2b76:	82 ff       	sbrs	r24, 2
    2b78:	10 c0       	rjmp	.+32     	; 0x2b9a <fputc+0x3e>
    2b7a:	4e 81       	ldd	r20, Y+6	; 0x06
    2b7c:	5f 81       	ldd	r21, Y+7	; 0x07
    2b7e:	2c 81       	ldd	r18, Y+4	; 0x04
    2b80:	3d 81       	ldd	r19, Y+5	; 0x05
    2b82:	42 17       	cp	r20, r18
    2b84:	53 07       	cpc	r21, r19
    2b86:	7c f4       	brge	.+30     	; 0x2ba6 <fputc+0x4a>
    2b88:	e8 81       	ld	r30, Y
    2b8a:	f9 81       	ldd	r31, Y+1	; 0x01
    2b8c:	9f 01       	movw	r18, r30
    2b8e:	2f 5f       	subi	r18, 0xFF	; 255
    2b90:	3f 4f       	sbci	r19, 0xFF	; 255
    2b92:	39 83       	std	Y+1, r19	; 0x01
    2b94:	28 83       	st	Y, r18
    2b96:	10 83       	st	Z, r17
    2b98:	06 c0       	rjmp	.+12     	; 0x2ba6 <fputc+0x4a>
    2b9a:	e8 85       	ldd	r30, Y+8	; 0x08
    2b9c:	f9 85       	ldd	r31, Y+9	; 0x09
    2b9e:	81 2f       	mov	r24, r17
    2ba0:	09 95       	icall
    2ba2:	89 2b       	or	r24, r25
    2ba4:	29 f7       	brne	.-54     	; 0x2b70 <fputc+0x14>
    2ba6:	2e 81       	ldd	r18, Y+6	; 0x06
    2ba8:	3f 81       	ldd	r19, Y+7	; 0x07
    2baa:	2f 5f       	subi	r18, 0xFF	; 255
    2bac:	3f 4f       	sbci	r19, 0xFF	; 255
    2bae:	3f 83       	std	Y+7, r19	; 0x07
    2bb0:	2e 83       	std	Y+6, r18	; 0x06
    2bb2:	81 2f       	mov	r24, r17
    2bb4:	90 2f       	mov	r25, r16
    2bb6:	df 91       	pop	r29
    2bb8:	cf 91       	pop	r28
    2bba:	1f 91       	pop	r17
    2bbc:	0f 91       	pop	r16
    2bbe:	08 95       	ret

00002bc0 <__ultoa_invert>:
    2bc0:	fa 01       	movw	r30, r20
    2bc2:	aa 27       	eor	r26, r26
    2bc4:	28 30       	cpi	r18, 0x08	; 8
    2bc6:	51 f1       	breq	.+84     	; 0x2c1c <__ultoa_invert+0x5c>
    2bc8:	20 31       	cpi	r18, 0x10	; 16
    2bca:	81 f1       	breq	.+96     	; 0x2c2c <__ultoa_invert+0x6c>
    2bcc:	e8 94       	clt
    2bce:	6f 93       	push	r22
    2bd0:	6e 7f       	andi	r22, 0xFE	; 254
    2bd2:	6e 5f       	subi	r22, 0xFE	; 254
    2bd4:	7f 4f       	sbci	r23, 0xFF	; 255
    2bd6:	8f 4f       	sbci	r24, 0xFF	; 255
    2bd8:	9f 4f       	sbci	r25, 0xFF	; 255
    2bda:	af 4f       	sbci	r26, 0xFF	; 255
    2bdc:	b1 e0       	ldi	r27, 0x01	; 1
    2bde:	3e d0       	rcall	.+124    	; 0x2c5c <__ultoa_invert+0x9c>
    2be0:	b4 e0       	ldi	r27, 0x04	; 4
    2be2:	3c d0       	rcall	.+120    	; 0x2c5c <__ultoa_invert+0x9c>
    2be4:	67 0f       	add	r22, r23
    2be6:	78 1f       	adc	r23, r24
    2be8:	89 1f       	adc	r24, r25
    2bea:	9a 1f       	adc	r25, r26
    2bec:	a1 1d       	adc	r26, r1
    2bee:	68 0f       	add	r22, r24
    2bf0:	79 1f       	adc	r23, r25
    2bf2:	8a 1f       	adc	r24, r26
    2bf4:	91 1d       	adc	r25, r1
    2bf6:	a1 1d       	adc	r26, r1
    2bf8:	6a 0f       	add	r22, r26
    2bfa:	71 1d       	adc	r23, r1
    2bfc:	81 1d       	adc	r24, r1
    2bfe:	91 1d       	adc	r25, r1
    2c00:	a1 1d       	adc	r26, r1
    2c02:	20 d0       	rcall	.+64     	; 0x2c44 <__ultoa_invert+0x84>
    2c04:	09 f4       	brne	.+2      	; 0x2c08 <__ultoa_invert+0x48>
    2c06:	68 94       	set
    2c08:	3f 91       	pop	r19
    2c0a:	2a e0       	ldi	r18, 0x0A	; 10
    2c0c:	26 9f       	mul	r18, r22
    2c0e:	11 24       	eor	r1, r1
    2c10:	30 19       	sub	r19, r0
    2c12:	30 5d       	subi	r19, 0xD0	; 208
    2c14:	31 93       	st	Z+, r19
    2c16:	de f6       	brtc	.-74     	; 0x2bce <__ultoa_invert+0xe>
    2c18:	cf 01       	movw	r24, r30
    2c1a:	08 95       	ret
    2c1c:	46 2f       	mov	r20, r22
    2c1e:	47 70       	andi	r20, 0x07	; 7
    2c20:	40 5d       	subi	r20, 0xD0	; 208
    2c22:	41 93       	st	Z+, r20
    2c24:	b3 e0       	ldi	r27, 0x03	; 3
    2c26:	0f d0       	rcall	.+30     	; 0x2c46 <__ultoa_invert+0x86>
    2c28:	c9 f7       	brne	.-14     	; 0x2c1c <__ultoa_invert+0x5c>
    2c2a:	f6 cf       	rjmp	.-20     	; 0x2c18 <__ultoa_invert+0x58>
    2c2c:	46 2f       	mov	r20, r22
    2c2e:	4f 70       	andi	r20, 0x0F	; 15
    2c30:	40 5d       	subi	r20, 0xD0	; 208
    2c32:	4a 33       	cpi	r20, 0x3A	; 58
    2c34:	18 f0       	brcs	.+6      	; 0x2c3c <__ultoa_invert+0x7c>
    2c36:	49 5d       	subi	r20, 0xD9	; 217
    2c38:	31 fd       	sbrc	r19, 1
    2c3a:	40 52       	subi	r20, 0x20	; 32
    2c3c:	41 93       	st	Z+, r20
    2c3e:	02 d0       	rcall	.+4      	; 0x2c44 <__ultoa_invert+0x84>
    2c40:	a9 f7       	brne	.-22     	; 0x2c2c <__ultoa_invert+0x6c>
    2c42:	ea cf       	rjmp	.-44     	; 0x2c18 <__ultoa_invert+0x58>
    2c44:	b4 e0       	ldi	r27, 0x04	; 4
    2c46:	a6 95       	lsr	r26
    2c48:	97 95       	ror	r25
    2c4a:	87 95       	ror	r24
    2c4c:	77 95       	ror	r23
    2c4e:	67 95       	ror	r22
    2c50:	ba 95       	dec	r27
    2c52:	c9 f7       	brne	.-14     	; 0x2c46 <__ultoa_invert+0x86>
    2c54:	00 97       	sbiw	r24, 0x00	; 0
    2c56:	61 05       	cpc	r22, r1
    2c58:	71 05       	cpc	r23, r1
    2c5a:	08 95       	ret
    2c5c:	9b 01       	movw	r18, r22
    2c5e:	ac 01       	movw	r20, r24
    2c60:	0a 2e       	mov	r0, r26
    2c62:	06 94       	lsr	r0
    2c64:	57 95       	ror	r21
    2c66:	47 95       	ror	r20
    2c68:	37 95       	ror	r19
    2c6a:	27 95       	ror	r18
    2c6c:	ba 95       	dec	r27
    2c6e:	c9 f7       	brne	.-14     	; 0x2c62 <__ultoa_invert+0xa2>
    2c70:	62 0f       	add	r22, r18
    2c72:	73 1f       	adc	r23, r19
    2c74:	84 1f       	adc	r24, r20
    2c76:	95 1f       	adc	r25, r21
    2c78:	a0 1d       	adc	r26, r0
    2c7a:	08 95       	ret

00002c7c <__prologue_saves__>:
    2c7c:	2f 92       	push	r2
    2c7e:	3f 92       	push	r3
    2c80:	4f 92       	push	r4
    2c82:	5f 92       	push	r5
    2c84:	6f 92       	push	r6
    2c86:	7f 92       	push	r7
    2c88:	8f 92       	push	r8
    2c8a:	9f 92       	push	r9
    2c8c:	af 92       	push	r10
    2c8e:	bf 92       	push	r11
    2c90:	cf 92       	push	r12
    2c92:	df 92       	push	r13
    2c94:	ef 92       	push	r14
    2c96:	ff 92       	push	r15
    2c98:	0f 93       	push	r16
    2c9a:	1f 93       	push	r17
    2c9c:	cf 93       	push	r28
    2c9e:	df 93       	push	r29
    2ca0:	cd b7       	in	r28, 0x3d	; 61
    2ca2:	de b7       	in	r29, 0x3e	; 62
    2ca4:	ca 1b       	sub	r28, r26
    2ca6:	db 0b       	sbc	r29, r27
    2ca8:	0f b6       	in	r0, 0x3f	; 63
    2caa:	f8 94       	cli
    2cac:	de bf       	out	0x3e, r29	; 62
    2cae:	0f be       	out	0x3f, r0	; 63
    2cb0:	cd bf       	out	0x3d, r28	; 61
    2cb2:	09 94       	ijmp

00002cb4 <__epilogue_restores__>:
    2cb4:	2a 88       	ldd	r2, Y+18	; 0x12
    2cb6:	39 88       	ldd	r3, Y+17	; 0x11
    2cb8:	48 88       	ldd	r4, Y+16	; 0x10
    2cba:	5f 84       	ldd	r5, Y+15	; 0x0f
    2cbc:	6e 84       	ldd	r6, Y+14	; 0x0e
    2cbe:	7d 84       	ldd	r7, Y+13	; 0x0d
    2cc0:	8c 84       	ldd	r8, Y+12	; 0x0c
    2cc2:	9b 84       	ldd	r9, Y+11	; 0x0b
    2cc4:	aa 84       	ldd	r10, Y+10	; 0x0a
    2cc6:	b9 84       	ldd	r11, Y+9	; 0x09
    2cc8:	c8 84       	ldd	r12, Y+8	; 0x08
    2cca:	df 80       	ldd	r13, Y+7	; 0x07
    2ccc:	ee 80       	ldd	r14, Y+6	; 0x06
    2cce:	fd 80       	ldd	r15, Y+5	; 0x05
    2cd0:	0c 81       	ldd	r16, Y+4	; 0x04
    2cd2:	1b 81       	ldd	r17, Y+3	; 0x03
    2cd4:	aa 81       	ldd	r26, Y+2	; 0x02
    2cd6:	b9 81       	ldd	r27, Y+1	; 0x01
    2cd8:	ce 0f       	add	r28, r30
    2cda:	d1 1d       	adc	r29, r1
    2cdc:	0f b6       	in	r0, 0x3f	; 63
    2cde:	f8 94       	cli
    2ce0:	de bf       	out	0x3e, r29	; 62
    2ce2:	0f be       	out	0x3f, r0	; 63
    2ce4:	cd bf       	out	0x3d, r28	; 61
    2ce6:	ed 01       	movw	r28, r26
    2ce8:	08 95       	ret

00002cea <_exit>:
    2cea:	f8 94       	cli

00002cec <__stop_program>:
    2cec:	ff cf       	rjmp	.-2      	; 0x2cec <__stop_program>
