
PWMSOUND.elf:     file format elf32-avr

Sections:
Idx Name          Size      VMA       LMA       File off  Algn
  0 .text         000076a8  00000000  00000000  00000094  2**1
                  CONTENTS, ALLOC, LOAD, READONLY, CODE
  1 .data         00000004  00800060  000076a8  0000773c  2**0
                  CONTENTS, ALLOC, LOAD, DATA
  2 .bss          00000004  00800064  00800064  00007740  2**0
                  ALLOC
  3 .comment      00000030  00000000  00000000  00007740  2**0
                  CONTENTS, READONLY
  4 .debug_aranges 00000030  00000000  00000000  00007770  2**0
                  CONTENTS, READONLY, DEBUGGING
  5 .debug_info   00000163  00000000  00000000  000077a0  2**0
                  CONTENTS, READONLY, DEBUGGING
  6 .debug_abbrev 000000db  00000000  00000000  00007903  2**0
                  CONTENTS, READONLY, DEBUGGING
  7 .debug_line   000000e0  00000000  00000000  000079de  2**0
                  CONTENTS, READONLY, DEBUGGING
  8 .debug_frame  00000080  00000000  00000000  00007ac0  2**2
                  CONTENTS, READONLY, DEBUGGING
  9 .debug_str    00000173  00000000  00000000  00007b40  2**0
                  CONTENTS, READONLY, DEBUGGING
 10 .debug_loc    00000102  00000000  00000000  00007cb3  2**0
                  CONTENTS, READONLY, DEBUGGING
 11 .debug_ranges 00000020  00000000  00000000  00007db5  2**0
                  CONTENTS, READONLY, DEBUGGING

Disassembly of section .text:

00000000 <__vectors>:
       0:	0c 94 c2 3a 	jmp	0x7584	; 0x7584 <__ctors_end>
       4:	0c 94 df 3a 	jmp	0x75be	; 0x75be <__bad_interrupt>
       8:	0c 94 df 3a 	jmp	0x75be	; 0x75be <__bad_interrupt>
       c:	0c 94 df 3a 	jmp	0x75be	; 0x75be <__bad_interrupt>
      10:	0c 94 df 3a 	jmp	0x75be	; 0x75be <__bad_interrupt>
      14:	0c 94 df 3a 	jmp	0x75be	; 0x75be <__bad_interrupt>
      18:	0c 94 df 3a 	jmp	0x75be	; 0x75be <__bad_interrupt>
      1c:	0c 94 df 3a 	jmp	0x75be	; 0x75be <__bad_interrupt>
      20:	0c 94 df 3a 	jmp	0x75be	; 0x75be <__bad_interrupt>
      24:	0c 94 fb 3a 	jmp	0x75f6	; 0x75f6 <__vector_9>
      28:	0c 94 df 3a 	jmp	0x75be	; 0x75be <__bad_interrupt>
      2c:	0c 94 df 3a 	jmp	0x75be	; 0x75be <__bad_interrupt>
      30:	0c 94 df 3a 	jmp	0x75be	; 0x75be <__bad_interrupt>
      34:	0c 94 df 3a 	jmp	0x75be	; 0x75be <__bad_interrupt>
      38:	0c 94 df 3a 	jmp	0x75be	; 0x75be <__bad_interrupt>
      3c:	0c 94 df 3a 	jmp	0x75be	; 0x75be <__bad_interrupt>
      40:	0c 94 df 3a 	jmp	0x75be	; 0x75be <__bad_interrupt>
      44:	0c 94 df 3a 	jmp	0x75be	; 0x75be <__bad_interrupt>
      48:	0c 94 df 3a 	jmp	0x75be	; 0x75be <__bad_interrupt>
      4c:	0c 94 df 3a 	jmp	0x75be	; 0x75be <__bad_interrupt>
      50:	0c 94 df 3a 	jmp	0x75be	; 0x75be <__bad_interrupt>

00000054 <__trampolines_end>:
      54:	81 81       	ldd	r24, Z+1	; 0x01
      56:	81 80       	ldd	r8, Z+1	; 0x01
      58:	80 80       	ld	r8, Z
      5a:	7f 7f       	andi	r23, 0xFF	; 255
      5c:	7f 7f       	andi	r23, 0xFF	; 255
      5e:	7f 7f       	andi	r23, 0xFF	; 255
      60:	7f 80       	ldd	r7, Y+7	; 0x07
      62:	81 82       	std	Z+1, r8	; 0x01
      64:	83 84       	ldd	r8, Z+11	; 0x0b
      66:	86 88       	ldd	r8, Z+22	; 0x16
      68:	89 8b       	std	Y+17, r24	; 0x11
      6a:	8c 8e       	std	Y+28, r8	; 0x1c
      6c:	8f 90       	pop	r8
      6e:	91 91       	ld	r25, Z+
      70:	91 91       	ld	r25, Z+
      72:	91 90       	ld	r9, Z+
      74:	8f 8e       	std	Y+31, r8	; 0x1f
      76:	8d 8b       	std	Y+21, r24	; 0x15
      78:	8a 88       	ldd	r8, Y+18	; 0x12
      7a:	87 86       	std	Z+15, r8	; 0x0f
      7c:	84 83       	std	Z+4, r24	; 0x04
      7e:	81 80       	ldd	r8, Z+1	; 0x01
      80:	7f 7e       	andi	r23, 0xEF	; 239
      82:	7c 7b       	andi	r23, 0xBC	; 188
      84:	7a 79       	andi	r23, 0x9A	; 154
      86:	79 78       	andi	r23, 0x89	; 137
      88:	77 76       	andi	r23, 0x67	; 103
      8a:	76 75       	andi	r23, 0x56	; 86
      8c:	75 75       	andi	r23, 0x55	; 85
      8e:	75 75       	andi	r23, 0x55	; 85
      90:	74 74       	andi	r23, 0x44	; 68
      92:	74 75       	andi	r23, 0x54	; 84
      94:	75 75       	andi	r23, 0x55	; 85
      96:	75 74       	andi	r23, 0x45	; 69
      98:	74 74       	andi	r23, 0x44	; 68
      9a:	74 74       	andi	r23, 0x44	; 68
      9c:	74 74       	andi	r23, 0x44	; 68
      9e:	74 74       	andi	r23, 0x44	; 68
      a0:	74 74       	andi	r23, 0x44	; 68
      a2:	74 75       	andi	r23, 0x54	; 84
      a4:	75 76       	andi	r23, 0x65	; 101
      a6:	77 78       	andi	r23, 0x87	; 135
      a8:	79 7a       	andi	r23, 0xA9	; 169
      aa:	7b 7c       	andi	r23, 0xCB	; 203
      ac:	7d 7e       	andi	r23, 0xED	; 237
      ae:	80 81       	ld	r24, Z
      b0:	82 83       	std	Z+2, r24	; 0x02
      b2:	84 85       	ldd	r24, Z+12	; 0x0c
      b4:	86 86       	std	Z+14, r8	; 0x0e
      b6:	87 88       	ldd	r8, Z+23	; 0x17
      b8:	88 89       	ldd	r24, Y+16	; 0x10
      ba:	89 89       	ldd	r24, Y+17	; 0x11
      bc:	8a 89       	ldd	r24, Y+18	; 0x12
      be:	89 89       	ldd	r24, Y+17	; 0x11
      c0:	88 88       	ldd	r8, Y+16	; 0x10
      c2:	87 86       	std	Z+15, r8	; 0x0f
      c4:	85 83       	std	Z+5, r24	; 0x05
      c6:	82 81       	ldd	r24, Z+2	; 0x02
      c8:	7f 7e       	andi	r23, 0xEF	; 239
      ca:	7c 7b       	andi	r23, 0xBC	; 188
      cc:	79 78       	andi	r23, 0x89	; 137
      ce:	77 76       	andi	r23, 0x67	; 103
      d0:	75 75       	andi	r23, 0x55	; 85
      d2:	74 74       	andi	r23, 0x44	; 68
      d4:	73 73       	andi	r23, 0x33	; 51
      d6:	73 73       	andi	r23, 0x33	; 51
      d8:	73 73       	andi	r23, 0x33	; 51
      da:	73 73       	andi	r23, 0x33	; 51
      dc:	74 74       	andi	r23, 0x44	; 68
      de:	74 75       	andi	r23, 0x54	; 84
      e0:	75 75       	andi	r23, 0x55	; 85
      e2:	76 76       	andi	r23, 0x66	; 102
      e4:	77 77       	andi	r23, 0x77	; 119
      e6:	78 79       	andi	r23, 0x98	; 152
      e8:	79 7a       	andi	r23, 0xA9	; 169
      ea:	7a 7b       	andi	r23, 0xBA	; 186
      ec:	7c 7d       	andi	r23, 0xDC	; 220
      ee:	7d 7e       	andi	r23, 0xED	; 237
      f0:	7f 7f       	andi	r23, 0xFF	; 255
      f2:	80 81       	ld	r24, Z
      f4:	82 82       	std	Z+2, r8	; 0x02
      f6:	83 84       	ldd	r8, Z+11	; 0x0b
      f8:	85 86       	std	Z+13, r8	; 0x0d
      fa:	86 87       	std	Z+14, r24	; 0x0e
      fc:	88 89       	ldd	r24, Y+16	; 0x10
      fe:	89 8a       	std	Y+17, r8	; 0x11
     100:	8a 8b       	std	Y+18, r24	; 0x12
     102:	8b 8b       	std	Y+19, r24	; 0x13
     104:	8b 8c       	ldd	r8, Y+27	; 0x1b
     106:	8c 8b       	std	Y+20, r24	; 0x14
     108:	8b 8b       	std	Y+19, r24	; 0x13
     10a:	8b 8b       	std	Y+19, r24	; 0x13
     10c:	8a 8a       	std	Y+18, r8	; 0x12
     10e:	8a 89       	ldd	r24, Y+18	; 0x12
     110:	89 88       	ldd	r8, Y+17	; 0x11
     112:	88 87       	std	Y+8, r24	; 0x08
     114:	87 86       	std	Z+15, r8	; 0x0f
     116:	86 85       	ldd	r24, Z+14	; 0x0e
     118:	85 84       	ldd	r8, Z+13	; 0x0d
     11a:	84 83       	std	Z+4, r24	; 0x04
     11c:	83 82       	std	Z+3, r8	; 0x03
     11e:	82 81       	ldd	r24, Z+2	; 0x02
     120:	80 80       	ld	r8, Z
     122:	80 7f       	andi	r24, 0xF0	; 240
     124:	7f 7e       	andi	r23, 0xEF	; 239
     126:	7e 7e       	andi	r23, 0xEE	; 238
     128:	7e 7e       	andi	r23, 0xEE	; 238
     12a:	7d 7d       	andi	r23, 0xDD	; 221
     12c:	7d 7d       	andi	r23, 0xDD	; 221
     12e:	7d 7d       	andi	r23, 0xDD	; 221
     130:	7d 7d       	andi	r23, 0xDD	; 221
     132:	7d 7d       	andi	r23, 0xDD	; 221
     134:	7d 7d       	andi	r23, 0xDD	; 221
     136:	7d 7d       	andi	r23, 0xDD	; 221
     138:	7d 7d       	andi	r23, 0xDD	; 221
     13a:	7d 7d       	andi	r23, 0xDD	; 221
     13c:	7c 7c       	andi	r23, 0xCC	; 204
     13e:	7c 7c       	andi	r23, 0xCC	; 204
     140:	7c 7c       	andi	r23, 0xCC	; 204
     142:	7c 7d       	andi	r23, 0xDC	; 220
     144:	7d 7d       	andi	r23, 0xDD	; 221
     146:	7d 7d       	andi	r23, 0xDD	; 221
     148:	7e 7e       	andi	r23, 0xEE	; 238
     14a:	7e 7e       	andi	r23, 0xEE	; 238
     14c:	7f 7f       	andi	r23, 0xFF	; 255
     14e:	7f 7f       	andi	r23, 0xFF	; 255
     150:	80 80       	ld	r8, Z
     152:	80 80       	ld	r8, Z
     154:	80 80       	ld	r8, Z
     156:	80 80       	ld	r8, Z
     158:	80 80       	ld	r8, Z
     15a:	80 80       	ld	r8, Z
     15c:	7f 7f       	andi	r23, 0xFF	; 255
     15e:	7f 7e       	andi	r23, 0xEF	; 239
     160:	7e 7d       	andi	r23, 0xDE	; 222
     162:	7d 7c       	andi	r23, 0xCD	; 205
     164:	7c 7c       	andi	r23, 0xCC	; 204
     166:	7b 7b       	andi	r23, 0xBB	; 187
     168:	7b 7a       	andi	r23, 0xAB	; 171
     16a:	7a 7a       	andi	r23, 0xAA	; 170
     16c:	7a 7a       	andi	r23, 0xAA	; 170
     16e:	7a 7a       	andi	r23, 0xAA	; 170
     170:	7a 7a       	andi	r23, 0xAA	; 170
     172:	7a 7a       	andi	r23, 0xAA	; 170
     174:	7a 7a       	andi	r23, 0xAA	; 170
     176:	79 79       	andi	r23, 0x99	; 153
     178:	79 78       	andi	r23, 0x89	; 137
     17a:	78 78       	andi	r23, 0x88	; 136
     17c:	78 77       	andi	r23, 0x78	; 120
     17e:	77 77       	andi	r23, 0x77	; 119
     180:	77 78       	andi	r23, 0x87	; 135
     182:	78 78       	andi	r23, 0x88	; 136
     184:	78 79       	andi	r23, 0x98	; 152
     186:	79 79       	andi	r23, 0x99	; 153
     188:	7a 7a       	andi	r23, 0xAA	; 170
     18a:	7a 7a       	andi	r23, 0xAA	; 170
     18c:	79 79       	andi	r23, 0x99	; 153
     18e:	79 79       	andi	r23, 0x99	; 153
     190:	78 78       	andi	r23, 0x88	; 136
     192:	78 78       	andi	r23, 0x88	; 136
     194:	78 78       	andi	r23, 0x88	; 136
     196:	79 7a       	andi	r23, 0xA9	; 169
     198:	7b 7c       	andi	r23, 0xCB	; 203
     19a:	7e 80       	ldd	r7, Y+6	; 0x06
     19c:	83 85       	ldd	r24, Z+11	; 0x0b
     19e:	88 8b       	std	Y+16, r24	; 0x10
     1a0:	8e 91       	ld	r24, -X
     1a2:	93 96       	adiw	r26, 0x23	; 35
     1a4:	98 9a       	sbi	0x13, 0	; 19
     1a6:	9c 9d       	mul	r25, r12
     1a8:	9e 9e       	mul	r9, r30
     1aa:	9e 9e       	mul	r9, r30
     1ac:	9d 9c       	mul	r9, r13
     1ae:	9a 99       	sbic	0x13, 2	; 19
     1b0:	97 95       	ror	r25
     1b2:	93 91       	.word	0x9193	; ????
     1b4:	8e 8c       	ldd	r8, Y+30	; 0x1e
     1b6:	89 87       	std	Y+9, r24	; 0x09
     1b8:	84 82       	std	Z+4, r8	; 0x04
     1ba:	80 7d       	andi	r24, 0xD0	; 208
     1bc:	7b 79       	andi	r23, 0x9B	; 155
     1be:	77 75       	andi	r23, 0x57	; 87
     1c0:	73 71       	andi	r23, 0x13	; 19
     1c2:	70 6e       	ori	r23, 0xE0	; 224
     1c4:	6d 6c       	ori	r22, 0xCD	; 205
     1c6:	6b 6b       	ori	r22, 0xBB	; 187
     1c8:	6b 6b       	ori	r22, 0xBB	; 187
     1ca:	6b 6c       	ori	r22, 0xCB	; 203
     1cc:	6d 6e       	ori	r22, 0xED	; 237
     1ce:	70 71       	andi	r23, 0x10	; 16
     1d0:	73 75       	andi	r23, 0x53	; 83
     1d2:	76 77       	andi	r23, 0x76	; 118
     1d4:	79 7a       	andi	r23, 0xA9	; 169
     1d6:	7a 7b       	andi	r23, 0xBA	; 186
     1d8:	7b 7b       	andi	r23, 0xBB	; 187
     1da:	7b 7a       	andi	r23, 0xAB	; 171
     1dc:	79 78       	andi	r23, 0x89	; 137
     1de:	77 75       	andi	r23, 0x57	; 87
     1e0:	74 73       	andi	r23, 0x34	; 52
     1e2:	72 71       	andi	r23, 0x12	; 18
     1e4:	70 70       	andi	r23, 0x00	; 0
     1e6:	70 71       	andi	r23, 0x10	; 16
     1e8:	72 73       	andi	r23, 0x32	; 50
     1ea:	75 77       	andi	r23, 0x75	; 117
     1ec:	7a 7d       	andi	r23, 0xDA	; 218
     1ee:	81 84       	ldd	r8, Z+9	; 0x09
     1f0:	89 8d       	ldd	r24, Y+25	; 0x19
     1f2:	92 96       	adiw	r26, 0x22	; 34
     1f4:	9b 9f       	mul	r25, r27
     1f6:	a4 a8       	ldd	r10, Z+52	; 0x34
     1f8:	ab ae       	std	Y+59, r10	; 0x3b
     1fa:	b1 b3       	in	r27, 0x11	; 17
     1fc:	b4 b4       	in	r11, 0x24	; 36
     1fe:	b3 b2       	in	r11, 0x13	; 19
     200:	b0 ad       	ldd	r27, Z+56	; 0x38
     202:	a9 a5       	ldd	r26, Y+41	; 0x29
     204:	a1 9c       	mul	r10, r1
     206:	97 92       	lat	Z, r9
     208:	8c 88       	ldd	r8, Y+20	; 0x14
     20a:	83 7f       	andi	r24, 0xF3	; 243
     20c:	7b 78       	andi	r23, 0x8B	; 139
     20e:	75 73       	andi	r23, 0x35	; 53
     210:	72 70       	andi	r23, 0x02	; 2
     212:	70 6f       	ori	r23, 0xF0	; 240
     214:	6f 6f       	ori	r22, 0xFF	; 255
     216:	70 70       	andi	r23, 0x00	; 0
     218:	70 70       	andi	r23, 0x00	; 0
     21a:	70 6f       	ori	r23, 0xF0	; 240
     21c:	6f 6e       	ori	r22, 0xEF	; 239
     21e:	6d 6c       	ori	r22, 0xCD	; 205
     220:	6b 69       	ori	r22, 0x9B	; 155
     222:	68 66       	ori	r22, 0x68	; 104
     224:	65 63       	ori	r22, 0x35	; 53
     226:	62 60       	ori	r22, 0x02	; 2
     228:	5f 5e       	subi	r21, 0xEF	; 239
     22a:	5d 5c       	subi	r21, 0xCD	; 205
     22c:	5c 5b       	subi	r21, 0xBC	; 188
     22e:	5b 5b       	subi	r21, 0xBB	; 187
     230:	5c 5c       	subi	r21, 0xCC	; 204
     232:	5d 5f       	subi	r21, 0xFD	; 253
     234:	61 63       	ori	r22, 0x31	; 49
     236:	66 6a       	ori	r22, 0xA6	; 166
     238:	6e 72       	andi	r22, 0x2E	; 46
     23a:	77 7c       	andi	r23, 0xC7	; 199
     23c:	81 87       	std	Z+9, r24	; 0x09
     23e:	8c 92       	st	X, r8
     240:	97 9c       	mul	r9, r7
     242:	a1 a5       	ldd	r26, Z+41	; 0x29
     244:	a9 ab       	std	Y+49, r26	; 0x31
     246:	ad af       	std	Y+61, r26	; 0x3d
     248:	af af       	std	Y+63, r26	; 0x3f
     24a:	ae ac       	ldd	r10, Y+62	; 0x3e
     24c:	a9 a6       	std	Y+41, r10	; 0x29
     24e:	a2 9e       	mul	r10, r18
     250:	9a 95       	dec	r25
     252:	91 8c       	ldd	r9, Z+25	; 0x19
     254:	88 83       	st	Y, r24
     256:	80 7c       	andi	r24, 0xC0	; 192
     258:	79 76       	andi	r23, 0x69	; 105
     25a:	74 72       	andi	r23, 0x24	; 36
     25c:	71 70       	andi	r23, 0x01	; 1
     25e:	6f 6f       	ori	r22, 0xFF	; 255
     260:	6f 6f       	ori	r22, 0xFF	; 255
     262:	6f 6f       	ori	r22, 0xFF	; 255
     264:	6f 70       	andi	r22, 0x0F	; 15
     266:	70 70       	andi	r23, 0x00	; 0
     268:	70 70       	andi	r23, 0x00	; 0
     26a:	6f 6f       	ori	r22, 0xFF	; 255
     26c:	6e 6d       	ori	r22, 0xDE	; 222
     26e:	6c 6a       	ori	r22, 0xAC	; 172
     270:	69 68       	ori	r22, 0x89	; 137
     272:	67 65       	ori	r22, 0x57	; 87
     274:	64 63       	ori	r22, 0x34	; 52
     276:	62 62       	ori	r22, 0x22	; 34
     278:	61 61       	ori	r22, 0x11	; 17
     27a:	62 63       	ori	r22, 0x32	; 50
     27c:	64 65       	ori	r22, 0x54	; 84
     27e:	68 6a       	ori	r22, 0xA8	; 168
     280:	6d 70       	andi	r22, 0x0D	; 13
     282:	74 78       	andi	r23, 0x84	; 132
     284:	7d 81       	ldd	r23, Y+5	; 0x05
     286:	86 8b       	std	Z+22, r24	; 0x16
     288:	90 95       	com	r25
     28a:	9a 9e       	mul	r9, r26
     28c:	a3 a7       	std	Z+43, r26	; 0x2b
     28e:	aa ad       	ldd	r26, Y+58	; 0x3a
     290:	af b1       	in	r26, 0x0f	; 15
     292:	b2 b2       	in	r11, 0x12	; 18
     294:	b2 b1       	in	r27, 0x02	; 2
     296:	af ad       	ldd	r26, Y+63	; 0x3f
     298:	ab a8       	ldd	r10, Y+51	; 0x33
     29a:	a5 a2       	std	Z+37, r10	; 0x25
     29c:	9e 9b       	sbis	0x13, 6	; 19
     29e:	97 93       	lat	Z, r25
     2a0:	90 8d       	ldd	r25, Z+24	; 0x18
     2a2:	8a 87       	std	Y+10, r24	; 0x0a
     2a4:	84 82       	std	Z+4, r8	; 0x04
     2a6:	80 7e       	andi	r24, 0xE0	; 224
     2a8:	7d 7b       	andi	r23, 0xBD	; 189
     2aa:	7a 79       	andi	r23, 0x9A	; 154
     2ac:	79 78       	andi	r23, 0x89	; 137
     2ae:	78 77       	andi	r23, 0x78	; 120
     2b0:	77 77       	andi	r23, 0x77	; 119
     2b2:	77 76       	andi	r23, 0x67	; 103
     2b4:	76 76       	andi	r23, 0x66	; 102
     2b6:	75 74       	andi	r23, 0x45	; 69
     2b8:	74 73       	andi	r23, 0x34	; 52
     2ba:	72 71       	andi	r23, 0x12	; 18
     2bc:	6f 6e       	ori	r22, 0xEF	; 239
     2be:	6c 6b       	ori	r22, 0xBC	; 188
     2c0:	69 67       	ori	r22, 0x79	; 121
     2c2:	66 64       	ori	r22, 0x46	; 70
     2c4:	63 62       	ori	r22, 0x23	; 35
     2c6:	61 61       	ori	r22, 0x11	; 17
     2c8:	61 61       	ori	r22, 0x11	; 17
     2ca:	62 63       	ori	r22, 0x32	; 50
     2cc:	65 68       	ori	r22, 0x85	; 133
     2ce:	6b 6e       	ori	r22, 0xEB	; 235
     2d0:	72 76       	andi	r23, 0x62	; 98
     2d2:	7b 7f       	andi	r23, 0xFB	; 251
     2d4:	84 88       	ldd	r8, Z+20	; 0x14
     2d6:	8d 91       	ld	r24, X+
     2d8:	95 98       	cbi	0x12, 5	; 18
     2da:	9b 9d       	mul	r25, r11
     2dc:	9f a0       	ldd	r9, Y+39	; 0x27
     2de:	a1 a1       	ldd	r26, Z+33	; 0x21
     2e0:	a0 9f       	mul	r26, r16
     2e2:	9d 9b       	sbis	0x13, 5	; 19
     2e4:	99 96       	adiw	r26, 0x29	; 41
     2e6:	93 90       	.word	0x9093	; ????
     2e8:	8d 8a       	std	Y+21, r8	; 0x15
     2ea:	87 85       	ldd	r24, Z+15	; 0x0f
     2ec:	82 80       	ldd	r8, Z+2	; 0x02
     2ee:	7e 7c       	andi	r23, 0xCE	; 206
     2f0:	7a 79       	andi	r23, 0x9A	; 154
     2f2:	77 76       	andi	r23, 0x67	; 103
     2f4:	75 74       	andi	r23, 0x45	; 69
     2f6:	74 73       	andi	r23, 0x34	; 52
     2f8:	72 72       	andi	r23, 0x22	; 34
     2fa:	71 70       	andi	r23, 0x01	; 1
     2fc:	70 6f       	ori	r23, 0xF0	; 240
     2fe:	6e 6e       	ori	r22, 0xEE	; 238
     300:	6d 6c       	ori	r22, 0xCD	; 205
     302:	6b 6a       	ori	r22, 0xAB	; 171
     304:	69 68       	ori	r22, 0x89	; 137
     306:	67 66       	ori	r22, 0x67	; 103
     308:	65 65       	ori	r22, 0x55	; 85
     30a:	64 64       	ori	r22, 0x44	; 68
     30c:	64 64       	ori	r22, 0x44	; 68
     30e:	64 65       	ori	r22, 0x54	; 84
     310:	66 67       	ori	r22, 0x76	; 118
     312:	69 6b       	ori	r22, 0xB9	; 185
     314:	6e 71       	andi	r22, 0x1E	; 30
     316:	74 78       	andi	r23, 0x84	; 132
     318:	7c 80       	ldd	r7, Y+4	; 0x04
     31a:	85 89       	ldd	r24, Z+21	; 0x15
     31c:	8d 92       	st	X+, r8
     31e:	96 9a       	sbi	0x12, 6	; 18
     320:	9d a0       	ldd	r9, Y+37	; 0x25
     322:	a3 a4       	ldd	r10, Z+43	; 0x2b
     324:	a6 a7       	std	Z+46, r26	; 0x2e
     326:	a7 a6       	std	Z+47, r10	; 0x2f
     328:	a5 a4       	ldd	r10, Z+45	; 0x2d
     32a:	a2 a0       	ldd	r10, Z+34	; 0x22
     32c:	9d 9a       	sbi	0x13, 5	; 19
     32e:	97 94       	ror	r9
     330:	91 8e       	std	Z+25, r9	; 0x19
     332:	8c 89       	ldd	r24, Y+20	; 0x14
     334:	87 85       	ldd	r24, Z+15	; 0x0f
     336:	83 81       	ldd	r24, Z+3	; 0x03
     338:	80 7f       	andi	r24, 0xF0	; 240
     33a:	7f 7e       	andi	r23, 0xEF	; 239
     33c:	7e 7e       	andi	r23, 0xEE	; 238
     33e:	7e 7e       	andi	r23, 0xEE	; 238
     340:	7e 7e       	andi	r23, 0xEE	; 238
     342:	7e 7e       	andi	r23, 0xEE	; 238
     344:	7e 7e       	andi	r23, 0xEE	; 238
     346:	7d 7d       	andi	r23, 0xDD	; 221
     348:	7d 7c       	andi	r23, 0xCD	; 205
     34a:	7b 7a       	andi	r23, 0xAB	; 171
     34c:	79 78       	andi	r23, 0x89	; 137
     34e:	76 75       	andi	r23, 0x56	; 86
     350:	73 72       	andi	r23, 0x23	; 35
     352:	71 70       	andi	r23, 0x01	; 1
     354:	6f 6e       	ori	r22, 0xEF	; 239
     356:	6d 6d       	ori	r22, 0xDD	; 221
     358:	6d 6e       	ori	r22, 0xED	; 237
     35a:	6f 70       	andi	r22, 0x0F	; 15
     35c:	72 74       	andi	r23, 0x42	; 66
     35e:	77 7a       	andi	r23, 0xA7	; 167
     360:	7d 81       	ldd	r23, Y+5	; 0x05
     362:	85 89       	ldd	r24, Z+21	; 0x15
     364:	8c 90       	ld	r8, X
     366:	94 97       	sbiw	r26, 0x24	; 36
     368:	99 9b       	sbis	0x13, 1	; 19
     36a:	9d 9e       	mul	r9, r29
     36c:	9e 9e       	mul	r9, r30
     36e:	9d 9b       	sbis	0x13, 5	; 19
     370:	99 97       	sbiw	r26, 0x29	; 41
     372:	94 90       	lpm	r9, Z
     374:	8d 89       	ldd	r24, Y+21	; 0x15
     376:	86 82       	std	Z+6, r8	; 0x06
     378:	7f 7c       	andi	r23, 0xCF	; 207
     37a:	7a 78       	andi	r23, 0x8A	; 138
     37c:	76 74       	andi	r23, 0x46	; 70
     37e:	74 73       	andi	r23, 0x34	; 52
     380:	73 73       	andi	r23, 0x33	; 51
     382:	73 74       	andi	r23, 0x43	; 67
     384:	75 75       	andi	r23, 0x55	; 85
     386:	76 77       	andi	r23, 0x76	; 118
     388:	78 78       	andi	r23, 0x88	; 136
     38a:	79 79       	andi	r23, 0x99	; 153
     38c:	79 79       	andi	r23, 0x99	; 153
     38e:	78 78       	andi	r23, 0x88	; 136
     390:	77 76       	andi	r23, 0x67	; 103
     392:	75 74       	andi	r23, 0x45	; 69
     394:	73 72       	andi	r23, 0x23	; 35
     396:	70 6f       	ori	r23, 0xF0	; 240
     398:	6d 6c       	ori	r22, 0xCD	; 205
     39a:	6b 69       	ori	r22, 0x9B	; 155
     39c:	68 67       	ori	r22, 0x78	; 120
     39e:	67 66       	ori	r22, 0x67	; 103
     3a0:	66 66       	ori	r22, 0x66	; 102
     3a2:	67 68       	ori	r22, 0x87	; 135
     3a4:	6a 6c       	ori	r22, 0xCA	; 202
     3a6:	6e 71       	andi	r22, 0x1E	; 30
     3a8:	75 78       	andi	r23, 0x85	; 133
     3aa:	7c 80       	ldd	r7, Y+4	; 0x04
     3ac:	85 89       	ldd	r24, Z+21	; 0x15
     3ae:	8d 91       	ld	r24, X+
     3b0:	95 98       	cbi	0x12, 5	; 18
     3b2:	9a 9d       	mul	r25, r10
     3b4:	9e 9f       	mul	r25, r30
     3b6:	9f 9e       	mul	r9, r31
     3b8:	9d 9b       	sbis	0x13, 5	; 19
     3ba:	99 96       	adiw	r26, 0x29	; 41
     3bc:	93 8f       	std	Z+27, r25	; 0x1b
     3be:	8c 88       	ldd	r8, Y+20	; 0x14
     3c0:	85 82       	std	Z+5, r8	; 0x05
     3c2:	7f 7c       	andi	r23, 0xCF	; 207
     3c4:	7a 78       	andi	r23, 0x8A	; 138
     3c6:	77 76       	andi	r23, 0x67	; 103
     3c8:	76 76       	andi	r23, 0x66	; 102
     3ca:	76 77       	andi	r23, 0x76	; 118
     3cc:	78 7a       	andi	r23, 0xA8	; 168
     3ce:	7b 7d       	andi	r23, 0xDB	; 219
     3d0:	7e 80       	ldd	r7, Y+6	; 0x06
     3d2:	81 82       	std	Z+1, r8	; 0x01
     3d4:	83 84       	ldd	r8, Z+11	; 0x0b
     3d6:	84 84       	ldd	r8, Z+12	; 0x0c
     3d8:	84 83       	std	Z+4, r24	; 0x04
     3da:	83 82       	std	Z+3, r8	; 0x03
     3dc:	80 7f       	andi	r24, 0xF0	; 240
     3de:	7e 7c       	andi	r23, 0xCE	; 206
     3e0:	7a 79       	andi	r23, 0x9A	; 154
     3e2:	77 76       	andi	r23, 0x67	; 103
     3e4:	74 73       	andi	r23, 0x34	; 52
     3e6:	72 72       	andi	r23, 0x22	; 34
     3e8:	71 71       	andi	r23, 0x11	; 17
     3ea:	72 72       	andi	r23, 0x22	; 34
     3ec:	74 75       	andi	r23, 0x54	; 84
     3ee:	77 79       	andi	r23, 0x97	; 151
     3f0:	7c 7f       	andi	r23, 0xFC	; 252
     3f2:	82 85       	ldd	r24, Z+10	; 0x0a
     3f4:	89 8c       	ldd	r8, Y+25	; 0x19
     3f6:	90 93 96 99 	sts	0x9996, r25
     3fa:	9c 9e       	mul	r9, r28
     3fc:	9f a0       	ldd	r9, Y+39	; 0x27
     3fe:	a1 a0       	ldd	r10, Z+33	; 0x21
     400:	a0 9e       	mul	r10, r16
     402:	9d 9b       	sbis	0x13, 5	; 19
     404:	98 95       	break
     406:	92 8f       	std	Z+26, r25	; 0x1a
     408:	8c 88       	ldd	r8, Y+20	; 0x14
     40a:	85 82       	std	Z+5, r8	; 0x05
     40c:	7f 7d       	andi	r23, 0xDF	; 223
     40e:	7b 79       	andi	r23, 0x9B	; 155
     410:	77 76       	andi	r23, 0x67	; 103
     412:	75 74       	andi	r23, 0x45	; 69
     414:	74 74       	andi	r23, 0x44	; 68
     416:	74 74       	andi	r23, 0x44	; 68
     418:	74 74       	andi	r23, 0x44	; 68
     41a:	74 75       	andi	r23, 0x54	; 84
     41c:	75 75       	andi	r23, 0x55	; 85
     41e:	75 75       	andi	r23, 0x55	; 85
     420:	75 75       	andi	r23, 0x55	; 85
     422:	75 74       	andi	r23, 0x45	; 69
     424:	74 73       	andi	r23, 0x34	; 52
     426:	72 71       	andi	r23, 0x12	; 18
     428:	70 6f       	ori	r23, 0xF0	; 240
     42a:	6e 6d       	ori	r22, 0xDE	; 222
     42c:	6c 6a       	ori	r22, 0xAC	; 172
     42e:	6a 69       	ori	r22, 0x9A	; 154
     430:	68 68       	ori	r22, 0x88	; 136
     432:	68 68       	ori	r22, 0x88	; 136
     434:	69 6b       	ori	r22, 0xB9	; 185
     436:	6c 6e       	ori	r22, 0xEC	; 236
     438:	71 74       	andi	r23, 0x41	; 65
     43a:	77 7b       	andi	r23, 0xB7	; 183
     43c:	7f 83       	std	Y+7, r23	; 0x07
     43e:	87 8b       	std	Z+23, r24	; 0x17
     440:	8f 92       	push	r8
     442:	95 98       	cbi	0x12, 5	; 18
     444:	9b 9c       	mul	r9, r11
     446:	9d 9e       	mul	r9, r29
     448:	9e 9d       	mul	r25, r14
     44a:	9c 9a       	sbi	0x13, 4	; 19
     44c:	98 95       	break
     44e:	92 8e       	std	Z+26, r9	; 0x1a
     450:	8b 88       	ldd	r8, Y+19	; 0x13
     452:	84 81       	ldd	r24, Z+4	; 0x04
     454:	7e 7c       	andi	r23, 0xCE	; 206
     456:	79 77       	andi	r23, 0x79	; 121
     458:	76 75       	andi	r23, 0x56	; 86
     45a:	74 73       	andi	r23, 0x34	; 52
     45c:	73 73       	andi	r23, 0x33	; 51
     45e:	73 73       	andi	r23, 0x33	; 51
     460:	73 74       	andi	r23, 0x43	; 67
     462:	74 74       	andi	r23, 0x44	; 68
     464:	75 75       	andi	r23, 0x55	; 85
     466:	75 75       	andi	r23, 0x55	; 85
     468:	75 75       	andi	r23, 0x55	; 85
     46a:	74 74       	andi	r23, 0x44	; 68
     46c:	74 73       	andi	r23, 0x34	; 52
     46e:	73 72       	andi	r23, 0x23	; 35
     470:	72 71       	andi	r23, 0x12	; 18
     472:	71 70       	andi	r23, 0x01	; 1
     474:	70 70       	andi	r23, 0x00	; 0
     476:	70 70       	andi	r23, 0x00	; 0
     478:	71 71       	andi	r23, 0x11	; 17
     47a:	72 73       	andi	r23, 0x32	; 50
     47c:	75 77       	andi	r23, 0x75	; 117
     47e:	79 7b       	andi	r23, 0xB9	; 185
     480:	7e 81       	ldd	r23, Y+6	; 0x06
     482:	84 88       	ldd	r8, Z+20	; 0x14
     484:	8b 8f       	std	Y+27, r24	; 0x1b
     486:	92 96       	adiw	r26, 0x22	; 34
     488:	99 9c       	mul	r9, r9
     48a:	9f a2       	std	Y+39, r9	; 0x27
     48c:	a4 a5       	ldd	r26, Z+44	; 0x2c
     48e:	a6 a7       	std	Z+46, r26	; 0x2e
     490:	a7 a6       	std	Z+47, r10	; 0x2f
     492:	a5 a3       	std	Z+37, r26	; 0x25
     494:	a1 9e       	mul	r10, r17
     496:	9b 98       	cbi	0x13, 3	; 19
     498:	95 92       	las	Z, r9
     49a:	8e 8b       	std	Y+22, r24	; 0x16
     49c:	88 85       	ldd	r24, Y+8	; 0x08
     49e:	83 80       	ldd	r8, Z+3	; 0x03
     4a0:	7e 7d       	andi	r23, 0xDE	; 222
     4a2:	7b 7a       	andi	r23, 0xAB	; 171
     4a4:	79 79       	andi	r23, 0x99	; 153
     4a6:	78 78       	andi	r23, 0x88	; 136
     4a8:	78 77       	andi	r23, 0x78	; 120
     4aa:	77 77       	andi	r23, 0x77	; 119
     4ac:	77 76       	andi	r23, 0x67	; 103
     4ae:	76 75       	andi	r23, 0x56	; 86
     4b0:	74 73       	andi	r23, 0x34	; 52
     4b2:	72 71       	andi	r23, 0x12	; 18
     4b4:	70 6f       	ori	r23, 0xF0	; 240
     4b6:	6d 6c       	ori	r22, 0xCD	; 205
     4b8:	6b 69       	ori	r22, 0x9B	; 155
     4ba:	68 67       	ori	r22, 0x78	; 120
     4bc:	66 66       	ori	r22, 0x66	; 102
     4be:	65 65       	ori	r22, 0x55	; 85
     4c0:	65 66       	ori	r22, 0x65	; 101
     4c2:	67 68       	ori	r22, 0x87	; 135
     4c4:	69 6b       	ori	r22, 0xB9	; 185
     4c6:	6d 70       	andi	r22, 0x0D	; 13
     4c8:	73 76       	andi	r23, 0x63	; 99
     4ca:	79 7d       	andi	r23, 0xD9	; 217
     4cc:	80 84       	ldd	r8, Z+8	; 0x08
     4ce:	88 8b       	std	Y+16, r24	; 0x10
     4d0:	8f 92       	push	r8
     4d2:	95 97       	sbiw	r26, 0x25	; 37
     4d4:	99 9b       	sbis	0x13, 1	; 19
     4d6:	9c 9d       	mul	r25, r12
     4d8:	9d 9c       	mul	r9, r13
     4da:	9b 9a       	sbi	0x13, 3	; 19
     4dc:	98 96       	adiw	r26, 0x28	; 40
     4de:	94 91       	lpm	r25, Z
     4e0:	8f 8c       	ldd	r8, Y+31	; 0x1f
     4e2:	89 87       	std	Y+9, r24	; 0x09
     4e4:	84 82       	std	Z+4, r8	; 0x04
     4e6:	80 7e       	andi	r24, 0xE0	; 224
     4e8:	7d 7b       	andi	r23, 0xBD	; 189
     4ea:	7a 7a       	andi	r23, 0xAA	; 170
     4ec:	79 79       	andi	r23, 0x99	; 153
     4ee:	78 78       	andi	r23, 0x88	; 136
     4f0:	78 78       	andi	r23, 0x88	; 136
     4f2:	78 78       	andi	r23, 0x88	; 136
     4f4:	78 78       	andi	r23, 0x88	; 136
     4f6:	77 77       	andi	r23, 0x77	; 119
     4f8:	76 75       	andi	r23, 0x56	; 86
     4fa:	74 73       	andi	r23, 0x34	; 52
     4fc:	72 71       	andi	r23, 0x12	; 18
     4fe:	70 6f       	ori	r23, 0xF0	; 240
     500:	6e 6c       	ori	r22, 0xCE	; 206
     502:	6b 6a       	ori	r22, 0xAB	; 171
     504:	69 69       	ori	r22, 0x99	; 153
     506:	68 68       	ori	r22, 0x88	; 136
     508:	67 68       	ori	r22, 0x87	; 135
     50a:	68 69       	ori	r22, 0x98	; 152
     50c:	6a 6b       	ori	r22, 0xBA	; 186
     50e:	6d 70       	andi	r22, 0x0D	; 13
     510:	72 75       	andi	r23, 0x52	; 82
     512:	78 7c       	andi	r23, 0xC8	; 200
     514:	7f 83       	std	Y+7, r23	; 0x07
     516:	87 8a       	std	Z+23, r8	; 0x17
     518:	8e 92       	st	-X, r8
     51a:	95 98       	cbi	0x12, 5	; 18
     51c:	9b 9d       	mul	r25, r11
     51e:	9f a0       	ldd	r9, Y+39	; 0x27
     520:	a1 a1       	ldd	r26, Z+33	; 0x21
     522:	a1 a1       	ldd	r26, Z+33	; 0x21
     524:	a0 9e       	mul	r10, r16
     526:	9c 9a       	sbi	0x13, 4	; 19
     528:	98 96       	adiw	r26, 0x28	; 40
     52a:	93 91       	.word	0x9193	; ????
     52c:	8e 8c       	ldd	r8, Y+30	; 0x1e
     52e:	8a 88       	ldd	r8, Y+18	; 0x12
     530:	86 84       	ldd	r8, Z+14	; 0x0e
     532:	83 81       	ldd	r24, Z+3	; 0x03
     534:	80 80       	ld	r8, Z
     536:	7f 7e       	andi	r23, 0xEF	; 239
     538:	7e 7d       	andi	r23, 0xDE	; 222
     53a:	7d 7c       	andi	r23, 0xCD	; 205
     53c:	7c 7b       	andi	r23, 0xBC	; 188
     53e:	7b 7a       	andi	r23, 0xAB	; 171
     540:	7a 79       	andi	r23, 0x9A	; 154
     542:	78 77       	andi	r23, 0x78	; 120
     544:	76 75       	andi	r23, 0x56	; 86
     546:	74 73       	andi	r23, 0x34	; 52
     548:	71 70       	andi	r23, 0x01	; 1
     54a:	6f 6e       	ori	r22, 0xEF	; 239
     54c:	6d 6c       	ori	r22, 0xCD	; 205
     54e:	6b 6b       	ori	r22, 0xBB	; 187
     550:	6a 6a       	ori	r22, 0xAA	; 170
     552:	6a 6b       	ori	r22, 0xBA	; 186
     554:	6c 6d       	ori	r22, 0xDC	; 220
     556:	6e 70       	andi	r22, 0x0E	; 14
     558:	72 74       	andi	r23, 0x42	; 66
     55a:	77 7a       	andi	r23, 0xA7	; 167
     55c:	7d 80       	ldd	r7, Y+5	; 0x05
     55e:	84 87       	std	Z+12, r24	; 0x0c
     560:	8a 8e       	std	Y+26, r8	; 0x1a
     562:	91 94       	neg	r9
     564:	96 98       	cbi	0x12, 6	; 18
     566:	9a 9b       	sbis	0x13, 2	; 19
     568:	9c 9d       	mul	r25, r12
     56a:	9c 9c       	mul	r9, r12
     56c:	9a 99       	sbic	0x13, 2	; 19
     56e:	97 95       	ror	r25
     570:	92 90       	ld	r9, -Z
     572:	8d 8a       	std	Y+21, r8	; 0x15
     574:	87 85       	ldd	r24, Z+15	; 0x0f
     576:	82 80       	ldd	r8, Z+2	; 0x02
     578:	7d 7b       	andi	r23, 0xBD	; 189
     57a:	7a 78       	andi	r23, 0x8A	; 138
     57c:	77 76       	andi	r23, 0x67	; 103
     57e:	75 75       	andi	r23, 0x55	; 85
     580:	74 74       	andi	r23, 0x44	; 68
     582:	74 73       	andi	r23, 0x34	; 52
     584:	73 73       	andi	r23, 0x33	; 51
     586:	73 73       	andi	r23, 0x33	; 51
     588:	73 72       	andi	r23, 0x23	; 35
     58a:	72 72       	andi	r23, 0x22	; 34
     58c:	71 71       	andi	r23, 0x11	; 17
     58e:	70 6f       	ori	r23, 0xF0	; 240
     590:	6f 6e       	ori	r22, 0xEF	; 239
     592:	6d 6d       	ori	r22, 0xDD	; 221
     594:	6c 6c       	ori	r22, 0xCC	; 204
     596:	6b 6b       	ori	r22, 0xBB	; 187
     598:	6a 6a       	ori	r22, 0xAA	; 170
     59a:	6b 6b       	ori	r22, 0xBB	; 187
     59c:	6c 6d       	ori	r22, 0xDC	; 220
     59e:	6e 70       	andi	r22, 0x0E	; 14
     5a0:	72 74       	andi	r23, 0x42	; 66
     5a2:	76 79       	andi	r23, 0x96	; 150
     5a4:	7c 7f       	andi	r23, 0xFC	; 252
     5a6:	83 86       	std	Z+11, r8	; 0x0b
     5a8:	89 8d       	ldd	r24, Y+25	; 0x19
     5aa:	90 93 95 97 	sts	0x9795, r25
     5ae:	99 9b       	sbis	0x13, 1	; 19
     5b0:	9c 9c       	mul	r9, r12
     5b2:	9c 9c       	mul	r9, r12
     5b4:	9b 9a       	sbi	0x13, 3	; 19
     5b6:	98 96       	adiw	r26, 0x28	; 40
     5b8:	94 92       	xch	Z, r9
     5ba:	90 8d       	ldd	r25, Z+24	; 0x18
     5bc:	8b 88       	ldd	r8, Y+19	; 0x13
     5be:	86 84       	ldd	r8, Z+14	; 0x0e
     5c0:	82 80       	ldd	r8, Z+2	; 0x02
     5c2:	7f 7e       	andi	r23, 0xEF	; 239
     5c4:	7d 7c       	andi	r23, 0xCD	; 205
     5c6:	7b 7b       	andi	r23, 0xBB	; 187
     5c8:	7b 7a       	andi	r23, 0xAB	; 171
     5ca:	7a 7a       	andi	r23, 0xAA	; 170
     5cc:	7a 7a       	andi	r23, 0xAA	; 170
     5ce:	7a 79       	andi	r23, 0x9A	; 154
     5d0:	79 79       	andi	r23, 0x99	; 153
     5d2:	78 78       	andi	r23, 0x88	; 136
     5d4:	77 77       	andi	r23, 0x77	; 119
     5d6:	76 75       	andi	r23, 0x56	; 86
     5d8:	75 74       	andi	r23, 0x45	; 69
     5da:	73 73       	andi	r23, 0x33	; 51
     5dc:	72 72       	andi	r23, 0x22	; 34
     5de:	71 71       	andi	r23, 0x11	; 17
     5e0:	71 71       	andi	r23, 0x11	; 17
     5e2:	71 71       	andi	r23, 0x11	; 17
     5e4:	72 72       	andi	r23, 0x22	; 34
     5e6:	73 74       	andi	r23, 0x43	; 67
     5e8:	76 78       	andi	r23, 0x86	; 134
     5ea:	79 7c       	andi	r23, 0xC9	; 201
     5ec:	7e 81       	ldd	r23, Y+6	; 0x06
     5ee:	83 86       	std	Z+11, r8	; 0x0b
     5f0:	89 8c       	ldd	r8, Y+25	; 0x19
     5f2:	8e 91       	ld	r24, -X
     5f4:	94 96       	adiw	r26, 0x24	; 36
     5f6:	98 9a       	sbi	0x13, 0	; 19
     5f8:	9b 9c       	mul	r9, r11
     5fa:	9c 9c       	mul	r9, r12
     5fc:	9c 9b       	sbis	0x13, 4	; 19
     5fe:	9a 98       	cbi	0x13, 2	; 19
     600:	96 94       	lsr	r9
     602:	92 8f       	std	Z+26, r25	; 0x1a
     604:	8d 8a       	std	Y+21, r8	; 0x15
     606:	88 85       	ldd	r24, Y+8	; 0x08
     608:	83 81       	ldd	r24, Z+3	; 0x03
     60a:	7f 7d       	andi	r23, 0xDF	; 223
     60c:	7c 7a       	andi	r23, 0xAC	; 172
     60e:	79 78       	andi	r23, 0x89	; 137
     610:	77 77       	andi	r23, 0x77	; 119
     612:	76 76       	andi	r23, 0x66	; 102
     614:	76 75       	andi	r23, 0x56	; 86
     616:	75 75       	andi	r23, 0x55	; 85
     618:	74 74       	andi	r23, 0x44	; 68
     61a:	74 74       	andi	r23, 0x44	; 68
     61c:	73 73       	andi	r23, 0x33	; 51
     61e:	72 72       	andi	r23, 0x22	; 34
     620:	71 70       	andi	r23, 0x01	; 1
     622:	70 6f       	ori	r23, 0xF0	; 240
     624:	6e 6d       	ori	r22, 0xDE	; 222
     626:	6d 6c       	ori	r22, 0xCD	; 205
     628:	6b 6b       	ori	r22, 0xBB	; 187
     62a:	6b 6b       	ori	r22, 0xBB	; 187
     62c:	6b 6b       	ori	r22, 0xBB	; 187
     62e:	6c 6d       	ori	r22, 0xDC	; 220
     630:	6e 70       	andi	r22, 0x0E	; 14
     632:	72 74       	andi	r23, 0x42	; 66
     634:	76 79       	andi	r23, 0x96	; 150
     636:	7c 7f       	andi	r23, 0xFC	; 252
     638:	82 85       	ldd	r24, Z+10	; 0x0a
     63a:	89 8c       	ldd	r8, Y+25	; 0x19
     63c:	8f 91       	pop	r24
     63e:	94 96       	adiw	r26, 0x24	; 36
     640:	97 99       	sbic	0x12, 7	; 18
     642:	99 9a       	sbi	0x13, 1	; 19
     644:	9a 99       	sbic	0x13, 2	; 19
     646:	98 97       	sbiw	r26, 0x28	; 40
     648:	95 93       	las	Z, r25
     64a:	91 8f       	std	Z+25, r25	; 0x19
     64c:	8d 8a       	std	Y+21, r8	; 0x15
     64e:	88 86       	std	Y+8, r8	; 0x08
     650:	84 82       	std	Z+4, r8	; 0x04
     652:	80 7e       	andi	r24, 0xE0	; 224
     654:	7d 7b       	andi	r23, 0xBD	; 189
     656:	7a 79       	andi	r23, 0x9A	; 154
     658:	78 78       	andi	r23, 0x88	; 136
     65a:	77 77       	andi	r23, 0x77	; 119
     65c:	77 76       	andi	r23, 0x67	; 103
     65e:	76 76       	andi	r23, 0x66	; 102
     660:	76 76       	andi	r23, 0x66	; 102
     662:	76 76       	andi	r23, 0x66	; 102
     664:	76 76       	andi	r23, 0x66	; 102
     666:	75 75       	andi	r23, 0x55	; 85
     668:	75 74       	andi	r23, 0x45	; 69
     66a:	74 74       	andi	r23, 0x44	; 68
     66c:	73 73       	andi	r23, 0x33	; 51
     66e:	72 72       	andi	r23, 0x22	; 34
     670:	71 71       	andi	r23, 0x11	; 17
     672:	71 71       	andi	r23, 0x11	; 17
     674:	71 71       	andi	r23, 0x11	; 17
     676:	72 73       	andi	r23, 0x32	; 50
     678:	74 75       	andi	r23, 0x54	; 84
     67a:	77 79       	andi	r23, 0x97	; 151
     67c:	7b 7e       	andi	r23, 0xEB	; 235
     67e:	80 83       	st	Z, r24
     680:	86 89       	ldd	r24, Z+22	; 0x16
     682:	8c 8f       	std	Y+28, r24	; 0x1c
     684:	92 95       	swap	r25
     686:	98 9a       	sbi	0x13, 0	; 19
     688:	9b 9d       	mul	r25, r11
     68a:	9e 9e       	mul	r9, r30
     68c:	9f 9e       	mul	r9, r31
     68e:	9d 9c       	mul	r9, r13
     690:	9b 99       	sbic	0x13, 3	; 19
     692:	97 94       	ror	r9
     694:	92 8f       	std	Z+26, r25	; 0x1a
     696:	8c 8a       	std	Y+20, r8	; 0x14
     698:	87 84       	ldd	r8, Z+15	; 0x0f
     69a:	82 80       	ldd	r8, Z+2	; 0x02
     69c:	7e 7c       	andi	r23, 0xCE	; 206
     69e:	7a 79       	andi	r23, 0x9A	; 154
     6a0:	78 77       	andi	r23, 0x78	; 120
     6a2:	76 76       	andi	r23, 0x66	; 102
     6a4:	76 76       	andi	r23, 0x66	; 102
     6a6:	76 76       	andi	r23, 0x66	; 102
     6a8:	76 76       	andi	r23, 0x66	; 102
     6aa:	76 76       	andi	r23, 0x66	; 102
     6ac:	76 76       	andi	r23, 0x66	; 102
     6ae:	76 76       	andi	r23, 0x66	; 102
     6b0:	76 76       	andi	r23, 0x66	; 102
     6b2:	75 75       	andi	r23, 0x55	; 85
     6b4:	74 73       	andi	r23, 0x34	; 52
     6b6:	73 72       	andi	r23, 0x23	; 35
     6b8:	71 70       	andi	r23, 0x01	; 1
     6ba:	70 6f       	ori	r23, 0xF0	; 240
     6bc:	6f 6f       	ori	r22, 0xFF	; 255
     6be:	6f 6f       	ori	r22, 0xFF	; 255
     6c0:	70 71       	andi	r23, 0x10	; 16
     6c2:	72 74       	andi	r23, 0x42	; 66
     6c4:	75 78       	andi	r23, 0x85	; 133
     6c6:	7a 7d       	andi	r23, 0xDA	; 218
     6c8:	80 83       	st	Z, r24
     6ca:	85 88       	ldd	r8, Z+21	; 0x15
     6cc:	8b 8e       	std	Y+27, r8	; 0x1b
     6ce:	90 92 94 96 	sts	0x9694, r9
     6d2:	97 97       	sbiw	r26, 0x27	; 39
     6d4:	98 97       	sbiw	r26, 0x28	; 40
     6d6:	97 95       	ror	r25
     6d8:	94 92       	xch	Z, r9
     6da:	90 8e       	std	Z+24, r9	; 0x18
     6dc:	8b 89       	ldd	r24, Y+19	; 0x13
     6de:	86 84       	ldd	r8, Z+14	; 0x0e
     6e0:	81 7f       	andi	r24, 0xF1	; 241
     6e2:	7c 7a       	andi	r23, 0xAC	; 172
     6e4:	78 77       	andi	r23, 0x78	; 120
     6e6:	75 74       	andi	r23, 0x45	; 69
     6e8:	73 72       	andi	r23, 0x23	; 35
     6ea:	72 72       	andi	r23, 0x22	; 34
     6ec:	71 72       	andi	r23, 0x21	; 33
     6ee:	72 72       	andi	r23, 0x22	; 34
     6f0:	73 73       	andi	r23, 0x33	; 51
     6f2:	74 74       	andi	r23, 0x44	; 68
     6f4:	75 75       	andi	r23, 0x55	; 85
     6f6:	76 76       	andi	r23, 0x66	; 102
     6f8:	76 76       	andi	r23, 0x66	; 102
     6fa:	76 75       	andi	r23, 0x56	; 86
     6fc:	75 75       	andi	r23, 0x55	; 85
     6fe:	74 74       	andi	r23, 0x44	; 68
     700:	73 73       	andi	r23, 0x33	; 51
     702:	72 72       	andi	r23, 0x22	; 34
     704:	72 72       	andi	r23, 0x22	; 34
     706:	72 72       	andi	r23, 0x22	; 34
     708:	73 74       	andi	r23, 0x43	; 67
     70a:	75 77       	andi	r23, 0x75	; 117
     70c:	79 7b       	andi	r23, 0xB9	; 185
     70e:	7e 80       	ldd	r7, Y+6	; 0x06
     710:	83 86       	std	Z+11, r8	; 0x0b
     712:	89 8c       	ldd	r8, Y+25	; 0x19
     714:	8f 92       	push	r8
     716:	95 97       	sbiw	r26, 0x25	; 37
     718:	99 9b       	sbis	0x13, 1	; 19
     71a:	9c 9d       	mul	r25, r12
     71c:	9e 9e       	mul	r9, r30
     71e:	9d 9c       	mul	r9, r13
     720:	9b 9a       	sbi	0x13, 3	; 19
     722:	98 96       	adiw	r26, 0x28	; 40
     724:	94 91       	lpm	r25, Z
     726:	8f 8c       	ldd	r8, Y+31	; 0x1f
     728:	8a 87       	std	Y+10, r24	; 0x0a
     72a:	85 83       	std	Z+5, r24	; 0x05
     72c:	80 7f       	andi	r24, 0xF0	; 240
     72e:	7d 7c       	andi	r23, 0xCD	; 205
     730:	7a 79       	andi	r23, 0x9A	; 154
     732:	79 78       	andi	r23, 0x89	; 137
     734:	78 77       	andi	r23, 0x78	; 120
     736:	77 77       	andi	r23, 0x77	; 119
     738:	77 77       	andi	r23, 0x77	; 119
     73a:	77 78       	andi	r23, 0x87	; 135
     73c:	78 78       	andi	r23, 0x88	; 136
     73e:	78 77       	andi	r23, 0x78	; 120
     740:	77 77       	andi	r23, 0x77	; 119
     742:	77 76       	andi	r23, 0x67	; 103
     744:	76 75       	andi	r23, 0x56	; 86
     746:	75 74       	andi	r23, 0x45	; 69
     748:	74 73       	andi	r23, 0x34	; 52
     74a:	73 72       	andi	r23, 0x23	; 35
     74c:	72 72       	andi	r23, 0x22	; 34
     74e:	73 73       	andi	r23, 0x33	; 51
     750:	74 75       	andi	r23, 0x54	; 84
     752:	76 77       	andi	r23, 0x76	; 118
     754:	79 7b       	andi	r23, 0xB9	; 185
     756:	7d 80       	ldd	r7, Y+5	; 0x05
     758:	82 85       	ldd	r24, Z+10	; 0x0a
     75a:	87 8a       	std	Z+23, r8	; 0x17
     75c:	8c 8f       	std	Y+28, r24	; 0x1c
     75e:	91 93       	st	Z+, r25
     760:	95 96       	adiw	r26, 0x25	; 37
     762:	97 98       	cbi	0x12, 7	; 18
     764:	98 98       	cbi	0x13, 0	; 19
     766:	98 97       	sbiw	r26, 0x28	; 40
     768:	96 95       	lsr	r25
     76a:	93 91       	.word	0x9193	; ????
     76c:	8f 8c       	ldd	r8, Y+31	; 0x1f
     76e:	8a 87       	std	Y+10, r24	; 0x0a
     770:	84 82       	std	Z+4, r8	; 0x04
     772:	80 7d       	andi	r24, 0xD0	; 208
     774:	7b 79       	andi	r23, 0x9B	; 155
     776:	77 76       	andi	r23, 0x67	; 103
     778:	74 73       	andi	r23, 0x34	; 52
     77a:	72 71       	andi	r23, 0x12	; 18
     77c:	71 70       	andi	r23, 0x01	; 1
     77e:	70 70       	andi	r23, 0x00	; 0
     780:	70 70       	andi	r23, 0x00	; 0
     782:	70 70       	andi	r23, 0x00	; 0
     784:	70 70       	andi	r23, 0x00	; 0
     786:	70 71       	andi	r23, 0x10	; 16
     788:	71 70       	andi	r23, 0x01	; 1
     78a:	70 70       	andi	r23, 0x00	; 0
     78c:	70 70       	andi	r23, 0x00	; 0
     78e:	70 6f       	ori	r23, 0xF0	; 240
     790:	6f 6f       	ori	r22, 0xFF	; 255
     792:	6f 6f       	ori	r22, 0xFF	; 255
     794:	6f 6f       	ori	r22, 0xFF	; 255
     796:	70 71       	andi	r23, 0x10	; 16
     798:	72 73       	andi	r23, 0x32	; 50
     79a:	74 76       	andi	r23, 0x64	; 100
     79c:	78 7a       	andi	r23, 0xA8	; 168
     79e:	7c 7f       	andi	r23, 0xFC	; 252
     7a0:	82 84       	ldd	r8, Z+10	; 0x0a
     7a2:	87 8a       	std	Z+23, r8	; 0x17
     7a4:	8d 90       	ld	r8, X+
     7a6:	92 94       	swap	r9
     7a8:	96 98       	cbi	0x12, 6	; 18
     7aa:	99 9a       	sbi	0x13, 1	; 19
     7ac:	9b 9b       	sbis	0x13, 3	; 19
     7ae:	9b 9b       	sbis	0x13, 3	; 19
     7b0:	9a 98       	cbi	0x13, 2	; 19
     7b2:	97 95       	ror	r25
     7b4:	93 91       	.word	0x9193	; ????
     7b6:	8e 8c       	ldd	r8, Y+30	; 0x1e
     7b8:	8a 87       	std	Y+10, r24	; 0x0a
     7ba:	85 83       	std	Z+5, r24	; 0x05
     7bc:	81 7f       	andi	r24, 0xF1	; 241
     7be:	7d 7c       	andi	r23, 0xCD	; 205
     7c0:	7b 7a       	andi	r23, 0xAB	; 171
     7c2:	79 78       	andi	r23, 0x89	; 137
     7c4:	78 77       	andi	r23, 0x78	; 120
     7c6:	77 77       	andi	r23, 0x77	; 119
     7c8:	77 77       	andi	r23, 0x77	; 119
     7ca:	77 77       	andi	r23, 0x77	; 119
     7cc:	76 76       	andi	r23, 0x66	; 102
     7ce:	76 76       	andi	r23, 0x66	; 102
     7d0:	76 76       	andi	r23, 0x66	; 102
     7d2:	76 75       	andi	r23, 0x56	; 86
     7d4:	75 75       	andi	r23, 0x55	; 85
     7d6:	74 74       	andi	r23, 0x44	; 68
     7d8:	74 74       	andi	r23, 0x44	; 68
     7da:	74 74       	andi	r23, 0x44	; 68
     7dc:	74 74       	andi	r23, 0x44	; 68
     7de:	74 75       	andi	r23, 0x54	; 84
     7e0:	76 77       	andi	r23, 0x76	; 118
     7e2:	78 79       	andi	r23, 0x98	; 152
     7e4:	7b 7d       	andi	r23, 0xDB	; 219
     7e6:	7f 81       	ldd	r23, Y+7	; 0x07
     7e8:	83 85       	ldd	r24, Z+11	; 0x0b
     7ea:	88 8a       	std	Y+16, r8	; 0x10
     7ec:	8d 8f       	std	Y+29, r24	; 0x1d
     7ee:	91 93       	st	Z+, r25
     7f0:	95 97       	sbiw	r26, 0x25	; 37
     7f2:	98 99       	sbic	0x13, 0	; 19
     7f4:	9a 9a       	sbi	0x13, 2	; 19
     7f6:	9a 9a       	sbi	0x13, 2	; 19
     7f8:	99 98       	cbi	0x13, 1	; 19
     7fa:	96 94       	lsr	r9
     7fc:	92 90       	ld	r9, -Z
     7fe:	8e 8b       	std	Y+22, r24	; 0x16
     800:	89 86       	std	Y+9, r8	; 0x09
     802:	84 81       	ldd	r24, Z+4	; 0x04
     804:	7f 7d       	andi	r23, 0xDF	; 223
     806:	7b 7a       	andi	r23, 0xAB	; 171
     808:	78 77       	andi	r23, 0x78	; 120
     80a:	76 75       	andi	r23, 0x56	; 86
     80c:	74 73       	andi	r23, 0x34	; 52
     80e:	73 73       	andi	r23, 0x33	; 51
     810:	72 72       	andi	r23, 0x22	; 34
     812:	72 72       	andi	r23, 0x22	; 34
     814:	72 72       	andi	r23, 0x22	; 34
     816:	72 72       	andi	r23, 0x22	; 34
     818:	72 71       	andi	r23, 0x12	; 18
     81a:	71 71       	andi	r23, 0x11	; 17
     81c:	71 70       	andi	r23, 0x01	; 1
     81e:	70 70       	andi	r23, 0x00	; 0
     820:	6f 6f       	ori	r22, 0xFF	; 255
     822:	6f 6f       	ori	r22, 0xFF	; 255
     824:	6f 6f       	ori	r22, 0xFF	; 255
     826:	6f 6f       	ori	r22, 0xFF	; 255
     828:	70 71       	andi	r23, 0x10	; 16
     82a:	72 73       	andi	r23, 0x32	; 50
     82c:	75 77       	andi	r23, 0x75	; 117
     82e:	79 7b       	andi	r23, 0xB9	; 185
     830:	7d 80       	ldd	r7, Y+5	; 0x05
     832:	82 85       	ldd	r24, Z+10	; 0x0a
     834:	88 8a       	std	Y+16, r8	; 0x10
     836:	8d 8f       	std	Y+29, r24	; 0x1d
     838:	92 94       	swap	r9
     83a:	95 96       	adiw	r26, 0x25	; 37
     83c:	97 98       	cbi	0x12, 7	; 18
     83e:	98 98       	cbi	0x13, 0	; 19
     840:	98 97       	sbiw	r26, 0x28	; 40
     842:	95 94       	asr	r9
     844:	92 90       	ld	r9, -Z
     846:	8e 8c       	ldd	r8, Y+30	; 0x1e
     848:	8a 87       	std	Y+10, r24	; 0x0a
     84a:	85 83       	std	Z+5, r24	; 0x05
     84c:	81 7f       	andi	r24, 0xF1	; 241
     84e:	7e 7c       	andi	r23, 0xCE	; 206
     850:	7b 79       	andi	r23, 0x9B	; 155
     852:	78 78       	andi	r23, 0x88	; 136
     854:	77 76       	andi	r23, 0x67	; 103
     856:	76 76       	andi	r23, 0x66	; 102
     858:	76 75       	andi	r23, 0x56	; 86
     85a:	75 75       	andi	r23, 0x55	; 85
     85c:	75 75       	andi	r23, 0x55	; 85
     85e:	75 75       	andi	r23, 0x55	; 85
     860:	75 75       	andi	r23, 0x55	; 85
     862:	75 75       	andi	r23, 0x55	; 85
     864:	75 75       	andi	r23, 0x55	; 85
     866:	74 74       	andi	r23, 0x44	; 68
     868:	74 74       	andi	r23, 0x44	; 68
     86a:	74 74       	andi	r23, 0x44	; 68
     86c:	74 74       	andi	r23, 0x44	; 68
     86e:	75 75       	andi	r23, 0x55	; 85
     870:	76 76       	andi	r23, 0x66	; 102
     872:	77 78       	andi	r23, 0x87	; 135
     874:	79 7b       	andi	r23, 0xB9	; 185
     876:	7d 7e       	andi	r23, 0xED	; 237
     878:	80 82       	st	Z, r8
     87a:	85 87       	std	Z+13, r24	; 0x0d
     87c:	89 8c       	ldd	r8, Y+25	; 0x19
     87e:	8e 90       	ld	r8, -X
     880:	92 94       	swap	r9
     882:	96 97       	sbiw	r26, 0x26	; 38
     884:	99 99       	sbic	0x13, 1	; 19
     886:	9a 9a       	sbi	0x13, 2	; 19
     888:	9a 99       	sbic	0x13, 2	; 19
     88a:	98 97       	sbiw	r26, 0x28	; 40
     88c:	95 93       	las	Z, r25
     88e:	91 8f       	std	Z+25, r25	; 0x19
     890:	8d 8b       	std	Y+21, r24	; 0x15
     892:	88 86       	std	Y+8, r8	; 0x08
     894:	83 81       	ldd	r24, Z+3	; 0x03
     896:	7f 7d       	andi	r23, 0xDF	; 223
     898:	7b 7a       	andi	r23, 0xAB	; 171
     89a:	78 77       	andi	r23, 0x78	; 120
     89c:	76 76       	andi	r23, 0x66	; 102
     89e:	75 75       	andi	r23, 0x55	; 85
     8a0:	74 74       	andi	r23, 0x44	; 68
     8a2:	74 74       	andi	r23, 0x44	; 68
     8a4:	74 74       	andi	r23, 0x44	; 68
     8a6:	74 74       	andi	r23, 0x44	; 68
     8a8:	74 74       	andi	r23, 0x44	; 68
     8aa:	74 74       	andi	r23, 0x44	; 68
     8ac:	73 73       	andi	r23, 0x33	; 51
     8ae:	73 72       	andi	r23, 0x23	; 35
     8b0:	72 72       	andi	r23, 0x22	; 34
     8b2:	71 71       	andi	r23, 0x11	; 17
     8b4:	71 71       	andi	r23, 0x11	; 17
     8b6:	71 71       	andi	r23, 0x11	; 17
     8b8:	71 71       	andi	r23, 0x11	; 17
     8ba:	72 73       	andi	r23, 0x32	; 50
     8bc:	74 75       	andi	r23, 0x54	; 84
     8be:	77 78       	andi	r23, 0x87	; 135
     8c0:	7a 7c       	andi	r23, 0xCA	; 202
     8c2:	7e 81       	ldd	r23, Y+6	; 0x06
     8c4:	83 86       	std	Z+11, r8	; 0x0b
     8c6:	88 8a       	std	Y+16, r8	; 0x10
     8c8:	8d 8f       	std	Y+29, r24	; 0x1d
     8ca:	91 93       	st	Z+, r25
     8cc:	94 95       	.word	0x9594	; ????
     8ce:	96 96       	adiw	r26, 0x26	; 38
     8d0:	96 96       	adiw	r26, 0x26	; 38
     8d2:	95 94       	asr	r9
     8d4:	93 91       	.word	0x9193	; ????
     8d6:	8f 8d       	ldd	r24, Y+31	; 0x1f
     8d8:	8b 89       	ldd	r24, Y+19	; 0x13
     8da:	86 84       	ldd	r8, Z+14	; 0x0e
     8dc:	82 7f       	andi	r24, 0xF2	; 242
     8de:	7d 7b       	andi	r23, 0xBD	; 189
     8e0:	7a 78       	andi	r23, 0x8A	; 138
     8e2:	77 76       	andi	r23, 0x67	; 103
     8e4:	75 74       	andi	r23, 0x45	; 69
     8e6:	74 73       	andi	r23, 0x34	; 52
     8e8:	73 73       	andi	r23, 0x33	; 51
     8ea:	73 74       	andi	r23, 0x43	; 67
     8ec:	74 74       	andi	r23, 0x44	; 68
     8ee:	74 75       	andi	r23, 0x54	; 84
     8f0:	75 75       	andi	r23, 0x55	; 85
     8f2:	75 75       	andi	r23, 0x55	; 85
     8f4:	75 75       	andi	r23, 0x55	; 85
     8f6:	75 75       	andi	r23, 0x55	; 85
     8f8:	74 74       	andi	r23, 0x44	; 68
     8fa:	74 74       	andi	r23, 0x44	; 68
     8fc:	74 74       	andi	r23, 0x44	; 68
     8fe:	74 74       	andi	r23, 0x44	; 68
     900:	74 75       	andi	r23, 0x54	; 84
     902:	75 76       	andi	r23, 0x65	; 101
     904:	77 79       	andi	r23, 0x97	; 151
     906:	7a 7c       	andi	r23, 0xCA	; 202
     908:	7e 80       	ldd	r7, Y+6	; 0x06
     90a:	82 84       	ldd	r8, Z+10	; 0x0a
     90c:	86 89       	ldd	r24, Z+22	; 0x16
     90e:	8b 8e       	std	Y+27, r8	; 0x1b
     910:	90 92 94 96 	sts	0x9694, r9
     914:	97 99       	sbic	0x12, 7	; 18
     916:	99 9a       	sbi	0x13, 1	; 19
     918:	9a 9a       	sbi	0x13, 2	; 19
     91a:	99 98       	cbi	0x13, 1	; 19
     91c:	97 95       	ror	r25
     91e:	93 91       	.word	0x9193	; ????
     920:	8f 8d       	ldd	r24, Y+31	; 0x1f
     922:	8a 88       	ldd	r8, Y+18	; 0x12
     924:	85 83       	std	Z+5, r24	; 0x05
     926:	81 7e       	andi	r24, 0xE1	; 225
     928:	7c 7b       	andi	r23, 0xBC	; 188
     92a:	79 78       	andi	r23, 0x89	; 137
     92c:	77 76       	andi	r23, 0x67	; 103
     92e:	75 75       	andi	r23, 0x55	; 85
     930:	75 75       	andi	r23, 0x55	; 85
     932:	75 75       	andi	r23, 0x55	; 85
     934:	75 75       	andi	r23, 0x55	; 85
     936:	75 76       	andi	r23, 0x65	; 101
     938:	76 76       	andi	r23, 0x66	; 102
     93a:	76 76       	andi	r23, 0x66	; 102
     93c:	76 76       	andi	r23, 0x66	; 102
     93e:	76 76       	andi	r23, 0x66	; 102
     940:	76 76       	andi	r23, 0x66	; 102
     942:	75 75       	andi	r23, 0x55	; 85
     944:	75 75       	andi	r23, 0x55	; 85
     946:	75 75       	andi	r23, 0x55	; 85
     948:	75 75       	andi	r23, 0x55	; 85
     94a:	76 76       	andi	r23, 0x66	; 102
     94c:	77 78       	andi	r23, 0x87	; 135
     94e:	79 7a       	andi	r23, 0xA9	; 169
     950:	7c 7d       	andi	r23, 0xDC	; 220
     952:	7f 81       	ldd	r23, Y+7	; 0x07
     954:	83 85       	ldd	r24, Z+11	; 0x0b
     956:	87 89       	ldd	r24, Z+23	; 0x17
     958:	8b 8d       	ldd	r24, Y+27	; 0x1b
     95a:	8f 91       	pop	r24
     95c:	92 93       	st	-Z, r25
     95e:	94 95       	.word	0x9594	; ????
     960:	95 95       	asr	r25
     962:	95 94       	asr	r9
     964:	93 91       	.word	0x9193	; ????
     966:	8f 8d       	ldd	r24, Y+31	; 0x1f
     968:	8b 89       	ldd	r24, Y+19	; 0x13
     96a:	86 84       	ldd	r8, Z+14	; 0x0e
     96c:	81 7f       	andi	r24, 0xF1	; 241
     96e:	7d 7b       	andi	r23, 0xBD	; 189
     970:	79 77       	andi	r23, 0x79	; 121
     972:	76 75       	andi	r23, 0x56	; 86
     974:	74 73       	andi	r23, 0x34	; 52
     976:	72 72       	andi	r23, 0x22	; 34
     978:	72 72       	andi	r23, 0x22	; 34
     97a:	72 73       	andi	r23, 0x32	; 50
     97c:	73 73       	andi	r23, 0x33	; 51
     97e:	73 74       	andi	r23, 0x43	; 67
     980:	74 74       	andi	r23, 0x44	; 68
     982:	75 75       	andi	r23, 0x55	; 85
     984:	75 75       	andi	r23, 0x55	; 85
     986:	75 75       	andi	r23, 0x55	; 85
     988:	75 74       	andi	r23, 0x45	; 69
     98a:	74 74       	andi	r23, 0x44	; 68
     98c:	74 74       	andi	r23, 0x44	; 68
     98e:	74 74       	andi	r23, 0x44	; 68
     990:	75 75       	andi	r23, 0x55	; 85
     992:	75 76       	andi	r23, 0x65	; 101
     994:	77 78       	andi	r23, 0x87	; 135
     996:	79 7a       	andi	r23, 0xA9	; 169
     998:	7c 7d       	andi	r23, 0xDC	; 220
     99a:	7f 81       	ldd	r23, Y+7	; 0x07
     99c:	83 85       	ldd	r24, Z+11	; 0x0b
     99e:	88 8a       	std	Y+16, r8	; 0x10
     9a0:	8c 8e       	std	Y+28, r8	; 0x1c
     9a2:	90 92 94 95 	sts	0x9594, r9
     9a6:	96 97       	sbiw	r26, 0x26	; 38
     9a8:	98 98       	cbi	0x13, 0	; 19
     9aa:	97 97       	sbiw	r26, 0x27	; 39
     9ac:	96 95       	lsr	r25
     9ae:	93 91       	.word	0x9193	; ????
     9b0:	90 8d       	ldd	r25, Z+24	; 0x18
     9b2:	8b 89       	ldd	r24, Y+19	; 0x13
     9b4:	86 84       	ldd	r8, Z+14	; 0x0e
     9b6:	82 80       	ldd	r8, Z+2	; 0x02
     9b8:	7e 7c       	andi	r23, 0xCE	; 206
     9ba:	7b 7a       	andi	r23, 0xAB	; 171
     9bc:	79 78       	andi	r23, 0x89	; 137
     9be:	77 77       	andi	r23, 0x77	; 119
     9c0:	76 76       	andi	r23, 0x66	; 102
     9c2:	76 76       	andi	r23, 0x66	; 102
     9c4:	76 76       	andi	r23, 0x66	; 102
     9c6:	76 76       	andi	r23, 0x66	; 102
     9c8:	76 77       	andi	r23, 0x76	; 118
     9ca:	77 77       	andi	r23, 0x77	; 119
     9cc:	77 77       	andi	r23, 0x77	; 119
     9ce:	77 76       	andi	r23, 0x67	; 103
     9d0:	76 76       	andi	r23, 0x66	; 102
     9d2:	76 76       	andi	r23, 0x66	; 102
     9d4:	76 76       	andi	r23, 0x66	; 102
     9d6:	76 77       	andi	r23, 0x76	; 118
     9d8:	77 77       	andi	r23, 0x77	; 119
     9da:	78 78       	andi	r23, 0x88	; 136
     9dc:	79 7a       	andi	r23, 0xA9	; 169
     9de:	7b 7c       	andi	r23, 0xCB	; 203
     9e0:	7d 7f       	andi	r23, 0xFD	; 253
     9e2:	80 82       	st	Z, r8
     9e4:	84 85       	ldd	r24, Z+12	; 0x0c
     9e6:	87 89       	ldd	r24, Z+23	; 0x17
     9e8:	8c 8e       	std	Y+28, r8	; 0x1c
     9ea:	8f 91       	pop	r24
     9ec:	93 94       	inc	r9
     9ee:	95 96       	adiw	r26, 0x25	; 37
     9f0:	97 97       	sbiw	r26, 0x27	; 39
     9f2:	97 96       	adiw	r26, 0x27	; 39
     9f4:	95 94       	asr	r9
     9f6:	93 91       	.word	0x9193	; ????
     9f8:	8f 8c       	ldd	r8, Y+31	; 0x1f
     9fa:	8a 87       	std	Y+10, r24	; 0x0a
     9fc:	85 82       	std	Z+5, r8	; 0x05
     9fe:	80 7d       	andi	r24, 0xD0	; 208
     a00:	7b 79       	andi	r23, 0x9B	; 155
     a02:	78 76       	andi	r23, 0x68	; 104
     a04:	75 74       	andi	r23, 0x45	; 69
     a06:	73 72       	andi	r23, 0x23	; 35
     a08:	72 72       	andi	r23, 0x22	; 34
     a0a:	72 72       	andi	r23, 0x22	; 34
     a0c:	72 72       	andi	r23, 0x22	; 34
     a0e:	72 72       	andi	r23, 0x22	; 34
     a10:	72 72       	andi	r23, 0x22	; 34
     a12:	72 72       	andi	r23, 0x22	; 34
     a14:	72 72       	andi	r23, 0x22	; 34
     a16:	72 72       	andi	r23, 0x22	; 34
     a18:	72 72       	andi	r23, 0x22	; 34
     a1a:	72 72       	andi	r23, 0x22	; 34
     a1c:	72 73       	andi	r23, 0x32	; 50
     a1e:	73 73       	andi	r23, 0x33	; 51
     a20:	74 74       	andi	r23, 0x44	; 68
     a22:	75 76       	andi	r23, 0x65	; 101
     a24:	77 78       	andi	r23, 0x87	; 135
     a26:	79 7a       	andi	r23, 0xA9	; 169
     a28:	7b 7d       	andi	r23, 0xDB	; 219
     a2a:	7f 80       	ldd	r7, Y+7	; 0x07
     a2c:	82 84       	ldd	r8, Z+10	; 0x0a
     a2e:	86 88       	ldd	r8, Z+22	; 0x16
     a30:	8a 8c       	ldd	r8, Y+26	; 0x1a
     a32:	8e 90       	ld	r8, -X
     a34:	91 93       	st	Z+, r25
     a36:	94 95       	.word	0x9594	; ????
     a38:	96 96       	adiw	r26, 0x26	; 38
     a3a:	96 95       	lsr	r25
     a3c:	95 94       	asr	r9
     a3e:	92 91       	ld	r25, -Z
     a40:	8f 8d       	ldd	r24, Y+31	; 0x1f
     a42:	8b 89       	ldd	r24, Y+19	; 0x13
     a44:	86 84       	ldd	r8, Z+14	; 0x0e
     a46:	82 80       	ldd	r8, Z+2	; 0x02
     a48:	7e 7c       	andi	r23, 0xCE	; 206
     a4a:	7a 79       	andi	r23, 0x9A	; 154
     a4c:	78 77       	andi	r23, 0x78	; 120
     a4e:	76 76       	andi	r23, 0x66	; 102
     a50:	75 75       	andi	r23, 0x55	; 85
     a52:	75 75       	andi	r23, 0x55	; 85
     a54:	75 75       	andi	r23, 0x55	; 85
     a56:	75 75       	andi	r23, 0x55	; 85
     a58:	75 76       	andi	r23, 0x65	; 101
     a5a:	76 76       	andi	r23, 0x66	; 102
     a5c:	76 76       	andi	r23, 0x66	; 102
     a5e:	76 76       	andi	r23, 0x66	; 102
     a60:	76 76       	andi	r23, 0x66	; 102
     a62:	76 76       	andi	r23, 0x66	; 102
     a64:	76 76       	andi	r23, 0x66	; 102
     a66:	76 77       	andi	r23, 0x76	; 118
     a68:	77 78       	andi	r23, 0x87	; 135
     a6a:	78 79       	andi	r23, 0x98	; 152
     a6c:	79 7a       	andi	r23, 0xA9	; 169
     a6e:	7b 7c       	andi	r23, 0xCB	; 203
     a70:	7d 7f       	andi	r23, 0xFD	; 253
     a72:	80 82       	st	Z, r8
     a74:	83 85       	ldd	r24, Z+11	; 0x0b
     a76:	87 89       	ldd	r24, Z+23	; 0x17
     a78:	8b 8d       	ldd	r24, Y+27	; 0x1b
     a7a:	8f 90       	pop	r8
     a7c:	92 94       	swap	r9
     a7e:	95 96       	adiw	r26, 0x25	; 37
     a80:	97 98       	cbi	0x12, 7	; 18
     a82:	98 98       	cbi	0x13, 0	; 19
     a84:	97 96       	adiw	r26, 0x27	; 39
     a86:	95 94       	asr	r9
     a88:	92 90       	ld	r9, -Z
     a8a:	8e 8b       	std	Y+22, r24	; 0x16
     a8c:	89 86       	std	Y+9, r8	; 0x09
     a8e:	84 81       	ldd	r24, Z+4	; 0x04
     a90:	7f 7d       	andi	r23, 0xDF	; 223
     a92:	7b 79       	andi	r23, 0x9B	; 155
     a94:	78 77       	andi	r23, 0x78	; 120
     a96:	75 75       	andi	r23, 0x55	; 85
     a98:	74 73       	andi	r23, 0x34	; 52
     a9a:	73 73       	andi	r23, 0x33	; 51
     a9c:	73 73       	andi	r23, 0x33	; 51
     a9e:	73 73       	andi	r23, 0x33	; 51
     aa0:	73 73       	andi	r23, 0x33	; 51
     aa2:	73 73       	andi	r23, 0x33	; 51
     aa4:	73 73       	andi	r23, 0x33	; 51
     aa6:	72 72       	andi	r23, 0x22	; 34
     aa8:	72 72       	andi	r23, 0x22	; 34
     aaa:	72 72       	andi	r23, 0x22	; 34
     aac:	72 72       	andi	r23, 0x22	; 34
     aae:	73 73       	andi	r23, 0x33	; 51
     ab0:	73 74       	andi	r23, 0x43	; 67
     ab2:	74 75       	andi	r23, 0x54	; 84
     ab4:	76 77       	andi	r23, 0x76	; 118
     ab6:	78 79       	andi	r23, 0x98	; 152
     ab8:	7a 7b       	andi	r23, 0xBA	; 186
     aba:	7d 7e       	andi	r23, 0xED	; 237
     abc:	80 81       	ld	r24, Z
     abe:	83 85       	ldd	r24, Z+11	; 0x0b
     ac0:	87 89       	ldd	r24, Z+23	; 0x17
     ac2:	8b 8d       	ldd	r24, Y+27	; 0x1b
     ac4:	8e 90       	ld	r8, -X
     ac6:	92 93       	st	-Z, r25
     ac8:	94 95       	.word	0x9594	; ????
     aca:	95 95       	asr	r25
     acc:	95 95       	asr	r25
     ace:	94 93       	xch	Z, r25
     ad0:	91 8f       	std	Z+25, r25	; 0x19
     ad2:	8e 8b       	std	Y+22, r24	; 0x16
     ad4:	89 87       	std	Y+9, r24	; 0x09
     ad6:	85 82       	std	Z+5, r8	; 0x05
     ad8:	80 7e       	andi	r24, 0xE0	; 224
     ada:	7c 7a       	andi	r23, 0xAC	; 172
     adc:	79 77       	andi	r23, 0x79	; 121
     ade:	76 75       	andi	r23, 0x56	; 86
     ae0:	75 74       	andi	r23, 0x45	; 69
     ae2:	74 73       	andi	r23, 0x34	; 52
     ae4:	73 73       	andi	r23, 0x33	; 51
     ae6:	73 73       	andi	r23, 0x33	; 51
     ae8:	73 74       	andi	r23, 0x43	; 67
     aea:	74 74       	andi	r23, 0x44	; 68
     aec:	74 74       	andi	r23, 0x44	; 68
     aee:	74 74       	andi	r23, 0x44	; 68
     af0:	74 74       	andi	r23, 0x44	; 68
     af2:	74 74       	andi	r23, 0x44	; 68
     af4:	74 74       	andi	r23, 0x44	; 68
     af6:	74 74       	andi	r23, 0x44	; 68
     af8:	74 74       	andi	r23, 0x44	; 68
     afa:	75 75       	andi	r23, 0x55	; 85
     afc:	76 77       	andi	r23, 0x76	; 118
     afe:	78 79       	andi	r23, 0x98	; 152
     b00:	7a 7b       	andi	r23, 0xBA	; 186
     b02:	7d 7e       	andi	r23, 0xED	; 237
     b04:	80 82       	st	Z, r8
     b06:	83 85       	ldd	r24, Z+11	; 0x0b
     b08:	88 8a       	std	Y+16, r8	; 0x10
     b0a:	8c 8e       	std	Y+28, r8	; 0x1c
     b0c:	90 92 93 95 	sts	0x9593, r9
     b10:	96 97       	sbiw	r26, 0x26	; 38
     b12:	98 98       	cbi	0x13, 0	; 19
     b14:	98 98       	cbi	0x13, 0	; 19
     b16:	97 96       	adiw	r26, 0x27	; 39
     b18:	95 93       	las	Z, r25
     b1a:	92 90       	ld	r9, -Z
     b1c:	8d 8b       	std	Y+21, r24	; 0x15
     b1e:	89 87       	std	Y+9, r24	; 0x09
     b20:	84 82       	std	Z+4, r8	; 0x04
     b22:	80 7e       	andi	r24, 0xE0	; 224
     b24:	7d 7b       	andi	r23, 0xBD	; 189
     b26:	7a 79       	andi	r23, 0x9A	; 154
     b28:	78 78       	andi	r23, 0x88	; 136
     b2a:	77 77       	andi	r23, 0x77	; 119
     b2c:	76 76       	andi	r23, 0x66	; 102
     b2e:	76 76       	andi	r23, 0x66	; 102
     b30:	76 76       	andi	r23, 0x66	; 102
     b32:	76 76       	andi	r23, 0x66	; 102
     b34:	75 75       	andi	r23, 0x55	; 85
     b36:	75 75       	andi	r23, 0x55	; 85
     b38:	74 74       	andi	r23, 0x44	; 68
     b3a:	74 73       	andi	r23, 0x34	; 52
     b3c:	73 73       	andi	r23, 0x33	; 51
     b3e:	73 73       	andi	r23, 0x33	; 51
     b40:	73 73       	andi	r23, 0x33	; 51
     b42:	73 74       	andi	r23, 0x43	; 67
     b44:	74 75       	andi	r23, 0x54	; 84
     b46:	76 77       	andi	r23, 0x76	; 118
     b48:	78 79       	andi	r23, 0x98	; 152
     b4a:	7b 7c       	andi	r23, 0xCB	; 203
     b4c:	7e 80       	ldd	r7, Y+6	; 0x06
     b4e:	82 84       	ldd	r8, Z+10	; 0x0a
     b50:	85 88       	ldd	r8, Z+21	; 0x15
     b52:	89 8b       	std	Y+17, r24	; 0x11
     b54:	8d 8f       	std	Y+29, r24	; 0x1d
     b56:	91 92       	st	Z+, r9
     b58:	93 94       	inc	r9
     b5a:	95 95       	asr	r25
     b5c:	95 95       	asr	r25
     b5e:	94 93       	xch	Z, r25
     b60:	92 91       	ld	r25, -Z
     b62:	8f 8d       	ldd	r24, Y+31	; 0x1f
     b64:	8b 89       	ldd	r24, Y+19	; 0x13
     b66:	87 85       	ldd	r24, Z+15	; 0x0f
     b68:	82 80       	ldd	r8, Z+2	; 0x02
     b6a:	7e 7c       	andi	r23, 0xCE	; 206
     b6c:	7b 79       	andi	r23, 0x9B	; 155
     b6e:	78 77       	andi	r23, 0x78	; 120
     b70:	76 75       	andi	r23, 0x56	; 86
     b72:	75 74       	andi	r23, 0x45	; 69
     b74:	74 74       	andi	r23, 0x44	; 68
     b76:	74 74       	andi	r23, 0x44	; 68
     b78:	74 74       	andi	r23, 0x44	; 68
     b7a:	74 74       	andi	r23, 0x44	; 68
     b7c:	74 74       	andi	r23, 0x44	; 68
     b7e:	74 74       	andi	r23, 0x44	; 68
     b80:	74 73       	andi	r23, 0x34	; 52
     b82:	73 73       	andi	r23, 0x33	; 51
     b84:	73 73       	andi	r23, 0x33	; 51
     b86:	73 72       	andi	r23, 0x23	; 35
     b88:	73 73       	andi	r23, 0x33	; 51
     b8a:	73 73       	andi	r23, 0x33	; 51
     b8c:	74 74       	andi	r23, 0x44	; 68
     b8e:	75 76       	andi	r23, 0x65	; 101
     b90:	77 78       	andi	r23, 0x87	; 135
     b92:	7a 7b       	andi	r23, 0xBA	; 186
     b94:	7d 7f       	andi	r23, 0xFD	; 253
     b96:	81 83       	std	Z+1, r24	; 0x01
     b98:	85 87       	std	Z+13, r24	; 0x0d
     b9a:	89 8b       	std	Y+17, r24	; 0x11
     b9c:	8d 8f       	std	Y+29, r24	; 0x1d
     b9e:	91 92       	st	Z+, r9
     ba0:	94 95       	.word	0x9594	; ????
     ba2:	96 96       	adiw	r26, 0x26	; 38
     ba4:	97 96       	adiw	r26, 0x27	; 39
     ba6:	96 95       	lsr	r25
     ba8:	94 93       	xch	Z, r25
     baa:	91 8f       	std	Z+25, r25	; 0x19
     bac:	8d 8b       	std	Y+21, r24	; 0x15
     bae:	89 87       	std	Y+9, r24	; 0x09
     bb0:	85 82       	std	Z+5, r8	; 0x05
     bb2:	80 7e       	andi	r24, 0xE0	; 224
     bb4:	7d 7b       	andi	r23, 0xBD	; 189
     bb6:	7a 79       	andi	r23, 0x9A	; 154
     bb8:	78 77       	andi	r23, 0x78	; 120
     bba:	76 76       	andi	r23, 0x66	; 102
     bbc:	76 76       	andi	r23, 0x66	; 102
     bbe:	76 76       	andi	r23, 0x66	; 102
     bc0:	76 76       	andi	r23, 0x66	; 102
     bc2:	77 77       	andi	r23, 0x77	; 119
     bc4:	77 77       	andi	r23, 0x77	; 119
     bc6:	77 77       	andi	r23, 0x77	; 119
     bc8:	77 77       	andi	r23, 0x77	; 119
     bca:	76 76       	andi	r23, 0x66	; 102
     bcc:	76 76       	andi	r23, 0x66	; 102
     bce:	76 75       	andi	r23, 0x56	; 86
     bd0:	75 75       	andi	r23, 0x55	; 85
     bd2:	75 76       	andi	r23, 0x65	; 101
     bd4:	76 76       	andi	r23, 0x66	; 102
     bd6:	77 78       	andi	r23, 0x87	; 135
     bd8:	79 7a       	andi	r23, 0xA9	; 169
     bda:	7b 7c       	andi	r23, 0xCB	; 203
     bdc:	7e 7f       	andi	r23, 0xFE	; 254
     bde:	81 83       	std	Z+1, r24	; 0x01
     be0:	85 87       	std	Z+13, r24	; 0x0d
     be2:	88 8a       	std	Y+16, r8	; 0x10
     be4:	8c 8e       	std	Y+28, r8	; 0x1c
     be6:	90 91 93 94 	lds	r25, 0x9493
     bea:	95 95       	asr	r25
     bec:	95 95       	asr	r25
     bee:	95 94       	asr	r9
     bf0:	93 92       	.word	0x9293	; ????
     bf2:	91 8f       	std	Z+25, r25	; 0x19
     bf4:	8d 8b       	std	Y+21, r24	; 0x15
     bf6:	89 87       	std	Y+9, r24	; 0x09
     bf8:	84 82       	std	Z+4, r8	; 0x04
     bfa:	80 7e       	andi	r24, 0xE0	; 224
     bfc:	7c 7a       	andi	r23, 0xAC	; 172
     bfe:	79 78       	andi	r23, 0x89	; 137
     c00:	76 76       	andi	r23, 0x66	; 102
     c02:	75 74       	andi	r23, 0x45	; 69
     c04:	74 74       	andi	r23, 0x44	; 68
     c06:	74 74       	andi	r23, 0x44	; 68
     c08:	74 74       	andi	r23, 0x44	; 68
     c0a:	75 75       	andi	r23, 0x55	; 85
     c0c:	75 75       	andi	r23, 0x55	; 85
     c0e:	75 76       	andi	r23, 0x65	; 101
     c10:	76 76       	andi	r23, 0x66	; 102
     c12:	75 75       	andi	r23, 0x55	; 85
     c14:	75 75       	andi	r23, 0x55	; 85
     c16:	75 75       	andi	r23, 0x55	; 85
     c18:	74 74       	andi	r23, 0x44	; 68
     c1a:	74 74       	andi	r23, 0x44	; 68
     c1c:	74 75       	andi	r23, 0x54	; 84
     c1e:	75 75       	andi	r23, 0x55	; 85
     c20:	76 77       	andi	r23, 0x76	; 118
     c22:	78 79       	andi	r23, 0x98	; 152
     c24:	7a 7b       	andi	r23, 0xBA	; 186
     c26:	7d 7e       	andi	r23, 0xED	; 237
     c28:	80 82       	st	Z, r8
     c2a:	84 86       	std	Z+12, r8	; 0x0c
     c2c:	88 8a       	std	Y+16, r8	; 0x10
     c2e:	8c 8d       	ldd	r24, Y+28	; 0x1c
     c30:	8f 90       	pop	r8
     c32:	92 93       	st	-Z, r25
     c34:	93 94       	inc	r9
     c36:	94 94       	.word	0x9494	; ????
     c38:	93 92       	.word	0x9293	; ????
     c3a:	91 8f       	std	Z+25, r25	; 0x19
     c3c:	8e 8c       	ldd	r8, Y+30	; 0x1e
     c3e:	8a 88       	ldd	r8, Y+18	; 0x12
     c40:	86 84       	ldd	r8, Z+14	; 0x0e
     c42:	81 7f       	andi	r24, 0xF1	; 241
     c44:	7e 7c       	andi	r23, 0xCE	; 206
     c46:	7a 79       	andi	r23, 0x9A	; 154
     c48:	78 77       	andi	r23, 0x78	; 120
     c4a:	76 76       	andi	r23, 0x66	; 102
     c4c:	76 76       	andi	r23, 0x66	; 102
     c4e:	76 76       	andi	r23, 0x66	; 102
     c50:	76 77       	andi	r23, 0x76	; 118
     c52:	77 77       	andi	r23, 0x77	; 119
     c54:	78 78       	andi	r23, 0x88	; 136
     c56:	78 78       	andi	r23, 0x88	; 136
     c58:	79 79       	andi	r23, 0x99	; 153
     c5a:	79 79       	andi	r23, 0x99	; 153
     c5c:	79 79       	andi	r23, 0x99	; 153
     c5e:	78 78       	andi	r23, 0x88	; 136
     c60:	78 78       	andi	r23, 0x88	; 136
     c62:	78 78       	andi	r23, 0x88	; 136
     c64:	78 78       	andi	r23, 0x88	; 136
     c66:	78 78       	andi	r23, 0x88	; 136
     c68:	78 79       	andi	r23, 0x98	; 152
     c6a:	79 7a       	andi	r23, 0xA9	; 169
     c6c:	7b 7c       	andi	r23, 0xCB	; 203
     c6e:	7d 7f       	andi	r23, 0xFD	; 253
     c70:	80 82       	st	Z, r8
     c72:	84 85       	ldd	r24, Z+12	; 0x0c
     c74:	87 89       	ldd	r24, Z+23	; 0x17
     c76:	8b 8d       	ldd	r24, Y+27	; 0x1b
     c78:	8e 90       	ld	r8, -X
     c7a:	92 93       	st	-Z, r25
     c7c:	94 94       	.word	0x9494	; ????
     c7e:	95 95       	asr	r25
     c80:	95 94       	asr	r9
     c82:	93 92       	.word	0x9293	; ????
     c84:	90 8f       	std	Z+24, r25	; 0x18
     c86:	8d 8b       	std	Y+21, r24	; 0x15
     c88:	88 86       	std	Y+8, r8	; 0x08
     c8a:	84 82       	std	Z+4, r8	; 0x04
     c8c:	80 7e       	andi	r24, 0xE0	; 224
     c8e:	7c 7b       	andi	r23, 0xBC	; 188
     c90:	79 78       	andi	r23, 0x89	; 137
     c92:	78 77       	andi	r23, 0x78	; 120
     c94:	77 76       	andi	r23, 0x67	; 103
     c96:	76 76       	andi	r23, 0x66	; 102
     c98:	76 77       	andi	r23, 0x76	; 118
     c9a:	77 77       	andi	r23, 0x77	; 119
     c9c:	78 78       	andi	r23, 0x88	; 136
     c9e:	78 78       	andi	r23, 0x88	; 136
     ca0:	78 78       	andi	r23, 0x88	; 136
     ca2:	78 78       	andi	r23, 0x88	; 136
     ca4:	78 78       	andi	r23, 0x88	; 136
     ca6:	78 77       	andi	r23, 0x78	; 120
     ca8:	77 77       	andi	r23, 0x77	; 119
     caa:	76 76       	andi	r23, 0x66	; 102
     cac:	76 76       	andi	r23, 0x66	; 102
     cae:	75 75       	andi	r23, 0x55	; 85
     cb0:	76 76       	andi	r23, 0x66	; 102
     cb2:	76 77       	andi	r23, 0x76	; 118
     cb4:	78 79       	andi	r23, 0x98	; 152
     cb6:	7a 7b       	andi	r23, 0xBA	; 186
     cb8:	7d 7e       	andi	r23, 0xED	; 237
     cba:	80 82       	st	Z, r8
     cbc:	84 86       	std	Z+12, r8	; 0x0c
     cbe:	88 8a       	std	Y+16, r8	; 0x10
     cc0:	8c 8e       	std	Y+28, r8	; 0x1c
     cc2:	90 91 92 93 	lds	r25, 0x9392
     cc6:	94 94       	.word	0x9494	; ????
     cc8:	94 93       	xch	Z, r25
     cca:	92 91       	ld	r25, -Z
     ccc:	90 8e       	std	Z+24, r9	; 0x18
     cce:	8c 8a       	std	Y+20, r8	; 0x14
     cd0:	88 85       	ldd	r24, Y+8	; 0x08
     cd2:	83 81       	ldd	r24, Z+3	; 0x03
     cd4:	7e 7c       	andi	r23, 0xCE	; 206
     cd6:	7b 79       	andi	r23, 0x9B	; 155
     cd8:	77 76       	andi	r23, 0x67	; 103
     cda:	75 75       	andi	r23, 0x55	; 85
     cdc:	74 74       	andi	r23, 0x44	; 68
     cde:	74 74       	andi	r23, 0x44	; 68
     ce0:	74 75       	andi	r23, 0x54	; 84
     ce2:	75 76       	andi	r23, 0x65	; 101
     ce4:	76 77       	andi	r23, 0x76	; 118
     ce6:	77 78       	andi	r23, 0x87	; 135
     ce8:	78 78       	andi	r23, 0x88	; 136
     cea:	79 79       	andi	r23, 0x99	; 153
     cec:	79 79       	andi	r23, 0x99	; 153
     cee:	79 79       	andi	r23, 0x99	; 153
     cf0:	79 79       	andi	r23, 0x99	; 153
     cf2:	79 79       	andi	r23, 0x99	; 153
     cf4:	78 78       	andi	r23, 0x88	; 136
     cf6:	78 78       	andi	r23, 0x88	; 136
     cf8:	78 78       	andi	r23, 0x88	; 136
     cfa:	79 79       	andi	r23, 0x99	; 153
     cfc:	7a 7b       	andi	r23, 0xBA	; 186
     cfe:	7b 7d       	andi	r23, 0xDB	; 219
     d00:	7e 7f       	andi	r23, 0xFE	; 254
     d02:	81 83       	std	Z+1, r24	; 0x01
     d04:	85 86       	std	Z+13, r8	; 0x0d
     d06:	88 8a       	std	Y+16, r8	; 0x10
     d08:	8c 8e       	std	Y+28, r8	; 0x1c
     d0a:	90 91 93 94 	lds	r25, 0x9493
     d0e:	94 95       	.word	0x9594	; ????
     d10:	95 95       	asr	r25
     d12:	94 93       	xch	Z, r25
     d14:	92 90       	ld	r9, -Z
     d16:	8e 8c       	ldd	r8, Y+30	; 0x1e
     d18:	8a 88       	ldd	r8, Y+18	; 0x12
     d1a:	86 83       	std	Z+6, r24	; 0x06
     d1c:	81 7f       	andi	r24, 0xF1	; 241
     d1e:	7d 7b       	andi	r23, 0xBD	; 189
     d20:	79 78       	andi	r23, 0x89	; 137
     d22:	76 75       	andi	r23, 0x56	; 86
     d24:	75 74       	andi	r23, 0x45	; 69
     d26:	74 74       	andi	r23, 0x44	; 68
     d28:	75 75       	andi	r23, 0x55	; 85
     d2a:	75 76       	andi	r23, 0x65	; 101
     d2c:	77 78       	andi	r23, 0x87	; 135
     d2e:	78 79       	andi	r23, 0x98	; 152
     d30:	79 7a       	andi	r23, 0xA9	; 169
     d32:	7a 7b       	andi	r23, 0xBA	; 186
     d34:	7b 7b       	andi	r23, 0xBB	; 187
     d36:	7b 7b       	andi	r23, 0xBB	; 187
     d38:	7b 7a       	andi	r23, 0xAB	; 171
     d3a:	7a 7a       	andi	r23, 0xAA	; 170
     d3c:	79 79       	andi	r23, 0x99	; 153
     d3e:	79 78       	andi	r23, 0x89	; 137
     d40:	78 78       	andi	r23, 0x88	; 136
     d42:	78 78       	andi	r23, 0x88	; 136
     d44:	79 79       	andi	r23, 0x99	; 153
     d46:	7a 7b       	andi	r23, 0xBA	; 186
     d48:	7c 7d       	andi	r23, 0xDC	; 220
     d4a:	7f 80       	ldd	r7, Y+7	; 0x07
     d4c:	82 84       	ldd	r8, Z+10	; 0x0a
     d4e:	86 88       	ldd	r8, Z+22	; 0x16
     d50:	8a 8b       	std	Y+18, r24	; 0x12
     d52:	8d 8f       	std	Y+29, r24	; 0x1d
     d54:	90 91 92 93 	lds	r25, 0x9392
     d58:	93 93       	.word	0x9393	; ????
     d5a:	92 92       	st	-Z, r9
     d5c:	91 8f       	std	Z+25, r25	; 0x19
     d5e:	8e 8c       	ldd	r8, Y+30	; 0x1e
     d60:	8a 88       	ldd	r8, Y+18	; 0x12
     d62:	86 84       	ldd	r8, Z+14	; 0x0e
     d64:	81 7f       	andi	r24, 0xF1	; 241
     d66:	7d 7b       	andi	r23, 0xBD	; 189
     d68:	79 78       	andi	r23, 0x89	; 137
     d6a:	77 76       	andi	r23, 0x67	; 103
     d6c:	75 74       	andi	r23, 0x45	; 69
     d6e:	74 73       	andi	r23, 0x34	; 52
     d70:	73 73       	andi	r23, 0x33	; 51
     d72:	74 74       	andi	r23, 0x44	; 68
     d74:	74 75       	andi	r23, 0x54	; 84
     d76:	75 76       	andi	r23, 0x65	; 101
     d78:	76 77       	andi	r23, 0x76	; 118
     d7a:	77 77       	andi	r23, 0x77	; 119
     d7c:	77 78       	andi	r23, 0x87	; 135
     d7e:	78 78       	andi	r23, 0x88	; 136
     d80:	78 78       	andi	r23, 0x88	; 136
     d82:	78 77       	andi	r23, 0x78	; 120
     d84:	77 77       	andi	r23, 0x77	; 119
     d86:	77 77       	andi	r23, 0x77	; 119
     d88:	77 77       	andi	r23, 0x77	; 119
     d8a:	77 78       	andi	r23, 0x87	; 135
     d8c:	78 79       	andi	r23, 0x98	; 152
     d8e:	79 7a       	andi	r23, 0xA9	; 169
     d90:	7b 7d       	andi	r23, 0xDB	; 219
     d92:	7e 7f       	andi	r23, 0xFE	; 254
     d94:	81 83       	std	Z+1, r24	; 0x01
     d96:	85 86       	std	Z+13, r8	; 0x0d
     d98:	88 8a       	std	Y+16, r8	; 0x10
     d9a:	8c 8e       	std	Y+28, r8	; 0x1c
     d9c:	8f 91       	pop	r24
     d9e:	92 93       	st	-Z, r25
     da0:	93 94       	inc	r9
     da2:	94 93       	xch	Z, r25
     da4:	93 92       	.word	0x9293	; ????
     da6:	91 8f       	std	Z+25, r25	; 0x19
     da8:	8e 8c       	ldd	r8, Y+30	; 0x1e
     daa:	8a 88       	ldd	r8, Y+18	; 0x12
     dac:	86 83       	std	Z+6, r24	; 0x06
     dae:	81 7f       	andi	r24, 0xF1	; 241
     db0:	7e 7c       	andi	r23, 0xCE	; 206
     db2:	7a 79       	andi	r23, 0x9A	; 154
     db4:	78 77       	andi	r23, 0x78	; 120
     db6:	76 76       	andi	r23, 0x66	; 102
     db8:	76 75       	andi	r23, 0x56	; 86
     dba:	75 76       	andi	r23, 0x65	; 101
     dbc:	76 76       	andi	r23, 0x66	; 102
     dbe:	76 77       	andi	r23, 0x76	; 118
     dc0:	77 78       	andi	r23, 0x87	; 135
     dc2:	78 78       	andi	r23, 0x88	; 136
     dc4:	78 79       	andi	r23, 0x98	; 152
     dc6:	79 79       	andi	r23, 0x99	; 153
     dc8:	79 79       	andi	r23, 0x99	; 153
     dca:	79 79       	andi	r23, 0x99	; 153
     dcc:	79 79       	andi	r23, 0x99	; 153
     dce:	79 79       	andi	r23, 0x99	; 153
     dd0:	79 79       	andi	r23, 0x99	; 153
     dd2:	79 79       	andi	r23, 0x99	; 153
     dd4:	7a 7a       	andi	r23, 0xAA	; 170
     dd6:	7b 7c       	andi	r23, 0xCB	; 203
     dd8:	7d 7e       	andi	r23, 0xED	; 237
     dda:	7f 80       	ldd	r7, Y+7	; 0x07
     ddc:	82 83       	std	Z+2, r24	; 0x02
     dde:	85 87       	std	Z+13, r24	; 0x0d
     de0:	88 8a       	std	Y+16, r8	; 0x10
     de2:	8c 8d       	ldd	r24, Y+28	; 0x1c
     de4:	8f 90       	pop	r8
     de6:	91 92       	st	Z+, r9
     de8:	93 93       	.word	0x9393	; ????
     dea:	93 93       	.word	0x9393	; ????
     dec:	92 92       	st	-Z, r9
     dee:	91 8f       	std	Z+25, r25	; 0x19
     df0:	8e 8c       	ldd	r8, Y+30	; 0x1e
     df2:	8a 88       	ldd	r8, Y+18	; 0x12
     df4:	86 84       	ldd	r8, Z+14	; 0x0e
     df6:	81 7f       	andi	r24, 0xF1	; 241
     df8:	7d 7c       	andi	r23, 0xCD	; 205
     dfa:	7a 79       	andi	r23, 0x9A	; 154
     dfc:	77 76       	andi	r23, 0x67	; 103
     dfe:	76 75       	andi	r23, 0x56	; 86
     e00:	74 74       	andi	r23, 0x44	; 68
     e02:	74 74       	andi	r23, 0x44	; 68
     e04:	74 74       	andi	r23, 0x44	; 68
     e06:	75 75       	andi	r23, 0x55	; 85
     e08:	75 75       	andi	r23, 0x55	; 85
     e0a:	75 76       	andi	r23, 0x65	; 101
     e0c:	76 76       	andi	r23, 0x66	; 102
     e0e:	76 76       	andi	r23, 0x66	; 102
     e10:	76 76       	andi	r23, 0x66	; 102
     e12:	76 76       	andi	r23, 0x66	; 102
     e14:	76 76       	andi	r23, 0x66	; 102
     e16:	76 76       	andi	r23, 0x66	; 102
     e18:	76 77       	andi	r23, 0x76	; 118
     e1a:	77 77       	andi	r23, 0x77	; 119
     e1c:	78 78       	andi	r23, 0x88	; 136
     e1e:	79 7a       	andi	r23, 0xA9	; 169
     e20:	7b 7c       	andi	r23, 0xCB	; 203
     e22:	7d 7e       	andi	r23, 0xED	; 237
     e24:	80 81       	ld	r24, Z
     e26:	83 85       	ldd	r24, Z+11	; 0x0b
     e28:	86 88       	ldd	r8, Z+22	; 0x16
     e2a:	8a 8b       	std	Y+18, r24	; 0x12
     e2c:	8d 8e       	std	Y+29, r8	; 0x1d
     e2e:	90 91 92 92 	lds	r25, 0x9292
     e32:	92 92       	st	-Z, r9
     e34:	92 92       	st	-Z, r9
     e36:	91 90       	ld	r9, Z+
     e38:	8e 8d       	ldd	r24, Y+30	; 0x1e
     e3a:	8b 89       	ldd	r24, Y+19	; 0x13
     e3c:	87 85       	ldd	r24, Z+15	; 0x0f
     e3e:	83 81       	ldd	r24, Z+3	; 0x03
     e40:	7f 7e       	andi	r23, 0xEF	; 239
     e42:	7c 7b       	andi	r23, 0xBC	; 188
     e44:	79 78       	andi	r23, 0x89	; 137
     e46:	78 77       	andi	r23, 0x78	; 120
     e48:	77 76       	andi	r23, 0x67	; 103
     e4a:	76 76       	andi	r23, 0x66	; 102
     e4c:	76 76       	andi	r23, 0x66	; 102
     e4e:	77 77       	andi	r23, 0x77	; 119
     e50:	77 77       	andi	r23, 0x77	; 119
     e52:	77 77       	andi	r23, 0x77	; 119
     e54:	78 78       	andi	r23, 0x88	; 136
     e56:	78 77       	andi	r23, 0x78	; 120
     e58:	77 77       	andi	r23, 0x77	; 119
     e5a:	77 77       	andi	r23, 0x77	; 119
     e5c:	77 77       	andi	r23, 0x77	; 119
     e5e:	77 77       	andi	r23, 0x77	; 119
     e60:	77 77       	andi	r23, 0x77	; 119
     e62:	78 78       	andi	r23, 0x88	; 136
     e64:	78 79       	andi	r23, 0x98	; 152
     e66:	7a 7a       	andi	r23, 0xAA	; 170
     e68:	7b 7c       	andi	r23, 0xCB	; 203
     e6a:	7d 7f       	andi	r23, 0xFD	; 253
     e6c:	80 81       	ld	r24, Z
     e6e:	83 85       	ldd	r24, Z+11	; 0x0b
     e70:	86 88       	ldd	r8, Z+22	; 0x16
     e72:	8a 8c       	ldd	r8, Y+26	; 0x1a
     e74:	8d 8f       	std	Y+29, r24	; 0x1d
     e76:	90 92 93 93 	sts	0x9393, r9
     e7a:	94 94       	.word	0x9494	; ????
     e7c:	94 94       	.word	0x9494	; ????
     e7e:	93 92       	.word	0x9293	; ????
     e80:	90 8f       	std	Z+24, r25	; 0x18
     e82:	8d 8b       	std	Y+21, r24	; 0x15
     e84:	89 87       	std	Y+9, r24	; 0x09
     e86:	85 83       	std	Z+5, r24	; 0x05
     e88:	81 7f       	andi	r24, 0xF1	; 241
     e8a:	7d 7c       	andi	r23, 0xCD	; 205
     e8c:	7a 79       	andi	r23, 0x9A	; 154
     e8e:	78 78       	andi	r23, 0x88	; 136
     e90:	77 77       	andi	r23, 0x77	; 119
     e92:	77 77       	andi	r23, 0x77	; 119
     e94:	77 77       	andi	r23, 0x77	; 119
     e96:	77 78       	andi	r23, 0x87	; 135
     e98:	78 78       	andi	r23, 0x88	; 136
     e9a:	78 78       	andi	r23, 0x88	; 136
     e9c:	78 78       	andi	r23, 0x88	; 136
     e9e:	78 78       	andi	r23, 0x88	; 136
     ea0:	78 77       	andi	r23, 0x78	; 120
     ea2:	77 77       	andi	r23, 0x77	; 119
     ea4:	76 76       	andi	r23, 0x66	; 102
     ea6:	76 75       	andi	r23, 0x56	; 86
     ea8:	75 75       	andi	r23, 0x55	; 85
     eaa:	75 75       	andi	r23, 0x55	; 85
     eac:	75 76       	andi	r23, 0x65	; 101
     eae:	76 77       	andi	r23, 0x76	; 118
     eb0:	78 79       	andi	r23, 0x98	; 152
     eb2:	7a 7b       	andi	r23, 0xBA	; 186
     eb4:	7c 7e       	andi	r23, 0xEC	; 236
     eb6:	80 81       	ld	r24, Z
     eb8:	83 85       	ldd	r24, Z+11	; 0x0b
     eba:	87 89       	ldd	r24, Z+23	; 0x17
     ebc:	8b 8c       	ldd	r8, Y+27	; 0x1b
     ebe:	8e 8f       	std	Y+30, r24	; 0x1e
     ec0:	91 91       	ld	r25, Z+
     ec2:	92 92       	st	-Z, r9
     ec4:	92 92       	st	-Z, r9
     ec6:	91 91       	ld	r25, Z+
     ec8:	8f 8e       	std	Y+31, r8	; 0x1f
     eca:	8c 8a       	std	Y+20, r8	; 0x14
     ecc:	88 86       	std	Y+8, r8	; 0x08
     ece:	84 82       	std	Z+4, r8	; 0x04
     ed0:	80 7e       	andi	r24, 0xE0	; 224
     ed2:	7c 7a       	andi	r23, 0xAC	; 172
     ed4:	79 78       	andi	r23, 0x89	; 137
     ed6:	77 76       	andi	r23, 0x67	; 103
     ed8:	76 76       	andi	r23, 0x66	; 102
     eda:	76 76       	andi	r23, 0x66	; 102
     edc:	76 76       	andi	r23, 0x66	; 102
     ede:	77 77       	andi	r23, 0x77	; 119
     ee0:	78 78       	andi	r23, 0x88	; 136
     ee2:	78 78       	andi	r23, 0x88	; 136
     ee4:	79 79       	andi	r23, 0x99	; 153
     ee6:	79 79       	andi	r23, 0x99	; 153
     ee8:	78 78       	andi	r23, 0x88	; 136
     eea:	78 78       	andi	r23, 0x88	; 136
     eec:	77 77       	andi	r23, 0x77	; 119
     eee:	77 76       	andi	r23, 0x67	; 103
     ef0:	76 76       	andi	r23, 0x66	; 102
     ef2:	76 76       	andi	r23, 0x66	; 102
     ef4:	77 77       	andi	r23, 0x77	; 119
     ef6:	78 78       	andi	r23, 0x88	; 136
     ef8:	79 7a       	andi	r23, 0xA9	; 169
     efa:	7b 7d       	andi	r23, 0xDB	; 219
     efc:	7e 7f       	andi	r23, 0xFE	; 254
     efe:	81 83       	std	Z+1, r24	; 0x01
     f00:	85 86       	std	Z+13, r8	; 0x0d
     f02:	88 8a       	std	Y+16, r8	; 0x10
     f04:	8c 8d       	ldd	r24, Y+28	; 0x1c
     f06:	8f 90       	pop	r8
     f08:	91 92       	st	Z+, r9
     f0a:	93 93       	.word	0x9393	; ????
     f0c:	93 93       	.word	0x9393	; ????
     f0e:	93 92       	.word	0x9293	; ????
     f10:	91 8f       	std	Z+25, r25	; 0x19
     f12:	8e 8c       	ldd	r8, Y+30	; 0x1e
     f14:	8a 88       	ldd	r8, Y+18	; 0x12
     f16:	86 84       	ldd	r8, Z+14	; 0x0e
     f18:	82 80       	ldd	r8, Z+2	; 0x02
     f1a:	7e 7d       	andi	r23, 0xDE	; 222
     f1c:	7b 7a       	andi	r23, 0xAB	; 171
     f1e:	79 78       	andi	r23, 0x89	; 137
     f20:	78 77       	andi	r23, 0x78	; 120
     f22:	77 77       	andi	r23, 0x77	; 119
     f24:	77 78       	andi	r23, 0x87	; 135
     f26:	78 78       	andi	r23, 0x88	; 136
     f28:	78 79       	andi	r23, 0x98	; 152
     f2a:	79 79       	andi	r23, 0x99	; 153
     f2c:	79 79       	andi	r23, 0x99	; 153
     f2e:	79 79       	andi	r23, 0x99	; 153
     f30:	79 79       	andi	r23, 0x99	; 153
     f32:	79 78       	andi	r23, 0x89	; 137
     f34:	78 78       	andi	r23, 0x88	; 136
     f36:	78 77       	andi	r23, 0x78	; 120
     f38:	77 77       	andi	r23, 0x77	; 119
     f3a:	77 77       	andi	r23, 0x77	; 119
     f3c:	78 78       	andi	r23, 0x88	; 136
     f3e:	78 79       	andi	r23, 0x98	; 152
     f40:	7a 7a       	andi	r23, 0xAA	; 170
     f42:	7b 7c       	andi	r23, 0xCB	; 203
     f44:	7d 7e       	andi	r23, 0xED	; 237
     f46:	80 81       	ld	r24, Z
     f48:	83 84       	ldd	r8, Z+11	; 0x0b
     f4a:	85 87       	std	Z+13, r24	; 0x0d
     f4c:	89 8a       	std	Y+17, r8	; 0x11
     f4e:	8b 8d       	ldd	r24, Y+27	; 0x1b
     f50:	8e 8f       	std	Y+30, r24	; 0x1e
     f52:	8f 90       	pop	r8
     f54:	90 90 90 8f 	lds	r9, 0x8F90
     f58:	8e 8d       	ldd	r24, Y+30	; 0x1e
     f5a:	8c 8a       	std	Y+20, r8	; 0x14
     f5c:	89 87       	std	Y+9, r24	; 0x09
     f5e:	85 83       	std	Z+5, r24	; 0x05
     f60:	81 7f       	andi	r24, 0xF1	; 241
     f62:	7e 7c       	andi	r23, 0xCE	; 206
     f64:	7b 79       	andi	r23, 0x9B	; 155
     f66:	78 77       	andi	r23, 0x78	; 120
     f68:	77 76       	andi	r23, 0x67	; 103
     f6a:	76 76       	andi	r23, 0x66	; 102
     f6c:	76 76       	andi	r23, 0x66	; 102
     f6e:	76 76       	andi	r23, 0x66	; 102
     f70:	77 77       	andi	r23, 0x77	; 119
     f72:	77 78       	andi	r23, 0x87	; 135
     f74:	78 78       	andi	r23, 0x88	; 136
     f76:	78 78       	andi	r23, 0x88	; 136
     f78:	78 78       	andi	r23, 0x88	; 136
     f7a:	78 77       	andi	r23, 0x78	; 120
     f7c:	77 77       	andi	r23, 0x77	; 119
     f7e:	77 77       	andi	r23, 0x77	; 119
     f80:	77 77       	andi	r23, 0x77	; 119
     f82:	77 77       	andi	r23, 0x77	; 119
     f84:	77 77       	andi	r23, 0x77	; 119
     f86:	78 78       	andi	r23, 0x88	; 136
     f88:	79 7a       	andi	r23, 0xA9	; 169
     f8a:	7b 7c       	andi	r23, 0xCB	; 203
     f8c:	7d 7e       	andi	r23, 0xED	; 237
     f8e:	7f 81       	ldd	r23, Y+7	; 0x07
     f90:	82 83       	std	Z+2, r24	; 0x02
     f92:	85 87       	std	Z+13, r24	; 0x0d
     f94:	88 8a       	std	Y+16, r8	; 0x10
     f96:	8b 8c       	ldd	r8, Y+27	; 0x1b
     f98:	8e 8f       	std	Y+30, r24	; 0x1e
     f9a:	8f 90       	pop	r8
     f9c:	91 91       	ld	r25, Z+
     f9e:	91 90       	ld	r9, Z+
     fa0:	90 8f       	std	Z+24, r25	; 0x18
     fa2:	8e 8d       	ldd	r24, Y+30	; 0x1e
     fa4:	8b 89       	ldd	r24, Y+19	; 0x13
     fa6:	88 86       	std	Y+8, r8	; 0x08
     fa8:	84 83       	std	Z+4, r24	; 0x04
     faa:	81 7f       	andi	r24, 0xF1	; 241
     fac:	7e 7c       	andi	r23, 0xCE	; 206
     fae:	7b 7a       	andi	r23, 0xAB	; 171
     fb0:	79 79       	andi	r23, 0x99	; 153
     fb2:	78 78       	andi	r23, 0x88	; 136
     fb4:	78 78       	andi	r23, 0x88	; 136
     fb6:	78 78       	andi	r23, 0x88	; 136
     fb8:	78 78       	andi	r23, 0x88	; 136
     fba:	78 79       	andi	r23, 0x98	; 152
     fbc:	79 79       	andi	r23, 0x99	; 153
     fbe:	79 79       	andi	r23, 0x99	; 153
     fc0:	79 79       	andi	r23, 0x99	; 153
     fc2:	79 79       	andi	r23, 0x99	; 153
     fc4:	79 79       	andi	r23, 0x99	; 153
     fc6:	79 79       	andi	r23, 0x99	; 153
     fc8:	79 79       	andi	r23, 0x99	; 153
     fca:	79 7a       	andi	r23, 0xA9	; 169
     fcc:	7a 7a       	andi	r23, 0xAA	; 170
     fce:	7a 7b       	andi	r23, 0xBA	; 186
     fd0:	7b 7c       	andi	r23, 0xCB	; 203
     fd2:	7d 7e       	andi	r23, 0xED	; 237
     fd4:	7f 80       	ldd	r7, Y+7	; 0x07
     fd6:	81 82       	std	Z+1, r8	; 0x01
     fd8:	83 84       	ldd	r8, Z+11	; 0x0b
     fda:	86 87       	std	Z+14, r24	; 0x0e
     fdc:	88 89       	ldd	r24, Y+16	; 0x10
     fde:	8b 8c       	ldd	r8, Y+27	; 0x1b
     fe0:	8d 8e       	std	Y+29, r8	; 0x1d
     fe2:	8e 8f       	std	Y+30, r24	; 0x1e
     fe4:	8f 8f       	std	Y+31, r24	; 0x1f
     fe6:	8f 8f       	std	Y+31, r24	; 0x1f
     fe8:	8e 8e       	std	Y+30, r8	; 0x1e
     fea:	8d 8b       	std	Y+21, r24	; 0x15
     fec:	8a 89       	ldd	r24, Y+18	; 0x12
     fee:	87 85       	ldd	r24, Z+15	; 0x0f
     ff0:	84 82       	std	Z+4, r8	; 0x04
     ff2:	80 7e       	andi	r24, 0xE0	; 224
     ff4:	7d 7b       	andi	r23, 0xBD	; 189
     ff6:	7a 79       	andi	r23, 0x9A	; 154
     ff8:	78 77       	andi	r23, 0x78	; 120
     ffa:	76 76       	andi	r23, 0x66	; 102
     ffc:	75 75       	andi	r23, 0x55	; 85
     ffe:	75 75       	andi	r23, 0x55	; 85
    1000:	75 76       	andi	r23, 0x65	; 101
    1002:	76 76       	andi	r23, 0x66	; 102
    1004:	76 77       	andi	r23, 0x76	; 118
    1006:	77 77       	andi	r23, 0x77	; 119
    1008:	77 77       	andi	r23, 0x77	; 119
    100a:	78 78       	andi	r23, 0x88	; 136
    100c:	78 78       	andi	r23, 0x88	; 136
    100e:	78 78       	andi	r23, 0x88	; 136
    1010:	78 78       	andi	r23, 0x88	; 136
    1012:	78 78       	andi	r23, 0x88	; 136
    1014:	78 79       	andi	r23, 0x98	; 152
    1016:	79 79       	andi	r23, 0x99	; 153
    1018:	7a 7a       	andi	r23, 0xAA	; 170
    101a:	7b 7c       	andi	r23, 0xCB	; 203
    101c:	7d 7d       	andi	r23, 0xDD	; 221
    101e:	7e 80       	ldd	r7, Y+6	; 0x06
    1020:	81 82       	std	Z+1, r8	; 0x01
    1022:	83 85       	ldd	r24, Z+11	; 0x0b
    1024:	86 87       	std	Z+14, r24	; 0x0e
    1026:	88 8a       	std	Y+16, r8	; 0x10
    1028:	8b 8c       	ldd	r8, Y+27	; 0x1b
    102a:	8d 8d       	ldd	r24, Y+29	; 0x1d
    102c:	8e 8e       	std	Y+30, r8	; 0x1e
    102e:	8e 8e       	std	Y+30, r8	; 0x1e
    1030:	8e 8d       	ldd	r24, Y+30	; 0x1e
    1032:	8d 8c       	ldd	r8, Y+29	; 0x1d
    1034:	8b 89       	ldd	r24, Y+19	; 0x13
    1036:	88 87       	std	Y+8, r24	; 0x08
    1038:	85 83       	std	Z+5, r24	; 0x05
    103a:	82 80       	ldd	r8, Z+2	; 0x02
    103c:	7f 7d       	andi	r23, 0xDF	; 223
    103e:	7c 7b       	andi	r23, 0xBC	; 188
    1040:	7a 79       	andi	r23, 0x9A	; 154
    1042:	78 78       	andi	r23, 0x88	; 136
    1044:	77 77       	andi	r23, 0x77	; 119
    1046:	77 77       	andi	r23, 0x77	; 119
    1048:	77 77       	andi	r23, 0x77	; 119
    104a:	77 78       	andi	r23, 0x87	; 135
    104c:	78 78       	andi	r23, 0x88	; 136
    104e:	79 79       	andi	r23, 0x99	; 153
    1050:	79 79       	andi	r23, 0x99	; 153
    1052:	79 7a       	andi	r23, 0xA9	; 169
    1054:	7a 7a       	andi	r23, 0xAA	; 170
    1056:	7a 7a       	andi	r23, 0xAA	; 170
    1058:	7a 7a       	andi	r23, 0xAA	; 170
    105a:	7a 7a       	andi	r23, 0xAA	; 170
    105c:	7a 7a       	andi	r23, 0xAA	; 170
    105e:	7a 7b       	andi	r23, 0xBA	; 186
    1060:	7b 7b       	andi	r23, 0xBB	; 187
    1062:	7c 7d       	andi	r23, 0xDC	; 220
    1064:	7d 7e       	andi	r23, 0xED	; 237
    1066:	7f 80       	ldd	r7, Y+7	; 0x07
    1068:	81 82       	std	Z+1, r8	; 0x01
    106a:	84 85       	ldd	r24, Z+12	; 0x0c
    106c:	86 88       	ldd	r8, Z+22	; 0x16
    106e:	89 8a       	std	Y+17, r8	; 0x11
    1070:	8b 8c       	ldd	r8, Y+27	; 0x1b
    1072:	8d 8e       	std	Y+29, r8	; 0x1d
    1074:	8f 8f       	std	Y+31, r24	; 0x1f
    1076:	90 90 8f 8f 	lds	r9, 0x8F8F
    107a:	8e 8e       	std	Y+30, r8	; 0x1e
    107c:	8d 8b       	std	Y+21, r24	; 0x15
    107e:	8a 89       	ldd	r24, Y+18	; 0x12
    1080:	87 85       	ldd	r24, Z+15	; 0x0f
    1082:	84 82       	std	Z+4, r8	; 0x04
    1084:	80 7f       	andi	r24, 0xF0	; 240
    1086:	7d 7c       	andi	r23, 0xCD	; 205
    1088:	7a 79       	andi	r23, 0x9A	; 154
    108a:	78 77       	andi	r23, 0x78	; 120
    108c:	77 76       	andi	r23, 0x67	; 103
    108e:	76 76       	andi	r23, 0x66	; 102
    1090:	76 76       	andi	r23, 0x66	; 102
    1092:	76 76       	andi	r23, 0x66	; 102
    1094:	76 77       	andi	r23, 0x76	; 118
    1096:	77 77       	andi	r23, 0x77	; 119
    1098:	78 78       	andi	r23, 0x88	; 136
    109a:	78 78       	andi	r23, 0x88	; 136
    109c:	79 79       	andi	r23, 0x99	; 153
    109e:	79 79       	andi	r23, 0x99	; 153
    10a0:	79 79       	andi	r23, 0x99	; 153
    10a2:	79 79       	andi	r23, 0x99	; 153
    10a4:	79 79       	andi	r23, 0x99	; 153
    10a6:	79 79       	andi	r23, 0x99	; 153
    10a8:	79 7a       	andi	r23, 0xA9	; 169
    10aa:	7a 7b       	andi	r23, 0xBA	; 186
    10ac:	7b 7c       	andi	r23, 0xCB	; 203
    10ae:	7d 7e       	andi	r23, 0xED	; 237
    10b0:	7f 80       	ldd	r7, Y+7	; 0x07
    10b2:	81 82       	std	Z+1, r8	; 0x01
    10b4:	83 85       	ldd	r24, Z+11	; 0x0b
    10b6:	86 88       	ldd	r8, Z+22	; 0x16
    10b8:	89 8a       	std	Y+17, r8	; 0x11
    10ba:	8b 8c       	ldd	r8, Y+27	; 0x1b
    10bc:	8d 8e       	std	Y+29, r8	; 0x1d
    10be:	8e 8e       	std	Y+30, r8	; 0x1e
    10c0:	8e 8e       	std	Y+30, r8	; 0x1e
    10c2:	8e 8d       	ldd	r24, Y+30	; 0x1e
    10c4:	8c 8b       	std	Y+20, r24	; 0x14
    10c6:	8a 88       	ldd	r8, Y+18	; 0x12
    10c8:	87 85       	ldd	r24, Z+15	; 0x0f
    10ca:	83 81       	ldd	r24, Z+3	; 0x03
    10cc:	80 7e       	andi	r24, 0xE0	; 224
    10ce:	7c 7b       	andi	r23, 0xBC	; 188
    10d0:	7a 78       	andi	r23, 0x8A	; 138
    10d2:	77 77       	andi	r23, 0x77	; 119
    10d4:	76 75       	andi	r23, 0x56	; 86
    10d6:	75 75       	andi	r23, 0x55	; 85
    10d8:	75 75       	andi	r23, 0x55	; 85
    10da:	76 76       	andi	r23, 0x66	; 102
    10dc:	76 77       	andi	r23, 0x76	; 118
    10de:	77 78       	andi	r23, 0x87	; 135
    10e0:	78 79       	andi	r23, 0x98	; 152
    10e2:	79 79       	andi	r23, 0x99	; 153
    10e4:	7a 7a       	andi	r23, 0xAA	; 170
    10e6:	7a 7a       	andi	r23, 0xAA	; 170
    10e8:	7a 7a       	andi	r23, 0xAA	; 170
    10ea:	7a 7a       	andi	r23, 0xAA	; 170
    10ec:	7a 7a       	andi	r23, 0xAA	; 170
    10ee:	7a 7b       	andi	r23, 0xBA	; 186
    10f0:	7b 7b       	andi	r23, 0xBB	; 187
    10f2:	7b 7c       	andi	r23, 0xCB	; 203
    10f4:	7c 7d       	andi	r23, 0xDC	; 220
    10f6:	7e 7f       	andi	r23, 0xFE	; 254
    10f8:	7f 80       	ldd	r7, Y+7	; 0x07
    10fa:	82 83       	std	Z+2, r24	; 0x02
    10fc:	84 85       	ldd	r24, Z+12	; 0x0c
    10fe:	86 88       	ldd	r8, Z+22	; 0x16
    1100:	89 8a       	std	Y+17, r8	; 0x11
    1102:	8b 8c       	ldd	r8, Y+27	; 0x1b
    1104:	8d 8e       	std	Y+29, r8	; 0x1d
    1106:	8f 8f       	std	Y+31, r24	; 0x1f
    1108:	8f 8f       	std	Y+31, r24	; 0x1f
    110a:	8f 8f       	std	Y+31, r24	; 0x1f
    110c:	8e 8d       	ldd	r24, Y+30	; 0x1e
    110e:	8c 8b       	std	Y+20, r24	; 0x14
    1110:	89 88       	ldd	r8, Y+17	; 0x11
    1112:	86 84       	ldd	r8, Z+14	; 0x0e
    1114:	83 81       	ldd	r24, Z+3	; 0x03
    1116:	7f 7e       	andi	r23, 0xEF	; 239
    1118:	7c 7b       	andi	r23, 0xBC	; 188
    111a:	79 78       	andi	r23, 0x89	; 137
    111c:	78 77       	andi	r23, 0x78	; 120
    111e:	76 76       	andi	r23, 0x66	; 102
    1120:	76 76       	andi	r23, 0x66	; 102
    1122:	76 76       	andi	r23, 0x66	; 102
    1124:	77 77       	andi	r23, 0x77	; 119
    1126:	78 78       	andi	r23, 0x88	; 136
    1128:	78 79       	andi	r23, 0x98	; 152
    112a:	79 79       	andi	r23, 0x99	; 153
    112c:	7a 7a       	andi	r23, 0xAA	; 170
    112e:	7a 7a       	andi	r23, 0xAA	; 170
    1130:	7a 7a       	andi	r23, 0xAA	; 170
    1132:	7a 7a       	andi	r23, 0xAA	; 170
    1134:	7a 7a       	andi	r23, 0xAA	; 170
    1136:	7a 7a       	andi	r23, 0xAA	; 170
    1138:	7a 7a       	andi	r23, 0xAA	; 170
    113a:	7a 7b       	andi	r23, 0xBA	; 186
    113c:	7b 7b       	andi	r23, 0xBB	; 187
    113e:	7c 7d       	andi	r23, 0xDC	; 220
    1140:	7d 7e       	andi	r23, 0xED	; 237
    1142:	7f 80       	ldd	r7, Y+7	; 0x07
    1144:	81 82       	std	Z+1, r8	; 0x01
    1146:	84 85       	ldd	r24, Z+12	; 0x0c
    1148:	86 87       	std	Z+14, r24	; 0x0e
    114a:	89 8a       	std	Y+17, r8	; 0x11
    114c:	8b 8c       	ldd	r8, Y+27	; 0x1b
    114e:	8d 8d       	ldd	r24, Y+29	; 0x1d
    1150:	8e 8e       	std	Y+30, r8	; 0x1e
    1152:	8e 8e       	std	Y+30, r8	; 0x1e
    1154:	8d 8d       	ldd	r24, Y+29	; 0x1d
    1156:	8c 8b       	std	Y+20, r24	; 0x14
    1158:	89 88       	ldd	r8, Y+17	; 0x11
    115a:	86 85       	ldd	r24, Z+14	; 0x0e
    115c:	83 81       	ldd	r24, Z+3	; 0x03
    115e:	7f 7e       	andi	r23, 0xEF	; 239
    1160:	7c 7b       	andi	r23, 0xBC	; 188
    1162:	79 78       	andi	r23, 0x89	; 137
    1164:	77 76       	andi	r23, 0x67	; 103
    1166:	76 75       	andi	r23, 0x56	; 86
    1168:	75 75       	andi	r23, 0x55	; 85
    116a:	75 75       	andi	r23, 0x55	; 85
    116c:	76 76       	andi	r23, 0x66	; 102
    116e:	76 77       	andi	r23, 0x76	; 118
    1170:	77 78       	andi	r23, 0x87	; 135
    1172:	78 78       	andi	r23, 0x88	; 136
    1174:	79 79       	andi	r23, 0x99	; 153
    1176:	79 7a       	andi	r23, 0xA9	; 169
    1178:	7a 7a       	andi	r23, 0xAA	; 170
    117a:	7a 7a       	andi	r23, 0xAA	; 170
    117c:	7a 7b       	andi	r23, 0xBA	; 186
    117e:	7b 7b       	andi	r23, 0xBB	; 187
    1180:	7b 7b       	andi	r23, 0xBB	; 187
    1182:	7b 7b       	andi	r23, 0xBB	; 187
    1184:	7c 7c       	andi	r23, 0xCC	; 204
    1186:	7c 7d       	andi	r23, 0xDC	; 220
    1188:	7d 7e       	andi	r23, 0xED	; 237
    118a:	7f 80       	ldd	r7, Y+7	; 0x07
    118c:	81 82       	std	Z+1, r8	; 0x01
    118e:	83 84       	ldd	r8, Z+11	; 0x0b
    1190:	85 86       	std	Z+13, r8	; 0x0d
    1192:	87 89       	ldd	r24, Z+23	; 0x17
    1194:	8a 8b       	std	Y+18, r24	; 0x12
    1196:	8c 8d       	ldd	r24, Y+28	; 0x1c
    1198:	8d 8e       	std	Y+29, r8	; 0x1d
    119a:	8e 8e       	std	Y+30, r8	; 0x1e
    119c:	8e 8d       	ldd	r24, Y+30	; 0x1e
    119e:	8d 8c       	ldd	r8, Y+29	; 0x1d
    11a0:	8b 8a       	std	Y+19, r8	; 0x13
    11a2:	88 87       	std	Y+8, r24	; 0x08
    11a4:	85 84       	ldd	r8, Z+13	; 0x0d
    11a6:	82 80       	ldd	r8, Z+2	; 0x02
    11a8:	7f 7d       	andi	r23, 0xDF	; 223
    11aa:	7c 7b       	andi	r23, 0xBC	; 188
    11ac:	7a 79       	andi	r23, 0x9A	; 154
    11ae:	78 77       	andi	r23, 0x78	; 120
    11b0:	77 77       	andi	r23, 0x77	; 119
    11b2:	77 77       	andi	r23, 0x77	; 119
    11b4:	77 77       	andi	r23, 0x77	; 119
    11b6:	78 78       	andi	r23, 0x88	; 136
    11b8:	78 79       	andi	r23, 0x98	; 152
    11ba:	79 7a       	andi	r23, 0xA9	; 169
    11bc:	7a 7a       	andi	r23, 0xAA	; 170
    11be:	7b 7b       	andi	r23, 0xBB	; 187
    11c0:	7b 7b       	andi	r23, 0xBB	; 187
    11c2:	7c 7c       	andi	r23, 0xCC	; 204
    11c4:	7c 7c       	andi	r23, 0xCC	; 204
    11c6:	7c 7c       	andi	r23, 0xCC	; 204
    11c8:	7c 7c       	andi	r23, 0xCC	; 204
    11ca:	7c 7c       	andi	r23, 0xCC	; 204
    11cc:	7d 7d       	andi	r23, 0xDD	; 221
    11ce:	7d 7d       	andi	r23, 0xDD	; 221
    11d0:	7e 7e       	andi	r23, 0xEE	; 238
    11d2:	7f 7f       	andi	r23, 0xFF	; 255
    11d4:	80 81       	ld	r24, Z
    11d6:	82 83       	std	Z+2, r24	; 0x02
    11d8:	84 85       	ldd	r24, Z+12	; 0x0c
    11da:	86 88       	ldd	r8, Z+22	; 0x16
    11dc:	89 8a       	std	Y+17, r8	; 0x11
    11de:	8b 8c       	ldd	r8, Y+27	; 0x1b
    11e0:	8c 8d       	ldd	r24, Y+28	; 0x1c
    11e2:	8d 8d       	ldd	r24, Y+29	; 0x1d
    11e4:	8d 8d       	ldd	r24, Y+29	; 0x1d
    11e6:	8c 8b       	std	Y+20, r24	; 0x14
    11e8:	8a 89       	ldd	r24, Y+18	; 0x12
    11ea:	88 86       	std	Y+8, r8	; 0x08
    11ec:	85 83       	std	Z+5, r24	; 0x05
    11ee:	82 80       	ldd	r8, Z+2	; 0x02
    11f0:	7e 7d       	andi	r23, 0xDE	; 222
    11f2:	7c 7a       	andi	r23, 0xAC	; 172
    11f4:	79 78       	andi	r23, 0x89	; 137
    11f6:	78 77       	andi	r23, 0x78	; 120
    11f8:	77 76       	andi	r23, 0x67	; 103
    11fa:	76 76       	andi	r23, 0x66	; 102
    11fc:	76 77       	andi	r23, 0x76	; 118
    11fe:	77 77       	andi	r23, 0x77	; 119
    1200:	78 78       	andi	r23, 0x88	; 136
    1202:	78 79       	andi	r23, 0x98	; 152
    1204:	79 79       	andi	r23, 0x99	; 153
    1206:	7a 7a       	andi	r23, 0xAA	; 170
    1208:	7a 7a       	andi	r23, 0xAA	; 170
    120a:	7b 7b       	andi	r23, 0xBB	; 187
    120c:	7b 7b       	andi	r23, 0xBB	; 187
    120e:	7b 7b       	andi	r23, 0xBB	; 187
    1210:	7b 7b       	andi	r23, 0xBB	; 187
    1212:	7b 7b       	andi	r23, 0xBB	; 187
    1214:	7b 7b       	andi	r23, 0xBB	; 187
    1216:	7b 7c       	andi	r23, 0xCB	; 203
    1218:	7c 7d       	andi	r23, 0xDC	; 220
    121a:	7d 7e       	andi	r23, 0xED	; 237
    121c:	7e 7f       	andi	r23, 0xFE	; 254
    121e:	80 81       	ld	r24, Z
    1220:	82 84       	ldd	r8, Z+10	; 0x0a
    1222:	85 86       	std	Z+13, r8	; 0x0d
    1224:	87 88       	ldd	r8, Z+23	; 0x17
    1226:	89 8a       	std	Y+17, r8	; 0x11
    1228:	8b 8c       	ldd	r8, Y+27	; 0x1b
    122a:	8c 8c       	ldd	r8, Y+28	; 0x1c
    122c:	8c 8c       	ldd	r8, Y+28	; 0x1c
    122e:	8b 8b       	std	Y+19, r24	; 0x13
    1230:	8a 89       	ldd	r24, Y+18	; 0x12
    1232:	87 86       	std	Z+15, r8	; 0x0f
    1234:	85 83       	std	Z+5, r24	; 0x05
    1236:	82 80       	ldd	r8, Z+2	; 0x02
    1238:	7f 7d       	andi	r23, 0xDF	; 223
    123a:	7c 7b       	andi	r23, 0xBC	; 188
    123c:	7a 79       	andi	r23, 0x9A	; 154
    123e:	79 78       	andi	r23, 0x89	; 137
    1240:	78 78       	andi	r23, 0x88	; 136
    1242:	78 78       	andi	r23, 0x88	; 136
    1244:	78 79       	andi	r23, 0x98	; 152
    1246:	79 79       	andi	r23, 0x99	; 153
    1248:	7a 7a       	andi	r23, 0xAA	; 170
    124a:	7a 7b       	andi	r23, 0xBA	; 186
    124c:	7b 7b       	andi	r23, 0xBB	; 187
    124e:	7c 7c       	andi	r23, 0xCC	; 204
    1250:	7c 7c       	andi	r23, 0xCC	; 204
    1252:	7d 7d       	andi	r23, 0xDD	; 221
    1254:	7d 7d       	andi	r23, 0xDD	; 221
    1256:	7d 7d       	andi	r23, 0xDD	; 221
    1258:	7d 7d       	andi	r23, 0xDD	; 221
    125a:	7d 7d       	andi	r23, 0xDD	; 221
    125c:	7d 7d       	andi	r23, 0xDD	; 221
    125e:	7d 7d       	andi	r23, 0xDD	; 221
    1260:	7e 7e       	andi	r23, 0xEE	; 238
    1262:	7f 7f       	andi	r23, 0xFF	; 255
    1264:	80 81       	ld	r24, Z
    1266:	82 83       	std	Z+2, r24	; 0x02
    1268:	84 85       	ldd	r24, Z+12	; 0x0c
    126a:	86 87       	std	Z+14, r24	; 0x0e
    126c:	88 89       	ldd	r24, Y+16	; 0x10
    126e:	8a 8b       	std	Y+18, r24	; 0x12
    1270:	8c 8c       	ldd	r8, Y+28	; 0x1c
    1272:	8d 8d       	ldd	r24, Y+29	; 0x1d
    1274:	8d 8c       	ldd	r8, Y+29	; 0x1d
    1276:	8c 8b       	std	Y+20, r24	; 0x14
    1278:	8a 89       	ldd	r24, Y+18	; 0x12
    127a:	88 86       	std	Y+8, r8	; 0x08
    127c:	85 84       	ldd	r8, Z+13	; 0x0d
    127e:	82 81       	ldd	r24, Z+2	; 0x02
    1280:	7f 7e       	andi	r23, 0xEF	; 239
    1282:	7c 7b       	andi	r23, 0xBC	; 188
    1284:	7a 79       	andi	r23, 0x9A	; 154
    1286:	79 78       	andi	r23, 0x89	; 137
    1288:	78 78       	andi	r23, 0x88	; 136
    128a:	77 77       	andi	r23, 0x77	; 119
    128c:	77 78       	andi	r23, 0x87	; 135
    128e:	78 78       	andi	r23, 0x88	; 136
    1290:	79 79       	andi	r23, 0x99	; 153
    1292:	79 7a       	andi	r23, 0xA9	; 169
    1294:	7a 7a       	andi	r23, 0xAA	; 170
    1296:	7b 7b       	andi	r23, 0xBB	; 187
    1298:	7b 7b       	andi	r23, 0xBB	; 187
    129a:	7b 7c       	andi	r23, 0xCB	; 203
    129c:	7c 7c       	andi	r23, 0xCC	; 204
    129e:	7c 7c       	andi	r23, 0xCC	; 204
    12a0:	7c 7c       	andi	r23, 0xCC	; 204
    12a2:	7c 7c       	andi	r23, 0xCC	; 204
    12a4:	7c 7c       	andi	r23, 0xCC	; 204
    12a6:	7d 7d       	andi	r23, 0xDD	; 221
    12a8:	7d 7d       	andi	r23, 0xDD	; 221
    12aa:	7e 7e       	andi	r23, 0xEE	; 238
    12ac:	7f 80       	ldd	r7, Y+7	; 0x07
    12ae:	81 81       	ldd	r24, Z+1	; 0x01
    12b0:	82 83       	std	Z+2, r24	; 0x02
    12b2:	84 85       	ldd	r24, Z+12	; 0x0c
    12b4:	86 87       	std	Z+14, r24	; 0x0e
    12b6:	88 89       	ldd	r24, Y+16	; 0x10
    12b8:	8a 8a       	std	Y+18, r8	; 0x12
    12ba:	8a 8b       	std	Y+18, r24	; 0x12
    12bc:	8b 8a       	std	Y+19, r8	; 0x13
    12be:	8a 89       	ldd	r24, Y+18	; 0x12
    12c0:	88 87       	std	Y+8, r24	; 0x08
    12c2:	86 85       	ldd	r24, Z+14	; 0x0e
    12c4:	84 82       	std	Z+4, r8	; 0x04
    12c6:	81 7f       	andi	r24, 0xF1	; 241
    12c8:	7e 7d       	andi	r23, 0xDE	; 222
    12ca:	7b 7a       	andi	r23, 0xAB	; 171
    12cc:	79 78       	andi	r23, 0x89	; 137
    12ce:	78 77       	andi	r23, 0x78	; 120
    12d0:	77 77       	andi	r23, 0x77	; 119
    12d2:	77 77       	andi	r23, 0x77	; 119
    12d4:	77 77       	andi	r23, 0x77	; 119
    12d6:	77 78       	andi	r23, 0x87	; 135
    12d8:	78 79       	andi	r23, 0x98	; 152
    12da:	79 7a       	andi	r23, 0xA9	; 169
    12dc:	7a 7b       	andi	r23, 0xBA	; 186
    12de:	7b 7b       	andi	r23, 0xBB	; 187
    12e0:	7c 7c       	andi	r23, 0xCC	; 204
    12e2:	7c 7c       	andi	r23, 0xCC	; 204
    12e4:	7d 7d       	andi	r23, 0xDD	; 221
    12e6:	7d 7d       	andi	r23, 0xDD	; 221
    12e8:	7d 7d       	andi	r23, 0xDD	; 221
    12ea:	7d 7d       	andi	r23, 0xDD	; 221
    12ec:	7d 7e       	andi	r23, 0xED	; 237
    12ee:	7e 7e       	andi	r23, 0xEE	; 238
    12f0:	7e 7f       	andi	r23, 0xFE	; 254
    12f2:	7f 80       	ldd	r7, Y+7	; 0x07
    12f4:	80 81       	ld	r24, Z
    12f6:	82 83       	std	Z+2, r24	; 0x02
    12f8:	83 84       	ldd	r8, Z+11	; 0x0b
    12fa:	85 86       	std	Z+13, r8	; 0x0d
    12fc:	87 88       	ldd	r8, Z+23	; 0x17
    12fe:	89 89       	ldd	r24, Y+17	; 0x11
    1300:	8a 8a       	std	Y+18, r8	; 0x12
    1302:	8b 8b       	std	Y+19, r24	; 0x13
    1304:	8b 8b       	std	Y+19, r24	; 0x13
    1306:	8b 8a       	std	Y+19, r8	; 0x13
    1308:	8a 89       	ldd	r24, Y+18	; 0x12
    130a:	88 87       	std	Y+8, r24	; 0x08
    130c:	86 85       	ldd	r24, Z+14	; 0x0e
    130e:	83 82       	std	Z+3, r8	; 0x03
    1310:	80 7f       	andi	r24, 0xF0	; 240
    1312:	7e 7c       	andi	r23, 0xCE	; 206
    1314:	7b 7a       	andi	r23, 0xAB	; 171
    1316:	79 79       	andi	r23, 0x99	; 153
    1318:	78 78       	andi	r23, 0x88	; 136
    131a:	78 77       	andi	r23, 0x78	; 120
    131c:	78 78       	andi	r23, 0x88	; 136
    131e:	78 78       	andi	r23, 0x88	; 136
    1320:	79 79       	andi	r23, 0x99	; 153
    1322:	7a 7a       	andi	r23, 0xAA	; 170
    1324:	7b 7b       	andi	r23, 0xBB	; 187
    1326:	7c 7c       	andi	r23, 0xCC	; 204
    1328:	7c 7d       	andi	r23, 0xDC	; 220
    132a:	7d 7d       	andi	r23, 0xDD	; 221
    132c:	7d 7d       	andi	r23, 0xDD	; 221
    132e:	7d 7d       	andi	r23, 0xDD	; 221
    1330:	7d 7d       	andi	r23, 0xDD	; 221
    1332:	7d 7d       	andi	r23, 0xDD	; 221
    1334:	7d 7d       	andi	r23, 0xDD	; 221
    1336:	7d 7d       	andi	r23, 0xDD	; 221
    1338:	7d 7d       	andi	r23, 0xDD	; 221
    133a:	7e 7e       	andi	r23, 0xEE	; 238
    133c:	7f 80       	ldd	r7, Y+7	; 0x07
    133e:	80 81       	ld	r24, Z
    1340:	82 83       	std	Z+2, r24	; 0x02
    1342:	83 84       	ldd	r8, Z+11	; 0x0b
    1344:	85 86       	std	Z+13, r8	; 0x0d
    1346:	87 87       	std	Z+15, r24	; 0x0f
    1348:	88 89       	ldd	r24, Y+16	; 0x10
    134a:	89 8a       	std	Y+17, r8	; 0x11
    134c:	8a 8a       	std	Y+18, r8	; 0x12
    134e:	8a 89       	ldd	r24, Y+18	; 0x12
    1350:	89 88       	ldd	r8, Y+17	; 0x11
    1352:	87 86       	std	Z+15, r8	; 0x0f
    1354:	85 84       	ldd	r8, Z+13	; 0x0d
    1356:	83 82       	std	Z+3, r8	; 0x03
    1358:	80 7f       	andi	r24, 0xF0	; 240
    135a:	7e 7d       	andi	r23, 0xDE	; 222
    135c:	7b 7b       	andi	r23, 0xBB	; 187
    135e:	7a 79       	andi	r23, 0x9A	; 154
    1360:	79 78       	andi	r23, 0x89	; 137
    1362:	78 78       	andi	r23, 0x88	; 136
    1364:	78 78       	andi	r23, 0x88	; 136
    1366:	79 79       	andi	r23, 0x99	; 153
    1368:	79 7a       	andi	r23, 0xA9	; 169
    136a:	7a 7b       	andi	r23, 0xBA	; 186
    136c:	7b 7b       	andi	r23, 0xBB	; 187
    136e:	7b 7b       	andi	r23, 0xBB	; 187
    1370:	7c 7b       	andi	r23, 0xBC	; 188
    1372:	7b 7b       	andi	r23, 0xBB	; 187
    1374:	7b 7b       	andi	r23, 0xBB	; 187
    1376:	7b 7b       	andi	r23, 0xBB	; 187
    1378:	7a 7a       	andi	r23, 0xAA	; 170
    137a:	7a 7a       	andi	r23, 0xAA	; 170
    137c:	7b 7b       	andi	r23, 0xBB	; 187
    137e:	7b 7b       	andi	r23, 0xBB	; 187
    1380:	7c 7d       	andi	r23, 0xDC	; 220
    1382:	7d 7e       	andi	r23, 0xED	; 237
    1384:	7f 80       	ldd	r7, Y+7	; 0x07
    1386:	81 82       	std	Z+1, r8	; 0x01
    1388:	83 84       	ldd	r8, Z+11	; 0x0b
    138a:	85 86       	std	Z+13, r8	; 0x0d
    138c:	87 88       	ldd	r8, Z+23	; 0x17
    138e:	88 89       	ldd	r24, Y+16	; 0x10
    1390:	8a 8b       	std	Y+18, r24	; 0x12
    1392:	8b 8c       	ldd	r8, Y+27	; 0x1b
    1394:	8c 8c       	ldd	r8, Y+28	; 0x1c
    1396:	8c 8b       	std	Y+20, r24	; 0x14
    1398:	8b 8a       	std	Y+19, r8	; 0x13
    139a:	89 88       	ldd	r8, Y+17	; 0x11
    139c:	87 86       	std	Z+15, r8	; 0x0f
    139e:	84 83       	std	Z+4, r24	; 0x04
    13a0:	81 80       	ldd	r8, Z+1	; 0x01
    13a2:	7e 7d       	andi	r23, 0xDE	; 222
    13a4:	7c 7b       	andi	r23, 0xBC	; 188
    13a6:	7a 79       	andi	r23, 0x9A	; 154
    13a8:	78 78       	andi	r23, 0x88	; 136
    13aa:	78 78       	andi	r23, 0x88	; 136
    13ac:	78 78       	andi	r23, 0x88	; 136
    13ae:	78 79       	andi	r23, 0x98	; 152
    13b0:	79 79       	andi	r23, 0x99	; 153
    13b2:	7a 7a       	andi	r23, 0xAA	; 170
    13b4:	7b 7b       	andi	r23, 0xBB	; 187
    13b6:	7b 7c       	andi	r23, 0xCB	; 203
    13b8:	7c 7c       	andi	r23, 0xCC	; 204
    13ba:	7c 7c       	andi	r23, 0xCC	; 204
    13bc:	7c 7c       	andi	r23, 0xCC	; 204
    13be:	7c 7c       	andi	r23, 0xCC	; 204
    13c0:	7c 7c       	andi	r23, 0xCC	; 204
    13c2:	7c 7c       	andi	r23, 0xCC	; 204
    13c4:	7c 7c       	andi	r23, 0xCC	; 204
    13c6:	7d 7d       	andi	r23, 0xDD	; 221
    13c8:	7e 7e       	andi	r23, 0xEE	; 238
    13ca:	7f 7f       	andi	r23, 0xFF	; 255
    13cc:	80 81       	ld	r24, Z
    13ce:	81 82       	std	Z+1, r8	; 0x01
    13d0:	83 84       	ldd	r8, Z+11	; 0x0b
    13d2:	85 85       	ldd	r24, Z+13	; 0x0d
    13d4:	86 87       	std	Z+14, r24	; 0x0e
    13d6:	88 88       	ldd	r8, Y+16	; 0x10
    13d8:	89 89       	ldd	r24, Y+17	; 0x11
    13da:	8a 8a       	std	Y+18, r8	; 0x12
    13dc:	8a 8a       	std	Y+18, r8	; 0x12
    13de:	8a 8a       	std	Y+18, r8	; 0x12
    13e0:	8a 89       	ldd	r24, Y+18	; 0x12
    13e2:	88 87       	std	Y+8, r24	; 0x08
    13e4:	86 85       	ldd	r24, Z+14	; 0x0e
    13e6:	84 82       	std	Z+4, r8	; 0x04
    13e8:	81 7f       	andi	r24, 0xF1	; 241
    13ea:	7e 7d       	andi	r23, 0xDE	; 222
    13ec:	7b 7a       	andi	r23, 0xAB	; 171
    13ee:	79 78       	andi	r23, 0x89	; 137
    13f0:	78 77       	andi	r23, 0x78	; 120
    13f2:	77 77       	andi	r23, 0x77	; 119
    13f4:	77 77       	andi	r23, 0x77	; 119
    13f6:	77 78       	andi	r23, 0x87	; 135
    13f8:	78 78       	andi	r23, 0x88	; 136
    13fa:	79 79       	andi	r23, 0x99	; 153
    13fc:	7a 7a       	andi	r23, 0xAA	; 170
    13fe:	7a 7b       	andi	r23, 0xBA	; 186
    1400:	7b 7b       	andi	r23, 0xBB	; 187
    1402:	7b 7b       	andi	r23, 0xBB	; 187
    1404:	7b 7b       	andi	r23, 0xBB	; 187
    1406:	7b 7b       	andi	r23, 0xBB	; 187
    1408:	7b 7b       	andi	r23, 0xBB	; 187
    140a:	7b 7b       	andi	r23, 0xBB	; 187
    140c:	7c 7c       	andi	r23, 0xCC	; 204
    140e:	7c 7c       	andi	r23, 0xCC	; 204
    1410:	7d 7d       	andi	r23, 0xDD	; 221
    1412:	7e 7e       	andi	r23, 0xEE	; 238
    1414:	7f 80       	ldd	r7, Y+7	; 0x07
    1416:	80 81       	ld	r24, Z
    1418:	82 82       	std	Z+2, r8	; 0x02
    141a:	83 84       	ldd	r8, Z+11	; 0x0b
    141c:	85 86       	std	Z+13, r8	; 0x0d
    141e:	87 87       	std	Z+15, r24	; 0x0f
    1420:	88 89       	ldd	r24, Y+16	; 0x10
    1422:	8a 8a       	std	Y+18, r8	; 0x12
    1424:	8b 8b       	std	Y+19, r24	; 0x13
    1426:	8b 8b       	std	Y+19, r24	; 0x13
    1428:	8b 8a       	std	Y+19, r8	; 0x13
    142a:	8a 89       	ldd	r24, Y+18	; 0x12
    142c:	88 87       	std	Y+8, r24	; 0x08
    142e:	85 84       	ldd	r8, Z+13	; 0x0d
    1430:	83 81       	ldd	r24, Z+3	; 0x03
    1432:	80 7f       	andi	r24, 0xF0	; 240
    1434:	7d 7c       	andi	r23, 0xCD	; 205
    1436:	7b 7a       	andi	r23, 0xAB	; 171
    1438:	79 79       	andi	r23, 0x99	; 153
    143a:	78 78       	andi	r23, 0x88	; 136
    143c:	78 78       	andi	r23, 0x88	; 136
    143e:	78 78       	andi	r23, 0x88	; 136
    1440:	78 78       	andi	r23, 0x88	; 136
    1442:	79 79       	andi	r23, 0x99	; 153
    1444:	79 7a       	andi	r23, 0xA9	; 169
    1446:	7a 7b       	andi	r23, 0xBA	; 186
    1448:	7b 7b       	andi	r23, 0xBB	; 187
    144a:	7b 7c       	andi	r23, 0xCB	; 203
    144c:	7c 7c       	andi	r23, 0xCC	; 204
    144e:	7c 7c       	andi	r23, 0xCC	; 204
    1450:	7d 7d       	andi	r23, 0xDD	; 221
    1452:	7d 7d       	andi	r23, 0xDD	; 221
    1454:	7d 7e       	andi	r23, 0xED	; 237
    1456:	7e 7e       	andi	r23, 0xEE	; 238
    1458:	7e 7f       	andi	r23, 0xFE	; 254
    145a:	7f 7f       	andi	r23, 0xFF	; 255
    145c:	80 80       	ld	r8, Z
    145e:	81 81       	ldd	r24, Z+1	; 0x01
    1460:	82 82       	std	Z+2, r8	; 0x02
    1462:	83 84       	ldd	r8, Z+11	; 0x0b
    1464:	84 85       	ldd	r24, Z+12	; 0x0c
    1466:	86 86       	std	Z+14, r8	; 0x0e
    1468:	87 88       	ldd	r8, Z+23	; 0x17
    146a:	89 89       	ldd	r24, Y+17	; 0x11
    146c:	8a 8a       	std	Y+18, r8	; 0x12
    146e:	8a 8a       	std	Y+18, r8	; 0x12
    1470:	8a 8a       	std	Y+18, r8	; 0x12
    1472:	89 89       	ldd	r24, Y+17	; 0x11
    1474:	88 87       	std	Y+8, r24	; 0x08
    1476:	86 85       	ldd	r24, Z+14	; 0x0e
    1478:	83 82       	std	Z+3, r8	; 0x03
    147a:	80 7f       	andi	r24, 0xF0	; 240
    147c:	7e 7c       	andi	r23, 0xCE	; 206
    147e:	7b 7a       	andi	r23, 0xAB	; 171
    1480:	79 78       	andi	r23, 0x89	; 137
    1482:	78 77       	andi	r23, 0x78	; 120
    1484:	77 77       	andi	r23, 0x77	; 119
    1486:	77 77       	andi	r23, 0x77	; 119
    1488:	77 78       	andi	r23, 0x87	; 135
    148a:	78 79       	andi	r23, 0x98	; 152
    148c:	79 7a       	andi	r23, 0xA9	; 169
    148e:	7a 7b       	andi	r23, 0xBA	; 186
    1490:	7b 7b       	andi	r23, 0xBB	; 187
    1492:	7c 7c       	andi	r23, 0xCC	; 204
    1494:	7c 7c       	andi	r23, 0xCC	; 204
    1496:	7c 7d       	andi	r23, 0xDC	; 220
    1498:	7d 7d       	andi	r23, 0xDD	; 221
    149a:	7d 7d       	andi	r23, 0xDD	; 221
    149c:	7d 7d       	andi	r23, 0xDD	; 221
    149e:	7d 7d       	andi	r23, 0xDD	; 221
    14a0:	7e 7e       	andi	r23, 0xEE	; 238
    14a2:	7e 7e       	andi	r23, 0xEE	; 238
    14a4:	7e 7f       	andi	r23, 0xFE	; 254
    14a6:	7f 7f       	andi	r23, 0xFF	; 255
    14a8:	80 80       	ld	r8, Z
    14aa:	81 81       	ldd	r24, Z+1	; 0x01
    14ac:	82 83       	std	Z+2, r24	; 0x02
    14ae:	83 84       	ldd	r8, Z+11	; 0x0b
    14b0:	85 86       	std	Z+13, r8	; 0x0d
    14b2:	87 87       	std	Z+15, r24	; 0x0f
    14b4:	88 89       	ldd	r24, Y+16	; 0x10
    14b6:	89 8a       	std	Y+17, r8	; 0x11
    14b8:	8a 8a       	std	Y+18, r8	; 0x12
    14ba:	8a 89       	ldd	r24, Y+18	; 0x12
    14bc:	89 88       	ldd	r8, Y+17	; 0x11
    14be:	87 86       	std	Z+15, r8	; 0x0f
    14c0:	85 84       	ldd	r8, Z+13	; 0x0d
    14c2:	82 81       	ldd	r24, Z+2	; 0x02
    14c4:	80 7e       	andi	r24, 0xE0	; 224
    14c6:	7d 7c       	andi	r23, 0xCD	; 205
    14c8:	7b 7a       	andi	r23, 0xAB	; 171
    14ca:	79 78       	andi	r23, 0x89	; 137
    14cc:	78 77       	andi	r23, 0x78	; 120
    14ce:	77 77       	andi	r23, 0x77	; 119
    14d0:	77 77       	andi	r23, 0x77	; 119
    14d2:	78 78       	andi	r23, 0x88	; 136
    14d4:	79 79       	andi	r23, 0x99	; 153
    14d6:	7a 7a       	andi	r23, 0xAA	; 170
    14d8:	7b 7b       	andi	r23, 0xBB	; 187
    14da:	7b 7c       	andi	r23, 0xCB	; 203
    14dc:	7c 7c       	andi	r23, 0xCC	; 204
    14de:	7d 7d       	andi	r23, 0xDD	; 221
    14e0:	7d 7d       	andi	r23, 0xDD	; 221
    14e2:	7d 7d       	andi	r23, 0xDD	; 221
    14e4:	7e 7e       	andi	r23, 0xEE	; 238
    14e6:	7e 7e       	andi	r23, 0xEE	; 238
    14e8:	7e 7e       	andi	r23, 0xEE	; 238
    14ea:	7f 7f       	andi	r23, 0xFF	; 255
    14ec:	7f 80       	ldd	r7, Y+7	; 0x07
    14ee:	80 81       	ld	r24, Z
    14f0:	81 82       	std	Z+1, r8	; 0x01
    14f2:	83 83       	std	Z+3, r24	; 0x03
    14f4:	84 85       	ldd	r24, Z+12	; 0x0c
    14f6:	86 86       	std	Z+14, r8	; 0x0e
    14f8:	87 88       	ldd	r8, Z+23	; 0x17
    14fa:	88 89       	ldd	r24, Y+16	; 0x10
    14fc:	89 8a       	std	Y+17, r8	; 0x11
    14fe:	8a 8a       	std	Y+18, r8	; 0x12
    1500:	8a 8a       	std	Y+18, r8	; 0x12
    1502:	8a 8a       	std	Y+18, r8	; 0x12
    1504:	89 89       	ldd	r24, Y+17	; 0x11
    1506:	88 87       	std	Y+8, r24	; 0x08
    1508:	86 85       	ldd	r24, Z+14	; 0x0e
    150a:	84 83       	std	Z+4, r24	; 0x04
    150c:	82 81       	ldd	r24, Z+2	; 0x02
    150e:	80 7f       	andi	r24, 0xF0	; 240
    1510:	7e 7d       	andi	r23, 0xDE	; 222
    1512:	7c 7b       	andi	r23, 0xBC	; 188
    1514:	7a 7a       	andi	r23, 0xAA	; 170
    1516:	79 78       	andi	r23, 0x89	; 137
    1518:	78 78       	andi	r23, 0x88	; 136
    151a:	77 77       	andi	r23, 0x77	; 119
    151c:	77 77       	andi	r23, 0x77	; 119
    151e:	77 77       	andi	r23, 0x77	; 119
    1520:	78 78       	andi	r23, 0x88	; 136
    1522:	78 78       	andi	r23, 0x88	; 136
    1524:	79 79       	andi	r23, 0x99	; 153
    1526:	7a 7a       	andi	r23, 0xAA	; 170
    1528:	7b 7b       	andi	r23, 0xBB	; 187
    152a:	7b 7c       	andi	r23, 0xCB	; 203
    152c:	7c 7d       	andi	r23, 0xDC	; 220
    152e:	7d 7d       	andi	r23, 0xDD	; 221
    1530:	7d 7e       	andi	r23, 0xED	; 237
    1532:	7e 7e       	andi	r23, 0xEE	; 238
    1534:	7f 7f       	andi	r23, 0xFF	; 255
    1536:	80 80       	ld	r8, Z
    1538:	81 81       	ldd	r24, Z+1	; 0x01
    153a:	82 82       	std	Z+2, r8	; 0x02
    153c:	83 84       	ldd	r8, Z+11	; 0x0b
    153e:	84 85       	ldd	r24, Z+12	; 0x0c
    1540:	86 86       	std	Z+14, r8	; 0x0e
    1542:	87 87       	std	Z+15, r24	; 0x0f
    1544:	88 88       	ldd	r8, Y+16	; 0x10
    1546:	89 89       	ldd	r24, Y+17	; 0x11
    1548:	89 89       	ldd	r24, Y+17	; 0x11
    154a:	89 88       	ldd	r8, Y+17	; 0x11
    154c:	88 87       	std	Y+8, r24	; 0x08
    154e:	87 86       	std	Z+15, r8	; 0x0f
    1550:	85 84       	ldd	r8, Z+13	; 0x0d
    1552:	83 82       	std	Z+3, r8	; 0x03
    1554:	81 80       	ldd	r8, Z+1	; 0x01
    1556:	7e 7d       	andi	r23, 0xDE	; 222
    1558:	7c 7b       	andi	r23, 0xBC	; 188
    155a:	79 78       	andi	r23, 0x89	; 137
    155c:	77 76       	andi	r23, 0x67	; 103
    155e:	76 75       	andi	r23, 0x56	; 86
    1560:	75 75       	andi	r23, 0x55	; 85
    1562:	75 75       	andi	r23, 0x55	; 85
    1564:	75 75       	andi	r23, 0x55	; 85
    1566:	76 76       	andi	r23, 0x66	; 102
    1568:	77 78       	andi	r23, 0x87	; 135
    156a:	78 79       	andi	r23, 0x98	; 152
    156c:	7a 7a       	andi	r23, 0xAA	; 170
    156e:	7b 7b       	andi	r23, 0xBB	; 187
    1570:	7c 7c       	andi	r23, 0xCC	; 204
    1572:	7d 7d       	andi	r23, 0xDD	; 221
    1574:	7d 7e       	andi	r23, 0xED	; 237
    1576:	7e 7e       	andi	r23, 0xEE	; 238
    1578:	7e 7e       	andi	r23, 0xEE	; 238
    157a:	7f 7f       	andi	r23, 0xFF	; 255
    157c:	7f 7f       	andi	r23, 0xFF	; 255
    157e:	7f 7f       	andi	r23, 0xFF	; 255
    1580:	80 80       	ld	r8, Z
    1582:	80 80       	ld	r8, Z
    1584:	81 81       	ldd	r24, Z+1	; 0x01
    1586:	81 82       	std	Z+1, r8	; 0x01
    1588:	83 83       	std	Z+3, r24	; 0x03
    158a:	84 85       	ldd	r24, Z+12	; 0x0c
    158c:	85 86       	std	Z+13, r8	; 0x0d
    158e:	87 88       	ldd	r8, Z+23	; 0x17
    1590:	88 89       	ldd	r24, Y+16	; 0x10
    1592:	89 8a       	std	Y+17, r8	; 0x11
    1594:	8a 8a       	std	Y+18, r8	; 0x12
    1596:	8a 89       	ldd	r24, Y+18	; 0x12
    1598:	89 88       	ldd	r8, Y+17	; 0x11
    159a:	88 87       	std	Y+8, r24	; 0x08
    159c:	86 85       	ldd	r24, Z+14	; 0x0e
    159e:	84 83       	std	Z+4, r24	; 0x04
    15a0:	82 82       	std	Z+2, r8	; 0x02
    15a2:	81 80       	ldd	r8, Z+1	; 0x01
    15a4:	80 7f       	andi	r24, 0xF0	; 240
    15a6:	7f 7e       	andi	r23, 0xEF	; 239
    15a8:	7e 7e       	andi	r23, 0xEE	; 238
    15aa:	7d 7d       	andi	r23, 0xDD	; 221
    15ac:	7d 7c       	andi	r23, 0xCD	; 205
    15ae:	7c 7b       	andi	r23, 0xBC	; 188
    15b0:	7b 7a       	andi	r23, 0xAB	; 171
    15b2:	79 78       	andi	r23, 0x89	; 137
    15b4:	78 77       	andi	r23, 0x78	; 120
    15b6:	76 75       	andi	r23, 0x56	; 86
    15b8:	74 74       	andi	r23, 0x44	; 68
    15ba:	73 73       	andi	r23, 0x33	; 51
    15bc:	72 72       	andi	r23, 0x22	; 34
    15be:	72 72       	andi	r23, 0x22	; 34
    15c0:	72 72       	andi	r23, 0x22	; 34
    15c2:	72 73       	andi	r23, 0x32	; 50
    15c4:	73 73       	andi	r23, 0x33	; 51
    15c6:	74 74       	andi	r23, 0x44	; 68
    15c8:	75 75       	andi	r23, 0x55	; 85
    15ca:	76 76       	andi	r23, 0x66	; 102
    15cc:	77 78       	andi	r23, 0x87	; 135
    15ce:	79 7a       	andi	r23, 0xA9	; 169
    15d0:	7b 7d       	andi	r23, 0xDB	; 219
    15d2:	7e 80       	ldd	r7, Y+6	; 0x06
    15d4:	81 83       	std	Z+1, r24	; 0x01
    15d6:	84 86       	std	Z+12, r8	; 0x0c
    15d8:	88 89       	ldd	r24, Y+16	; 0x10
    15da:	8a 8b       	std	Y+18, r24	; 0x12
    15dc:	8c 8d       	ldd	r24, Y+28	; 0x1c
    15de:	8e 8e       	std	Y+30, r8	; 0x1e
    15e0:	8e 8d       	ldd	r24, Y+30	; 0x1e
    15e2:	8d 8c       	ldd	r8, Y+29	; 0x1d
    15e4:	8c 8b       	std	Y+20, r24	; 0x14
    15e6:	8a 89       	ldd	r24, Y+18	; 0x12
    15e8:	88 88       	ldd	r8, Y+16	; 0x10
    15ea:	87 87       	std	Z+15, r24	; 0x0f
    15ec:	86 86       	std	Z+14, r8	; 0x0e
    15ee:	86 87       	std	Z+14, r24	; 0x0e
    15f0:	87 88       	ldd	r8, Z+23	; 0x17
    15f2:	88 89       	ldd	r24, Y+16	; 0x10
    15f4:	89 8a       	std	Y+17, r8	; 0x11
    15f6:	8a 8b       	std	Y+18, r24	; 0x12
    15f8:	8b 8b       	std	Y+19, r24	; 0x13
    15fa:	8b 8b       	std	Y+19, r24	; 0x13
    15fc:	8b 8a       	std	Y+19, r8	; 0x13
    15fe:	8a 89       	ldd	r24, Y+18	; 0x12
    1600:	88 88       	ldd	r8, Y+16	; 0x10
    1602:	87 86       	std	Z+15, r8	; 0x0f
    1604:	85 85       	ldd	r24, Z+13	; 0x0d
    1606:	84 83       	std	Z+4, r24	; 0x04
    1608:	83 82       	std	Z+3, r8	; 0x03
    160a:	81 81       	ldd	r24, Z+1	; 0x01
    160c:	80 80       	ld	r8, Z
    160e:	7f 7e       	andi	r23, 0xEF	; 239
    1610:	7e 7d       	andi	r23, 0xDE	; 222
    1612:	7d 7c       	andi	r23, 0xCD	; 205
    1614:	7c 7c       	andi	r23, 0xCC	; 204
    1616:	7c 7c       	andi	r23, 0xCC	; 204
    1618:	7d 7d       	andi	r23, 0xDD	; 221
    161a:	7e 7e       	andi	r23, 0xEE	; 238
    161c:	7f 80       	ldd	r7, Y+7	; 0x07
    161e:	81 82       	std	Z+1, r8	; 0x01
    1620:	83 83       	std	Z+3, r24	; 0x03
    1622:	84 84       	ldd	r8, Z+12	; 0x0c
    1624:	84 84       	ldd	r8, Z+12	; 0x0c
    1626:	84 84       	ldd	r8, Z+12	; 0x0c
    1628:	83 82       	std	Z+3, r8	; 0x03
    162a:	81 7f       	andi	r24, 0xF1	; 241
    162c:	7e 7c       	andi	r23, 0xCE	; 206
    162e:	7b 7a       	andi	r23, 0xAB	; 171
    1630:	78 77       	andi	r23, 0x78	; 120
    1632:	76 76       	andi	r23, 0x66	; 102
    1634:	75 75       	andi	r23, 0x55	; 85
    1636:	75 75       	andi	r23, 0x55	; 85
    1638:	75 76       	andi	r23, 0x65	; 101
    163a:	76 77       	andi	r23, 0x76	; 118
    163c:	78 79       	andi	r23, 0x98	; 152
    163e:	7a 7a       	andi	r23, 0xAA	; 170
    1640:	7b 7c       	andi	r23, 0xCB	; 203
    1642:	7d 7d       	andi	r23, 0xDD	; 221
    1644:	7e 7e       	andi	r23, 0xEE	; 238
    1646:	7e 7f       	andi	r23, 0xFE	; 254
    1648:	7f 7f       	andi	r23, 0xFF	; 255
    164a:	7f 7f       	andi	r23, 0xFF	; 255
    164c:	7f 7f       	andi	r23, 0xFF	; 255
    164e:	7f 7f       	andi	r23, 0xFF	; 255
    1650:	7f 7f       	andi	r23, 0xFF	; 255
    1652:	7f 7e       	andi	r23, 0xEF	; 239
    1654:	7e 7d       	andi	r23, 0xDE	; 222
    1656:	7d 7c       	andi	r23, 0xCD	; 205
    1658:	7b 7b       	andi	r23, 0xBB	; 187
    165a:	7a 79       	andi	r23, 0x9A	; 154
    165c:	79 78       	andi	r23, 0x89	; 137
    165e:	78 78       	andi	r23, 0x88	; 136
    1660:	78 78       	andi	r23, 0x88	; 136
    1662:	78 79       	andi	r23, 0x98	; 152
    1664:	79 7a       	andi	r23, 0xA9	; 169
    1666:	7b 7b       	andi	r23, 0xBB	; 187
    1668:	7c 7d       	andi	r23, 0xDC	; 220
    166a:	7e 7f       	andi	r23, 0xFE	; 254
    166c:	7f 80       	ldd	r7, Y+7	; 0x07
    166e:	80 80       	ld	r8, Z
    1670:	80 80       	ld	r8, Z
    1672:	7f 7f       	andi	r23, 0xFF	; 255
    1674:	7e 7d       	andi	r23, 0xDE	; 222
    1676:	7d 7c       	andi	r23, 0xCD	; 205
    1678:	7b 7a       	andi	r23, 0xAB	; 171
    167a:	79 79       	andi	r23, 0x99	; 153
    167c:	78 78       	andi	r23, 0x88	; 136
    167e:	77 77       	andi	r23, 0x77	; 119
    1680:	77 77       	andi	r23, 0x77	; 119
    1682:	77 78       	andi	r23, 0x87	; 135
    1684:	78 78       	andi	r23, 0x88	; 136
    1686:	79 7a       	andi	r23, 0xA9	; 169
    1688:	7a 7b       	andi	r23, 0xBA	; 186
    168a:	7c 7d       	andi	r23, 0xDC	; 220
    168c:	7e 7f       	andi	r23, 0xFE	; 254
    168e:	80 81       	ld	r24, Z
    1690:	83 84       	ldd	r8, Z+11	; 0x0b
    1692:	85 86       	std	Z+13, r8	; 0x0d
    1694:	87 88       	ldd	r8, Z+23	; 0x17
    1696:	89 8a       	std	Y+17, r8	; 0x11
    1698:	8a 8b       	std	Y+18, r24	; 0x12
    169a:	8c 8c       	ldd	r8, Y+28	; 0x1c
    169c:	8c 8d       	ldd	r24, Y+28	; 0x1c
    169e:	8d 8d       	ldd	r24, Y+29	; 0x1d
    16a0:	8d 8d       	ldd	r24, Y+29	; 0x1d
    16a2:	8d 8d       	ldd	r24, Y+29	; 0x1d
    16a4:	8d 8d       	ldd	r24, Y+29	; 0x1d
    16a6:	8e 8e       	std	Y+30, r8	; 0x1e
    16a8:	8e 8e       	std	Y+30, r8	; 0x1e
    16aa:	8e 8f       	std	Y+30, r24	; 0x1e
    16ac:	8f 8f       	std	Y+31, r24	; 0x1f
    16ae:	8f 8f       	std	Y+31, r24	; 0x1f
    16b0:	8f 8f       	std	Y+31, r24	; 0x1f
    16b2:	8e 8e       	std	Y+30, r8	; 0x1e
    16b4:	8d 8d       	ldd	r24, Y+29	; 0x1d
    16b6:	8c 8b       	std	Y+20, r24	; 0x14
    16b8:	8a 88       	ldd	r8, Y+18	; 0x12
    16ba:	87 86       	std	Z+15, r8	; 0x0f
    16bc:	85 83       	std	Z+5, r24	; 0x05
    16be:	82 81       	ldd	r24, Z+2	; 0x02
    16c0:	80 7e       	andi	r24, 0xE0	; 224
    16c2:	7d 7c       	andi	r23, 0xCD	; 205
    16c4:	7c 7b       	andi	r23, 0xBC	; 188
    16c6:	7a 79       	andi	r23, 0x9A	; 154
    16c8:	79 78       	andi	r23, 0x89	; 137
    16ca:	78 78       	andi	r23, 0x88	; 136
    16cc:	77 77       	andi	r23, 0x77	; 119
    16ce:	77 77       	andi	r23, 0x77	; 119
    16d0:	77 77       	andi	r23, 0x77	; 119
    16d2:	77 77       	andi	r23, 0x77	; 119
    16d4:	77 78       	andi	r23, 0x87	; 135
    16d6:	78 79       	andi	r23, 0x98	; 152
    16d8:	79 7a       	andi	r23, 0xA9	; 169
    16da:	7a 7b       	andi	r23, 0xBA	; 186
    16dc:	7b 7c       	andi	r23, 0xCB	; 203
    16de:	7c 7d       	andi	r23, 0xDC	; 220
    16e0:	7d 7d       	andi	r23, 0xDD	; 221
    16e2:	7e 7e       	andi	r23, 0xEE	; 238
    16e4:	7e 7f       	andi	r23, 0xFE	; 254
    16e6:	7f 7f       	andi	r23, 0xFF	; 255
    16e8:	7f 7f       	andi	r23, 0xFF	; 255
    16ea:	80 80       	ld	r8, Z
    16ec:	81 81       	ldd	r24, Z+1	; 0x01
    16ee:	82 82       	std	Z+2, r8	; 0x02
    16f0:	83 84       	ldd	r8, Z+11	; 0x0b
    16f2:	84 85       	ldd	r24, Z+12	; 0x0c
    16f4:	85 86       	std	Z+13, r8	; 0x0d
    16f6:	86 86       	std	Z+14, r8	; 0x0e
    16f8:	87 86       	std	Z+15, r8	; 0x0f
    16fa:	86 86       	std	Z+14, r8	; 0x0e
    16fc:	86 85       	ldd	r24, Z+14	; 0x0e
    16fe:	84 83       	std	Z+4, r24	; 0x04
    1700:	82 81       	ldd	r24, Z+2	; 0x02
    1702:	80 7f       	andi	r24, 0xF0	; 240
    1704:	7e 7c       	andi	r23, 0xCE	; 206
    1706:	7b 79       	andi	r23, 0x9B	; 155
    1708:	78 77       	andi	r23, 0x78	; 120
    170a:	75 74       	andi	r23, 0x45	; 69
    170c:	73 72       	andi	r23, 0x23	; 35
    170e:	71 70       	andi	r23, 0x01	; 1
    1710:	6f 6e       	ori	r22, 0xEF	; 239
    1712:	6e 6d       	ori	r22, 0xDE	; 222
    1714:	6d 6d       	ori	r22, 0xDD	; 221
    1716:	6d 6d       	ori	r22, 0xDD	; 221
    1718:	6e 6f       	ori	r22, 0xFE	; 254
    171a:	6f 70       	andi	r22, 0x0F	; 15
    171c:	72 73       	andi	r23, 0x32	; 50
    171e:	74 75       	andi	r23, 0x54	; 84
    1720:	77 78       	andi	r23, 0x87	; 135
    1722:	79 7a       	andi	r23, 0xA9	; 169
    1724:	7b 7c       	andi	r23, 0xCB	; 203
    1726:	7d 7e       	andi	r23, 0xED	; 237
    1728:	7f 7f       	andi	r23, 0xFF	; 255
    172a:	80 80       	ld	r8, Z
    172c:	81 81       	ldd	r24, Z+1	; 0x01
    172e:	81 82       	std	Z+1, r8	; 0x01
    1730:	82 83       	std	Z+2, r24	; 0x02
    1732:	83 84       	ldd	r8, Z+11	; 0x0b
    1734:	84 85       	ldd	r24, Z+12	; 0x0c
    1736:	86 86       	std	Z+14, r8	; 0x0e
    1738:	87 88       	ldd	r8, Z+23	; 0x17
    173a:	89 89       	ldd	r24, Y+17	; 0x11
    173c:	8a 8b       	std	Y+18, r24	; 0x12
    173e:	8b 8c       	ldd	r8, Y+27	; 0x1b
    1740:	8c 8c       	ldd	r8, Y+28	; 0x1c
    1742:	8d 8d       	ldd	r24, Y+29	; 0x1d
    1744:	8d 8d       	ldd	r24, Y+29	; 0x1d
    1746:	8d 8c       	ldd	r8, Y+29	; 0x1d
    1748:	8c 8c       	ldd	r8, Y+28	; 0x1c
    174a:	8b 8a       	std	Y+19, r8	; 0x13
    174c:	8a 89       	ldd	r24, Y+18	; 0x12
    174e:	88 87       	std	Y+8, r24	; 0x08
    1750:	86 85       	ldd	r24, Z+14	; 0x0e
    1752:	84 83       	std	Z+4, r24	; 0x04
    1754:	82 81       	ldd	r24, Z+2	; 0x02
    1756:	80 7f       	andi	r24, 0xF0	; 240
    1758:	7e 7d       	andi	r23, 0xDE	; 222
    175a:	7d 7c       	andi	r23, 0xCD	; 205
    175c:	7b 7b       	andi	r23, 0xBB	; 187
    175e:	7b 7b       	andi	r23, 0xBB	; 187
    1760:	7b 7b       	andi	r23, 0xBB	; 187
    1762:	7c 7c       	andi	r23, 0xCC	; 204
    1764:	7d 7d       	andi	r23, 0xDD	; 221
    1766:	7e 7e       	andi	r23, 0xEE	; 238
    1768:	7f 80       	ldd	r7, Y+7	; 0x07
    176a:	80 80       	ld	r8, Z
    176c:	81 81       	ldd	r24, Z+1	; 0x01
    176e:	81 81       	ldd	r24, Z+1	; 0x01
    1770:	81 81       	ldd	r24, Z+1	; 0x01
    1772:	81 81       	ldd	r24, Z+1	; 0x01
    1774:	81 81       	ldd	r24, Z+1	; 0x01
    1776:	81 81       	ldd	r24, Z+1	; 0x01
    1778:	82 82       	std	Z+2, r8	; 0x02
    177a:	82 82       	std	Z+2, r8	; 0x02
    177c:	83 83       	std	Z+3, r24	; 0x03
    177e:	83 83       	std	Z+3, r24	; 0x03
    1780:	83 83       	std	Z+3, r24	; 0x03
    1782:	83 82       	std	Z+3, r8	; 0x03
    1784:	82 82       	std	Z+2, r8	; 0x02
    1786:	81 81       	ldd	r24, Z+1	; 0x01
    1788:	80 80       	ld	r8, Z
    178a:	7f 7f       	andi	r23, 0xFF	; 255
    178c:	7f 7f       	andi	r23, 0xFF	; 255
    178e:	7f 7f       	andi	r23, 0xFF	; 255
    1790:	7f 7f       	andi	r23, 0xFF	; 255
    1792:	7f 7f       	andi	r23, 0xFF	; 255
    1794:	7f 7e       	andi	r23, 0xEF	; 239
    1796:	7e 7d       	andi	r23, 0xDE	; 222
    1798:	7d 7c       	andi	r23, 0xCD	; 205
    179a:	7b 7b       	andi	r23, 0xBB	; 187
    179c:	7a 79       	andi	r23, 0x9A	; 154
    179e:	78 77       	andi	r23, 0x78	; 120
    17a0:	77 76       	andi	r23, 0x67	; 103
    17a2:	76 76       	andi	r23, 0x66	; 102
    17a4:	76 75       	andi	r23, 0x56	; 86
    17a6:	75 75       	andi	r23, 0x55	; 85
    17a8:	75 75       	andi	r23, 0x55	; 85
    17aa:	74 73       	andi	r23, 0x34	; 52
    17ac:	73 72       	andi	r23, 0x23	; 35
    17ae:	71 70       	andi	r23, 0x01	; 1
    17b0:	6f 6f       	ori	r22, 0xFF	; 255
    17b2:	6e 6e       	ori	r22, 0xEE	; 238
    17b4:	6e 6e       	ori	r22, 0xEE	; 238
    17b6:	6f 70       	andi	r22, 0x0F	; 15
    17b8:	72 74       	andi	r23, 0x42	; 66
    17ba:	76 79       	andi	r23, 0x96	; 150
    17bc:	7c 7f       	andi	r23, 0xFC	; 252
    17be:	82 85       	ldd	r24, Z+10	; 0x0a
    17c0:	88 8b       	std	Y+16, r24	; 0x10
    17c2:	8e 90       	ld	r8, -X
    17c4:	92 94       	swap	r9
    17c6:	96 97       	sbiw	r26, 0x26	; 38
    17c8:	98 98       	cbi	0x13, 0	; 19
    17ca:	98 98       	cbi	0x13, 0	; 19
    17cc:	98 98       	cbi	0x13, 0	; 19
    17ce:	98 97       	sbiw	r26, 0x28	; 40
    17d0:	96 95       	lsr	r25
    17d2:	94 93       	xch	Z, r25
    17d4:	91 90       	ld	r9, Z+
    17d6:	8e 8c       	ldd	r8, Y+30	; 0x1e
    17d8:	89 87       	std	Y+9, r24	; 0x09
    17da:	84 82       	std	Z+4, r8	; 0x04
    17dc:	7f 7c       	andi	r23, 0xCF	; 207
    17de:	79 76       	andi	r23, 0x69	; 105
    17e0:	74 71       	andi	r23, 0x14	; 20
    17e2:	6e 6b       	ori	r22, 0xBE	; 190
    17e4:	69 67       	ori	r22, 0x79	; 121
    17e6:	64 62       	ori	r22, 0x24	; 36
    17e8:	60 5e       	subi	r22, 0xE0	; 224
    17ea:	5c 5a       	subi	r21, 0xAC	; 172
    17ec:	58 57       	subi	r21, 0x78	; 120
    17ee:	56 55       	subi	r21, 0x56	; 86
    17f0:	55 55       	subi	r21, 0x55	; 85
    17f2:	56 57       	subi	r21, 0x76	; 118
    17f4:	59 5c       	subi	r21, 0xC9	; 201
    17f6:	5f 63       	ori	r21, 0x3F	; 63
    17f8:	68 6c       	ori	r22, 0xC8	; 200
    17fa:	72 77       	andi	r23, 0x72	; 114
    17fc:	7d 82       	std	Y+5, r7	; 0x05
    17fe:	87 8c       	ldd	r8, Z+31	; 0x1f
    1800:	90 94       	com	r9
    1802:	98 9a       	sbi	0x13, 0	; 19
    1804:	9c 9e       	mul	r9, r28
    1806:	9f a0       	ldd	r9, Y+39	; 0x27
    1808:	a0 a1       	ldd	r26, Z+32	; 0x20
    180a:	a1 a2       	std	Z+33, r10	; 0x21
    180c:	a2 a3       	std	Z+34, r26	; 0x22
    180e:	a4 a5       	ldd	r26, Z+44	; 0x2c
    1810:	a7 a8       	ldd	r10, Z+55	; 0x37
    1812:	aa ac       	ldd	r10, Y+58	; 0x3a
    1814:	ae af       	std	Y+62, r26	; 0x3e
    1816:	b0 b1       	in	r27, 0x00	; 0
    1818:	b2 b1       	in	r27, 0x02	; 2
    181a:	b0 af       	std	Z+56, r27	; 0x38
    181c:	ad aa       	std	Y+53, r10	; 0x35
    181e:	a6 a2       	std	Z+38, r10	; 0x26
    1820:	9e 99       	sbic	0x13, 6	; 19
    1822:	94 8e       	std	Z+28, r9	; 0x1c
    1824:	89 84       	ldd	r8, Y+9	; 0x09
    1826:	80 7b       	andi	r24, 0xB0	; 176
    1828:	77 74       	andi	r23, 0x47	; 71
    182a:	71 6f       	ori	r23, 0xF1	; 241
    182c:	6d 6c       	ori	r22, 0xCD	; 205
    182e:	6c 6c       	ori	r22, 0xCC	; 204
    1830:	6d 6f       	ori	r22, 0xFD	; 253
    1832:	71 73       	andi	r23, 0x31	; 49
    1834:	76 79       	andi	r23, 0x96	; 150
    1836:	7c 7e       	andi	r23, 0xEC	; 236
    1838:	81 84       	ldd	r8, Z+9	; 0x09
    183a:	86 88       	ldd	r8, Z+22	; 0x16
    183c:	89 8a       	std	Y+17, r8	; 0x11
    183e:	8a 8a       	std	Y+18, r8	; 0x12
    1840:	89 87       	std	Y+9, r24	; 0x09
    1842:	85 83       	std	Z+5, r24	; 0x05
    1844:	81 7e       	andi	r24, 0xE1	; 225
    1846:	7c 79       	andi	r23, 0x9C	; 156
    1848:	77 75       	andi	r23, 0x57	; 87
    184a:	74 72       	andi	r23, 0x24	; 36
    184c:	72 71       	andi	r23, 0x12	; 18
    184e:	71 72       	andi	r23, 0x21	; 33
    1850:	72 73       	andi	r23, 0x32	; 50
    1852:	74 74       	andi	r23, 0x44	; 68
    1854:	75 76       	andi	r23, 0x65	; 101
    1856:	76 76       	andi	r23, 0x66	; 102
    1858:	75 75       	andi	r23, 0x55	; 85
    185a:	74 73       	andi	r23, 0x34	; 52
    185c:	72 71       	andi	r23, 0x12	; 18
    185e:	70 6f       	ori	r23, 0xF0	; 240
    1860:	6e 6f       	ori	r22, 0xFE	; 254
    1862:	6f 70       	andi	r22, 0x0F	; 15
    1864:	72 74       	andi	r23, 0x42	; 66
    1866:	77 7b       	andi	r23, 0xB7	; 183
    1868:	7e 82       	std	Y+6, r7	; 0x06
    186a:	86 8a       	std	Z+22, r8	; 0x16
    186c:	8e 92       	st	-X, r8
    186e:	95 98       	cbi	0x12, 5	; 18
    1870:	9a 9b       	sbis	0x13, 2	; 19
    1872:	9c 9b       	sbis	0x13, 4	; 19
    1874:	9a 98       	cbi	0x13, 2	; 19
    1876:	96 92       	lac	Z, r9
    1878:	8f 8a       	std	Y+23, r8	; 0x17
    187a:	86 81       	ldd	r24, Z+6	; 0x06
    187c:	7d 78       	andi	r23, 0x8D	; 141
    187e:	74 70       	andi	r23, 0x04	; 4
    1880:	6c 69       	ori	r22, 0x9C	; 156
    1882:	66 64       	ori	r22, 0x46	; 70
    1884:	62 60       	ori	r22, 0x02	; 2
    1886:	5f 5e       	subi	r21, 0xEF	; 239
    1888:	5e 5d       	subi	r21, 0xDE	; 222
    188a:	5d 5d       	subi	r21, 0xDD	; 221
    188c:	5d 5d       	subi	r21, 0xDD	; 221
    188e:	5d 5d       	subi	r21, 0xDD	; 221
    1890:	5d 5c       	subi	r21, 0xCD	; 205
    1892:	5c 5c       	subi	r21, 0xCC	; 204
    1894:	5b 5b       	subi	r21, 0xBB	; 187
    1896:	5b 5b       	subi	r21, 0xBB	; 187
    1898:	5c 5c       	subi	r21, 0xCC	; 204
    189a:	5e 5f       	subi	r21, 0xFE	; 254
    189c:	61 64       	ori	r22, 0x41	; 65
    189e:	67 6a       	ori	r22, 0xA7	; 167
    18a0:	6e 73       	andi	r22, 0x3E	; 62
    18a2:	77 7c       	andi	r23, 0xC7	; 199
    18a4:	81 86       	std	Z+9, r8	; 0x09
    18a6:	8a 8f       	std	Y+26, r24	; 0x1a
    18a8:	93 97       	sbiw	r26, 0x23	; 35
    18aa:	9a 9d       	mul	r25, r10
    18ac:	9f a0       	ldd	r9, Y+39	; 0x27
    18ae:	a1 a1       	ldd	r26, Z+33	; 0x21
    18b0:	a1 a0       	ldd	r10, Z+33	; 0x21
    18b2:	9f 9d       	mul	r25, r15
    18b4:	9b 99       	sbic	0x13, 3	; 19
    18b6:	97 95       	ror	r25
    18b8:	93 91       	.word	0x9193	; ????
    18ba:	8f 8e       	std	Y+31, r8	; 0x1f
    18bc:	8d 8b       	std	Y+21, r24	; 0x15
    18be:	8a 8a       	std	Y+18, r8	; 0x12
    18c0:	89 88       	ldd	r8, Y+17	; 0x11
    18c2:	88 87       	std	Y+8, r24	; 0x08
    18c4:	87 86       	std	Z+15, r8	; 0x0f
    18c6:	85 85       	ldd	r24, Z+13	; 0x0d
    18c8:	84 83       	std	Z+4, r24	; 0x04
    18ca:	82 82       	std	Z+2, r8	; 0x02
    18cc:	81 81       	ldd	r24, Z+1	; 0x01
    18ce:	81 81       	ldd	r24, Z+1	; 0x01
    18d0:	81 82       	std	Z+1, r8	; 0x01
    18d2:	83 84       	ldd	r8, Z+11	; 0x0b
    18d4:	86 88       	ldd	r8, Z+22	; 0x16
    18d6:	8a 8d       	ldd	r24, Y+26	; 0x1a
    18d8:	8f 92       	push	r8
    18da:	95 97       	sbiw	r26, 0x25	; 37
    18dc:	9a 9c       	mul	r9, r10
    18de:	9e 9f       	mul	r25, r30
    18e0:	a0 a1       	ldd	r26, Z+32	; 0x20
    18e2:	a1 a0       	ldd	r10, Z+33	; 0x21
    18e4:	9f 9d       	mul	r25, r15
    18e6:	9b 99       	sbic	0x13, 3	; 19
    18e8:	96 93       	lac	Z, r25
    18ea:	90 8d       	ldd	r25, Z+24	; 0x18
    18ec:	8a 87       	std	Y+10, r24	; 0x0a
    18ee:	84 81       	ldd	r24, Z+4	; 0x04
    18f0:	7f 7c       	andi	r23, 0xCF	; 207
    18f2:	7a 78       	andi	r23, 0x8A	; 138
    18f4:	76 74       	andi	r23, 0x46	; 70
    18f6:	73 71       	andi	r23, 0x13	; 19
    18f8:	70 6f       	ori	r23, 0xF0	; 240
    18fa:	6e 6d       	ori	r22, 0xDE	; 222
    18fc:	6c 6b       	ori	r22, 0xBC	; 188
    18fe:	6a 6a       	ori	r22, 0xAA	; 170
    1900:	6a 6a       	ori	r22, 0xAA	; 170
    1902:	6a 6a       	ori	r22, 0xAA	; 170
    1904:	6b 6c       	ori	r22, 0xCB	; 203
    1906:	6e 70       	andi	r22, 0x0E	; 14
    1908:	72 74       	andi	r23, 0x42	; 66
    190a:	76 79       	andi	r23, 0x96	; 150
    190c:	7c 7f       	andi	r23, 0xFC	; 252
    190e:	81 84       	ldd	r8, Z+9	; 0x09
    1910:	87 89       	ldd	r24, Z+23	; 0x17
    1912:	8b 8d       	ldd	r24, Y+27	; 0x1b
    1914:	8e 8f       	std	Y+30, r24	; 0x1e
    1916:	8f 90       	pop	r8
    1918:	8f 8f       	std	Y+31, r24	; 0x1f
    191a:	8e 8d       	ldd	r24, Y+30	; 0x1e
    191c:	8c 8a       	std	Y+20, r8	; 0x14
    191e:	89 87       	std	Y+9, r24	; 0x09
    1920:	85 84       	ldd	r8, Z+13	; 0x0d
    1922:	82 80       	ldd	r8, Z+2	; 0x02
    1924:	7f 7d       	andi	r23, 0xDF	; 223
    1926:	7b 79       	andi	r23, 0x9B	; 155
    1928:	77 75       	andi	r23, 0x57	; 87
    192a:	73 71       	andi	r23, 0x13	; 19
    192c:	6f 6d       	ori	r22, 0xDF	; 223
    192e:	6b 68       	ori	r22, 0x8B	; 139
    1930:	66 64       	ori	r22, 0x46	; 70
    1932:	62 60       	ori	r22, 0x02	; 2
    1934:	5f 5e       	subi	r21, 0xEF	; 239
    1936:	5d 5c       	subi	r21, 0xCD	; 205
    1938:	5c 5d       	subi	r21, 0xDC	; 220
    193a:	5e 5f       	subi	r21, 0xFE	; 254
    193c:	61 63       	ori	r22, 0x31	; 49
    193e:	65 68       	ori	r22, 0x85	; 133
    1940:	6b 6f       	ori	r22, 0xFB	; 251
    1942:	72 75       	andi	r23, 0x52	; 82
    1944:	78 7b       	andi	r23, 0xB8	; 184
    1946:	7e 80       	ldd	r7, Y+6	; 0x06
    1948:	83 85       	ldd	r24, Z+11	; 0x0b
    194a:	86 87       	std	Z+14, r24	; 0x0e
    194c:	88 88       	ldd	r8, Y+16	; 0x10
    194e:	89 88       	ldd	r8, Y+17	; 0x11
    1950:	88 88       	ldd	r8, Y+16	; 0x10
    1952:	87 87       	std	Z+15, r24	; 0x0f
    1954:	86 85       	ldd	r24, Z+14	; 0x0e
    1956:	85 85       	ldd	r24, Z+13	; 0x0d
    1958:	84 84       	ldd	r8, Z+12	; 0x0c
    195a:	84 83       	std	Z+4, r24	; 0x04
    195c:	83 83       	std	Z+3, r24	; 0x03
    195e:	83 83       	std	Z+3, r24	; 0x03
    1960:	83 82       	std	Z+3, r8	; 0x03
    1962:	82 81       	ldd	r24, Z+2	; 0x02
    1964:	80 7f       	andi	r24, 0xF0	; 240
    1966:	7f 7e       	andi	r23, 0xEF	; 239
    1968:	7d 7c       	andi	r23, 0xCD	; 205
    196a:	7b 7a       	andi	r23, 0xAB	; 171
    196c:	79 79       	andi	r23, 0x99	; 153
    196e:	78 79       	andi	r23, 0x98	; 152
    1970:	79 7a       	andi	r23, 0xA9	; 169
    1972:	7b 7d       	andi	r23, 0xDB	; 219
    1974:	7e 81       	ldd	r23, Y+6	; 0x06
    1976:	83 86       	std	Z+11, r8	; 0x0b
    1978:	89 8c       	ldd	r8, Y+25	; 0x19
    197a:	8f 92       	push	r8
    197c:	95 98       	cbi	0x12, 5	; 18
    197e:	9a 9d       	mul	r25, r10
    1980:	9f a0       	ldd	r9, Y+39	; 0x27
    1982:	a1 a2       	std	Z+33, r10	; 0x21
    1984:	a2 a3       	std	Z+34, r26	; 0x22
    1986:	a2 a1       	ldd	r26, Z+34	; 0x22
    1988:	a0 9f       	mul	r26, r16
    198a:	9e 9c       	mul	r9, r14
    198c:	9a 99       	sbic	0x13, 2	; 19
    198e:	97 95       	ror	r25
    1990:	93 91       	.word	0x9193	; ????
    1992:	8f 8d       	ldd	r24, Y+31	; 0x1f
    1994:	8b 89       	ldd	r24, Y+19	; 0x13
    1996:	87 85       	ldd	r24, Z+15	; 0x0f
    1998:	83 81       	ldd	r24, Z+3	; 0x03
    199a:	7e 7c       	andi	r23, 0xCE	; 206
    199c:	7a 77       	andi	r23, 0x7A	; 122
    199e:	75 72       	andi	r23, 0x25	; 37
    19a0:	70 6e       	ori	r23, 0xE0	; 224
    19a2:	6c 6a       	ori	r22, 0xAC	; 172
    19a4:	68 67       	ori	r22, 0x78	; 120
    19a6:	66 66       	ori	r22, 0x66	; 102
    19a8:	66 67       	ori	r22, 0x76	; 118
    19aa:	68 6a       	ori	r22, 0xA8	; 168
    19ac:	6c 6e       	ori	r22, 0xEC	; 236
    19ae:	71 74       	andi	r23, 0x41	; 65
    19b0:	77 7b       	andi	r23, 0xB7	; 183
    19b2:	7e 82       	std	Y+6, r7	; 0x06
    19b4:	85 88       	ldd	r8, Z+21	; 0x15
    19b6:	8b 8e       	std	Y+27, r8	; 0x1b
    19b8:	90 91 93 93 	lds	r25, 0x9393
    19bc:	93 93       	.word	0x9393	; ????
    19be:	93 92       	.word	0x9293	; ????
    19c0:	90 8f       	std	Z+24, r25	; 0x18
    19c2:	8d 8b       	std	Y+21, r24	; 0x15
    19c4:	89 87       	std	Y+9, r24	; 0x09
    19c6:	86 84       	ldd	r8, Z+14	; 0x0e
    19c8:	82 80       	ldd	r8, Z+2	; 0x02
    19ca:	7f 7d       	andi	r23, 0xDF	; 223
    19cc:	7c 7a       	andi	r23, 0xAC	; 172
    19ce:	79 78       	andi	r23, 0x89	; 137
    19d0:	76 75       	andi	r23, 0x56	; 86
    19d2:	73 72       	andi	r23, 0x23	; 35
    19d4:	70 6e       	ori	r23, 0xE0	; 224
    19d6:	6c 6a       	ori	r22, 0xAC	; 172
    19d8:	69 67       	ori	r22, 0x79	; 121
    19da:	65 64       	ori	r22, 0x45	; 69
    19dc:	62 61       	ori	r22, 0x12	; 18
    19de:	60 60       	ori	r22, 0x00	; 0
    19e0:	60 60       	ori	r22, 0x00	; 0
    19e2:	61 62       	ori	r22, 0x21	; 33
    19e4:	64 66       	ori	r22, 0x64	; 100
    19e6:	68 6b       	ori	r22, 0xB8	; 184
    19e8:	6e 71       	andi	r22, 0x1E	; 30
    19ea:	74 77       	andi	r23, 0x74	; 116
    19ec:	7a 7c       	andi	r23, 0xCA	; 202
    19ee:	7f 81       	ldd	r23, Y+7	; 0x07
    19f0:	83 84       	ldd	r8, Z+11	; 0x0b
    19f2:	86 86       	std	Z+14, r8	; 0x0e
    19f4:	87 87       	std	Z+15, r24	; 0x0f
    19f6:	86 85       	ldd	r24, Z+14	; 0x0e
    19f8:	84 83       	std	Z+4, r24	; 0x04
    19fa:	82 80       	ldd	r8, Z+2	; 0x02
    19fc:	7f 7d       	andi	r23, 0xDF	; 223
    19fe:	7c 7a       	andi	r23, 0xAC	; 172
    1a00:	79 77       	andi	r23, 0x79	; 121
    1a02:	76 75       	andi	r23, 0x56	; 86
    1a04:	74 73       	andi	r23, 0x34	; 52
    1a06:	73 72       	andi	r23, 0x23	; 35
    1a08:	72 72       	andi	r23, 0x22	; 34
    1a0a:	72 72       	andi	r23, 0x22	; 34
    1a0c:	72 72       	andi	r23, 0x22	; 34
    1a0e:	73 73       	andi	r23, 0x33	; 51
    1a10:	74 75       	andi	r23, 0x54	; 84
    1a12:	76 77       	andi	r23, 0x76	; 118
    1a14:	78 7a       	andi	r23, 0xA8	; 168
    1a16:	7c 7e       	andi	r23, 0xEC	; 236
    1a18:	80 83       	st	Z, r24
    1a1a:	85 88       	ldd	r8, Z+21	; 0x15
    1a1c:	8b 8e       	std	Y+27, r8	; 0x1b
    1a1e:	90 93 96 98 	sts	0x9896, r25
    1a22:	9b 9d       	mul	r25, r11
    1a24:	9f a0       	ldd	r9, Y+39	; 0x27
    1a26:	a1 a2       	std	Z+33, r10	; 0x21
    1a28:	a3 a3       	std	Z+35, r26	; 0x23
    1a2a:	a3 a2       	std	Z+35, r10	; 0x23
    1a2c:	a1 a0       	ldd	r10, Z+33	; 0x21
    1a2e:	9e 9d       	mul	r25, r14
    1a30:	9b 99       	sbic	0x13, 3	; 19
    1a32:	96 94       	lsr	r9
    1a34:	92 90       	ld	r9, -Z
    1a36:	8d 8b       	std	Y+21, r24	; 0x15
    1a38:	89 87       	std	Y+9, r24	; 0x09
    1a3a:	85 83       	std	Z+5, r24	; 0x05
    1a3c:	81 7f       	andi	r24, 0xF1	; 241
    1a3e:	7d 7c       	andi	r23, 0xCD	; 205
    1a40:	7a 79       	andi	r23, 0x9A	; 154
    1a42:	77 76       	andi	r23, 0x67	; 103
    1a44:	75 74       	andi	r23, 0x45	; 69
    1a46:	74 73       	andi	r23, 0x34	; 52
    1a48:	73 73       	andi	r23, 0x33	; 51
    1a4a:	73 74       	andi	r23, 0x43	; 67
    1a4c:	75 76       	andi	r23, 0x65	; 101
    1a4e:	77 78       	andi	r23, 0x87	; 135
    1a50:	7a 7c       	andi	r23, 0xCA	; 202
    1a52:	7e 80       	ldd	r7, Y+6	; 0x06
    1a54:	82 84       	ldd	r8, Z+10	; 0x0a
    1a56:	86 88       	ldd	r8, Z+22	; 0x16
    1a58:	8a 8c       	ldd	r8, Y+26	; 0x1a
    1a5a:	8e 8f       	std	Y+30, r24	; 0x1e
    1a5c:	90 91 91 92 	lds	r25, 0x9291
    1a60:	92 91       	ld	r25, -Z
    1a62:	91 90       	ld	r9, Z+
    1a64:	8f 8e       	std	Y+31, r8	; 0x1f
    1a66:	8d 8c       	ldd	r8, Y+29	; 0x1d
    1a68:	8a 89       	ldd	r24, Y+18	; 0x12
    1a6a:	87 85       	ldd	r24, Z+15	; 0x0f
    1a6c:	83 81       	ldd	r24, Z+3	; 0x03
    1a6e:	7f 7d       	andi	r23, 0xDF	; 223
    1a70:	7b 79       	andi	r23, 0x9B	; 155
    1a72:	77 75       	andi	r23, 0x57	; 87
    1a74:	72 70       	andi	r23, 0x02	; 2
    1a76:	6e 6c       	ori	r22, 0xCE	; 206
    1a78:	6a 68       	ori	r22, 0x8A	; 138
    1a7a:	66 65       	ori	r22, 0x56	; 86
    1a7c:	64 63       	ori	r22, 0x34	; 52
    1a7e:	63 63       	ori	r22, 0x33	; 51
    1a80:	63 64       	ori	r22, 0x43	; 67
    1a82:	65 66       	ori	r22, 0x65	; 101
    1a84:	68 6a       	ori	r22, 0xA8	; 168
    1a86:	6d 6f       	ori	r22, 0xFD	; 253
    1a88:	72 75       	andi	r23, 0x52	; 82
    1a8a:	78 7b       	andi	r23, 0xB8	; 184
    1a8c:	7d 80       	ldd	r7, Y+5	; 0x05
    1a8e:	82 84       	ldd	r8, Z+10	; 0x0a
    1a90:	86 87       	std	Z+14, r24	; 0x0e
    1a92:	88 89       	ldd	r24, Y+16	; 0x10
    1a94:	89 89       	ldd	r24, Y+17	; 0x11
    1a96:	89 89       	ldd	r24, Y+17	; 0x11
    1a98:	88 87       	std	Y+8, r24	; 0x08
    1a9a:	86 85       	ldd	r24, Z+14	; 0x0e
    1a9c:	84 83       	std	Z+4, r24	; 0x04
    1a9e:	82 81       	ldd	r24, Z+2	; 0x02
    1aa0:	80 7f       	andi	r24, 0xF0	; 240
    1aa2:	7e 7d       	andi	r23, 0xDE	; 222
    1aa4:	7c 7b       	andi	r23, 0xBC	; 188
    1aa6:	7a 79       	andi	r23, 0x9A	; 154
    1aa8:	78 77       	andi	r23, 0x78	; 120
    1aaa:	75 74       	andi	r23, 0x45	; 69
    1aac:	73 71       	andi	r23, 0x13	; 19
    1aae:	70 6e       	ori	r23, 0xE0	; 224
    1ab0:	6d 6c       	ori	r22, 0xCD	; 205
    1ab2:	6b 6b       	ori	r22, 0xBB	; 187
    1ab4:	6a 6a       	ori	r22, 0xAA	; 170
    1ab6:	6b 6b       	ori	r22, 0xBB	; 187
    1ab8:	6c 6e       	ori	r22, 0xEC	; 236
    1aba:	70 72       	andi	r23, 0x20	; 32
    1abc:	74 77       	andi	r23, 0x74	; 116
    1abe:	7a 7d       	andi	r23, 0xDA	; 218
    1ac0:	80 83       	st	Z, r24
    1ac2:	86 89       	ldd	r24, Z+22	; 0x16
    1ac4:	8b 8e       	std	Y+27, r8	; 0x1b
    1ac6:	90 91 93 94 	lds	r25, 0x9493
    1aca:	95 95       	asr	r25
    1acc:	95 95       	asr	r25
    1ace:	94 94       	.word	0x9494	; ????
    1ad0:	93 93       	.word	0x9393	; ????
    1ad2:	92 91       	ld	r25, -Z
    1ad4:	90 90 8f 8f 	lds	r9, 0x8F8F
    1ad8:	8e 8d       	ldd	r24, Y+30	; 0x1e
    1ada:	8d 8c       	ldd	r8, Y+29	; 0x1d
    1adc:	8b 8b       	std	Y+19, r24	; 0x13
    1ade:	8a 88       	ldd	r8, Y+18	; 0x12
    1ae0:	87 86       	std	Z+15, r8	; 0x0f
    1ae2:	84 83       	std	Z+4, r24	; 0x04
    1ae4:	81 7f       	andi	r24, 0xF1	; 241
    1ae6:	7e 7c       	andi	r23, 0xCE	; 206
    1ae8:	7a 79       	andi	r23, 0x9A	; 154
    1aea:	78 77       	andi	r23, 0x78	; 120
    1aec:	77 77       	andi	r23, 0x77	; 119
    1aee:	77 78       	andi	r23, 0x87	; 135
    1af0:	79 7a       	andi	r23, 0xA9	; 169
    1af2:	7c 7e       	andi	r23, 0xEC	; 236
    1af4:	81 83       	std	Z+1, r24	; 0x01
    1af6:	86 89       	ldd	r24, Z+22	; 0x16
    1af8:	8b 8e       	std	Y+27, r8	; 0x1b
    1afa:	90 93 94 96 	sts	0x9694, r25
    1afe:	97 98       	cbi	0x12, 7	; 18
    1b00:	98 98       	cbi	0x13, 0	; 19
    1b02:	98 97       	sbiw	r26, 0x28	; 40
    1b04:	96 95       	lsr	r25
    1b06:	93 91       	.word	0x9193	; ????
    1b08:	90 8e       	std	Z+24, r9	; 0x18
    1b0a:	8c 8a       	std	Y+20, r8	; 0x14
    1b0c:	89 87       	std	Y+9, r24	; 0x09
    1b0e:	85 84       	ldd	r8, Z+13	; 0x0d
    1b10:	82 81       	ldd	r24, Z+2	; 0x02
    1b12:	7f 7e       	andi	r23, 0xEF	; 239
    1b14:	7d 7b       	andi	r23, 0xBD	; 189
    1b16:	79 78       	andi	r23, 0x89	; 137
    1b18:	76 75       	andi	r23, 0x56	; 86
    1b1a:	73 71       	andi	r23, 0x13	; 19
    1b1c:	70 6e       	ori	r23, 0xE0	; 224
    1b1e:	6d 6b       	ori	r22, 0xBD	; 189
    1b20:	6a 6a       	ori	r22, 0xAA	; 170
    1b22:	69 69       	ori	r22, 0x99	; 153
    1b24:	69 6a       	ori	r22, 0xA9	; 169
    1b26:	6b 6c       	ori	r22, 0xCB	; 203
    1b28:	6e 70       	andi	r22, 0x0E	; 14
    1b2a:	72 74       	andi	r23, 0x42	; 66
    1b2c:	77 79       	andi	r23, 0x97	; 151
    1b2e:	7c 7e       	andi	r23, 0xEC	; 236
    1b30:	80 83       	st	Z, r24
    1b32:	84 86       	std	Z+12, r8	; 0x0c
    1b34:	87 88       	ldd	r8, Z+23	; 0x17
    1b36:	89 89       	ldd	r24, Y+17	; 0x11
    1b38:	89 89       	ldd	r24, Y+17	; 0x11
    1b3a:	88 88       	ldd	r8, Y+16	; 0x10
    1b3c:	87 86       	std	Z+15, r8	; 0x0f
    1b3e:	85 83       	std	Z+5, r24	; 0x05
    1b40:	82 81       	ldd	r24, Z+2	; 0x02
    1b42:	80 7e       	andi	r24, 0xE0	; 224
    1b44:	7d 7c       	andi	r23, 0xCD	; 205
    1b46:	7b 7a       	andi	r23, 0xAB	; 171
    1b48:	79 78       	andi	r23, 0x89	; 137
    1b4a:	76 75       	andi	r23, 0x56	; 86
    1b4c:	74 72       	andi	r23, 0x24	; 36
    1b4e:	71 6f       	ori	r23, 0xF1	; 241
    1b50:	6e 6c       	ori	r22, 0xCE	; 206
    1b52:	6a 69       	ori	r22, 0x9A	; 154
    1b54:	68 67       	ori	r22, 0x78	; 120
    1b56:	66 65       	ori	r22, 0x56	; 86
    1b58:	65 65       	ori	r22, 0x55	; 85
    1b5a:	65 66       	ori	r22, 0x65	; 101
    1b5c:	67 69       	ori	r22, 0x97	; 151
    1b5e:	6b 6d       	ori	r22, 0xDB	; 219
    1b60:	6f 72       	andi	r22, 0x2F	; 47
    1b62:	75 78       	andi	r23, 0x85	; 133
    1b64:	7b 7e       	andi	r23, 0xEB	; 235
    1b66:	81 83       	std	Z+1, r24	; 0x01
    1b68:	86 88       	ldd	r8, Z+22	; 0x16
    1b6a:	8a 8c       	ldd	r8, Y+26	; 0x1a
    1b6c:	8d 8e       	std	Y+29, r8	; 0x1d
    1b6e:	8f 8f       	std	Y+31, r24	; 0x1f
    1b70:	8f 8f       	std	Y+31, r24	; 0x1f
    1b72:	8e 8e       	std	Y+30, r8	; 0x1e
    1b74:	8d 8c       	ldd	r8, Y+29	; 0x1d
    1b76:	8c 8b       	std	Y+20, r24	; 0x14
    1b78:	8a 89       	ldd	r24, Y+18	; 0x12
    1b7a:	89 88       	ldd	r8, Y+17	; 0x11
    1b7c:	87 87       	std	Z+15, r24	; 0x0f
    1b7e:	86 85       	ldd	r24, Z+14	; 0x0e
    1b80:	85 84       	ldd	r8, Z+13	; 0x0d
    1b82:	84 83       	std	Z+4, r24	; 0x04
    1b84:	82 81       	ldd	r24, Z+2	; 0x02
    1b86:	80 7f       	andi	r24, 0xF0	; 240
    1b88:	7e 7d       	andi	r23, 0xDE	; 222
    1b8a:	7c 7c       	andi	r23, 0xCC	; 204
    1b8c:	7b 7b       	andi	r23, 0xBB	; 187
    1b8e:	7a 7a       	andi	r23, 0xAA	; 170
    1b90:	7b 7b       	andi	r23, 0xBB	; 187
    1b92:	7c 7e       	andi	r23, 0xEC	; 236
    1b94:	7f 81       	ldd	r23, Y+7	; 0x07
    1b96:	83 85       	ldd	r24, Z+11	; 0x0b
    1b98:	87 8a       	std	Z+23, r8	; 0x17
    1b9a:	8c 8e       	std	Y+28, r8	; 0x1c
    1b9c:	90 92 94 96 	sts	0x9694, r9
    1ba0:	97 98       	cbi	0x12, 7	; 18
    1ba2:	98 98       	cbi	0x13, 0	; 19
    1ba4:	98 98       	cbi	0x13, 0	; 19
    1ba6:	97 96       	adiw	r26, 0x27	; 39
    1ba8:	95 94       	asr	r9
    1baa:	93 91       	.word	0x9193	; ????
    1bac:	90 8e       	std	Z+24, r9	; 0x18
    1bae:	8d 8b       	std	Y+21, r24	; 0x15
    1bb0:	8a 89       	ldd	r24, Y+18	; 0x12
    1bb2:	87 86       	std	Z+15, r8	; 0x0f
    1bb4:	85 84       	ldd	r8, Z+13	; 0x0d
    1bb6:	82 81       	ldd	r24, Z+2	; 0x02
    1bb8:	7f 7e       	andi	r23, 0xEF	; 239
    1bba:	7c 7b       	andi	r23, 0xBC	; 188
    1bbc:	79 77       	andi	r23, 0x79	; 121
    1bbe:	75 74       	andi	r23, 0x45	; 69
    1bc0:	72 71       	andi	r23, 0x12	; 18
    1bc2:	6f 6e       	ori	r22, 0xEF	; 239
    1bc4:	6e 6d       	ori	r22, 0xDE	; 222
    1bc6:	6d 6d       	ori	r22, 0xDD	; 221
    1bc8:	6e 6f       	ori	r22, 0xFE	; 254
    1bca:	71 72       	andi	r23, 0x21	; 33
    1bcc:	75 77       	andi	r23, 0x75	; 117
    1bce:	79 7c       	andi	r23, 0xC9	; 201
    1bd0:	7f 82       	std	Y+7, r7	; 0x07
    1bd2:	84 87       	std	Z+12, r24	; 0x0c
    1bd4:	89 8b       	std	Y+17, r24	; 0x11
    1bd6:	8c 8d       	ldd	r24, Y+28	; 0x1c
    1bd8:	8e 8e       	std	Y+30, r8	; 0x1e
    1bda:	8e 8e       	std	Y+30, r8	; 0x1e
    1bdc:	8d 8c       	ldd	r8, Y+29	; 0x1d
    1bde:	8a 89       	ldd	r24, Y+18	; 0x12
    1be0:	87 85       	ldd	r24, Z+15	; 0x0f
    1be2:	83 81       	ldd	r24, Z+3	; 0x03
    1be4:	7f 7e       	andi	r23, 0xEF	; 239
    1be6:	7c 7a       	andi	r23, 0xAC	; 172
    1be8:	79 78       	andi	r23, 0x89	; 137
    1bea:	76 75       	andi	r23, 0x56	; 86
    1bec:	74 73       	andi	r23, 0x34	; 52
    1bee:	72 71       	andi	r23, 0x12	; 18
    1bf0:	6f 6e       	ori	r22, 0xEF	; 239
    1bf2:	6d 6b       	ori	r22, 0xBD	; 189
    1bf4:	6a 69       	ori	r22, 0x9A	; 154
    1bf6:	67 66       	ori	r22, 0x67	; 103
    1bf8:	65 64       	ori	r22, 0x45	; 69
    1bfa:	64 63       	ori	r22, 0x34	; 52
    1bfc:	63 64       	ori	r22, 0x43	; 67
    1bfe:	65 66       	ori	r22, 0x65	; 101
    1c00:	67 69       	ori	r22, 0x97	; 151
    1c02:	6c 6e       	ori	r22, 0xEC	; 236
    1c04:	71 74       	andi	r23, 0x41	; 65
    1c06:	77 7b       	andi	r23, 0xB7	; 183
    1c08:	7e 81       	ldd	r23, Y+6	; 0x06
    1c0a:	84 87       	std	Z+12, r24	; 0x0c
    1c0c:	89 8b       	std	Y+17, r24	; 0x11
    1c0e:	8d 8e       	std	Y+29, r8	; 0x1d
    1c10:	8f 90       	pop	r8
    1c12:	90 90 8f 8f 	lds	r9, 0x8F8F
    1c16:	8e 8d       	ldd	r24, Y+30	; 0x1e
    1c18:	8b 8a       	std	Y+19, r8	; 0x13
    1c1a:	89 88       	ldd	r8, Y+17	; 0x11
    1c1c:	87 86       	std	Z+15, r8	; 0x0f
    1c1e:	85 84       	ldd	r8, Z+13	; 0x0d
    1c20:	83 82       	std	Z+3, r8	; 0x03
    1c22:	81 81       	ldd	r24, Z+1	; 0x01
    1c24:	80 7f       	andi	r24, 0xF0	; 240
    1c26:	7e 7c       	andi	r23, 0xCE	; 206
    1c28:	7b 7a       	andi	r23, 0xAB	; 171
    1c2a:	78 77       	andi	r23, 0x78	; 120
    1c2c:	75 74       	andi	r23, 0x45	; 69
    1c2e:	73 72       	andi	r23, 0x23	; 35
    1c30:	71 70       	andi	r23, 0x01	; 1
    1c32:	70 70       	andi	r23, 0x00	; 0
    1c34:	71 72       	andi	r23, 0x21	; 33
    1c36:	73 75       	andi	r23, 0x53	; 83
    1c38:	77 7a       	andi	r23, 0xA7	; 167
    1c3a:	7d 80       	ldd	r7, Y+5	; 0x05
    1c3c:	83 87       	std	Z+11, r24	; 0x0b
    1c3e:	8a 8e       	std	Y+26, r8	; 0x1a
    1c40:	91 94       	neg	r9
    1c42:	96 98       	cbi	0x12, 6	; 18
    1c44:	9a 9c       	mul	r9, r10
    1c46:	9c 9d       	mul	r25, r12
    1c48:	9d 9c       	mul	r9, r13
    1c4a:	9b 9a       	sbi	0x13, 3	; 19
    1c4c:	99 97       	sbiw	r26, 0x29	; 41
    1c4e:	96 94       	lsr	r9
    1c50:	92 91       	ld	r25, -Z
    1c52:	8f 8d       	ldd	r24, Y+31	; 0x1f
    1c54:	8c 8b       	std	Y+20, r24	; 0x14
    1c56:	89 88       	ldd	r8, Y+17	; 0x11
    1c58:	87 86       	std	Z+15, r8	; 0x0f
    1c5a:	85 84       	ldd	r8, Z+13	; 0x0d
    1c5c:	82 81       	ldd	r24, Z+2	; 0x02
    1c5e:	80 7e       	andi	r24, 0xE0	; 224
    1c60:	7c 7b       	andi	r23, 0xBC	; 188
    1c62:	79 77       	andi	r23, 0x79	; 121
    1c64:	76 74       	andi	r23, 0x46	; 70
    1c66:	73 72       	andi	r23, 0x23	; 35
    1c68:	71 70       	andi	r23, 0x01	; 1
    1c6a:	70 70       	andi	r23, 0x00	; 0
    1c6c:	71 72       	andi	r23, 0x21	; 33
    1c6e:	73 75       	andi	r23, 0x53	; 83
    1c70:	77 7a       	andi	r23, 0xA7	; 167
    1c72:	7c 7f       	andi	r23, 0xFC	; 252
    1c74:	82 84       	ldd	r8, Z+10	; 0x0a
    1c76:	87 89       	ldd	r24, Z+23	; 0x17
    1c78:	8b 8d       	ldd	r24, Y+27	; 0x1b
    1c7a:	8f 90       	pop	r8
    1c7c:	90 91 91 90 	lds	r25, 0x9091
    1c80:	8f 8e       	std	Y+31, r8	; 0x1f
    1c82:	8d 8c       	ldd	r8, Y+29	; 0x1d
    1c84:	8a 88       	ldd	r8, Y+18	; 0x12
    1c86:	87 85       	ldd	r24, Z+15	; 0x0f
    1c88:	83 82       	std	Z+3, r8	; 0x03
    1c8a:	80 7f       	andi	r24, 0xF0	; 240
    1c8c:	7e 7c       	andi	r23, 0xCE	; 206
    1c8e:	7b 7a       	andi	r23, 0xAB	; 171
    1c90:	78 77       	andi	r23, 0x78	; 120
    1c92:	76 74       	andi	r23, 0x46	; 70
    1c94:	73 71       	andi	r23, 0x13	; 19
    1c96:	6f 6d       	ori	r22, 0xDF	; 223
    1c98:	6c 6a       	ori	r22, 0xAC	; 172
    1c9a:	68 67       	ori	r22, 0x78	; 120
    1c9c:	66 65       	ori	r22, 0x56	; 86
    1c9e:	64 64       	ori	r22, 0x44	; 68
    1ca0:	64 64       	ori	r22, 0x44	; 68
    1ca2:	65 67       	ori	r22, 0x75	; 117
    1ca4:	68 6a       	ori	r22, 0xA8	; 168
    1ca6:	6d 70       	andi	r22, 0x0D	; 13
    1ca8:	73 76       	andi	r23, 0x63	; 99
    1caa:	79 7c       	andi	r23, 0xC9	; 201
    1cac:	7f 82       	std	Y+7, r7	; 0x07
    1cae:	84 87       	std	Z+12, r24	; 0x0c
    1cb0:	89 8a       	std	Y+17, r8	; 0x11
    1cb2:	8b 8c       	ldd	r8, Y+27	; 0x1b
    1cb4:	8c 8c       	ldd	r8, Y+28	; 0x1c
    1cb6:	8c 8b       	std	Y+20, r24	; 0x14
    1cb8:	8a 89       	ldd	r24, Y+18	; 0x12
    1cba:	88 86       	std	Y+8, r8	; 0x08
    1cbc:	85 83       	std	Z+5, r24	; 0x05
    1cbe:	82 81       	ldd	r24, Z+2	; 0x02
    1cc0:	80 7e       	andi	r24, 0xE0	; 224
    1cc2:	7d 7c       	andi	r23, 0xCD	; 205
    1cc4:	7c 7b       	andi	r23, 0xBC	; 188
    1cc6:	7a 79       	andi	r23, 0x9A	; 154
    1cc8:	78 78       	andi	r23, 0x88	; 136
    1cca:	77 76       	andi	r23, 0x67	; 103
    1ccc:	75 74       	andi	r23, 0x45	; 69
    1cce:	73 72       	andi	r23, 0x23	; 35
    1cd0:	71 70       	andi	r23, 0x01	; 1
    1cd2:	6f 6e       	ori	r22, 0xEF	; 239
    1cd4:	6e 6e       	ori	r22, 0xEE	; 238
    1cd6:	6e 6f       	ori	r22, 0xFE	; 254
    1cd8:	70 71       	andi	r23, 0x10	; 16
    1cda:	73 75       	andi	r23, 0x53	; 83
    1cdc:	78 7a       	andi	r23, 0xA8	; 168
    1cde:	7d 80       	ldd	r7, Y+5	; 0x05
    1ce0:	84 87       	std	Z+12, r24	; 0x0c
    1ce2:	8a 8d       	ldd	r24, Y+26	; 0x1a
    1ce4:	90 92 94 96 	sts	0x9694, r9
    1ce8:	98 99       	sbic	0x13, 0	; 19
    1cea:	9a 9a       	sbi	0x13, 2	; 19
    1cec:	9a 9a       	sbi	0x13, 2	; 19
    1cee:	99 98       	cbi	0x13, 1	; 19
    1cf0:	97 96       	adiw	r26, 0x27	; 39
    1cf2:	95 94       	asr	r9
    1cf4:	92 91       	ld	r25, -Z
    1cf6:	8f 8e       	std	Y+31, r8	; 0x1f
    1cf8:	8d 8b       	std	Y+21, r24	; 0x15
    1cfa:	8a 89       	ldd	r24, Y+18	; 0x12
    1cfc:	87 86       	std	Z+15, r8	; 0x0f
    1cfe:	85 83       	std	Z+5, r24	; 0x05
    1d00:	82 80       	ldd	r8, Z+2	; 0x02
    1d02:	7e 7d       	andi	r23, 0xDE	; 222
    1d04:	7b 79       	andi	r23, 0x9B	; 155
    1d06:	77 76       	andi	r23, 0x67	; 103
    1d08:	75 73       	andi	r23, 0x35	; 53
    1d0a:	73 72       	andi	r23, 0x23	; 35
    1d0c:	72 72       	andi	r23, 0x22	; 34
    1d0e:	72 73       	andi	r23, 0x32	; 50
    1d10:	75 76       	andi	r23, 0x65	; 101
    1d12:	78 7a       	andi	r23, 0xA8	; 168
    1d14:	7d 80       	ldd	r7, Y+5	; 0x05
    1d16:	82 85       	ldd	r24, Z+10	; 0x0a
    1d18:	88 8b       	std	Y+16, r24	; 0x10
    1d1a:	8d 8f       	std	Y+29, r24	; 0x1d
    1d1c:	91 93       	st	Z+, r25
    1d1e:	94 95       	.word	0x9594	; ????
    1d20:	95 95       	asr	r25
    1d22:	95 94       	asr	r9
    1d24:	93 92       	.word	0x9293	; ????
    1d26:	91 8f       	std	Z+25, r25	; 0x19
    1d28:	8d 8c       	ldd	r8, Y+29	; 0x1d
    1d2a:	8a 88       	ldd	r8, Y+18	; 0x12
    1d2c:	87 85       	ldd	r24, Z+15	; 0x0f
    1d2e:	83 82       	std	Z+3, r8	; 0x03
    1d30:	80 7f       	andi	r24, 0xF0	; 240
    1d32:	7e 7c       	andi	r23, 0xCE	; 206
    1d34:	7b 7a       	andi	r23, 0xAB	; 171
    1d36:	78 77       	andi	r23, 0x78	; 120
    1d38:	75 74       	andi	r23, 0x45	; 69
    1d3a:	72 70       	andi	r23, 0x02	; 2
    1d3c:	6f 6d       	ori	r22, 0xDF	; 223
    1d3e:	6c 6b       	ori	r22, 0xBC	; 188
    1d40:	6a 69       	ori	r22, 0x9A	; 154
    1d42:	68 68       	ori	r22, 0x88	; 136
    1d44:	68 68       	ori	r22, 0x88	; 136
    1d46:	69 6a       	ori	r22, 0xA9	; 169
    1d48:	6c 6e       	ori	r22, 0xEC	; 236
    1d4a:	70 72       	andi	r23, 0x20	; 32
    1d4c:	74 77       	andi	r23, 0x74	; 116
    1d4e:	79 7c       	andi	r23, 0xC9	; 201
    1d50:	7e 80       	ldd	r7, Y+6	; 0x06
    1d52:	82 84       	ldd	r8, Z+10	; 0x0a
    1d54:	85 86       	std	Z+13, r8	; 0x0d
    1d56:	87 88       	ldd	r8, Z+23	; 0x17
    1d58:	88 88       	ldd	r8, Y+16	; 0x10
    1d5a:	87 87       	std	Z+15, r24	; 0x0f
    1d5c:	86 85       	ldd	r24, Z+14	; 0x0e
    1d5e:	84 83       	std	Z+4, r24	; 0x04
    1d60:	82 81       	ldd	r24, Z+2	; 0x02
    1d62:	80 7f       	andi	r24, 0xF0	; 240
    1d64:	7e 7d       	andi	r23, 0xDE	; 222
    1d66:	7c 7c       	andi	r23, 0xCC	; 204
    1d68:	7b 7a       	andi	r23, 0xAB	; 171
    1d6a:	79 78       	andi	r23, 0x89	; 137
    1d6c:	77 77       	andi	r23, 0x77	; 119
    1d6e:	76 74       	andi	r23, 0x46	; 70
    1d70:	73 72       	andi	r23, 0x23	; 35
    1d72:	71 70       	andi	r23, 0x01	; 1
    1d74:	6f 6f       	ori	r22, 0xFF	; 255
    1d76:	6e 6e       	ori	r22, 0xEE	; 238
    1d78:	6d 6e       	ori	r22, 0xED	; 237
    1d7a:	6e 6f       	ori	r22, 0xFE	; 254
    1d7c:	70 72       	andi	r23, 0x20	; 32
    1d7e:	73 75       	andi	r23, 0x53	; 83
    1d80:	78 7a       	andi	r23, 0xA8	; 168
    1d82:	7d 80       	ldd	r7, Y+5	; 0x05
    1d84:	83 86       	std	Z+11, r8	; 0x0b
    1d86:	88 8b       	std	Y+16, r24	; 0x10
    1d88:	8d 8f       	std	Y+29, r24	; 0x1d
    1d8a:	90 92 93 93 	sts	0x9393, r9
    1d8e:	93 93       	.word	0x9393	; ????
    1d90:	93 92       	.word	0x9293	; ????
    1d92:	91 90       	ld	r9, Z+
    1d94:	8f 8d       	ldd	r24, Y+31	; 0x1f
    1d96:	8c 8b       	std	Y+20, r24	; 0x14
    1d98:	89 88       	ldd	r8, Y+17	; 0x11
    1d9a:	87 86       	std	Z+15, r8	; 0x0f
    1d9c:	85 84       	ldd	r8, Z+13	; 0x0d
    1d9e:	83 82       	std	Z+3, r8	; 0x03
    1da0:	82 81       	ldd	r24, Z+2	; 0x02
    1da2:	80 7f       	andi	r24, 0xF0	; 240
    1da4:	7e 7d       	andi	r23, 0xDE	; 222
    1da6:	7c 7b       	andi	r23, 0xBC	; 188
    1da8:	7a 79       	andi	r23, 0x9A	; 154
    1daa:	78 77       	andi	r23, 0x78	; 120
    1dac:	77 76       	andi	r23, 0x67	; 103
    1dae:	76 76       	andi	r23, 0x66	; 102
    1db0:	76 77       	andi	r23, 0x76	; 118
    1db2:	77 79       	andi	r23, 0x97	; 151
    1db4:	7a 7c       	andi	r23, 0xCA	; 202
    1db6:	7e 80       	ldd	r7, Y+6	; 0x06
    1db8:	82 85       	ldd	r24, Z+10	; 0x0a
    1dba:	87 8a       	std	Z+23, r8	; 0x17
    1dbc:	8c 8f       	std	Y+28, r24	; 0x1c
    1dbe:	91 93       	st	Z+, r25
    1dc0:	94 95       	.word	0x9594	; ????
    1dc2:	96 97       	sbiw	r26, 0x26	; 38
    1dc4:	97 97       	sbiw	r26, 0x27	; 39
    1dc6:	96 96       	adiw	r26, 0x26	; 38
    1dc8:	95 93       	las	Z, r25
    1dca:	92 91       	ld	r25, -Z
    1dcc:	8f 8d       	ldd	r24, Y+31	; 0x1f
    1dce:	8c 8a       	std	Y+20, r8	; 0x14
    1dd0:	88 87       	std	Y+8, r24	; 0x08
    1dd2:	85 83       	std	Z+5, r24	; 0x05
    1dd4:	82 80       	ldd	r8, Z+2	; 0x02
    1dd6:	7e 7d       	andi	r23, 0xDE	; 222
    1dd8:	7b 7a       	andi	r23, 0xAB	; 171
    1dda:	78 76       	andi	r23, 0x68	; 104
    1ddc:	74 72       	andi	r23, 0x24	; 36
    1dde:	71 6f       	ori	r23, 0xF1	; 241
    1de0:	6d 6c       	ori	r22, 0xCD	; 205
    1de2:	6a 69       	ori	r22, 0x9A	; 154
    1de4:	68 68       	ori	r22, 0x88	; 136
    1de6:	68 68       	ori	r22, 0x88	; 136
    1de8:	68 69       	ori	r22, 0x98	; 152
    1dea:	6b 6c       	ori	r22, 0xCB	; 203
    1dec:	6e 70       	andi	r22, 0x0E	; 14
    1dee:	73 76       	andi	r23, 0x63	; 99
    1df0:	78 7b       	andi	r23, 0xB8	; 184
    1df2:	7e 80       	ldd	r7, Y+6	; 0x06
    1df4:	82 85       	ldd	r24, Z+10	; 0x0a
    1df6:	86 88       	ldd	r8, Z+22	; 0x16
    1df8:	89 8a       	std	Y+17, r8	; 0x11
    1dfa:	8b 8b       	std	Y+19, r24	; 0x13
    1dfc:	8b 8b       	std	Y+19, r24	; 0x13
    1dfe:	8a 89       	ldd	r24, Y+18	; 0x12
    1e00:	88 87       	std	Y+8, r24	; 0x08
    1e02:	86 85       	ldd	r24, Z+14	; 0x0e
    1e04:	84 83       	std	Z+4, r24	; 0x04
    1e06:	82 81       	ldd	r24, Z+2	; 0x02
    1e08:	80 7f       	andi	r24, 0xF0	; 240
    1e0a:	7f 7e       	andi	r23, 0xEF	; 239
    1e0c:	7d 7c       	andi	r23, 0xCD	; 205
    1e0e:	7b 7a       	andi	r23, 0xAB	; 171
    1e10:	79 78       	andi	r23, 0x89	; 137
    1e12:	77 76       	andi	r23, 0x67	; 103
    1e14:	75 73       	andi	r23, 0x35	; 53
    1e16:	72 71       	andi	r23, 0x12	; 18
    1e18:	70 6f       	ori	r23, 0xF0	; 240
    1e1a:	6e 6d       	ori	r22, 0xDE	; 222
    1e1c:	6d 6d       	ori	r22, 0xDD	; 221
    1e1e:	6d 6e       	ori	r22, 0xED	; 237
    1e20:	6e 70       	andi	r22, 0x0E	; 14
    1e22:	71 73       	andi	r23, 0x31	; 49
    1e24:	75 77       	andi	r23, 0x75	; 117
    1e26:	7a 7c       	andi	r23, 0xCA	; 202
    1e28:	7e 81       	ldd	r23, Y+6	; 0x06
    1e2a:	83 85       	ldd	r24, Z+11	; 0x0b
    1e2c:	87 89       	ldd	r24, Z+23	; 0x17
    1e2e:	8b 8c       	ldd	r8, Y+27	; 0x1b
    1e30:	8d 8d       	ldd	r24, Y+29	; 0x1d
    1e32:	8e 8e       	std	Y+30, r8	; 0x1e
    1e34:	8e 8d       	ldd	r24, Y+30	; 0x1e
    1e36:	8d 8c       	ldd	r8, Y+29	; 0x1d
    1e38:	8c 8b       	std	Y+20, r24	; 0x14
    1e3a:	8a 89       	ldd	r24, Y+18	; 0x12
    1e3c:	89 88       	ldd	r8, Y+17	; 0x11
    1e3e:	87 86       	std	Z+15, r8	; 0x0f
    1e40:	85 85       	ldd	r24, Z+13	; 0x0d
    1e42:	84 83       	std	Z+4, r24	; 0x04
    1e44:	82 81       	ldd	r24, Z+2	; 0x02
    1e46:	80 7f       	andi	r24, 0xF0	; 240
    1e48:	7d 7c       	andi	r23, 0xCD	; 205
    1e4a:	7b 79       	andi	r23, 0x9B	; 155
    1e4c:	78 77       	andi	r23, 0x78	; 120
    1e4e:	76 75       	andi	r23, 0x56	; 86
    1e50:	75 74       	andi	r23, 0x45	; 69
    1e52:	74 75       	andi	r23, 0x54	; 84
    1e54:	75 76       	andi	r23, 0x65	; 101
    1e56:	78 79       	andi	r23, 0x98	; 152
    1e58:	7b 7d       	andi	r23, 0xDB	; 219
    1e5a:	80 82       	st	Z, r8
    1e5c:	85 87       	std	Z+13, r24	; 0x0d
    1e5e:	8a 8c       	ldd	r8, Y+26	; 0x1a
    1e60:	8e 90       	ld	r8, -X
    1e62:	92 93       	st	-Z, r25
    1e64:	94 95       	.word	0x9594	; ????
    1e66:	95 95       	asr	r25
    1e68:	95 94       	asr	r9
    1e6a:	93 92       	.word	0x9293	; ????
    1e6c:	90 8f       	std	Z+24, r25	; 0x18
    1e6e:	8d 8c       	ldd	r8, Y+29	; 0x1d
    1e70:	8a 89       	ldd	r24, Y+18	; 0x12
    1e72:	87 86       	std	Z+15, r8	; 0x0f
    1e74:	84 83       	std	Z+4, r24	; 0x04
    1e76:	82 81       	ldd	r24, Z+2	; 0x02
    1e78:	80 7f       	andi	r24, 0xF0	; 240
    1e7a:	7d 7c       	andi	r23, 0xCD	; 205
    1e7c:	7b 7a       	andi	r23, 0xAB	; 171
    1e7e:	79 78       	andi	r23, 0x89	; 137
    1e80:	77 76       	andi	r23, 0x67	; 103
    1e82:	75 74       	andi	r23, 0x45	; 69
    1e84:	73 72       	andi	r23, 0x23	; 35
    1e86:	71 71       	andi	r23, 0x11	; 17
    1e88:	70 70       	andi	r23, 0x00	; 0
    1e8a:	70 71       	andi	r23, 0x10	; 16
    1e8c:	71 72       	andi	r23, 0x21	; 33
    1e8e:	73 75       	andi	r23, 0x53	; 83
    1e90:	76 78       	andi	r23, 0x86	; 134
    1e92:	7a 7c       	andi	r23, 0xCA	; 202
    1e94:	7e 80       	ldd	r7, Y+6	; 0x06
    1e96:	82 84       	ldd	r8, Z+10	; 0x0a
    1e98:	86 87       	std	Z+14, r24	; 0x0e
    1e9a:	89 8a       	std	Y+17, r8	; 0x11
    1e9c:	8a 8b       	std	Y+18, r24	; 0x12
    1e9e:	8b 8b       	std	Y+19, r24	; 0x13
    1ea0:	8b 8b       	std	Y+19, r24	; 0x13
    1ea2:	8a 89       	ldd	r24, Y+18	; 0x12
    1ea4:	89 88       	ldd	r8, Y+17	; 0x11
    1ea6:	87 86       	std	Z+15, r8	; 0x0f
    1ea8:	85 84       	ldd	r8, Z+13	; 0x0d
    1eaa:	82 81       	ldd	r24, Z+2	; 0x02
    1eac:	80 7f       	andi	r24, 0xF0	; 240
    1eae:	7e 7d       	andi	r23, 0xDE	; 222
    1eb0:	7b 7a       	andi	r23, 0xAB	; 171
    1eb2:	79 77       	andi	r23, 0x79	; 121
    1eb4:	76 74       	andi	r23, 0x46	; 70
    1eb6:	72 71       	andi	r23, 0x12	; 18
    1eb8:	6f 6d       	ori	r22, 0xDF	; 223
    1eba:	6c 6b       	ori	r22, 0xBC	; 188
    1ebc:	6a 69       	ori	r22, 0x9A	; 154
    1ebe:	68 68       	ori	r22, 0x88	; 136
    1ec0:	68 69       	ori	r22, 0x98	; 152
    1ec2:	6a 6b       	ori	r22, 0xBA	; 186
    1ec4:	6d 6f       	ori	r22, 0xFD	; 253
    1ec6:	71 74       	andi	r23, 0x41	; 65
    1ec8:	76 79       	andi	r23, 0x96	; 150
    1eca:	7c 7f       	andi	r23, 0xFC	; 252
    1ecc:	82 84       	ldd	r8, Z+10	; 0x0a
    1ece:	87 89       	ldd	r24, Z+23	; 0x17
    1ed0:	8b 8c       	ldd	r8, Y+27	; 0x1b
    1ed2:	8d 8e       	std	Y+29, r8	; 0x1d
    1ed4:	8f 8f       	std	Y+31, r24	; 0x1f
    1ed6:	8f 8f       	std	Y+31, r24	; 0x1f
    1ed8:	8e 8d       	ldd	r24, Y+30	; 0x1e
    1eda:	8d 8c       	ldd	r8, Y+29	; 0x1d
    1edc:	8b 8a       	std	Y+19, r8	; 0x13
    1ede:	89 88       	ldd	r8, Y+17	; 0x11
    1ee0:	87 86       	std	Z+15, r8	; 0x0f
    1ee2:	85 84       	ldd	r8, Z+13	; 0x0d
    1ee4:	84 83       	std	Z+4, r24	; 0x04
    1ee6:	82 81       	ldd	r24, Z+2	; 0x02
    1ee8:	80 80       	ld	r8, Z
    1eea:	7f 7e       	andi	r23, 0xEF	; 239
    1eec:	7c 7b       	andi	r23, 0xBC	; 188
    1eee:	7a 79       	andi	r23, 0x9A	; 154
    1ef0:	78 76       	andi	r23, 0x68	; 104
    1ef2:	75 75       	andi	r23, 0x55	; 85
    1ef4:	74 73       	andi	r23, 0x34	; 52
    1ef6:	73 73       	andi	r23, 0x33	; 51
    1ef8:	74 74       	andi	r23, 0x44	; 68
    1efa:	75 76       	andi	r23, 0x65	; 101
    1efc:	78 7a       	andi	r23, 0xA8	; 168
    1efe:	7b 7d       	andi	r23, 0xDB	; 219
    1f00:	7f 81       	ldd	r23, Y+7	; 0x07
    1f02:	83 85       	ldd	r24, Z+11	; 0x0b
    1f04:	87 88       	ldd	r8, Z+23	; 0x17
    1f06:	8a 8b       	std	Y+18, r24	; 0x12
    1f08:	8c 8d       	ldd	r24, Y+28	; 0x1c
    1f0a:	8d 8d       	ldd	r24, Y+29	; 0x1d
    1f0c:	8d 8d       	ldd	r24, Y+29	; 0x1d
    1f0e:	8d 8d       	ldd	r24, Y+29	; 0x1d
    1f10:	8c 8c       	ldd	r8, Y+28	; 0x1c
    1f12:	8b 8b       	std	Y+19, r24	; 0x13
    1f14:	8a 8a       	std	Y+18, r8	; 0x12
    1f16:	89 89       	ldd	r24, Y+17	; 0x11
    1f18:	89 88       	ldd	r8, Y+17	; 0x11
    1f1a:	88 87       	std	Y+8, r24	; 0x08
    1f1c:	87 86       	std	Z+15, r8	; 0x0f
    1f1e:	85 84       	ldd	r8, Z+13	; 0x0d
    1f20:	83 81       	ldd	r24, Z+3	; 0x03
    1f22:	80 7e       	andi	r24, 0xE0	; 224
    1f24:	7d 7b       	andi	r23, 0xBD	; 189
    1f26:	7a 78       	andi	r23, 0x8A	; 138
    1f28:	77 75       	andi	r23, 0x57	; 87
    1f2a:	74 74       	andi	r23, 0x44	; 68
    1f2c:	73 73       	andi	r23, 0x33	; 51
    1f2e:	73 73       	andi	r23, 0x33	; 51
    1f30:	74 75       	andi	r23, 0x54	; 84
    1f32:	77 79       	andi	r23, 0x97	; 151
    1f34:	7a 7c       	andi	r23, 0xCA	; 202
    1f36:	7e 81       	ldd	r23, Y+6	; 0x06
    1f38:	83 85       	ldd	r24, Z+11	; 0x0b
    1f3a:	86 88       	ldd	r8, Z+22	; 0x16
    1f3c:	89 8a       	std	Y+17, r8	; 0x11
    1f3e:	8b 8b       	std	Y+19, r24	; 0x13
    1f40:	8b 8b       	std	Y+19, r24	; 0x13
    1f42:	8b 8a       	std	Y+19, r8	; 0x13
    1f44:	89 88       	ldd	r8, Y+17	; 0x11
    1f46:	87 86       	std	Z+15, r8	; 0x0f
    1f48:	84 83       	std	Z+4, r24	; 0x04
    1f4a:	82 81       	ldd	r24, Z+2	; 0x02
    1f4c:	7f 7e       	andi	r23, 0xEF	; 239
    1f4e:	7d 7c       	andi	r23, 0xCD	; 205
    1f50:	7b 7b       	andi	r23, 0xBB	; 187
    1f52:	7a 79       	andi	r23, 0x9A	; 154
    1f54:	78 77       	andi	r23, 0x78	; 120
    1f56:	76 75       	andi	r23, 0x56	; 86
    1f58:	74 73       	andi	r23, 0x34	; 52
    1f5a:	71 70       	andi	r23, 0x01	; 1
    1f5c:	6f 6e       	ori	r22, 0xEF	; 239
    1f5e:	6d 6d       	ori	r22, 0xDD	; 221
    1f60:	6c 6c       	ori	r22, 0xCC	; 204
    1f62:	6c 6c       	ori	r22, 0xCC	; 204
    1f64:	6d 6e       	ori	r22, 0xED	; 237
    1f66:	6f 70       	andi	r22, 0x0F	; 15
    1f68:	72 74       	andi	r23, 0x42	; 66
    1f6a:	76 79       	andi	r23, 0x96	; 150
    1f6c:	7b 7e       	andi	r23, 0xEB	; 235
    1f6e:	80 83       	st	Z, r24
    1f70:	85 87       	std	Z+13, r24	; 0x0d
    1f72:	89 8a       	std	Y+17, r8	; 0x11
    1f74:	8c 8d       	ldd	r24, Y+28	; 0x1c
    1f76:	8e 8e       	std	Y+30, r8	; 0x1e
    1f78:	8e 8e       	std	Y+30, r8	; 0x1e
    1f7a:	8e 8e       	std	Y+30, r8	; 0x1e
    1f7c:	8d 8c       	ldd	r8, Y+29	; 0x1d
    1f7e:	8c 8b       	std	Y+20, r24	; 0x14
    1f80:	8a 89       	ldd	r24, Y+18	; 0x12
    1f82:	88 87       	std	Y+8, r24	; 0x08
    1f84:	86 86       	std	Z+14, r8	; 0x0e
    1f86:	85 84       	ldd	r8, Z+13	; 0x0d
    1f88:	83 82       	std	Z+3, r8	; 0x03
    1f8a:	81 7f       	andi	r24, 0xF1	; 241
    1f8c:	7e 7d       	andi	r23, 0xDE	; 222
    1f8e:	7b 7a       	andi	r23, 0xAB	; 171
    1f90:	78 76       	andi	r23, 0x68	; 104
    1f92:	75 73       	andi	r23, 0x35	; 53
    1f94:	72 71       	andi	r23, 0x12	; 18
    1f96:	70 6f       	ori	r23, 0xF0	; 240
    1f98:	6e 6e       	ori	r22, 0xEE	; 238
    1f9a:	6e 6f       	ori	r22, 0xFE	; 254
    1f9c:	6f 71       	andi	r22, 0x1F	; 31
    1f9e:	72 74       	andi	r23, 0x42	; 66
    1fa0:	76 79       	andi	r23, 0x96	; 150
    1fa2:	7b 7e       	andi	r23, 0xEB	; 235
    1fa4:	81 84       	ldd	r8, Z+9	; 0x09
    1fa6:	86 89       	ldd	r24, Z+22	; 0x16
    1fa8:	8b 8d       	ldd	r24, Y+27	; 0x1b
    1faa:	8e 90       	ld	r8, -X
    1fac:	91 92       	st	Z+, r9
    1fae:	92 92       	st	-Z, r9
    1fb0:	92 92       	st	-Z, r9
    1fb2:	91 91       	ld	r25, Z+
    1fb4:	90 8f       	std	Z+24, r25	; 0x18
    1fb6:	8e 8d       	ldd	r24, Y+30	; 0x1e
    1fb8:	8c 8b       	std	Y+20, r24	; 0x14
    1fba:	8a 89       	ldd	r24, Y+18	; 0x12
    1fbc:	88 87       	std	Y+8, r24	; 0x08
    1fbe:	86 85       	ldd	r24, Z+14	; 0x0e
    1fc0:	84 83       	std	Z+4, r24	; 0x04
    1fc2:	82 81       	ldd	r24, Z+2	; 0x02
    1fc4:	80 7e       	andi	r24, 0xE0	; 224
    1fc6:	7d 7c       	andi	r23, 0xCD	; 205
    1fc8:	7a 79       	andi	r23, 0x9A	; 154
    1fca:	77 76       	andi	r23, 0x67	; 103
    1fcc:	75 74       	andi	r23, 0x45	; 69
    1fce:	73 73       	andi	r23, 0x33	; 51
    1fd0:	73 73       	andi	r23, 0x33	; 51
    1fd2:	73 74       	andi	r23, 0x43	; 67
    1fd4:	75 76       	andi	r23, 0x65	; 101
    1fd6:	77 79       	andi	r23, 0x97	; 151
    1fd8:	7b 7d       	andi	r23, 0xDB	; 219
    1fda:	7f 81       	ldd	r23, Y+7	; 0x07
    1fdc:	83 85       	ldd	r24, Z+11	; 0x0b
    1fde:	87 89       	ldd	r24, Z+23	; 0x17
    1fe0:	8a 8b       	std	Y+18, r24	; 0x12
    1fe2:	8c 8d       	ldd	r24, Y+28	; 0x1c
    1fe4:	8d 8d       	ldd	r24, Y+29	; 0x1d
    1fe6:	8d 8d       	ldd	r24, Y+29	; 0x1d
    1fe8:	8c 8b       	std	Y+20, r24	; 0x14
    1fea:	8a 89       	ldd	r24, Y+18	; 0x12
    1fec:	88 87       	std	Y+8, r24	; 0x08
    1fee:	86 85       	ldd	r24, Z+14	; 0x0e
    1ff0:	84 83       	std	Z+4, r24	; 0x04
    1ff2:	82 82       	std	Z+2, r8	; 0x02
    1ff4:	81 80       	ldd	r8, Z+1	; 0x01
    1ff6:	7f 7e       	andi	r23, 0xEF	; 239
    1ff8:	7d 7c       	andi	r23, 0xCD	; 205
    1ffa:	7b 7a       	andi	r23, 0xAB	; 171
    1ffc:	79 77       	andi	r23, 0x79	; 121
    1ffe:	76 75       	andi	r23, 0x56	; 86
    2000:	74 72       	andi	r23, 0x24	; 36
    2002:	71 71       	andi	r23, 0x11	; 17
    2004:	70 6f       	ori	r23, 0xF0	; 240
    2006:	6f 6f       	ori	r22, 0xFF	; 255
    2008:	70 71       	andi	r23, 0x10	; 16
    200a:	72 73       	andi	r23, 0x32	; 50
    200c:	74 76       	andi	r23, 0x64	; 100
    200e:	78 7a       	andi	r23, 0xA8	; 168
    2010:	7c 7e       	andi	r23, 0xEC	; 236
    2012:	81 83       	std	Z+1, r24	; 0x01
    2014:	84 86       	std	Z+12, r8	; 0x0c
    2016:	87 88       	ldd	r8, Z+23	; 0x17
    2018:	89 8a       	std	Y+17, r8	; 0x11
    201a:	8a 8a       	std	Y+18, r8	; 0x12
    201c:	89 89       	ldd	r24, Y+17	; 0x11
    201e:	88 86       	std	Y+8, r8	; 0x08
    2020:	85 84       	ldd	r8, Z+13	; 0x0d
    2022:	83 81       	ldd	r24, Z+3	; 0x03
    2024:	80 7e       	andi	r24, 0xE0	; 224
    2026:	7d 7c       	andi	r23, 0xCD	; 205
    2028:	7b 7a       	andi	r23, 0xAB	; 171
    202a:	79 79       	andi	r23, 0x99	; 153
    202c:	78 78       	andi	r23, 0x88	; 136
    202e:	77 77       	andi	r23, 0x77	; 119
    2030:	76 76       	andi	r23, 0x66	; 102
    2032:	75 75       	andi	r23, 0x55	; 85
    2034:	74 74       	andi	r23, 0x44	; 68
    2036:	73 73       	andi	r23, 0x33	; 51
    2038:	72 72       	andi	r23, 0x22	; 34
    203a:	72 72       	andi	r23, 0x22	; 34
    203c:	72 73       	andi	r23, 0x32	; 50
    203e:	74 75       	andi	r23, 0x54	; 84
    2040:	76 77       	andi	r23, 0x76	; 118
    2042:	79 7b       	andi	r23, 0xB9	; 185
    2044:	7d 80       	ldd	r7, Y+5	; 0x05
    2046:	82 84       	ldd	r8, Z+10	; 0x0a
    2048:	87 89       	ldd	r24, Z+23	; 0x17
    204a:	8b 8d       	ldd	r24, Y+27	; 0x1b
    204c:	8f 91       	pop	r24
    204e:	92 93       	st	-Z, r25
    2050:	94 94       	.word	0x9494	; ????
    2052:	94 94       	.word	0x9494	; ????
    2054:	93 92       	.word	0x9293	; ????
    2056:	91 90       	ld	r9, Z+
    2058:	8f 8e       	std	Y+31, r8	; 0x1f
    205a:	8c 8b       	std	Y+20, r24	; 0x14
    205c:	8a 88       	ldd	r8, Y+18	; 0x12
    205e:	87 86       	std	Z+15, r8	; 0x0f
    2060:	85 84       	ldd	r8, Z+13	; 0x0d
    2062:	82 81       	ldd	r24, Z+2	; 0x02
    2064:	80 7f       	andi	r24, 0xF0	; 240
    2066:	7e 7d       	andi	r23, 0xDE	; 222
    2068:	7b 7a       	andi	r23, 0xAB	; 171
    206a:	79 77       	andi	r23, 0x79	; 121
    206c:	76 75       	andi	r23, 0x56	; 86
    206e:	74 73       	andi	r23, 0x34	; 52
    2070:	72 72       	andi	r23, 0x22	; 34
    2072:	71 71       	andi	r23, 0x11	; 17
    2074:	71 72       	andi	r23, 0x21	; 33
    2076:	73 74       	andi	r23, 0x43	; 67
    2078:	75 77       	andi	r23, 0x75	; 117
    207a:	79 7b       	andi	r23, 0xB9	; 185
    207c:	7d 80       	ldd	r7, Y+5	; 0x05
    207e:	82 84       	ldd	r8, Z+10	; 0x0a
    2080:	86 88       	ldd	r8, Z+22	; 0x16
    2082:	8a 8c       	ldd	r8, Y+26	; 0x1a
    2084:	8d 8e       	std	Y+29, r8	; 0x1d
    2086:	8f 90       	pop	r8
    2088:	90 90 8f 8f 	lds	r9, 0x8F8F
    208c:	8e 8d       	ldd	r24, Y+30	; 0x1e
    208e:	8c 8b       	std	Y+20, r24	; 0x14
    2090:	8a 89       	ldd	r24, Y+18	; 0x12
    2092:	88 87       	std	Y+8, r24	; 0x08
    2094:	86 85       	ldd	r24, Z+14	; 0x0e
    2096:	84 83       	std	Z+4, r24	; 0x04
    2098:	82 81       	ldd	r24, Z+2	; 0x02
    209a:	81 80       	ldd	r8, Z+1	; 0x01
    209c:	7f 7e       	andi	r23, 0xEF	; 239
    209e:	7d 7c       	andi	r23, 0xCD	; 205
    20a0:	7b 7a       	andi	r23, 0xAB	; 171
    20a2:	78 77       	andi	r23, 0x78	; 120
    20a4:	76 75       	andi	r23, 0x56	; 86
    20a6:	74 73       	andi	r23, 0x34	; 52
    20a8:	72 71       	andi	r23, 0x12	; 18
    20aa:	71 71       	andi	r23, 0x11	; 17
    20ac:	71 71       	andi	r23, 0x11	; 17
    20ae:	72 73       	andi	r23, 0x32	; 50
    20b0:	74 75       	andi	r23, 0x54	; 84
    20b2:	76 78       	andi	r23, 0x86	; 134
    20b4:	79 7b       	andi	r23, 0xB9	; 185
    20b6:	7d 7e       	andi	r23, 0xED	; 237
    20b8:	7f 80       	ldd	r7, Y+7	; 0x07
    20ba:	81 82       	std	Z+1, r8	; 0x01
    20bc:	83 83       	std	Z+3, r24	; 0x03
    20be:	83 83       	std	Z+3, r24	; 0x03
    20c0:	83 83       	std	Z+3, r24	; 0x03
    20c2:	82 82       	std	Z+2, r8	; 0x02
    20c4:	81 81       	ldd	r24, Z+1	; 0x01
    20c6:	80 80       	ld	r8, Z
    20c8:	7f 7f       	andi	r23, 0xFF	; 255
    20ca:	7e 7e       	andi	r23, 0xEE	; 238
    20cc:	7e 7d       	andi	r23, 0xDE	; 222
    20ce:	7d 7d       	andi	r23, 0xDD	; 221
    20d0:	7d 7c       	andi	r23, 0xCD	; 205
    20d2:	7c 7b       	andi	r23, 0xBC	; 188
    20d4:	7b 7a       	andi	r23, 0xAB	; 171
    20d6:	7a 79       	andi	r23, 0x9A	; 154
    20d8:	78 78       	andi	r23, 0x88	; 136
    20da:	77 77       	andi	r23, 0x77	; 119
    20dc:	77 76       	andi	r23, 0x67	; 103
    20de:	76 76       	andi	r23, 0x66	; 102
    20e0:	77 78       	andi	r23, 0x87	; 135
    20e2:	78 79       	andi	r23, 0x98	; 152
    20e4:	7b 7c       	andi	r23, 0xCB	; 203
    20e6:	7e 80       	ldd	r7, Y+6	; 0x06
    20e8:	82 84       	ldd	r8, Z+10	; 0x0a
    20ea:	85 87       	std	Z+13, r24	; 0x0d
    20ec:	89 8b       	std	Y+17, r24	; 0x11
    20ee:	8c 8d       	ldd	r24, Y+28	; 0x1c
    20f0:	8e 8f       	std	Y+30, r24	; 0x1e
    20f2:	8f 8f       	std	Y+31, r24	; 0x1f
    20f4:	8f 8f       	std	Y+31, r24	; 0x1f
    20f6:	8e 8d       	ldd	r24, Y+30	; 0x1e
    20f8:	8c 8b       	std	Y+20, r24	; 0x14
    20fa:	8a 89       	ldd	r24, Y+18	; 0x12
    20fc:	88 86       	std	Y+8, r8	; 0x08
    20fe:	85 84       	ldd	r8, Z+13	; 0x0d
    2100:	83 82       	std	Z+3, r8	; 0x03
    2102:	81 80       	ldd	r8, Z+1	; 0x01
    2104:	7f 7e       	andi	r23, 0xEF	; 239
    2106:	7d 7d       	andi	r23, 0xDD	; 221
    2108:	7c 7b       	andi	r23, 0xBC	; 188
    210a:	7a 79       	andi	r23, 0x9A	; 154
    210c:	78 77       	andi	r23, 0x78	; 120
    210e:	77 76       	andi	r23, 0x67	; 103
    2110:	75 75       	andi	r23, 0x55	; 85
    2112:	74 74       	andi	r23, 0x44	; 68
    2114:	74 74       	andi	r23, 0x44	; 68
    2116:	75 75       	andi	r23, 0x55	; 85
    2118:	76 77       	andi	r23, 0x76	; 118
    211a:	78 7a       	andi	r23, 0xA8	; 168
    211c:	7b 7d       	andi	r23, 0xDB	; 219
    211e:	7f 81       	ldd	r23, Y+7	; 0x07
    2120:	83 85       	ldd	r24, Z+11	; 0x0b
    2122:	87 89       	ldd	r24, Z+23	; 0x17
    2124:	8b 8c       	ldd	r8, Y+27	; 0x1b
    2126:	8e 8f       	std	Y+30, r24	; 0x1e
    2128:	90 90 91 91 	lds	r9, 0x9191
    212c:	91 91       	ld	r25, Z+
    212e:	90 8f       	std	Z+24, r25	; 0x18
    2130:	8f 8e       	std	Y+31, r8	; 0x1f
    2132:	8d 8c       	ldd	r8, Y+29	; 0x1d
    2134:	8a 89       	ldd	r24, Y+18	; 0x12
    2136:	88 87       	std	Y+8, r24	; 0x08
    2138:	86 84       	ldd	r8, Z+14	; 0x0e
    213a:	83 82       	std	Z+3, r8	; 0x03
    213c:	81 7f       	andi	r24, 0xF1	; 241
    213e:	7e 7d       	andi	r23, 0xDE	; 222
    2140:	7b 7a       	andi	r23, 0xAB	; 171
    2142:	78 77       	andi	r23, 0x78	; 120
    2144:	76 74       	andi	r23, 0x46	; 70
    2146:	73 72       	andi	r23, 0x23	; 35
    2148:	71 70       	andi	r23, 0x01	; 1
    214a:	70 70       	andi	r23, 0x00	; 0
    214c:	6f 70       	andi	r22, 0x0F	; 15
    214e:	70 71       	andi	r23, 0x10	; 16
    2150:	72 73       	andi	r23, 0x32	; 50
    2152:	74 76       	andi	r23, 0x64	; 100
    2154:	77 79       	andi	r23, 0x97	; 151
    2156:	7b 7d       	andi	r23, 0xDB	; 219
    2158:	7f 80       	ldd	r7, Y+7	; 0x07
    215a:	82 84       	ldd	r8, Z+10	; 0x0a
    215c:	85 86       	std	Z+13, r8	; 0x0d
    215e:	87 87       	std	Z+15, r24	; 0x0f
    2160:	88 88       	ldd	r8, Y+16	; 0x10
    2162:	88 87       	std	Y+8, r24	; 0x08
    2164:	87 86       	std	Z+15, r8	; 0x0f
    2166:	86 85       	ldd	r24, Z+14	; 0x0e
    2168:	84 83       	std	Z+4, r24	; 0x04
    216a:	82 81       	ldd	r24, Z+2	; 0x02
    216c:	80 80       	ld	r8, Z
    216e:	7f 7e       	andi	r23, 0xEF	; 239
    2170:	7d 7c       	andi	r23, 0xCD	; 205
    2172:	7c 7b       	andi	r23, 0xBC	; 188
    2174:	7a 7a       	andi	r23, 0xAA	; 170
    2176:	79 78       	andi	r23, 0x89	; 137
    2178:	78 77       	andi	r23, 0x78	; 120
    217a:	76 75       	andi	r23, 0x56	; 86
    217c:	75 74       	andi	r23, 0x45	; 69
    217e:	74 74       	andi	r23, 0x44	; 68
    2180:	73 73       	andi	r23, 0x33	; 51
    2182:	73 74       	andi	r23, 0x43	; 67
    2184:	74 75       	andi	r23, 0x54	; 84
    2186:	76 77       	andi	r23, 0x76	; 118
    2188:	78 79       	andi	r23, 0x98	; 152
    218a:	7b 7c       	andi	r23, 0xCB	; 203
    218c:	7e 80       	ldd	r7, Y+6	; 0x06
    218e:	81 83       	std	Z+1, r24	; 0x01
    2190:	85 86       	std	Z+13, r8	; 0x0d
    2192:	87 88       	ldd	r8, Z+23	; 0x17
    2194:	89 8a       	std	Y+17, r8	; 0x11
    2196:	8a 8a       	std	Y+18, r8	; 0x12
    2198:	8a 8a       	std	Y+18, r8	; 0x12
    219a:	8a 89       	ldd	r24, Y+18	; 0x12
    219c:	89 88       	ldd	r8, Y+17	; 0x11
    219e:	88 87       	std	Y+8, r24	; 0x08
    21a0:	86 85       	ldd	r24, Z+14	; 0x0e
    21a2:	85 84       	ldd	r8, Z+13	; 0x0d
    21a4:	83 83       	std	Z+3, r24	; 0x03
    21a6:	82 81       	ldd	r24, Z+2	; 0x02
    21a8:	81 80       	ldd	r8, Z+1	; 0x01
    21aa:	7f 7f       	andi	r23, 0xFF	; 255
    21ac:	7e 7d       	andi	r23, 0xDE	; 222
    21ae:	7d 7c       	andi	r23, 0xCD	; 205
    21b0:	7b 7a       	andi	r23, 0xAB	; 171
    21b2:	7a 79       	andi	r23, 0x9A	; 154
    21b4:	79 79       	andi	r23, 0x99	; 153
    21b6:	78 78       	andi	r23, 0x88	; 136
    21b8:	79 79       	andi	r23, 0x99	; 153
    21ba:	7a 7b       	andi	r23, 0xBA	; 186
    21bc:	7c 7d       	andi	r23, 0xDC	; 220
    21be:	7e 80       	ldd	r7, Y+6	; 0x06
    21c0:	81 83       	std	Z+1, r24	; 0x01
    21c2:	85 86       	std	Z+13, r8	; 0x0d
    21c4:	88 8a       	std	Y+16, r8	; 0x10
    21c6:	8b 8c       	ldd	r8, Y+27	; 0x1b
    21c8:	8d 8e       	std	Y+29, r8	; 0x1d
    21ca:	8f 8f       	std	Y+31, r24	; 0x1f
    21cc:	8f 8f       	std	Y+31, r24	; 0x1f
    21ce:	8f 8e       	std	Y+31, r8	; 0x1f
    21d0:	8d 8c       	ldd	r8, Y+29	; 0x1d
    21d2:	8b 8a       	std	Y+19, r8	; 0x13
    21d4:	89 88       	ldd	r8, Y+17	; 0x11
    21d6:	86 85       	ldd	r24, Z+14	; 0x0e
    21d8:	84 83       	std	Z+4, r24	; 0x04
    21da:	82 81       	ldd	r24, Z+2	; 0x02
    21dc:	80 7f       	andi	r24, 0xF0	; 240
    21de:	7e 7d       	andi	r23, 0xDE	; 222
    21e0:	7c 7c       	andi	r23, 0xCC	; 204
    21e2:	7b 7a       	andi	r23, 0xAB	; 171
    21e4:	79 78       	andi	r23, 0x89	; 137
    21e6:	77 76       	andi	r23, 0x67	; 103
    21e8:	76 75       	andi	r23, 0x56	; 86
    21ea:	74 74       	andi	r23, 0x44	; 68
    21ec:	73 73       	andi	r23, 0x33	; 51
    21ee:	73 73       	andi	r23, 0x33	; 51
    21f0:	74 74       	andi	r23, 0x44	; 68
    21f2:	75 76       	andi	r23, 0x65	; 101
    21f4:	77 79       	andi	r23, 0x97	; 151
    21f6:	7a 7c       	andi	r23, 0xCA	; 202
    21f8:	7e 7f       	andi	r23, 0xFE	; 254
    21fa:	81 83       	std	Z+1, r24	; 0x01
    21fc:	84 86       	std	Z+12, r8	; 0x0c
    21fe:	87 88       	ldd	r8, Z+23	; 0x17
    2200:	89 8a       	std	Y+17, r8	; 0x11
    2202:	8a 8a       	std	Y+18, r8	; 0x12
    2204:	8a 8a       	std	Y+18, r8	; 0x12
    2206:	8a 89       	ldd	r24, Y+18	; 0x12
    2208:	89 88       	ldd	r8, Y+17	; 0x11
    220a:	87 86       	std	Z+15, r8	; 0x0f
    220c:	85 84       	ldd	r8, Z+13	; 0x0d
    220e:	83 82       	std	Z+3, r8	; 0x03
    2210:	81 81       	ldd	r24, Z+1	; 0x01
    2212:	80 7f       	andi	r24, 0xF0	; 240
    2214:	7e 7d       	andi	r23, 0xDE	; 222
    2216:	7c 7b       	andi	r23, 0xBC	; 188
    2218:	7a 79       	andi	r23, 0x9A	; 154
    221a:	78 77       	andi	r23, 0x78	; 120
    221c:	75 74       	andi	r23, 0x45	; 69
    221e:	73 72       	andi	r23, 0x23	; 35
    2220:	72 71       	andi	r23, 0x12	; 18
    2222:	70 70       	andi	r23, 0x00	; 0
    2224:	70 70       	andi	r23, 0x00	; 0
    2226:	70 71       	andi	r23, 0x10	; 16
    2228:	72 73       	andi	r23, 0x32	; 50
    222a:	74 75       	andi	r23, 0x54	; 84
    222c:	77 79       	andi	r23, 0x97	; 151
    222e:	7b 7d       	andi	r23, 0xDB	; 219
    2230:	7f 81       	ldd	r23, Y+7	; 0x07
    2232:	83 84       	ldd	r8, Z+11	; 0x0b
    2234:	86 87       	std	Z+14, r24	; 0x0e
    2236:	88 89       	ldd	r24, Y+16	; 0x10
    2238:	8a 8a       	std	Y+18, r8	; 0x12
    223a:	8a 8a       	std	Y+18, r8	; 0x12
    223c:	8a 8a       	std	Y+18, r8	; 0x12
    223e:	89 89       	ldd	r24, Y+17	; 0x11
    2240:	88 87       	std	Y+8, r24	; 0x08
    2242:	87 86       	std	Z+15, r8	; 0x0f
    2244:	85 84       	ldd	r8, Z+13	; 0x0d
    2246:	84 83       	std	Z+4, r24	; 0x04
    2248:	83 82       	std	Z+3, r8	; 0x03
    224a:	82 81       	ldd	r24, Z+2	; 0x02
    224c:	80 80       	ld	r8, Z
    224e:	7f 7e       	andi	r23, 0xEF	; 239
    2250:	7e 7d       	andi	r23, 0xDE	; 222
    2252:	7c 7b       	andi	r23, 0xBC	; 188
    2254:	7a 79       	andi	r23, 0x9A	; 154
    2256:	79 78       	andi	r23, 0x89	; 137
    2258:	77 77       	andi	r23, 0x77	; 119
    225a:	77 77       	andi	r23, 0x77	; 119
    225c:	77 77       	andi	r23, 0x77	; 119
    225e:	78 79       	andi	r23, 0x98	; 152
    2260:	7a 7b       	andi	r23, 0xBA	; 186
    2262:	7c 7e       	andi	r23, 0xEC	; 236
    2264:	7f 81       	ldd	r23, Y+7	; 0x07
    2266:	83 84       	ldd	r8, Z+11	; 0x0b
    2268:	86 87       	std	Z+14, r24	; 0x0e
    226a:	89 8a       	std	Y+17, r8	; 0x11
    226c:	8b 8b       	std	Y+19, r24	; 0x13
    226e:	8c 8c       	ldd	r8, Y+28	; 0x1c
    2270:	8c 8c       	ldd	r8, Y+28	; 0x1c
    2272:	8b 8b       	std	Y+19, r24	; 0x13
    2274:	8a 8a       	std	Y+18, r8	; 0x12
    2276:	89 88       	ldd	r8, Y+17	; 0x11
    2278:	87 86       	std	Z+15, r8	; 0x0f
    227a:	85 84       	ldd	r8, Z+13	; 0x0d
    227c:	84 83       	std	Z+4, r24	; 0x04
    227e:	82 81       	ldd	r24, Z+2	; 0x02
    2280:	81 80       	ldd	r8, Z+1	; 0x01
    2282:	7f 7e       	andi	r23, 0xEF	; 239
    2284:	7e 7d       	andi	r23, 0xDE	; 222
    2286:	7c 7b       	andi	r23, 0xBC	; 188
    2288:	7a 79       	andi	r23, 0x9A	; 154
    228a:	78 77       	andi	r23, 0x78	; 120
    228c:	77 76       	andi	r23, 0x67	; 103
    228e:	75 75       	andi	r23, 0x55	; 85
    2290:	75 75       	andi	r23, 0x55	; 85
    2292:	75 76       	andi	r23, 0x65	; 101
    2294:	76 77       	andi	r23, 0x76	; 118
    2296:	79 7a       	andi	r23, 0xA9	; 169
    2298:	7c 7d       	andi	r23, 0xDC	; 220
    229a:	7f 81       	ldd	r23, Y+7	; 0x07
    229c:	83 85       	ldd	r24, Z+11	; 0x0b
    229e:	86 88       	ldd	r8, Z+22	; 0x16
    22a0:	89 8a       	std	Y+17, r8	; 0x11
    22a2:	8b 8c       	ldd	r8, Y+27	; 0x1b
    22a4:	8c 8c       	ldd	r8, Y+28	; 0x1c
    22a6:	8c 8c       	ldd	r8, Y+28	; 0x1c
    22a8:	8b 8a       	std	Y+19, r8	; 0x13
    22aa:	89 88       	ldd	r8, Y+17	; 0x11
    22ac:	87 86       	std	Z+15, r8	; 0x0f
    22ae:	85 84       	ldd	r8, Z+13	; 0x0d
    22b0:	83 82       	std	Z+3, r8	; 0x03
    22b2:	81 80       	ldd	r8, Z+1	; 0x01
    22b4:	7f 7e       	andi	r23, 0xEF	; 239
    22b6:	7d 7c       	andi	r23, 0xCD	; 205
    22b8:	7c 7b       	andi	r23, 0xBC	; 188
    22ba:	7a 79       	andi	r23, 0x9A	; 154
    22bc:	78 77       	andi	r23, 0x78	; 120
    22be:	76 75       	andi	r23, 0x56	; 86
    22c0:	74 73       	andi	r23, 0x34	; 52
    22c2:	73 72       	andi	r23, 0x23	; 35
    22c4:	71 71       	andi	r23, 0x11	; 17
    22c6:	71 70       	andi	r23, 0x01	; 1
    22c8:	71 71       	andi	r23, 0x11	; 17
    22ca:	72 73       	andi	r23, 0x32	; 50
    22cc:	74 75       	andi	r23, 0x54	; 84
    22ce:	77 78       	andi	r23, 0x87	; 135
    22d0:	7a 7c       	andi	r23, 0xCA	; 202
    22d2:	7e 80       	ldd	r7, Y+6	; 0x06
    22d4:	82 84       	ldd	r8, Z+10	; 0x0a
    22d6:	85 87       	std	Z+13, r24	; 0x0d
    22d8:	88 89       	ldd	r24, Y+16	; 0x10
    22da:	8a 8a       	std	Y+18, r8	; 0x12
    22dc:	8b 8b       	std	Y+19, r24	; 0x13
    22de:	8b 8b       	std	Y+19, r24	; 0x13
    22e0:	8a 8a       	std	Y+18, r8	; 0x12
    22e2:	89 88       	ldd	r8, Y+17	; 0x11
    22e4:	87 86       	std	Z+15, r8	; 0x0f
    22e6:	86 85       	ldd	r24, Z+14	; 0x0e
    22e8:	84 83       	std	Z+4, r24	; 0x04
    22ea:	82 82       	std	Z+2, r8	; 0x02
    22ec:	81 80       	ldd	r8, Z+1	; 0x01
    22ee:	7f 7f       	andi	r23, 0xFF	; 255
    22f0:	7e 7d       	andi	r23, 0xDE	; 222
    22f2:	7c 7b       	andi	r23, 0xBC	; 188
    22f4:	7a 79       	andi	r23, 0x9A	; 154
    22f6:	77 76       	andi	r23, 0x67	; 103
    22f8:	75 75       	andi	r23, 0x55	; 85
    22fa:	74 73       	andi	r23, 0x34	; 52
    22fc:	73 72       	andi	r23, 0x23	; 35
    22fe:	72 73       	andi	r23, 0x32	; 50
    2300:	73 74       	andi	r23, 0x43	; 67
    2302:	75 76       	andi	r23, 0x65	; 101
    2304:	78 7a       	andi	r23, 0xA8	; 168
    2306:	7c 7e       	andi	r23, 0xEC	; 236
    2308:	80 82       	st	Z, r8
    230a:	84 86       	std	Z+12, r8	; 0x0c
    230c:	87 89       	ldd	r24, Z+23	; 0x17
    230e:	8a 8c       	ldd	r8, Y+26	; 0x1a
    2310:	8c 8d       	ldd	r24, Y+28	; 0x1c
    2312:	8d 8e       	std	Y+29, r8	; 0x1d
    2314:	8d 8d       	ldd	r24, Y+29	; 0x1d
    2316:	8d 8c       	ldd	r8, Y+29	; 0x1d
    2318:	8b 8a       	std	Y+19, r8	; 0x13
    231a:	89 88       	ldd	r8, Y+17	; 0x11
    231c:	87 86       	std	Z+15, r8	; 0x0f
    231e:	86 85       	ldd	r24, Z+14	; 0x0e
    2320:	84 83       	std	Z+4, r24	; 0x04
    2322:	82 82       	std	Z+2, r8	; 0x02
    2324:	81 80       	ldd	r8, Z+1	; 0x01
    2326:	7f 7f       	andi	r23, 0xFF	; 255
    2328:	7e 7d       	andi	r23, 0xDE	; 222
    232a:	7c 7b       	andi	r23, 0xBC	; 188
    232c:	7a 7a       	andi	r23, 0xAA	; 170
    232e:	79 78       	andi	r23, 0x89	; 137
    2330:	77 76       	andi	r23, 0x67	; 103
    2332:	76 75       	andi	r23, 0x56	; 86
    2334:	75 75       	andi	r23, 0x55	; 85
    2336:	75 76       	andi	r23, 0x65	; 101
    2338:	76 77       	andi	r23, 0x76	; 118
    233a:	78 7a       	andi	r23, 0xA8	; 168
    233c:	7b 7d       	andi	r23, 0xDB	; 219
    233e:	7e 80       	ldd	r7, Y+6	; 0x06
    2340:	82 83       	std	Z+2, r24	; 0x02
    2342:	85 86       	std	Z+13, r8	; 0x0d
    2344:	87 88       	ldd	r8, Z+23	; 0x17
    2346:	89 89       	ldd	r24, Y+17	; 0x11
    2348:	8a 8a       	std	Y+18, r8	; 0x12
    234a:	8a 89       	ldd	r24, Y+18	; 0x12
    234c:	89 88       	ldd	r8, Y+17	; 0x11
    234e:	88 87       	std	Y+8, r24	; 0x08
    2350:	86 85       	ldd	r24, Z+14	; 0x0e
    2352:	85 84       	ldd	r8, Z+13	; 0x0d
    2354:	83 83       	std	Z+3, r24	; 0x03
    2356:	82 81       	ldd	r24, Z+2	; 0x02
    2358:	81 81       	ldd	r24, Z+1	; 0x01
    235a:	80 80       	ld	r8, Z
    235c:	7f 7e       	andi	r23, 0xEF	; 239
    235e:	7e 7d       	andi	r23, 0xDE	; 222
    2360:	7c 7c       	andi	r23, 0xCC	; 204
    2362:	7b 7a       	andi	r23, 0xAB	; 171
    2364:	79 78       	andi	r23, 0x89	; 137
    2366:	77 77       	andi	r23, 0x77	; 119
    2368:	76 76       	andi	r23, 0x66	; 102
    236a:	75 75       	andi	r23, 0x55	; 85
    236c:	76 76       	andi	r23, 0x66	; 102
    236e:	77 78       	andi	r23, 0x87	; 135
    2370:	79 7a       	andi	r23, 0xA9	; 169
    2372:	7b 7d       	andi	r23, 0xDB	; 219
    2374:	7f 80       	ldd	r7, Y+7	; 0x07
    2376:	82 83       	std	Z+2, r24	; 0x02
    2378:	85 86       	std	Z+13, r8	; 0x0d
    237a:	87 88       	ldd	r8, Z+23	; 0x17
    237c:	89 89       	ldd	r24, Y+17	; 0x11
    237e:	89 89       	ldd	r24, Y+17	; 0x11
    2380:	89 88       	ldd	r8, Y+17	; 0x11
    2382:	88 87       	std	Y+8, r24	; 0x08
    2384:	86 85       	ldd	r24, Z+14	; 0x0e
    2386:	84 83       	std	Z+4, r24	; 0x04
    2388:	82 81       	ldd	r24, Z+2	; 0x02
    238a:	80 7f       	andi	r24, 0xF0	; 240
    238c:	7e 7d       	andi	r23, 0xDE	; 222
    238e:	7c 7c       	andi	r23, 0xCC	; 204
    2390:	7b 7a       	andi	r23, 0xAB	; 171
    2392:	7a 79       	andi	r23, 0x9A	; 154
    2394:	78 78       	andi	r23, 0x88	; 136
    2396:	77 76       	andi	r23, 0x67	; 103
    2398:	76 75       	andi	r23, 0x56	; 86
    239a:	74 74       	andi	r23, 0x44	; 68
    239c:	73 73       	andi	r23, 0x33	; 51
    239e:	73 73       	andi	r23, 0x33	; 51
    23a0:	73 73       	andi	r23, 0x33	; 51
    23a2:	74 75       	andi	r23, 0x54	; 84
    23a4:	76 77       	andi	r23, 0x76	; 118
    23a6:	79 7a       	andi	r23, 0xA9	; 169
    23a8:	7c 7e       	andi	r23, 0xEC	; 236
    23aa:	80 82       	st	Z, r8
    23ac:	84 86       	std	Z+12, r8	; 0x0c
    23ae:	88 8a       	std	Y+16, r8	; 0x10
    23b0:	8b 8c       	ldd	r8, Y+27	; 0x1b
    23b2:	8d 8e       	std	Y+29, r8	; 0x1d
    23b4:	8f 8f       	std	Y+31, r24	; 0x1f
    23b6:	8f 8e       	std	Y+31, r8	; 0x1f
    23b8:	8e 8d       	ldd	r24, Y+30	; 0x1e
    23ba:	8d 8c       	ldd	r8, Y+29	; 0x1d
    23bc:	8b 8a       	std	Y+19, r8	; 0x13
    23be:	89 88       	ldd	r8, Y+17	; 0x11
    23c0:	87 86       	std	Z+15, r8	; 0x0f
    23c2:	85 84       	ldd	r8, Z+13	; 0x0d
    23c4:	83 82       	std	Z+3, r8	; 0x03
    23c6:	81 81       	ldd	r24, Z+1	; 0x01
    23c8:	80 7f       	andi	r24, 0xF0	; 240
    23ca:	7e 7d       	andi	r23, 0xDE	; 222
    23cc:	7c 7b       	andi	r23, 0xBC	; 188
    23ce:	7a 79       	andi	r23, 0x9A	; 154
    23d0:	77 76       	andi	r23, 0x67	; 103
    23d2:	75 75       	andi	r23, 0x55	; 85
    23d4:	74 73       	andi	r23, 0x34	; 52
    23d6:	73 73       	andi	r23, 0x33	; 51
    23d8:	73 73       	andi	r23, 0x33	; 51
    23da:	74 74       	andi	r23, 0x44	; 68
    23dc:	75 77       	andi	r23, 0x75	; 117
    23de:	78 7a       	andi	r23, 0xA8	; 168
    23e0:	7b 7d       	andi	r23, 0xDB	; 219
    23e2:	7f 81       	ldd	r23, Y+7	; 0x07
    23e4:	83 84       	ldd	r8, Z+11	; 0x0b
    23e6:	86 87       	std	Z+14, r24	; 0x0e
    23e8:	88 89       	ldd	r24, Y+16	; 0x10
    23ea:	8a 8b       	std	Y+18, r24	; 0x12
    23ec:	8b 8b       	std	Y+19, r24	; 0x13
    23ee:	8b 8b       	std	Y+19, r24	; 0x13
    23f0:	8a 8a       	std	Y+18, r8	; 0x12
    23f2:	89 88       	ldd	r8, Y+17	; 0x11
    23f4:	88 87       	std	Y+8, r24	; 0x08
    23f6:	86 86       	std	Z+14, r8	; 0x0e
    23f8:	85 85       	ldd	r24, Z+13	; 0x0d
    23fa:	84 83       	std	Z+4, r24	; 0x04
    23fc:	83 82       	std	Z+3, r8	; 0x03
    23fe:	82 81       	ldd	r24, Z+2	; 0x02
    2400:	81 80       	ldd	r8, Z+1	; 0x01
    2402:	7f 7e       	andi	r23, 0xEF	; 239
    2404:	7d 7c       	andi	r23, 0xCD	; 205
    2406:	7b 7b       	andi	r23, 0xBB	; 187
    2408:	7a 79       	andi	r23, 0x9A	; 154
    240a:	78 77       	andi	r23, 0x78	; 120
    240c:	77 76       	andi	r23, 0x67	; 103
    240e:	76 76       	andi	r23, 0x66	; 102
    2410:	76 77       	andi	r23, 0x76	; 118
    2412:	77 78       	andi	r23, 0x87	; 135
    2414:	79 7a       	andi	r23, 0xA9	; 169
    2416:	7c 7d       	andi	r23, 0xDC	; 220
    2418:	7f 80       	ldd	r7, Y+7	; 0x07
    241a:	81 83       	std	Z+1, r24	; 0x01
    241c:	84 85       	ldd	r24, Z+12	; 0x0c
    241e:	85 86       	std	Z+13, r8	; 0x0d
    2420:	86 86       	std	Z+14, r8	; 0x0e
    2422:	86 86       	std	Z+14, r8	; 0x0e
    2424:	86 85       	ldd	r24, Z+14	; 0x0e
    2426:	84 83       	std	Z+4, r24	; 0x04
    2428:	83 82       	std	Z+3, r8	; 0x03
    242a:	81 80       	ldd	r8, Z+1	; 0x01
    242c:	7f 7e       	andi	r23, 0xEF	; 239
    242e:	7e 7d       	andi	r23, 0xDE	; 222
    2430:	7c 7c       	andi	r23, 0xCC	; 204
    2432:	7c 7b       	andi	r23, 0xBC	; 188
    2434:	7b 7a       	andi	r23, 0xAB	; 171
    2436:	7a 7a       	andi	r23, 0xAA	; 170
    2438:	79 79       	andi	r23, 0x99	; 153
    243a:	79 78       	andi	r23, 0x89	; 137
    243c:	78 77       	andi	r23, 0x78	; 120
    243e:	77 77       	andi	r23, 0x77	; 119
    2440:	76 76       	andi	r23, 0x66	; 102
    2442:	76 76       	andi	r23, 0x66	; 102
    2444:	76 77       	andi	r23, 0x76	; 118
    2446:	78 78       	andi	r23, 0x88	; 136
    2448:	79 7b       	andi	r23, 0xB9	; 185
    244a:	7c 7d       	andi	r23, 0xDC	; 220
    244c:	7f 80       	ldd	r7, Y+7	; 0x07
    244e:	82 84       	ldd	r8, Z+10	; 0x0a
    2450:	85 86       	std	Z+13, r8	; 0x0d
    2452:	88 89       	ldd	r24, Y+16	; 0x10
    2454:	89 8a       	std	Y+17, r8	; 0x11
    2456:	8b 8b       	std	Y+19, r24	; 0x13
    2458:	8b 8a       	std	Y+19, r8	; 0x13
    245a:	8a 89       	ldd	r24, Y+18	; 0x12
    245c:	89 88       	ldd	r8, Y+17	; 0x11
    245e:	87 86       	std	Z+15, r8	; 0x0f
    2460:	85 84       	ldd	r8, Z+13	; 0x0d
    2462:	83 82       	std	Z+3, r8	; 0x03
    2464:	81 80       	ldd	r8, Z+1	; 0x01
    2466:	80 7f       	andi	r24, 0xF0	; 240
    2468:	7f 7e       	andi	r23, 0xEF	; 239
    246a:	7d 7d       	andi	r23, 0xDD	; 221
    246c:	7c 7c       	andi	r23, 0xCC	; 204
    246e:	7b 7a       	andi	r23, 0xAB	; 171
    2470:	7a 79       	andi	r23, 0x9A	; 154
    2472:	78 78       	andi	r23, 0x88	; 136
    2474:	77 76       	andi	r23, 0x67	; 103
    2476:	76 75       	andi	r23, 0x56	; 86
    2478:	75 75       	andi	r23, 0x55	; 85
    247a:	75 75       	andi	r23, 0x55	; 85
    247c:	76 77       	andi	r23, 0x76	; 118
    247e:	78 79       	andi	r23, 0x98	; 152
    2480:	7a 7c       	andi	r23, 0xCA	; 202
    2482:	7d 7f       	andi	r23, 0xFD	; 253
    2484:	81 83       	std	Z+1, r24	; 0x01
    2486:	85 86       	std	Z+13, r8	; 0x0d
    2488:	88 8a       	std	Y+16, r8	; 0x10
    248a:	8b 8c       	ldd	r8, Y+27	; 0x1b
    248c:	8d 8d       	ldd	r24, Y+29	; 0x1d
    248e:	8e 8e       	std	Y+30, r8	; 0x1e
    2490:	8e 8d       	ldd	r24, Y+30	; 0x1e
    2492:	8d 8d       	ldd	r24, Y+29	; 0x1d
    2494:	8c 8b       	std	Y+20, r24	; 0x14
    2496:	8a 89       	ldd	r24, Y+18	; 0x12
    2498:	89 88       	ldd	r8, Y+17	; 0x11
    249a:	87 86       	std	Z+15, r8	; 0x0f
    249c:	85 84       	ldd	r8, Z+13	; 0x0d
    249e:	83 82       	std	Z+3, r8	; 0x03
    24a0:	81 80       	ldd	r8, Z+1	; 0x01
    24a2:	80 7e       	andi	r24, 0xE0	; 224
    24a4:	7d 7c       	andi	r23, 0xCD	; 205
    24a6:	7b 7a       	andi	r23, 0xAB	; 171
    24a8:	79 78       	andi	r23, 0x89	; 137
    24aa:	77 76       	andi	r23, 0x67	; 103
    24ac:	75 74       	andi	r23, 0x45	; 69
    24ae:	73 73       	andi	r23, 0x33	; 51
    24b0:	73 73       	andi	r23, 0x33	; 51
    24b2:	73 74       	andi	r23, 0x43	; 67
    24b4:	75 76       	andi	r23, 0x65	; 101
    24b6:	77 78       	andi	r23, 0x87	; 135
    24b8:	7a 7c       	andi	r23, 0xCA	; 202
    24ba:	7e 80       	ldd	r7, Y+6	; 0x06
    24bc:	81 83       	std	Z+1, r24	; 0x01
    24be:	85 86       	std	Z+13, r8	; 0x0d
    24c0:	87 88       	ldd	r8, Z+23	; 0x17
    24c2:	89 8a       	std	Y+17, r8	; 0x11
    24c4:	8a 8a       	std	Y+18, r8	; 0x12
    24c6:	8a 8a       	std	Y+18, r8	; 0x12
    24c8:	89 89       	ldd	r24, Y+17	; 0x11
    24ca:	88 87       	std	Y+8, r24	; 0x08
    24cc:	86 86       	std	Z+14, r8	; 0x0e
    24ce:	85 84       	ldd	r8, Z+13	; 0x0d
    24d0:	83 83       	std	Z+3, r24	; 0x03
    24d2:	82 81       	ldd	r24, Z+2	; 0x02
    24d4:	81 80       	ldd	r8, Z+1	; 0x01
    24d6:	80 7f       	andi	r24, 0xF0	; 240
    24d8:	7f 7e       	andi	r23, 0xEF	; 239
    24da:	7d 7c       	andi	r23, 0xCD	; 205
    24dc:	7c 7b       	andi	r23, 0xBC	; 188
    24de:	7a 79       	andi	r23, 0x9A	; 154
    24e0:	78 77       	andi	r23, 0x78	; 120
    24e2:	76 75       	andi	r23, 0x56	; 86
    24e4:	74 74       	andi	r23, 0x44	; 68
    24e6:	73 73       	andi	r23, 0x33	; 51
    24e8:	73 74       	andi	r23, 0x43	; 67
    24ea:	74 75       	andi	r23, 0x54	; 84
    24ec:	76 77       	andi	r23, 0x76	; 118
    24ee:	79 7a       	andi	r23, 0xA9	; 169
    24f0:	7c 7d       	andi	r23, 0xDC	; 220
    24f2:	7f 80       	ldd	r7, Y+7	; 0x07
    24f4:	82 83       	std	Z+2, r24	; 0x02
    24f6:	84 85       	ldd	r24, Z+12	; 0x0c
    24f8:	86 87       	std	Z+14, r24	; 0x0e
    24fa:	87 87       	std	Z+15, r24	; 0x0f
    24fc:	87 87       	std	Z+15, r24	; 0x0f
    24fe:	86 86       	std	Z+14, r8	; 0x0e
    2500:	85 85       	ldd	r24, Z+13	; 0x0d
    2502:	84 83       	std	Z+4, r24	; 0x04
    2504:	83 82       	std	Z+3, r8	; 0x03
    2506:	82 81       	ldd	r24, Z+2	; 0x02
    2508:	81 80       	ldd	r8, Z+1	; 0x01
    250a:	80 80       	ld	r8, Z
    250c:	7f 7f       	andi	r23, 0xFF	; 255
    250e:	7f 7e       	andi	r23, 0xEF	; 239
    2510:	7e 7d       	andi	r23, 0xDE	; 222
    2512:	7d 7c       	andi	r23, 0xCD	; 205
    2514:	7c 7b       	andi	r23, 0xBC	; 188
    2516:	7a 79       	andi	r23, 0x9A	; 154
    2518:	79 78       	andi	r23, 0x89	; 137
    251a:	78 77       	andi	r23, 0x78	; 120
    251c:	77 77       	andi	r23, 0x77	; 119
    251e:	77 78       	andi	r23, 0x87	; 135
    2520:	78 79       	andi	r23, 0x98	; 152
    2522:	7a 7c       	andi	r23, 0xCA	; 202
    2524:	7d 7f       	andi	r23, 0xFD	; 253
    2526:	80 82       	st	Z, r8
    2528:	84 85       	ldd	r24, Z+12	; 0x0c
    252a:	87 88       	ldd	r8, Z+23	; 0x17
    252c:	89 8a       	std	Y+17, r8	; 0x11
    252e:	8b 8c       	ldd	r8, Y+27	; 0x1b
    2530:	8c 8c       	ldd	r8, Y+28	; 0x1c
    2532:	8c 8c       	ldd	r8, Y+28	; 0x1c
    2534:	8b 8a       	std	Y+19, r8	; 0x13
    2536:	8a 89       	ldd	r24, Y+18	; 0x12
    2538:	88 87       	std	Y+8, r24	; 0x08
    253a:	86 85       	ldd	r24, Z+14	; 0x0e
    253c:	84 83       	std	Z+4, r24	; 0x04
    253e:	82 81       	ldd	r24, Z+2	; 0x02
    2540:	81 80       	ldd	r8, Z+1	; 0x01
    2542:	7f 7e       	andi	r23, 0xEF	; 239
    2544:	7e 7d       	andi	r23, 0xDE	; 222
    2546:	7c 7b       	andi	r23, 0xBC	; 188
    2548:	7a 7a       	andi	r23, 0xAA	; 170
    254a:	79 78       	andi	r23, 0x89	; 137
    254c:	77 76       	andi	r23, 0x67	; 103
    254e:	75 75       	andi	r23, 0x55	; 85
    2550:	74 74       	andi	r23, 0x44	; 68
    2552:	74 74       	andi	r23, 0x44	; 68
    2554:	75 75       	andi	r23, 0x55	; 85
    2556:	76 77       	andi	r23, 0x76	; 118
    2558:	78 7a       	andi	r23, 0xA8	; 168
    255a:	7b 7d       	andi	r23, 0xDB	; 219
    255c:	7f 80       	ldd	r7, Y+7	; 0x07
    255e:	82 84       	ldd	r8, Z+10	; 0x0a
    2560:	86 87       	std	Z+14, r24	; 0x0e
    2562:	89 8a       	std	Y+17, r8	; 0x11
    2564:	8b 8c       	ldd	r8, Y+27	; 0x1b
    2566:	8c 8d       	ldd	r24, Y+28	; 0x1c
    2568:	8d 8d       	ldd	r24, Y+29	; 0x1d
    256a:	8d 8c       	ldd	r8, Y+29	; 0x1d
    256c:	8c 8b       	std	Y+20, r24	; 0x14
    256e:	8a 89       	ldd	r24, Y+18	; 0x12
    2570:	88 87       	std	Y+8, r24	; 0x08
    2572:	86 85       	ldd	r24, Z+14	; 0x0e
    2574:	84 83       	std	Z+4, r24	; 0x04
    2576:	82 82       	std	Z+2, r8	; 0x02
    2578:	81 80       	ldd	r8, Z+1	; 0x01
    257a:	7f 7e       	andi	r23, 0xEF	; 239
    257c:	7d 7c       	andi	r23, 0xCD	; 205
    257e:	7b 7a       	andi	r23, 0xAB	; 171
    2580:	79 77       	andi	r23, 0x79	; 121
    2582:	76 75       	andi	r23, 0x56	; 86
    2584:	74 74       	andi	r23, 0x44	; 68
    2586:	73 72       	andi	r23, 0x23	; 35
    2588:	72 72       	andi	r23, 0x22	; 34
    258a:	72 72       	andi	r23, 0x22	; 34
    258c:	72 73       	andi	r23, 0x32	; 50
    258e:	74 75       	andi	r23, 0x54	; 84
    2590:	76 77       	andi	r23, 0x76	; 118
    2592:	79 7a       	andi	r23, 0xA9	; 169
    2594:	7c 7e       	andi	r23, 0xEC	; 236
    2596:	7f 81       	ldd	r23, Y+7	; 0x07
    2598:	82 83       	std	Z+2, r24	; 0x02
    259a:	85 86       	std	Z+13, r8	; 0x0d
    259c:	86 87       	std	Z+14, r24	; 0x0e
    259e:	87 87       	std	Z+15, r24	; 0x0f
    25a0:	88 87       	std	Y+8, r24	; 0x08
    25a2:	87 87       	std	Z+15, r24	; 0x0f
    25a4:	87 86       	std	Z+15, r8	; 0x0f
    25a6:	86 85       	ldd	r24, Z+14	; 0x0e
    25a8:	85 84       	ldd	r8, Z+13	; 0x0d
    25aa:	83 83       	std	Z+3, r24	; 0x03
    25ac:	82 82       	std	Z+2, r8	; 0x02
    25ae:	81 81       	ldd	r24, Z+1	; 0x01
    25b0:	80 80       	ld	r8, Z
    25b2:	7f 7e       	andi	r23, 0xEF	; 239
    25b4:	7d 7c       	andi	r23, 0xCD	; 205
    25b6:	7c 7b       	andi	r23, 0xBC	; 188
    25b8:	7a 79       	andi	r23, 0x9A	; 154
    25ba:	78 77       	andi	r23, 0x78	; 120
    25bc:	76 76       	andi	r23, 0x66	; 102
    25be:	75 75       	andi	r23, 0x55	; 85
    25c0:	75 75       	andi	r23, 0x55	; 85
    25c2:	76 77       	andi	r23, 0x76	; 118
    25c4:	77 79       	andi	r23, 0x97	; 151
    25c6:	7a 7b       	andi	r23, 0xBA	; 186
    25c8:	7d 7e       	andi	r23, 0xED	; 237
    25ca:	80 82       	st	Z, r8
    25cc:	83 85       	ldd	r24, Z+11	; 0x0b
    25ce:	86 88       	ldd	r8, Z+22	; 0x16
    25d0:	89 89       	ldd	r24, Y+17	; 0x11
    25d2:	8a 8a       	std	Y+18, r8	; 0x12
    25d4:	8a 8a       	std	Y+18, r8	; 0x12
    25d6:	8a 8a       	std	Y+18, r8	; 0x12
    25d8:	89 88       	ldd	r8, Y+17	; 0x11
    25da:	87 86       	std	Z+15, r8	; 0x0f
    25dc:	86 85       	ldd	r24, Z+14	; 0x0e
    25de:	84 83       	std	Z+4, r24	; 0x04
    25e0:	82 81       	ldd	r24, Z+2	; 0x02
    25e2:	81 80       	ldd	r8, Z+1	; 0x01
    25e4:	80 7f       	andi	r24, 0xF0	; 240
    25e6:	7f 7e       	andi	r23, 0xEF	; 239
    25e8:	7e 7d       	andi	r23, 0xDE	; 222
    25ea:	7c 7c       	andi	r23, 0xCC	; 204
    25ec:	7b 7b       	andi	r23, 0xBB	; 187
    25ee:	7a 79       	andi	r23, 0x9A	; 154
    25f0:	79 78       	andi	r23, 0x89	; 137
    25f2:	78 77       	andi	r23, 0x78	; 120
    25f4:	77 77       	andi	r23, 0x77	; 119
    25f6:	77 77       	andi	r23, 0x77	; 119
    25f8:	78 78       	andi	r23, 0x88	; 136
    25fa:	79 7a       	andi	r23, 0xA9	; 169
    25fc:	7b 7c       	andi	r23, 0xCB	; 203
    25fe:	7e 7f       	andi	r23, 0xFE	; 254
    2600:	81 82       	std	Z+1, r8	; 0x01
    2602:	84 85       	ldd	r24, Z+12	; 0x0c
    2604:	87 88       	ldd	r8, Z+23	; 0x17
    2606:	89 8a       	std	Y+17, r8	; 0x11
    2608:	8a 8b       	std	Y+18, r24	; 0x12
    260a:	8b 8b       	std	Y+19, r24	; 0x13
    260c:	8b 8a       	std	Y+19, r8	; 0x13
    260e:	8a 89       	ldd	r24, Y+18	; 0x12
    2610:	89 88       	ldd	r8, Y+17	; 0x11
    2612:	87 86       	std	Z+15, r8	; 0x0f
    2614:	86 85       	ldd	r24, Z+14	; 0x0e
    2616:	84 83       	std	Z+4, r24	; 0x04
    2618:	82 82       	std	Z+2, r8	; 0x02
    261a:	81 80       	ldd	r8, Z+1	; 0x01
    261c:	80 7f       	andi	r24, 0xF0	; 240
    261e:	7e 7d       	andi	r23, 0xDE	; 222
    2620:	7c 7b       	andi	r23, 0xBC	; 188
    2622:	7a 79       	andi	r23, 0x9A	; 154
    2624:	78 77       	andi	r23, 0x78	; 120
    2626:	76 75       	andi	r23, 0x56	; 86
    2628:	74 73       	andi	r23, 0x34	; 52
    262a:	72 71       	andi	r23, 0x12	; 18
    262c:	71 71       	andi	r23, 0x11	; 17
    262e:	71 72       	andi	r23, 0x21	; 33
    2630:	72 73       	andi	r23, 0x32	; 50
    2632:	74 76       	andi	r23, 0x64	; 100
    2634:	77 79       	andi	r23, 0x97	; 151
    2636:	7b 7d       	andi	r23, 0xDB	; 219
    2638:	7f 81       	ldd	r23, Y+7	; 0x07
    263a:	83 84       	ldd	r8, Z+11	; 0x0b
    263c:	86 87       	std	Z+14, r24	; 0x0e
    263e:	88 89       	ldd	r24, Y+16	; 0x10
    2640:	8a 8a       	std	Y+18, r8	; 0x12
    2642:	8b 8b       	std	Y+19, r24	; 0x13
    2644:	8a 8a       	std	Y+18, r8	; 0x12
    2646:	89 89       	ldd	r24, Y+17	; 0x11
    2648:	88 87       	std	Y+8, r24	; 0x08
    264a:	86 85       	ldd	r24, Z+14	; 0x0e
    264c:	84 83       	std	Z+4, r24	; 0x04
    264e:	82 81       	ldd	r24, Z+2	; 0x02
    2650:	81 80       	ldd	r8, Z+1	; 0x01
    2652:	7f 7e       	andi	r23, 0xEF	; 239
    2654:	7e 7d       	andi	r23, 0xDE	; 222
    2656:	7c 7b       	andi	r23, 0xBC	; 188
    2658:	7a 7a       	andi	r23, 0xAA	; 170
    265a:	79 78       	andi	r23, 0x89	; 137
    265c:	77 76       	andi	r23, 0x67	; 103
    265e:	75 75       	andi	r23, 0x55	; 85
    2660:	74 74       	andi	r23, 0x44	; 68
    2662:	74 73       	andi	r23, 0x34	; 52
    2664:	74 74       	andi	r23, 0x44	; 68
    2666:	74 75       	andi	r23, 0x54	; 84
    2668:	76 77       	andi	r23, 0x76	; 118
    266a:	79 7a       	andi	r23, 0xA9	; 169
    266c:	7b 7d       	andi	r23, 0xDB	; 219
    266e:	7f 80       	ldd	r7, Y+7	; 0x07
    2670:	82 83       	std	Z+2, r24	; 0x02
    2672:	84 86       	std	Z+12, r8	; 0x0c
    2674:	87 87       	std	Z+15, r24	; 0x0f
    2676:	88 89       	ldd	r24, Y+16	; 0x10
    2678:	89 89       	ldd	r24, Y+17	; 0x11
    267a:	89 89       	ldd	r24, Y+17	; 0x11
    267c:	88 88       	ldd	r8, Y+16	; 0x10
    267e:	88 87       	std	Y+8, r24	; 0x08
    2680:	87 86       	std	Z+15, r8	; 0x0f
    2682:	86 85       	ldd	r24, Z+14	; 0x0e
    2684:	84 84       	ldd	r8, Z+12	; 0x0c
    2686:	83 83       	std	Z+3, r24	; 0x03
    2688:	82 82       	std	Z+2, r8	; 0x02
    268a:	81 81       	ldd	r24, Z+1	; 0x01
    268c:	80 7f       	andi	r24, 0xF0	; 240
    268e:	7e 7e       	andi	r23, 0xEE	; 238
    2690:	7d 7c       	andi	r23, 0xCD	; 205
    2692:	7b 7a       	andi	r23, 0xAB	; 171
    2694:	79 78       	andi	r23, 0x89	; 137
    2696:	78 77       	andi	r23, 0x78	; 120
    2698:	77 77       	andi	r23, 0x77	; 119
    269a:	77 77       	andi	r23, 0x77	; 119
    269c:	78 78       	andi	r23, 0x88	; 136
    269e:	79 7a       	andi	r23, 0xA9	; 169
    26a0:	7b 7d       	andi	r23, 0xDB	; 219
    26a2:	7e 7f       	andi	r23, 0xFE	; 254
    26a4:	81 82       	std	Z+1, r8	; 0x01
    26a6:	84 85       	ldd	r24, Z+12	; 0x0c
    26a8:	86 87       	std	Z+14, r24	; 0x0e
    26aa:	88 89       	ldd	r24, Y+16	; 0x10
    26ac:	89 89       	ldd	r24, Y+17	; 0x11
    26ae:	89 89       	ldd	r24, Y+17	; 0x11
    26b0:	89 88       	ldd	r8, Y+17	; 0x11
    26b2:	88 87       	std	Y+8, r24	; 0x08
    26b4:	86 86       	std	Z+14, r8	; 0x0e
    26b6:	85 84       	ldd	r8, Z+13	; 0x0d
    26b8:	83 82       	std	Z+3, r8	; 0x03
    26ba:	82 81       	ldd	r24, Z+2	; 0x02
    26bc:	80 80       	ld	r8, Z
    26be:	7f 7f       	andi	r23, 0xFF	; 255
    26c0:	7e 7e       	andi	r23, 0xEE	; 238
    26c2:	7d 7d       	andi	r23, 0xDD	; 221
    26c4:	7c 7c       	andi	r23, 0xCC	; 204
    26c6:	7b 7a       	andi	r23, 0xAB	; 171
    26c8:	7a 79       	andi	r23, 0x9A	; 154
    26ca:	79 78       	andi	r23, 0x89	; 137
    26cc:	78 78       	andi	r23, 0x88	; 136
    26ce:	78 78       	andi	r23, 0x88	; 136
    26d0:	78 78       	andi	r23, 0x88	; 136
    26d2:	79 79       	andi	r23, 0x99	; 153
    26d4:	7a 7b       	andi	r23, 0xBA	; 186
    26d6:	7c 7d       	andi	r23, 0xDC	; 220
    26d8:	7f 80       	ldd	r7, Y+7	; 0x07
    26da:	81 82       	std	Z+1, r8	; 0x01
    26dc:	84 85       	ldd	r24, Z+12	; 0x0c
    26de:	86 86       	std	Z+14, r8	; 0x0e
    26e0:	87 87       	std	Z+15, r24	; 0x0f
    26e2:	88 88       	ldd	r8, Y+16	; 0x10
    26e4:	88 88       	ldd	r8, Y+16	; 0x10
    26e6:	87 87       	std	Z+15, r24	; 0x0f
    26e8:	86 86       	std	Z+14, r8	; 0x0e
    26ea:	85 85       	ldd	r24, Z+13	; 0x0d
    26ec:	84 83       	std	Z+4, r24	; 0x04
    26ee:	83 82       	std	Z+3, r8	; 0x03
    26f0:	81 81       	ldd	r24, Z+1	; 0x01
    26f2:	80 7f       	andi	r24, 0xF0	; 240
    26f4:	7f 7e       	andi	r23, 0xEF	; 239
    26f6:	7e 7d       	andi	r23, 0xDE	; 222
    26f8:	7c 7b       	andi	r23, 0xBC	; 188
    26fa:	7a 79       	andi	r23, 0x9A	; 154
    26fc:	78 77       	andi	r23, 0x78	; 120
    26fe:	76 75       	andi	r23, 0x56	; 86
    2700:	75 74       	andi	r23, 0x45	; 69
    2702:	73 73       	andi	r23, 0x33	; 51
    2704:	72 72       	andi	r23, 0x22	; 34
    2706:	72 73       	andi	r23, 0x32	; 50
    2708:	73 74       	andi	r23, 0x43	; 67
    270a:	75 76       	andi	r23, 0x65	; 101
    270c:	78 79       	andi	r23, 0x98	; 152
    270e:	7b 7d       	andi	r23, 0xDB	; 219
    2710:	7f 80       	ldd	r7, Y+7	; 0x07
    2712:	82 84       	ldd	r8, Z+10	; 0x0a
    2714:	85 86       	std	Z+13, r8	; 0x0d
    2716:	88 89       	ldd	r24, Y+16	; 0x10
    2718:	89 8a       	std	Y+17, r8	; 0x11
    271a:	8a 8a       	std	Y+18, r8	; 0x12
    271c:	8a 8a       	std	Y+18, r8	; 0x12
    271e:	89 89       	ldd	r24, Y+17	; 0x11
    2720:	88 88       	ldd	r8, Y+16	; 0x10
    2722:	87 86       	std	Z+15, r8	; 0x0f
    2724:	86 85       	ldd	r24, Z+14	; 0x0e
    2726:	84 84       	ldd	r8, Z+12	; 0x0c
    2728:	83 82       	std	Z+3, r8	; 0x03
    272a:	82 81       	ldd	r24, Z+2	; 0x02
    272c:	80 80       	ld	r8, Z
    272e:	7f 7e       	andi	r23, 0xEF	; 239
    2730:	7d 7d       	andi	r23, 0xDD	; 221
    2732:	7c 7b       	andi	r23, 0xBC	; 188
    2734:	7a 79       	andi	r23, 0x9A	; 154
    2736:	78 77       	andi	r23, 0x78	; 120
    2738:	77 76       	andi	r23, 0x67	; 103
    273a:	76 75       	andi	r23, 0x56	; 86
    273c:	75 75       	andi	r23, 0x55	; 85
    273e:	76 76       	andi	r23, 0x66	; 102
    2740:	77 78       	andi	r23, 0x87	; 135
    2742:	79 7a       	andi	r23, 0xA9	; 169
    2744:	7b 7d       	andi	r23, 0xDB	; 219
    2746:	7e 80       	ldd	r7, Y+6	; 0x06
    2748:	81 83       	std	Z+1, r24	; 0x01
    274a:	84 85       	ldd	r24, Z+12	; 0x0c
    274c:	86 87       	std	Z+14, r24	; 0x0e
    274e:	88 88       	ldd	r8, Y+16	; 0x10
    2750:	88 89       	ldd	r24, Y+16	; 0x10
    2752:	89 88       	ldd	r8, Y+17	; 0x11
    2754:	88 88       	ldd	r8, Y+16	; 0x10
    2756:	87 87       	std	Z+15, r24	; 0x0f
    2758:	87 86       	std	Z+15, r8	; 0x0f
    275a:	86 85       	ldd	r24, Z+14	; 0x0e
    275c:	85 84       	ldd	r8, Z+13	; 0x0d
    275e:	84 84       	ldd	r8, Z+12	; 0x0c
    2760:	83 83       	std	Z+3, r24	; 0x03
    2762:	82 82       	std	Z+2, r8	; 0x02
    2764:	81 81       	ldd	r24, Z+1	; 0x01
    2766:	80 7f       	andi	r24, 0xF0	; 240
    2768:	7e 7d       	andi	r23, 0xDE	; 222
    276a:	7c 7b       	andi	r23, 0xBC	; 188
    276c:	7a 79       	andi	r23, 0x9A	; 154
    276e:	79 78       	andi	r23, 0x89	; 137
    2770:	77 77       	andi	r23, 0x77	; 119
    2772:	77 77       	andi	r23, 0x77	; 119
    2774:	77 77       	andi	r23, 0x77	; 119
    2776:	78 79       	andi	r23, 0x98	; 152
    2778:	7a 7b       	andi	r23, 0xBA	; 186
    277a:	7d 7e       	andi	r23, 0xED	; 237
    277c:	80 81       	ld	r24, Z
    277e:	83 84       	ldd	r8, Z+11	; 0x0b
    2780:	86 87       	std	Z+14, r24	; 0x0e
    2782:	88 89       	ldd	r24, Y+16	; 0x10
    2784:	89 8a       	std	Y+17, r8	; 0x11
    2786:	8a 8a       	std	Y+18, r8	; 0x12
    2788:	8a 89       	ldd	r24, Y+18	; 0x12
    278a:	89 88       	ldd	r8, Y+17	; 0x11
    278c:	88 87       	std	Y+8, r24	; 0x08
    278e:	86 85       	ldd	r24, Z+14	; 0x0e
    2790:	85 84       	ldd	r8, Z+13	; 0x0d
    2792:	83 82       	std	Z+3, r8	; 0x03
    2794:	82 81       	ldd	r24, Z+2	; 0x02
    2796:	81 80       	ldd	r8, Z+1	; 0x01
    2798:	80 7f       	andi	r24, 0xF0	; 240
    279a:	7e 7e       	andi	r23, 0xEE	; 238
    279c:	7d 7c       	andi	r23, 0xCD	; 205
    279e:	7c 7b       	andi	r23, 0xBC	; 188
    27a0:	7a 79       	andi	r23, 0x9A	; 154
    27a2:	78 77       	andi	r23, 0x78	; 120
    27a4:	77 76       	andi	r23, 0x67	; 103
    27a6:	75 75       	andi	r23, 0x55	; 85
    27a8:	75 75       	andi	r23, 0x55	; 85
    27aa:	75 75       	andi	r23, 0x55	; 85
    27ac:	76 77       	andi	r23, 0x76	; 118
    27ae:	78 79       	andi	r23, 0x98	; 152
    27b0:	7a 7c       	andi	r23, 0xCA	; 202
    27b2:	7d 7f       	andi	r23, 0xFD	; 253
    27b4:	80 82       	st	Z, r8
    27b6:	83 85       	ldd	r24, Z+11	; 0x0b
    27b8:	86 87       	std	Z+14, r24	; 0x0e
    27ba:	87 88       	ldd	r8, Z+23	; 0x17
    27bc:	88 88       	ldd	r8, Y+16	; 0x10
    27be:	88 88       	ldd	r8, Y+16	; 0x10
    27c0:	88 88       	ldd	r8, Y+16	; 0x10
    27c2:	87 86       	std	Z+15, r8	; 0x0f
    27c4:	86 85       	ldd	r24, Z+14	; 0x0e
    27c6:	84 84       	ldd	r8, Z+12	; 0x0c
    27c8:	83 82       	std	Z+3, r8	; 0x03
    27ca:	82 81       	ldd	r24, Z+2	; 0x02
    27cc:	80 80       	ld	r8, Z
    27ce:	7f 7e       	andi	r23, 0xEF	; 239
    27d0:	7d 7d       	andi	r23, 0xDD	; 221
    27d2:	7c 7b       	andi	r23, 0xBC	; 188
    27d4:	7a 79       	andi	r23, 0x9A	; 154
    27d6:	78 77       	andi	r23, 0x78	; 120
    27d8:	76 75       	andi	r23, 0x56	; 86
    27da:	74 73       	andi	r23, 0x34	; 52
    27dc:	73 72       	andi	r23, 0x23	; 35
    27de:	72 72       	andi	r23, 0x22	; 34
    27e0:	73 73       	andi	r23, 0x33	; 51
    27e2:	74 75       	andi	r23, 0x54	; 84
    27e4:	76 77       	andi	r23, 0x76	; 118
    27e6:	79 7b       	andi	r23, 0xB9	; 185
    27e8:	7d 7e       	andi	r23, 0xED	; 237
    27ea:	80 82       	st	Z, r8
    27ec:	84 85       	ldd	r24, Z+12	; 0x0c
    27ee:	87 88       	ldd	r8, Z+23	; 0x17
    27f0:	89 8a       	std	Y+17, r8	; 0x11
    27f2:	8b 8b       	std	Y+19, r24	; 0x13
    27f4:	8b 8c       	ldd	r8, Y+27	; 0x1b
    27f6:	8b 8b       	std	Y+19, r24	; 0x13
    27f8:	8b 8a       	std	Y+19, r8	; 0x13
    27fa:	8a 89       	ldd	r24, Y+18	; 0x12
    27fc:	88 88       	ldd	r8, Y+16	; 0x10
    27fe:	87 87       	std	Z+15, r24	; 0x0f
    2800:	86 85       	ldd	r24, Z+14	; 0x0e
    2802:	85 84       	ldd	r8, Z+13	; 0x0d
    2804:	83 83       	std	Z+3, r24	; 0x03
    2806:	82 81       	ldd	r24, Z+2	; 0x02
    2808:	80 7f       	andi	r24, 0xF0	; 240
    280a:	7e 7d       	andi	r23, 0xDE	; 222
    280c:	7c 7b       	andi	r23, 0xBC	; 188
    280e:	7a 79       	andi	r23, 0x9A	; 154
    2810:	78 77       	andi	r23, 0x78	; 120
    2812:	76 76       	andi	r23, 0x66	; 102
    2814:	75 75       	andi	r23, 0x55	; 85
    2816:	75 75       	andi	r23, 0x55	; 85
    2818:	75 76       	andi	r23, 0x65	; 101
    281a:	76 77       	andi	r23, 0x76	; 118
    281c:	78 7a       	andi	r23, 0xA8	; 168
    281e:	7b 7c       	andi	r23, 0xCB	; 203
    2820:	7e 7f       	andi	r23, 0xFE	; 254
    2822:	80 82       	st	Z, r8
    2824:	83 84       	ldd	r8, Z+11	; 0x0b
    2826:	85 86       	std	Z+13, r8	; 0x0d
    2828:	87 87       	std	Z+15, r24	; 0x0f
    282a:	88 88       	ldd	r8, Y+16	; 0x10
    282c:	88 88       	ldd	r8, Y+16	; 0x10
    282e:	88 88       	ldd	r8, Y+16	; 0x10
    2830:	87 87       	std	Z+15, r24	; 0x0f
    2832:	87 87       	std	Z+15, r24	; 0x0f
    2834:	86 86       	std	Z+14, r8	; 0x0e
    2836:	86 85       	ldd	r24, Z+14	; 0x0e
    2838:	85 85       	ldd	r24, Z+13	; 0x0d
    283a:	84 84       	ldd	r8, Z+12	; 0x0c
    283c:	83 82       	std	Z+3, r8	; 0x03
    283e:	82 81       	ldd	r24, Z+2	; 0x02
    2840:	80 7f       	andi	r24, 0xF0	; 240
    2842:	7e 7d       	andi	r23, 0xDE	; 222
    2844:	7c 7b       	andi	r23, 0xBC	; 188
    2846:	7a 79       	andi	r23, 0x9A	; 154
    2848:	78 77       	andi	r23, 0x78	; 120
    284a:	77 76       	andi	r23, 0x67	; 103
    284c:	76 76       	andi	r23, 0x66	; 102
    284e:	76 77       	andi	r23, 0x76	; 118
    2850:	77 78       	andi	r23, 0x87	; 135
    2852:	79 7a       	andi	r23, 0xA9	; 169
    2854:	7c 7d       	andi	r23, 0xDC	; 220
    2856:	7e 7f       	andi	r23, 0xFE	; 254
    2858:	81 82       	std	Z+1, r8	; 0x01
    285a:	83 84       	ldd	r8, Z+11	; 0x0b
    285c:	85 85       	ldd	r24, Z+13	; 0x0d
    285e:	86 86       	std	Z+14, r8	; 0x0e
    2860:	86 86       	std	Z+14, r8	; 0x0e
    2862:	86 86       	std	Z+14, r8	; 0x0e
    2864:	85 85       	ldd	r24, Z+13	; 0x0d
    2866:	84 84       	ldd	r8, Z+12	; 0x0c
    2868:	83 82       	std	Z+3, r8	; 0x03
    286a:	82 81       	ldd	r24, Z+2	; 0x02
    286c:	81 80       	ldd	r8, Z+1	; 0x01
    286e:	7f 7f       	andi	r23, 0xFF	; 255
    2870:	7e 7e       	andi	r23, 0xEE	; 238
    2872:	7d 7d       	andi	r23, 0xDD	; 221
    2874:	7c 7b       	andi	r23, 0xBC	; 188
    2876:	7b 7a       	andi	r23, 0xAB	; 171
    2878:	7a 79       	andi	r23, 0x9A	; 154
    287a:	79 78       	andi	r23, 0x89	; 137
    287c:	78 77       	andi	r23, 0x78	; 120
    287e:	77 77       	andi	r23, 0x77	; 119
    2880:	77 77       	andi	r23, 0x77	; 119
    2882:	77 77       	andi	r23, 0x77	; 119
    2884:	78 79       	andi	r23, 0x98	; 152
    2886:	79 7a       	andi	r23, 0xA9	; 169
    2888:	7b 7c       	andi	r23, 0xCB	; 203
    288a:	7e 7f       	andi	r23, 0xFE	; 254
    288c:	80 81       	ld	r24, Z
    288e:	83 84       	ldd	r8, Z+11	; 0x0b
    2890:	85 86       	std	Z+13, r8	; 0x0d
    2892:	87 88       	ldd	r8, Z+23	; 0x17
    2894:	88 89       	ldd	r24, Y+16	; 0x10
    2896:	89 89       	ldd	r24, Y+17	; 0x11
    2898:	89 89       	ldd	r24, Y+17	; 0x11
    289a:	89 89       	ldd	r24, Y+17	; 0x11
    289c:	89 88       	ldd	r8, Y+17	; 0x11
    289e:	88 87       	std	Y+8, r24	; 0x08
    28a0:	86 86       	std	Z+14, r8	; 0x0e
    28a2:	85 84       	ldd	r8, Z+13	; 0x0d
    28a4:	84 83       	std	Z+4, r24	; 0x04
    28a6:	82 81       	ldd	r24, Z+2	; 0x02
    28a8:	81 80       	ldd	r8, Z+1	; 0x01
    28aa:	7f 7e       	andi	r23, 0xEF	; 239
    28ac:	7d 7c       	andi	r23, 0xCD	; 205
    28ae:	7b 7a       	andi	r23, 0xAB	; 171
    28b0:	7a 79       	andi	r23, 0x9A	; 154
    28b2:	78 77       	andi	r23, 0x78	; 120
    28b4:	77 76       	andi	r23, 0x67	; 103
    28b6:	76 76       	andi	r23, 0x66	; 102
    28b8:	76 76       	andi	r23, 0x66	; 102
    28ba:	76 77       	andi	r23, 0x76	; 118
    28bc:	77 78       	andi	r23, 0x87	; 135
    28be:	79 7a       	andi	r23, 0xA9	; 169
    28c0:	7b 7d       	andi	r23, 0xDB	; 219
    28c2:	7e 80       	ldd	r7, Y+6	; 0x06
    28c4:	81 83       	std	Z+1, r24	; 0x01
    28c6:	84 85       	ldd	r24, Z+12	; 0x0c
    28c8:	87 88       	ldd	r8, Z+23	; 0x17
    28ca:	89 8a       	std	Y+17, r8	; 0x11
    28cc:	8a 8b       	std	Y+18, r24	; 0x12
    28ce:	8b 8b       	std	Y+19, r24	; 0x13
    28d0:	8b 8b       	std	Y+19, r24	; 0x13
    28d2:	8a 8a       	std	Y+18, r8	; 0x12
    28d4:	89 88       	ldd	r8, Y+17	; 0x11
    28d6:	88 87       	std	Y+8, r24	; 0x08
    28d8:	86 85       	ldd	r24, Z+14	; 0x0e
    28da:	84 83       	std	Z+4, r24	; 0x04
    28dc:	82 82       	std	Z+2, r8	; 0x02
    28de:	81 80       	ldd	r8, Z+1	; 0x01
    28e0:	7f 7e       	andi	r23, 0xEF	; 239
    28e2:	7e 7d       	andi	r23, 0xDE	; 222
    28e4:	7c 7b       	andi	r23, 0xBC	; 188
    28e6:	7a 7a       	andi	r23, 0xAA	; 170
    28e8:	79 78       	andi	r23, 0x89	; 137
    28ea:	77 77       	andi	r23, 0x77	; 119
    28ec:	76 76       	andi	r23, 0x66	; 102
    28ee:	76 76       	andi	r23, 0x66	; 102
    28f0:	76 76       	andi	r23, 0x66	; 102
    28f2:	76 77       	andi	r23, 0x76	; 118
    28f4:	78 79       	andi	r23, 0x98	; 152
    28f6:	7a 7b       	andi	r23, 0xBA	; 186
    28f8:	7d 7e       	andi	r23, 0xED	; 237
    28fa:	80 81       	ld	r24, Z
    28fc:	83 84       	ldd	r8, Z+11	; 0x0b
    28fe:	85 86       	std	Z+13, r8	; 0x0d
    2900:	87 88       	ldd	r8, Z+23	; 0x17
    2902:	88 89       	ldd	r24, Y+16	; 0x10
    2904:	89 89       	ldd	r24, Y+17	; 0x11
    2906:	89 88       	ldd	r8, Y+17	; 0x11
    2908:	88 87       	std	Y+8, r24	; 0x08
    290a:	87 86       	std	Z+15, r8	; 0x0f
    290c:	86 85       	ldd	r24, Z+14	; 0x0e
    290e:	84 84       	ldd	r8, Z+12	; 0x0c
    2910:	83 83       	std	Z+3, r24	; 0x03
    2912:	82 81       	ldd	r24, Z+2	; 0x02
    2914:	81 80       	ldd	r8, Z+1	; 0x01
    2916:	80 7f       	andi	r24, 0xF0	; 240
    2918:	7e 7d       	andi	r23, 0xDE	; 222
    291a:	7c 7b       	andi	r23, 0xBC	; 188
    291c:	7a 79       	andi	r23, 0x9A	; 154
    291e:	78 77       	andi	r23, 0x78	; 120
    2920:	77 76       	andi	r23, 0x67	; 103
    2922:	76 75       	andi	r23, 0x56	; 86
    2924:	75 76       	andi	r23, 0x65	; 101
    2926:	76 77       	andi	r23, 0x76	; 118
    2928:	78 79       	andi	r23, 0x98	; 152
    292a:	7a 7c       	andi	r23, 0xCA	; 202
    292c:	7e 7f       	andi	r23, 0xFE	; 254
    292e:	81 83       	std	Z+1, r24	; 0x01
    2930:	85 86       	std	Z+13, r8	; 0x0d
    2932:	88 89       	ldd	r24, Y+16	; 0x10
    2934:	8a 8a       	std	Y+18, r8	; 0x12
    2936:	8b 8b       	std	Y+19, r24	; 0x13
    2938:	8b 8a       	std	Y+19, r8	; 0x13
    293a:	89 88       	ldd	r8, Y+17	; 0x11
    293c:	87 86       	std	Z+15, r8	; 0x0f
    293e:	84 82       	std	Z+4, r8	; 0x04
    2940:	80 7f       	andi	r24, 0xF0	; 240
    2942:	7d 7b       	andi	r23, 0xBD	; 189
    2944:	79 77       	andi	r23, 0x79	; 121
    2946:	76 74       	andi	r23, 0x46	; 70
    2948:	73 71       	andi	r23, 0x13	; 19
    294a:	70 6f       	ori	r23, 0xF0	; 240
    294c:	6f 6e       	ori	r22, 0xEF	; 239
    294e:	6d 6d       	ori	r22, 0xDD	; 221
    2950:	6c 6c       	ori	r22, 0xCC	; 204
    2952:	6c 6c       	ori	r22, 0xCC	; 204
    2954:	6c 6c       	ori	r22, 0xCC	; 204
    2956:	6c 6c       	ori	r22, 0xCC	; 204
    2958:	6c 6d       	ori	r22, 0xDC	; 220
    295a:	6e 6f       	ori	r22, 0xFE	; 254
    295c:	70 71       	andi	r23, 0x10	; 16
    295e:	73 74       	andi	r23, 0x43	; 67
    2960:	76 79       	andi	r23, 0x96	; 150
    2962:	7b 7d       	andi	r23, 0xDB	; 219
    2964:	80 82       	st	Z, r8
    2966:	85 87       	std	Z+13, r24	; 0x0d
    2968:	8a 8c       	ldd	r8, Y+26	; 0x1a
    296a:	8e 90       	ld	r8, -X
    296c:	92 93       	st	-Z, r25
    296e:	94 95       	.word	0x9594	; ????
    2970:	96 96       	adiw	r26, 0x26	; 38
    2972:	97 97       	sbiw	r26, 0x27	; 39
    2974:	97 97       	sbiw	r26, 0x27	; 39
    2976:	97 96       	adiw	r26, 0x27	; 39
    2978:	96 96       	adiw	r26, 0x26	; 38
    297a:	95 95       	asr	r25
    297c:	95 94       	asr	r9
    297e:	94 93       	xch	Z, r25
    2980:	92 92       	st	-Z, r9
    2982:	91 90       	ld	r9, Z+
    2984:	8f 8d       	ldd	r24, Y+31	; 0x1f
    2986:	8c 8a       	std	Y+20, r8	; 0x14
    2988:	89 87       	std	Y+9, r24	; 0x09
    298a:	85 83       	std	Z+5, r24	; 0x05
    298c:	81 7f       	andi	r24, 0xF1	; 241
    298e:	7d 7b       	andi	r23, 0xBD	; 189
    2990:	7a 78       	andi	r23, 0x8A	; 138
    2992:	77 76       	andi	r23, 0x67	; 103
    2994:	76 75       	andi	r23, 0x56	; 86
    2996:	75 75       	andi	r23, 0x55	; 85
    2998:	76 76       	andi	r23, 0x66	; 102
    299a:	77 78       	andi	r23, 0x87	; 135
    299c:	79 7b       	andi	r23, 0xB9	; 185
    299e:	7c 7d       	andi	r23, 0xDC	; 220
    29a0:	7f 80       	ldd	r7, Y+7	; 0x07
    29a2:	81 82       	std	Z+1, r8	; 0x01
    29a4:	83 84       	ldd	r8, Z+11	; 0x0b
    29a6:	84 84       	ldd	r8, Z+12	; 0x0c
    29a8:	85 84       	ldd	r8, Z+13	; 0x0d
    29aa:	84 83       	std	Z+4, r24	; 0x04
    29ac:	83 82       	std	Z+3, r8	; 0x03
    29ae:	81 80       	ldd	r8, Z+1	; 0x01
    29b0:	7f 7f       	andi	r23, 0xFF	; 255
    29b2:	7e 7d       	andi	r23, 0xDE	; 222
    29b4:	7c 7b       	andi	r23, 0xBC	; 188
    29b6:	7b 7a       	andi	r23, 0xAB	; 171
    29b8:	7a 79       	andi	r23, 0x9A	; 154
    29ba:	79 78       	andi	r23, 0x89	; 137
    29bc:	78 78       	andi	r23, 0x88	; 136
    29be:	77 77       	andi	r23, 0x77	; 119
    29c0:	76 76       	andi	r23, 0x66	; 102
    29c2:	75 75       	andi	r23, 0x55	; 85
    29c4:	74 74       	andi	r23, 0x44	; 68
    29c6:	74 74       	andi	r23, 0x44	; 68
    29c8:	74 74       	andi	r23, 0x44	; 68
    29ca:	74 74       	andi	r23, 0x44	; 68
    29cc:	75 76       	andi	r23, 0x65	; 101
    29ce:	76 77       	andi	r23, 0x76	; 118
    29d0:	78 7a       	andi	r23, 0xA8	; 168
    29d2:	7b 7c       	andi	r23, 0xCB	; 203
    29d4:	7d 7e       	andi	r23, 0xED	; 237
    29d6:	7f 80       	ldd	r7, Y+7	; 0x07
    29d8:	80 81       	ld	r24, Z
    29da:	81 81       	ldd	r24, Z+1	; 0x01
    29dc:	81 81       	ldd	r24, Z+1	; 0x01
    29de:	80 80       	ld	r8, Z
    29e0:	7f 7e       	andi	r23, 0xEF	; 239
    29e2:	7e 7d       	andi	r23, 0xDE	; 222
    29e4:	7c 7c       	andi	r23, 0xCC	; 204
    29e6:	7b 7b       	andi	r23, 0xBB	; 187
    29e8:	7a 7a       	andi	r23, 0xAA	; 170
    29ea:	7a 7a       	andi	r23, 0xAA	; 170
    29ec:	79 79       	andi	r23, 0x99	; 153
    29ee:	79 79       	andi	r23, 0x99	; 153
    29f0:	78 78       	andi	r23, 0x88	; 136
    29f2:	78 77       	andi	r23, 0x78	; 120
    29f4:	77 76       	andi	r23, 0x67	; 103
    29f6:	76 75       	andi	r23, 0x56	; 86
    29f8:	74 74       	andi	r23, 0x44	; 68
    29fa:	73 73       	andi	r23, 0x33	; 51
    29fc:	72 72       	andi	r23, 0x22	; 34
    29fe:	72 72       	andi	r23, 0x22	; 34
    2a00:	72 73       	andi	r23, 0x32	; 50
    2a02:	74 75       	andi	r23, 0x54	; 84
    2a04:	76 77       	andi	r23, 0x76	; 118
    2a06:	79 7b       	andi	r23, 0xB9	; 185
    2a08:	7d 7f       	andi	r23, 0xFD	; 253
    2a0a:	81 83       	std	Z+1, r24	; 0x01
    2a0c:	85 87       	std	Z+13, r24	; 0x0d
    2a0e:	89 8b       	std	Y+17, r24	; 0x11
    2a10:	8d 8e       	std	Y+29, r8	; 0x1d
    2a12:	90 91 92 92 	lds	r25, 0x9292
    2a16:	93 93       	.word	0x9393	; ????
    2a18:	93 93       	.word	0x9393	; ????
    2a1a:	93 92       	.word	0x9293	; ????
    2a1c:	92 91       	ld	r25, -Z
    2a1e:	91 90       	ld	r9, Z+
    2a20:	8f 8f       	std	Y+31, r24	; 0x1f
    2a22:	8e 8e       	std	Y+30, r8	; 0x1e
    2a24:	8d 8c       	ldd	r8, Y+29	; 0x1d
    2a26:	8c 8b       	std	Y+20, r24	; 0x14
    2a28:	8a 8a       	std	Y+18, r8	; 0x12
    2a2a:	89 88       	ldd	r8, Y+17	; 0x11
    2a2c:	87 86       	std	Z+15, r8	; 0x0f
    2a2e:	85 84       	ldd	r8, Z+13	; 0x0d
    2a30:	83 82       	std	Z+3, r8	; 0x03
    2a32:	81 81       	ldd	r24, Z+1	; 0x01
    2a34:	80 80       	ld	r8, Z
    2a36:	7f 7f       	andi	r23, 0xFF	; 255
    2a38:	7f 7f       	andi	r23, 0xFF	; 255
    2a3a:	80 80       	ld	r8, Z
    2a3c:	81 82       	std	Z+1, r8	; 0x01
    2a3e:	83 84       	ldd	r8, Z+11	; 0x0b
    2a40:	85 85       	ldd	r24, Z+13	; 0x0d
    2a42:	86 87       	std	Z+14, r24	; 0x0e
    2a44:	88 88       	ldd	r8, Y+16	; 0x10
    2a46:	89 89       	ldd	r24, Y+17	; 0x11
    2a48:	89 88       	ldd	r8, Y+17	; 0x11
    2a4a:	88 87       	std	Y+8, r24	; 0x08
    2a4c:	86 85       	ldd	r24, Z+14	; 0x0e
    2a4e:	84 83       	std	Z+4, r24	; 0x04
    2a50:	82 81       	ldd	r24, Z+2	; 0x02
    2a52:	80 7f       	andi	r24, 0xF0	; 240
    2a54:	7e 7d       	andi	r23, 0xDE	; 222
    2a56:	7c 7b       	andi	r23, 0xBC	; 188
    2a58:	7b 7a       	andi	r23, 0xAB	; 171
    2a5a:	7a 79       	andi	r23, 0x9A	; 154
    2a5c:	79 79       	andi	r23, 0x99	; 153
    2a5e:	78 78       	andi	r23, 0x88	; 136
    2a60:	78 78       	andi	r23, 0x88	; 136
    2a62:	77 77       	andi	r23, 0x77	; 119
    2a64:	77 76       	andi	r23, 0x67	; 103
    2a66:	76 75       	andi	r23, 0x56	; 86
    2a68:	75 75       	andi	r23, 0x55	; 85
    2a6a:	75 75       	andi	r23, 0x55	; 85
    2a6c:	75 75       	andi	r23, 0x55	; 85
    2a6e:	76 76       	andi	r23, 0x66	; 102
    2a70:	77 78       	andi	r23, 0x87	; 135
    2a72:	78 79       	andi	r23, 0x98	; 152
    2a74:	7b 7c       	andi	r23, 0xCB	; 203
    2a76:	7d 7e       	andi	r23, 0xED	; 237
    2a78:	7f 80       	ldd	r7, Y+7	; 0x07
    2a7a:	81 82       	std	Z+1, r8	; 0x01
    2a7c:	83 83       	std	Z+3, r24	; 0x03
    2a7e:	84 84       	ldd	r8, Z+12	; 0x0c
    2a80:	84 84       	ldd	r8, Z+12	; 0x0c
    2a82:	84 84       	ldd	r8, Z+12	; 0x0c
    2a84:	83 83       	std	Z+3, r24	; 0x03
    2a86:	82 81       	ldd	r24, Z+2	; 0x02
    2a88:	81 80       	ldd	r8, Z+1	; 0x01
    2a8a:	7f 7e       	andi	r23, 0xEF	; 239
    2a8c:	7e 7d       	andi	r23, 0xDE	; 222
    2a8e:	7c 7b       	andi	r23, 0xBC	; 188
    2a90:	7b 7a       	andi	r23, 0xAB	; 171
    2a92:	79 78       	andi	r23, 0x89	; 137
    2a94:	78 77       	andi	r23, 0x78	; 120
    2a96:	76 75       	andi	r23, 0x56	; 86
    2a98:	74 73       	andi	r23, 0x34	; 52
    2a9a:	73 72       	andi	r23, 0x23	; 35
    2a9c:	71 70       	andi	r23, 0x01	; 1
    2a9e:	70 6f       	ori	r23, 0xF0	; 240
    2aa0:	6f 6f       	ori	r22, 0xFF	; 255
    2aa2:	6f 6f       	ori	r22, 0xFF	; 255
    2aa4:	6f 70       	andi	r22, 0x0F	; 15
    2aa6:	71 72       	andi	r23, 0x21	; 33
    2aa8:	73 74       	andi	r23, 0x43	; 67
    2aaa:	76 78       	andi	r23, 0x86	; 134
    2aac:	7a 7b       	andi	r23, 0xBA	; 186
    2aae:	7d 7f       	andi	r23, 0xFD	; 253
    2ab0:	81 83       	std	Z+1, r24	; 0x01
    2ab2:	85 86       	std	Z+13, r8	; 0x0d
    2ab4:	88 89       	ldd	r24, Y+16	; 0x10
    2ab6:	8a 8b       	std	Y+18, r24	; 0x12
    2ab8:	8c 8d       	ldd	r24, Y+28	; 0x1c
    2aba:	8d 8e       	std	Y+29, r8	; 0x1d
    2abc:	8e 8e       	std	Y+30, r8	; 0x1e
    2abe:	8e 8e       	std	Y+30, r8	; 0x1e
    2ac0:	8e 8e       	std	Y+30, r8	; 0x1e
    2ac2:	8d 8d       	ldd	r24, Y+29	; 0x1d
    2ac4:	8c 8c       	ldd	r8, Y+28	; 0x1c
    2ac6:	8c 8b       	std	Y+20, r24	; 0x14
    2ac8:	8a 8a       	std	Y+18, r8	; 0x12
    2aca:	89 88       	ldd	r8, Y+17	; 0x11
    2acc:	87 86       	std	Z+15, r8	; 0x0f
    2ace:	85 84       	ldd	r8, Z+13	; 0x0d
    2ad0:	83 82       	std	Z+3, r8	; 0x03
    2ad2:	81 80       	ldd	r8, Z+1	; 0x01
    2ad4:	7f 7e       	andi	r23, 0xEF	; 239
    2ad6:	7d 7d       	andi	r23, 0xDD	; 221
    2ad8:	7c 7c       	andi	r23, 0xCC	; 204
    2ada:	7b 7b       	andi	r23, 0xBB	; 187
    2adc:	7c 7c       	andi	r23, 0xCC	; 204
    2ade:	7d 7d       	andi	r23, 0xDD	; 221
    2ae0:	7e 7f       	andi	r23, 0xFE	; 254
    2ae2:	80 82       	st	Z, r8
    2ae4:	83 84       	ldd	r8, Z+11	; 0x0b
    2ae6:	85 85       	ldd	r24, Z+13	; 0x0d
    2ae8:	86 87       	std	Z+14, r24	; 0x0e
    2aea:	87 87       	std	Z+15, r24	; 0x0f
    2aec:	87 87       	std	Z+15, r24	; 0x0f
    2aee:	86 86       	std	Z+14, r8	; 0x0e
    2af0:	85 84       	ldd	r8, Z+13	; 0x0d
    2af2:	83 83       	std	Z+3, r24	; 0x03
    2af4:	82 82       	std	Z+2, r8	; 0x02
    2af6:	81 81       	ldd	r24, Z+1	; 0x01
    2af8:	80 80       	ld	r8, Z
    2afa:	80 80       	ld	r8, Z
    2afc:	80 80       	ld	r8, Z
    2afe:	80 80       	ld	r8, Z
    2b00:	80 80       	ld	r8, Z
    2b02:	7f 7f       	andi	r23, 0xFF	; 255
    2b04:	7f 7e       	andi	r23, 0xEF	; 239
    2b06:	7d 7d       	andi	r23, 0xDD	; 221
    2b08:	7c 7c       	andi	r23, 0xCC	; 204
    2b0a:	7b 7b       	andi	r23, 0xBB	; 187
    2b0c:	7b 7a       	andi	r23, 0xAB	; 171
    2b0e:	7a 7a       	andi	r23, 0xAA	; 170
    2b10:	7b 7b       	andi	r23, 0xBB	; 187
    2b12:	7c 7c       	andi	r23, 0xCC	; 204
    2b14:	7d 7e       	andi	r23, 0xED	; 237
    2b16:	7f 7f       	andi	r23, 0xFF	; 255
    2b18:	80 81       	ld	r24, Z
    2b1a:	81 82       	std	Z+1, r8	; 0x01
    2b1c:	82 82       	std	Z+2, r8	; 0x02
    2b1e:	83 83       	std	Z+3, r24	; 0x03
    2b20:	83 83       	std	Z+3, r24	; 0x03
    2b22:	83 83       	std	Z+3, r24	; 0x03
    2b24:	83 83       	std	Z+3, r24	; 0x03
    2b26:	83 83       	std	Z+3, r24	; 0x03
    2b28:	83 83       	std	Z+3, r24	; 0x03
    2b2a:	83 83       	std	Z+3, r24	; 0x03
    2b2c:	83 83       	std	Z+3, r24	; 0x03
    2b2e:	83 83       	std	Z+3, r24	; 0x03
    2b30:	83 82       	std	Z+3, r8	; 0x03
    2b32:	82 81       	ldd	r24, Z+2	; 0x02
    2b34:	81 80       	ldd	r8, Z+1	; 0x01
    2b36:	7f 7e       	andi	r23, 0xEF	; 239
    2b38:	7c 7b       	andi	r23, 0xBC	; 188
    2b3a:	79 77       	andi	r23, 0x79	; 121
    2b3c:	75 73       	andi	r23, 0x35	; 53
    2b3e:	71 70       	andi	r23, 0x01	; 1
    2b40:	6e 6c       	ori	r22, 0xCE	; 206
    2b42:	6b 69       	ori	r22, 0x9B	; 155
    2b44:	68 68       	ori	r22, 0x88	; 136
    2b46:	67 68       	ori	r22, 0x87	; 135
    2b48:	68 69       	ori	r22, 0x98	; 152
    2b4a:	6b 6e       	ori	r22, 0xEB	; 235
    2b4c:	70 74       	andi	r23, 0x40	; 64
    2b4e:	77 7c       	andi	r23, 0xC7	; 199
    2b50:	80 85       	ldd	r24, Z+8	; 0x08
    2b52:	8a 90       	ld	r8, -Y
    2b54:	95 9a       	sbi	0x12, 5	; 18
    2b56:	9f a3       	std	Y+39, r25	; 0x27
    2b58:	a7 ab       	std	Z+55, r26	; 0x37
    2b5a:	ae b1       	in	r26, 0x0e	; 14
    2b5c:	b2 b3       	in	r27, 0x12	; 18
    2b5e:	b4 b3       	in	r27, 0x14	; 20
    2b60:	b2 b0       	in	r11, 0x02	; 2
    2b62:	ae ab       	std	Y+54, r26	; 0x36
    2b64:	a8 a4       	ldd	r10, Y+40	; 0x28
    2b66:	a1 9d       	mul	r26, r1
    2b68:	98 94       	clz
    2b6a:	8f 8b       	std	Y+23, r24	; 0x17
    2b6c:	86 82       	std	Z+6, r8	; 0x06
    2b6e:	7d 79       	andi	r23, 0x9D	; 157
    2b70:	74 6f       	ori	r23, 0xF4	; 244
    2b72:	6b 66       	ori	r22, 0x6B	; 107
    2b74:	61 5c       	subi	r22, 0xC1	; 193
    2b76:	58 53       	subi	r21, 0x38	; 56
    2b78:	4f 4a       	sbci	r20, 0xAF	; 175
    2b7a:	47 43       	sbci	r20, 0x37	; 55
    2b7c:	40 3e       	cpi	r20, 0xE0	; 224
    2b7e:	3d 3c       	cpi	r19, 0xCD	; 205
    2b80:	3d 3e       	cpi	r19, 0xED	; 237
    2b82:	40 43       	sbci	r20, 0x30	; 48
    2b84:	47 4c       	sbci	r20, 0xC7	; 199
    2b86:	52 58       	subi	r21, 0x82	; 130
    2b88:	5f 66       	ori	r21, 0x6F	; 111
    2b8a:	6d 74       	andi	r22, 0x4D	; 77
    2b8c:	7b 82       	std	Y+3, r7	; 0x03
    2b8e:	88 8e       	std	Y+24, r8	; 0x18
    2b90:	93 97       	sbiw	r26, 0x23	; 35
    2b92:	9b 9e       	mul	r9, r27
    2b94:	a1 a2       	std	Z+33, r10	; 0x21
    2b96:	a3 a4       	ldd	r10, Z+43	; 0x2b
    2b98:	a4 a4       	ldd	r10, Z+44	; 0x2c
    2b9a:	a3 a3       	std	Z+35, r26	; 0x23
    2b9c:	a2 a2       	std	Z+34, r10	; 0x22
    2b9e:	a1 a1       	ldd	r26, Z+33	; 0x21
    2ba0:	a1 a1       	ldd	r26, Z+33	; 0x21
    2ba2:	a0 a0       	ldd	r10, Z+32	; 0x20
    2ba4:	a0 9f       	mul	r26, r16
    2ba6:	9f 9d       	mul	r25, r15
    2ba8:	9c 9a       	sbi	0x13, 4	; 19
    2baa:	98 95       	break
    2bac:	92 8f       	std	Z+26, r25	; 0x1a
    2bae:	8c 88       	ldd	r8, Y+20	; 0x14
    2bb0:	85 82       	std	Z+5, r8	; 0x05
    2bb2:	7f 7c       	andi	r23, 0xCF	; 207
    2bb4:	7a 79       	andi	r23, 0x9A	; 154
    2bb6:	78 78       	andi	r23, 0x88	; 136
    2bb8:	79 7a       	andi	r23, 0xA9	; 169
    2bba:	7c 7f       	andi	r23, 0xFC	; 252
    2bbc:	81 85       	ldd	r24, Z+9	; 0x09
    2bbe:	88 8b       	std	Y+16, r24	; 0x10
    2bc0:	8e 91       	ld	r24, -X
    2bc2:	93 95       	inc	r25
    2bc4:	96 97       	sbiw	r26, 0x26	; 38
    2bc6:	97 96       	adiw	r26, 0x27	; 39
    2bc8:	95 93       	las	Z, r25
    2bca:	91 8e       	std	Z+25, r9	; 0x19
    2bcc:	8b 88       	ldd	r8, Y+19	; 0x13
    2bce:	85 81       	ldd	r24, Z+5	; 0x05
    2bd0:	7e 7b       	andi	r23, 0xBE	; 190
    2bd2:	77 74       	andi	r23, 0x47	; 71
    2bd4:	72 6f       	ori	r23, 0xF2	; 242
    2bd6:	6c 6a       	ori	r22, 0xAC	; 172
    2bd8:	68 66       	ori	r22, 0x68	; 104
    2bda:	64 62       	ori	r22, 0x24	; 36
    2bdc:	61 60       	ori	r22, 0x01	; 1
    2bde:	5f 5e       	subi	r21, 0xEF	; 239
    2be0:	5e 5e       	subi	r21, 0xEE	; 238
    2be2:	5f 60       	ori	r21, 0x0F	; 15
    2be4:	61 63       	ori	r22, 0x31	; 49
    2be6:	66 69       	ori	r22, 0x96	; 150
    2be8:	6c 70       	andi	r22, 0x0C	; 12
    2bea:	75 79       	andi	r23, 0x95	; 149
    2bec:	7e 83       	std	Y+6, r23	; 0x06
    2bee:	88 8d       	ldd	r24, Y+24	; 0x18
    2bf0:	91 95       	neg	r25
    2bf2:	99 9d       	mul	r25, r9
    2bf4:	9f a2       	std	Y+39, r9	; 0x27
    2bf6:	a3 a4       	ldd	r10, Z+43	; 0x2b
    2bf8:	a4 a4       	ldd	r10, Z+44	; 0x2c
    2bfa:	a3 a1       	ldd	r26, Z+35	; 0x23
    2bfc:	9f 9c       	mul	r9, r15
    2bfe:	99 96       	adiw	r26, 0x29	; 41
    2c00:	92 8e       	std	Z+26, r9	; 0x1a
    2c02:	89 85       	ldd	r24, Y+9	; 0x09
    2c04:	81 7c       	andi	r24, 0xC1	; 193
    2c06:	78 73       	andi	r23, 0x38	; 56
    2c08:	6f 6b       	ori	r22, 0xBF	; 191
    2c0a:	67 64       	ori	r22, 0x47	; 71
    2c0c:	61 5e       	subi	r22, 0xE1	; 225
    2c0e:	5c 5a       	subi	r21, 0xAC	; 172
    2c10:	58 57       	subi	r21, 0x78	; 120
    2c12:	56 56       	subi	r21, 0x66	; 102
    2c14:	56 57       	subi	r21, 0x76	; 118
    2c16:	58 59       	subi	r21, 0x98	; 152
    2c18:	5b 5d       	subi	r21, 0xDB	; 219
    2c1a:	5f 62       	ori	r21, 0x2F	; 47
    2c1c:	65 68       	ori	r22, 0x85	; 133
    2c1e:	6b 6e       	ori	r22, 0xEB	; 235
    2c20:	72 75       	andi	r23, 0x52	; 82
    2c22:	78 7b       	andi	r23, 0xB8	; 184
    2c24:	7d 80       	ldd	r7, Y+5	; 0x05
    2c26:	82 84       	ldd	r8, Z+10	; 0x0a
    2c28:	85 86       	std	Z+13, r8	; 0x0d
    2c2a:	87 88       	ldd	r8, Z+23	; 0x17
    2c2c:	88 88       	ldd	r8, Y+16	; 0x10
    2c2e:	88 87       	std	Y+8, r24	; 0x08
    2c30:	87 86       	std	Z+15, r8	; 0x0f
    2c32:	86 85       	ldd	r24, Z+14	; 0x0e
    2c34:	84 83       	std	Z+4, r24	; 0x04
    2c36:	82 82       	std	Z+2, r8	; 0x02
    2c38:	81 80       	ldd	r8, Z+1	; 0x01
    2c3a:	7f 7e       	andi	r23, 0xEF	; 239
    2c3c:	7e 7d       	andi	r23, 0xDE	; 222
    2c3e:	7c 7b       	andi	r23, 0xBC	; 188
    2c40:	7b 7a       	andi	r23, 0xAB	; 171
    2c42:	7a 7a       	andi	r23, 0xAA	; 170
    2c44:	7a 7b       	andi	r23, 0xBA	; 186
    2c46:	7c 7d       	andi	r23, 0xDC	; 220
    2c48:	7e 80       	ldd	r7, Y+6	; 0x06
    2c4a:	82 85       	ldd	r24, Z+10	; 0x0a
    2c4c:	88 8b       	std	Y+16, r24	; 0x10
    2c4e:	8e 91       	ld	r24, -X
    2c50:	94 98       	cbi	0x12, 4	; 18
    2c52:	9a 9d       	mul	r25, r10
    2c54:	9f a1       	ldd	r25, Y+39	; 0x27
    2c56:	a2 a3       	std	Z+34, r26	; 0x22
    2c58:	a3 a3       	std	Z+35, r26	; 0x23
    2c5a:	a3 a2       	std	Z+35, r10	; 0x23
    2c5c:	a0 9f       	mul	r26, r16
    2c5e:	9d 9a       	sbi	0x13, 5	; 19
    2c60:	98 96       	adiw	r26, 0x28	; 40
    2c62:	94 91       	lpm	r25, Z
    2c64:	8f 8d       	ldd	r24, Y+31	; 0x1f
    2c66:	8b 88       	ldd	r8, Y+19	; 0x13
    2c68:	86 84       	ldd	r8, Z+14	; 0x0e
    2c6a:	82 80       	ldd	r8, Z+2	; 0x02
    2c6c:	7e 7b       	andi	r23, 0xBE	; 190
    2c6e:	79 77       	andi	r23, 0x79	; 121
    2c70:	75 73       	andi	r23, 0x35	; 53
    2c72:	71 6f       	ori	r23, 0xF1	; 241
    2c74:	6e 6d       	ori	r22, 0xDE	; 222
    2c76:	6c 6c       	ori	r22, 0xCC	; 204
    2c78:	6c 6d       	ori	r22, 0xDC	; 220
    2c7a:	6e 70       	andi	r22, 0x0E	; 14
    2c7c:	72 74       	andi	r23, 0x42	; 66
    2c7e:	77 7a       	andi	r23, 0xA7	; 167
    2c80:	7d 80       	ldd	r7, Y+5	; 0x05
    2c82:	83 85       	ldd	r24, Z+11	; 0x0b
    2c84:	88 8a       	std	Y+16, r8	; 0x10
    2c86:	8c 8e       	std	Y+28, r8	; 0x1c
    2c88:	8f 90       	pop	r8
    2c8a:	91 91       	ld	r25, Z+
    2c8c:	91 90       	ld	r9, Z+
    2c8e:	8f 8e       	std	Y+31, r8	; 0x1f
    2c90:	8d 8b       	std	Y+21, r24	; 0x15
    2c92:	8a 88       	ldd	r8, Y+18	; 0x12
    2c94:	86 84       	ldd	r8, Z+14	; 0x0e
    2c96:	83 81       	ldd	r24, Z+3	; 0x03
    2c98:	7f 7d       	andi	r23, 0xDF	; 223
    2c9a:	7b 79       	andi	r23, 0x9B	; 155
    2c9c:	77 75       	andi	r23, 0x57	; 87
    2c9e:	73 71       	andi	r23, 0x13	; 19
    2ca0:	6f 6e       	ori	r22, 0xEF	; 239
    2ca2:	6c 6b       	ori	r22, 0xBC	; 188
    2ca4:	6a 69       	ori	r22, 0x9A	; 154
    2ca6:	68 68       	ori	r22, 0x88	; 136
    2ca8:	68 69       	ori	r22, 0x98	; 152
    2caa:	6a 6c       	ori	r22, 0xCA	; 202
    2cac:	6d 70       	andi	r22, 0x0D	; 13
    2cae:	72 74       	andi	r23, 0x42	; 66
    2cb0:	77 79       	andi	r23, 0x97	; 151
    2cb2:	7c 7e       	andi	r23, 0xEC	; 236
    2cb4:	81 83       	std	Z+1, r24	; 0x01
    2cb6:	84 85       	ldd	r24, Z+12	; 0x0c
    2cb8:	86 87       	std	Z+14, r24	; 0x0e
    2cba:	87 87       	std	Z+15, r24	; 0x0f
    2cbc:	86 85       	ldd	r24, Z+14	; 0x0e
    2cbe:	84 83       	std	Z+4, r24	; 0x04
    2cc0:	81 80       	ldd	r8, Z+1	; 0x01
    2cc2:	7e 7d       	andi	r23, 0xDE	; 222
    2cc4:	7b 7a       	andi	r23, 0xAB	; 171
    2cc6:	78 77       	andi	r23, 0x78	; 120
    2cc8:	76 75       	andi	r23, 0x56	; 86
    2cca:	73 72       	andi	r23, 0x23	; 35
    2ccc:	71 70       	andi	r23, 0x01	; 1
    2cce:	6f 6e       	ori	r22, 0xEF	; 239
    2cd0:	6d 6c       	ori	r22, 0xCD	; 205
    2cd2:	6b 6b       	ori	r22, 0xBB	; 187
    2cd4:	6b 6b       	ori	r22, 0xBB	; 187
    2cd6:	6c 6c       	ori	r22, 0xCC	; 204
    2cd8:	6e 6f       	ori	r22, 0xFE	; 254
    2cda:	71 73       	andi	r23, 0x31	; 49
    2cdc:	76 79       	andi	r23, 0x96	; 150
    2cde:	7c 80       	ldd	r7, Y+4	; 0x04
    2ce0:	83 86       	std	Z+11, r8	; 0x0b
    2ce2:	89 8d       	ldd	r24, Y+25	; 0x19
    2ce4:	8f 92       	push	r8
    2ce6:	94 96       	adiw	r26, 0x24	; 36
    2ce8:	97 98       	cbi	0x12, 7	; 18
    2cea:	98 98       	cbi	0x13, 0	; 19
    2cec:	98 97       	sbiw	r26, 0x28	; 40
    2cee:	96 95       	lsr	r25
    2cf0:	94 93       	xch	Z, r25
    2cf2:	91 8f       	std	Z+25, r25	; 0x19
    2cf4:	8e 8c       	ldd	r8, Y+30	; 0x1e
    2cf6:	8b 89       	ldd	r24, Y+19	; 0x13
    2cf8:	88 87       	std	Y+8, r24	; 0x08
    2cfa:	86 84       	ldd	r8, Z+14	; 0x0e
    2cfc:	83 82       	std	Z+3, r8	; 0x03
    2cfe:	81 80       	ldd	r8, Z+1	; 0x01
    2d00:	7f 7e       	andi	r23, 0xEF	; 239
    2d02:	7d 7d       	andi	r23, 0xDD	; 221
    2d04:	7c 7c       	andi	r23, 0xCC	; 204
    2d06:	7c 7c       	andi	r23, 0xCC	; 204
    2d08:	7d 7d       	andi	r23, 0xDD	; 221
    2d0a:	7f 80       	ldd	r7, Y+7	; 0x07
    2d0c:	82 84       	ldd	r8, Z+10	; 0x0a
    2d0e:	86 88       	ldd	r8, Z+22	; 0x16
    2d10:	8a 8d       	ldd	r24, Y+26	; 0x1a
    2d12:	8f 91       	pop	r24
    2d14:	93 95       	inc	r25
    2d16:	96 97       	sbiw	r26, 0x26	; 38
    2d18:	98 98       	cbi	0x13, 0	; 19
    2d1a:	97 97       	sbiw	r26, 0x27	; 39
    2d1c:	96 94       	lsr	r9
    2d1e:	92 90       	ld	r9, -Z
    2d20:	8d 8b       	std	Y+21, r24	; 0x15
    2d22:	88 85       	ldd	r24, Y+8	; 0x08
    2d24:	83 80       	ldd	r8, Z+3	; 0x03
    2d26:	7d 7b       	andi	r23, 0xBD	; 189
    2d28:	78 76       	andi	r23, 0x68	; 104
    2d2a:	74 72       	andi	r23, 0x24	; 36
    2d2c:	70 6e       	ori	r23, 0xE0	; 224
    2d2e:	6d 6b       	ori	r22, 0xBD	; 189
    2d30:	6a 69       	ori	r22, 0x9A	; 154
    2d32:	69 68       	ori	r22, 0x89	; 137
    2d34:	68 68       	ori	r22, 0x88	; 136
    2d36:	68 69       	ori	r22, 0x98	; 152
    2d38:	6a 6b       	ori	r22, 0xBA	; 186
    2d3a:	6c 6e       	ori	r22, 0xEC	; 236
    2d3c:	71 73       	andi	r23, 0x31	; 49
    2d3e:	76 79       	andi	r23, 0x96	; 150
    2d40:	7c 80       	ldd	r7, Y+4	; 0x04
    2d42:	83 86       	std	Z+11, r8	; 0x0b
    2d44:	8a 8d       	ldd	r24, Y+26	; 0x1a
    2d46:	8f 92       	push	r8
    2d48:	94 95       	.word	0x9594	; ????
    2d4a:	96 97       	sbiw	r26, 0x26	; 38
    2d4c:	97 96       	adiw	r26, 0x27	; 39
    2d4e:	95 94       	asr	r9
    2d50:	92 90       	ld	r9, -Z
    2d52:	8d 8a       	std	Y+21, r8	; 0x15
    2d54:	87 84       	ldd	r8, Z+15	; 0x0f
    2d56:	80 7d       	andi	r24, 0xD0	; 208
    2d58:	7a 77       	andi	r23, 0x7A	; 122
    2d5a:	73 70       	andi	r23, 0x03	; 3
    2d5c:	6d 6b       	ori	r22, 0xBD	; 189
    2d5e:	68 66       	ori	r22, 0x68	; 104
    2d60:	64 62       	ori	r22, 0x24	; 36
    2d62:	60 5f       	subi	r22, 0xF0	; 240
    2d64:	5e 5d       	subi	r21, 0xDE	; 222
    2d66:	5d 5d       	subi	r21, 0xDD	; 221
    2d68:	5d 5e       	subi	r21, 0xED	; 237
    2d6a:	5f 61       	ori	r21, 0x1F	; 31
    2d6c:	63 65       	ori	r22, 0x53	; 83
    2d6e:	68 6b       	ori	r22, 0xB8	; 184
    2d70:	6e 71       	andi	r22, 0x1E	; 30
    2d72:	74 78       	andi	r23, 0x84	; 132
    2d74:	7b 7e       	andi	r23, 0xEB	; 235
    2d76:	81 84       	ldd	r8, Z+9	; 0x09
    2d78:	86 89       	ldd	r24, Z+22	; 0x16
    2d7a:	8a 8c       	ldd	r8, Y+26	; 0x1a
    2d7c:	8d 8e       	std	Y+29, r8	; 0x1d
    2d7e:	8e 8e       	std	Y+30, r8	; 0x1e
    2d80:	8e 8e       	std	Y+30, r8	; 0x1e
    2d82:	8d 8c       	ldd	r8, Y+29	; 0x1d
    2d84:	8b 8a       	std	Y+19, r8	; 0x13
    2d86:	89 88       	ldd	r8, Y+17	; 0x11
    2d88:	87 86       	std	Z+15, r8	; 0x0f
    2d8a:	85 84       	ldd	r8, Z+13	; 0x0d
    2d8c:	83 81       	ldd	r24, Z+3	; 0x03
    2d8e:	80 7f       	andi	r24, 0xF0	; 240
    2d90:	7e 7d       	andi	r23, 0xDE	; 222
    2d92:	7c 7b       	andi	r23, 0xBC	; 188
    2d94:	7a 7a       	andi	r23, 0xAA	; 170
    2d96:	79 79       	andi	r23, 0x99	; 153
    2d98:	79 7a       	andi	r23, 0xA9	; 169
    2d9a:	7a 7c       	andi	r23, 0xCA	; 202
    2d9c:	7d 7f       	andi	r23, 0xFD	; 253
    2d9e:	81 84       	ldd	r8, Z+9	; 0x09
    2da0:	86 89       	ldd	r24, Z+22	; 0x16
    2da2:	8c 8f       	std	Y+28, r24	; 0x1c
    2da4:	92 95       	swap	r25
    2da6:	97 9a       	sbi	0x12, 7	; 18
    2da8:	9c 9d       	mul	r25, r12
    2daa:	9e 9f       	mul	r25, r30
    2dac:	9f 9f       	mul	r25, r31
    2dae:	9e 9d       	mul	r25, r14
    2db0:	9c 9a       	sbi	0x13, 4	; 19
    2db2:	99 96       	adiw	r26, 0x29	; 41
    2db4:	94 92       	xch	Z, r9
    2db6:	90 8d       	ldd	r25, Z+24	; 0x18
    2db8:	8b 89       	ldd	r24, Y+19	; 0x13
    2dba:	87 84       	ldd	r8, Z+15	; 0x0f
    2dbc:	82 80       	ldd	r8, Z+2	; 0x02
    2dbe:	7e 7b       	andi	r23, 0xBE	; 190
    2dc0:	79 77       	andi	r23, 0x79	; 121
    2dc2:	75 73       	andi	r23, 0x35	; 53
    2dc4:	71 6f       	ori	r23, 0xF1	; 241
    2dc6:	6d 6c       	ori	r22, 0xCD	; 205
    2dc8:	6a 6a       	ori	r22, 0xAA	; 170
    2dca:	69 69       	ori	r22, 0x99	; 153
    2dcc:	6a 6b       	ori	r22, 0xBA	; 186
    2dce:	6d 6f       	ori	r22, 0xFD	; 253
    2dd0:	71 74       	andi	r23, 0x41	; 65
    2dd2:	77 7a       	andi	r23, 0xA7	; 167
    2dd4:	7e 81       	ldd	r23, Y+6	; 0x06
    2dd6:	85 88       	ldd	r8, Z+21	; 0x15
    2dd8:	8b 8e       	std	Y+27, r8	; 0x1b
    2dda:	90 92 93 94 	sts	0x9493, r9
    2dde:	94 94       	.word	0x9494	; ????
    2de0:	93 92       	.word	0x9293	; ????
    2de2:	91 8f       	std	Z+25, r25	; 0x19
    2de4:	8d 8b       	std	Y+21, r24	; 0x15
    2de6:	88 86       	std	Y+8, r8	; 0x08
    2de8:	83 81       	ldd	r24, Z+3	; 0x03
    2dea:	7e 7c       	andi	r23, 0xCE	; 206
    2dec:	7a 78       	andi	r23, 0x8A	; 138
    2dee:	75 74       	andi	r23, 0x45	; 69
    2df0:	72 70       	andi	r23, 0x02	; 2
    2df2:	6e 6d       	ori	r22, 0xDE	; 222
    2df4:	6c 6b       	ori	r22, 0xBC	; 188
    2df6:	6a 69       	ori	r22, 0x9A	; 154
    2df8:	69 69       	ori	r22, 0x99	; 153
    2dfa:	69 69       	ori	r22, 0x99	; 153
    2dfc:	6a 6b       	ori	r22, 0xBA	; 186
    2dfe:	6c 6e       	ori	r22, 0xEC	; 236
    2e00:	70 72       	andi	r23, 0x20	; 32
    2e02:	74 76       	andi	r23, 0x64	; 100
    2e04:	78 7b       	andi	r23, 0xB8	; 184
    2e06:	7d 7f       	andi	r23, 0xFD	; 253
    2e08:	81 82       	std	Z+1, r8	; 0x01
    2e0a:	83 84       	ldd	r8, Z+11	; 0x0b
    2e0c:	85 85       	ldd	r24, Z+13	; 0x0d
    2e0e:	85 84       	ldd	r8, Z+13	; 0x0d
    2e10:	84 83       	std	Z+4, r24	; 0x04
    2e12:	81 80       	ldd	r8, Z+1	; 0x01
    2e14:	7e 7d       	andi	r23, 0xDE	; 222
    2e16:	7b 7a       	andi	r23, 0xAB	; 171
    2e18:	78 77       	andi	r23, 0x78	; 120
    2e1a:	75 74       	andi	r23, 0x45	; 69
    2e1c:	73 72       	andi	r23, 0x23	; 35
    2e1e:	71 70       	andi	r23, 0x01	; 1
    2e20:	6f 6f       	ori	r22, 0xFF	; 255
    2e22:	6e 6e       	ori	r22, 0xEE	; 238
    2e24:	6e 6e       	ori	r22, 0xEE	; 238
    2e26:	6e 6e       	ori	r22, 0xEE	; 238
    2e28:	6f 6f       	ori	r22, 0xFF	; 255
    2e2a:	70 72       	andi	r23, 0x20	; 32
    2e2c:	73 75       	andi	r23, 0x53	; 83
    2e2e:	77 79       	andi	r23, 0x97	; 151
    2e30:	7c 7f       	andi	r23, 0xFC	; 252
    2e32:	82 85       	ldd	r24, Z+10	; 0x0a
    2e34:	88 8b       	std	Y+16, r24	; 0x10
    2e36:	8e 90       	ld	r8, -X
    2e38:	93 95       	inc	r25
    2e3a:	97 99       	sbic	0x12, 7	; 18
    2e3c:	9a 9b       	sbis	0x13, 2	; 19
    2e3e:	9c 9c       	mul	r9, r12
    2e40:	9c 9b       	sbis	0x13, 4	; 19
    2e42:	9a 99       	sbic	0x13, 2	; 19
    2e44:	98 97       	sbiw	r26, 0x28	; 40
    2e46:	96 94       	lsr	r9
    2e48:	93 91       	.word	0x9193	; ????
    2e4a:	8f 8d       	ldd	r24, Y+31	; 0x1f
    2e4c:	8c 8a       	std	Y+20, r8	; 0x14
    2e4e:	88 86       	std	Y+8, r8	; 0x08
    2e50:	84 82       	std	Z+4, r8	; 0x04
    2e52:	80 7e       	andi	r24, 0xE0	; 224
    2e54:	7c 7a       	andi	r23, 0xAC	; 172
    2e56:	78 76       	andi	r23, 0x68	; 104
    2e58:	75 74       	andi	r23, 0x45	; 69
    2e5a:	73 72       	andi	r23, 0x23	; 35
    2e5c:	72 73       	andi	r23, 0x32	; 50
    2e5e:	73 75       	andi	r23, 0x53	; 83
    2e60:	76 78       	andi	r23, 0x86	; 134
    2e62:	7b 7d       	andi	r23, 0xDB	; 219
    2e64:	80 83       	st	Z, r24
    2e66:	86 89       	ldd	r24, Z+22	; 0x16
    2e68:	8c 8f       	std	Y+28, r24	; 0x1c
    2e6a:	91 93       	st	Z+, r25
    2e6c:	94 95       	.word	0x9594	; ????
    2e6e:	95 95       	asr	r25
    2e70:	95 94       	asr	r9
    2e72:	93 91       	.word	0x9193	; ????
    2e74:	8f 8d       	ldd	r24, Y+31	; 0x1f
    2e76:	8b 89       	ldd	r24, Y+19	; 0x13
    2e78:	87 85       	ldd	r24, Z+15	; 0x0f
    2e7a:	83 81       	ldd	r24, Z+3	; 0x03
    2e7c:	7f 7d       	andi	r23, 0xDF	; 223
    2e7e:	7c 7a       	andi	r23, 0xAC	; 172
    2e80:	79 78       	andi	r23, 0x89	; 137
    2e82:	76 75       	andi	r23, 0x56	; 86
    2e84:	74 73       	andi	r23, 0x34	; 52
    2e86:	72 72       	andi	r23, 0x22	; 34
    2e88:	71 71       	andi	r23, 0x11	; 17
    2e8a:	70 70       	andi	r23, 0x00	; 0
    2e8c:	70 70       	andi	r23, 0x00	; 0
    2e8e:	71 72       	andi	r23, 0x21	; 33
    2e90:	73 74       	andi	r23, 0x43	; 67
    2e92:	76 78       	andi	r23, 0x86	; 134
    2e94:	7a 7c       	andi	r23, 0xCA	; 202
    2e96:	7e 80       	ldd	r7, Y+6	; 0x06
    2e98:	82 84       	ldd	r8, Z+10	; 0x0a
    2e9a:	86 87       	std	Z+14, r24	; 0x0e
    2e9c:	88 88       	ldd	r8, Y+16	; 0x10
    2e9e:	89 88       	ldd	r8, Y+17	; 0x11
    2ea0:	88 87       	std	Y+8, r24	; 0x08
    2ea2:	85 84       	ldd	r8, Z+13	; 0x0d
    2ea4:	82 80       	ldd	r8, Z+2	; 0x02
    2ea6:	7d 7b       	andi	r23, 0xBD	; 189
    2ea8:	79 77       	andi	r23, 0x79	; 121
    2eaa:	75 73       	andi	r23, 0x35	; 53
    2eac:	71 70       	andi	r23, 0x01	; 1
    2eae:	6e 6d       	ori	r22, 0xDE	; 222
    2eb0:	6c 6c       	ori	r22, 0xCC	; 204
    2eb2:	6b 6b       	ori	r22, 0xBB	; 187
    2eb4:	6b 6a       	ori	r22, 0xAB	; 171
    2eb6:	6a 6a       	ori	r22, 0xAA	; 170
    2eb8:	6b 6b       	ori	r22, 0xBB	; 187
    2eba:	6b 6c       	ori	r22, 0xCB	; 203
    2ebc:	6c 6d       	ori	r22, 0xDC	; 220
    2ebe:	6e 6f       	ori	r22, 0xFE	; 254
    2ec0:	71 72       	andi	r23, 0x21	; 33
    2ec2:	74 76       	andi	r23, 0x64	; 100
    2ec4:	79 7b       	andi	r23, 0xB9	; 185
    2ec6:	7e 80       	ldd	r7, Y+6	; 0x06
    2ec8:	83 86       	std	Z+11, r8	; 0x0b
    2eca:	88 8a       	std	Y+16, r8	; 0x10
    2ecc:	8c 8e       	std	Y+28, r8	; 0x1c
    2ece:	90 91 92 92 	lds	r25, 0x9292
    2ed2:	92 92       	st	-Z, r9
    2ed4:	92 91       	ld	r25, -Z
    2ed6:	90 8f       	std	Z+24, r25	; 0x18
    2ed8:	8e 8c       	ldd	r8, Y+30	; 0x1e
    2eda:	8b 89       	ldd	r24, Y+19	; 0x13
    2edc:	87 86       	std	Z+15, r8	; 0x0f
    2ede:	84 82       	std	Z+4, r8	; 0x04
    2ee0:	81 7f       	andi	r24, 0xF1	; 241
    2ee2:	7d 7c       	andi	r23, 0xCD	; 205
    2ee4:	7a 79       	andi	r23, 0x9A	; 154
    2ee6:	78 77       	andi	r23, 0x78	; 120
    2ee8:	76 75       	andi	r23, 0x56	; 86
    2eea:	74 74       	andi	r23, 0x44	; 68
    2eec:	74 74       	andi	r23, 0x44	; 68
    2eee:	75 76       	andi	r23, 0x65	; 101
    2ef0:	78 79       	andi	r23, 0x98	; 152
    2ef2:	7b 7e       	andi	r23, 0xEB	; 235
    2ef4:	80 83       	st	Z, r24
    2ef6:	86 89       	ldd	r24, Z+22	; 0x16
    2ef8:	8c 8e       	std	Y+28, r8	; 0x1c
    2efa:	91 93       	st	Z+, r25
    2efc:	95 97       	sbiw	r26, 0x25	; 37
    2efe:	99 99       	sbic	0x13, 1	; 19
    2f00:	9a 9a       	sbi	0x13, 2	; 19
    2f02:	9a 99       	sbic	0x13, 2	; 19
    2f04:	98 96       	adiw	r26, 0x28	; 40
    2f06:	95 93       	las	Z, r25
    2f08:	91 8e       	std	Z+25, r9	; 0x19
    2f0a:	8c 8a       	std	Y+20, r8	; 0x14
    2f0c:	88 85       	ldd	r24, Y+8	; 0x08
    2f0e:	83 81       	ldd	r24, Z+3	; 0x03
    2f10:	7f 7d       	andi	r23, 0xDF	; 223
    2f12:	7b 7a       	andi	r23, 0xAB	; 171
    2f14:	78 76       	andi	r23, 0x68	; 104
    2f16:	75 74       	andi	r23, 0x45	; 69
    2f18:	72 71       	andi	r23, 0x12	; 18
    2f1a:	71 70       	andi	r23, 0x01	; 1
    2f1c:	70 70       	andi	r23, 0x00	; 0
    2f1e:	71 71       	andi	r23, 0x11	; 17
    2f20:	72 74       	andi	r23, 0x42	; 66
    2f22:	76 78       	andi	r23, 0x86	; 134
    2f24:	7a 7d       	andi	r23, 0xDA	; 218
    2f26:	7f 82       	std	Y+7, r7	; 0x07
    2f28:	84 87       	std	Z+12, r24	; 0x0c
    2f2a:	89 8b       	std	Y+17, r24	; 0x11
    2f2c:	8d 8e       	std	Y+29, r8	; 0x1d
    2f2e:	8f 8f       	std	Y+31, r24	; 0x1f
    2f30:	8f 8f       	std	Y+31, r24	; 0x1f
    2f32:	8e 8d       	ldd	r24, Y+30	; 0x1e
    2f34:	8b 8a       	std	Y+19, r8	; 0x13
    2f36:	88 85       	ldd	r24, Y+8	; 0x08
    2f38:	83 81       	ldd	r24, Z+3	; 0x03
    2f3a:	7e 7c       	andi	r23, 0xCE	; 206
    2f3c:	7a 78       	andi	r23, 0x8A	; 138
    2f3e:	76 74       	andi	r23, 0x46	; 70
    2f40:	73 71       	andi	r23, 0x13	; 19
    2f42:	70 6f       	ori	r23, 0xF0	; 240
    2f44:	6d 6c       	ori	r22, 0xCD	; 205
    2f46:	6c 6b       	ori	r22, 0xBC	; 188
    2f48:	6a 6a       	ori	r22, 0xAA	; 170
    2f4a:	69 69       	ori	r22, 0x99	; 153
    2f4c:	69 69       	ori	r22, 0x99	; 153
    2f4e:	6a 6b       	ori	r22, 0xBA	; 186
    2f50:	6c 6d       	ori	r22, 0xDC	; 220
    2f52:	6f 70       	andi	r22, 0x0F	; 15
    2f54:	73 75       	andi	r23, 0x53	; 83
    2f56:	78 7a       	andi	r23, 0xA8	; 168
    2f58:	7d 80       	ldd	r7, Y+5	; 0x05
    2f5a:	83 85       	ldd	r24, Z+11	; 0x0b
    2f5c:	88 8a       	std	Y+16, r8	; 0x10
    2f5e:	8c 8d       	ldd	r24, Y+28	; 0x1c
    2f60:	8e 8f       	std	Y+30, r24	; 0x1e
    2f62:	8f 8f       	std	Y+31, r24	; 0x1f
    2f64:	8f 8e       	std	Y+31, r8	; 0x1f
    2f66:	8d 8b       	std	Y+21, r24	; 0x15
    2f68:	8a 88       	ldd	r8, Y+18	; 0x12
    2f6a:	86 85       	ldd	r24, Z+14	; 0x0e
    2f6c:	83 81       	ldd	r24, Z+3	; 0x03
    2f6e:	7f 7d       	andi	r23, 0xDF	; 223
    2f70:	7b 7a       	andi	r23, 0xAB	; 171
    2f72:	78 77       	andi	r23, 0x78	; 120
    2f74:	76 74       	andi	r23, 0x46	; 70
    2f76:	73 72       	andi	r23, 0x23	; 35
    2f78:	71 71       	andi	r23, 0x11	; 17
    2f7a:	70 70       	andi	r23, 0x00	; 0
    2f7c:	70 70       	andi	r23, 0x00	; 0
    2f7e:	70 71       	andi	r23, 0x10	; 16
    2f80:	72 73       	andi	r23, 0x32	; 50
    2f82:	75 76       	andi	r23, 0x65	; 101
    2f84:	79 7b       	andi	r23, 0xB9	; 185
    2f86:	7e 80       	ldd	r7, Y+6	; 0x06
    2f88:	83 86       	std	Z+11, r8	; 0x0b
    2f8a:	89 8b       	std	Y+17, r24	; 0x11
    2f8c:	8e 90       	ld	r8, -X
    2f8e:	92 93       	st	-Z, r25
    2f90:	95 95       	asr	r25
    2f92:	96 96       	adiw	r26, 0x26	; 38
    2f94:	96 95       	lsr	r25
    2f96:	94 93       	xch	Z, r25
    2f98:	91 90       	ld	r9, Z+
    2f9a:	8e 8c       	ldd	r8, Y+30	; 0x1e
    2f9c:	8a 88       	ldd	r8, Y+18	; 0x12
    2f9e:	87 85       	ldd	r24, Z+15	; 0x0f
    2fa0:	83 81       	ldd	r24, Z+3	; 0x03
    2fa2:	80 7e       	andi	r24, 0xE0	; 224
    2fa4:	7d 7b       	andi	r23, 0xBD	; 189
    2fa6:	7a 79       	andi	r23, 0x9A	; 154
    2fa8:	78 77       	andi	r23, 0x78	; 120
    2faa:	76 76       	andi	r23, 0x66	; 102
    2fac:	75 75       	andi	r23, 0x55	; 85
    2fae:	75 75       	andi	r23, 0x55	; 85
    2fb0:	76 77       	andi	r23, 0x76	; 118
    2fb2:	78 7a       	andi	r23, 0xA8	; 168
    2fb4:	7b 7d       	andi	r23, 0xDB	; 219
    2fb6:	80 82       	st	Z, r8
    2fb8:	84 87       	std	Z+12, r24	; 0x0c
    2fba:	89 8c       	ldd	r8, Y+25	; 0x19
    2fbc:	8e 90       	ld	r8, -X
    2fbe:	91 93       	st	Z+, r25
    2fc0:	94 94       	.word	0x9494	; ????
    2fc2:	94 94       	.word	0x9494	; ????
    2fc4:	94 93       	xch	Z, r25
    2fc6:	91 90       	ld	r9, Z+
    2fc8:	8e 8d       	ldd	r24, Y+30	; 0x1e
    2fca:	8b 89       	ldd	r24, Y+19	; 0x13
    2fcc:	87 85       	ldd	r24, Z+15	; 0x0f
    2fce:	83 81       	ldd	r24, Z+3	; 0x03
    2fd0:	7f 7e       	andi	r23, 0xEF	; 239
    2fd2:	7c 7a       	andi	r23, 0xAC	; 172
    2fd4:	79 77       	andi	r23, 0x79	; 121
    2fd6:	76 75       	andi	r23, 0x56	; 86
    2fd8:	73 72       	andi	r23, 0x23	; 35
    2fda:	71 70       	andi	r23, 0x01	; 1
    2fdc:	6f 6e       	ori	r22, 0xEF	; 239
    2fde:	6d 6d       	ori	r22, 0xDD	; 221
    2fe0:	6d 6d       	ori	r22, 0xDD	; 221
    2fe2:	6d 6e       	ori	r22, 0xED	; 237
    2fe4:	6f 71       	andi	r22, 0x1F	; 31
    2fe6:	72 74       	andi	r23, 0x42	; 66
    2fe8:	76 78       	andi	r23, 0x86	; 134
    2fea:	7a 7c       	andi	r23, 0xCA	; 202
    2fec:	7e 80       	ldd	r7, Y+6	; 0x06
    2fee:	82 83       	std	Z+2, r24	; 0x02
    2ff0:	85 86       	std	Z+13, r8	; 0x0d
    2ff2:	86 86       	std	Z+14, r8	; 0x0e
    2ff4:	86 86       	std	Z+14, r8	; 0x0e
    2ff6:	86 85       	ldd	r24, Z+14	; 0x0e
    2ff8:	84 83       	std	Z+4, r24	; 0x04
    2ffa:	81 80       	ldd	r8, Z+1	; 0x01
    2ffc:	7f 7d       	andi	r23, 0xDF	; 223
    2ffe:	7c 7a       	andi	r23, 0xAC	; 172
    3000:	79 78       	andi	r23, 0x89	; 137
    3002:	77 76       	andi	r23, 0x67	; 103
    3004:	75 74       	andi	r23, 0x45	; 69
    3006:	73 72       	andi	r23, 0x23	; 35
    3008:	72 71       	andi	r23, 0x12	; 18
    300a:	70 70       	andi	r23, 0x00	; 0
    300c:	70 6f       	ori	r23, 0xF0	; 240
    300e:	6f 6f       	ori	r22, 0xFF	; 255
    3010:	70 70       	andi	r23, 0x00	; 0
    3012:	71 72       	andi	r23, 0x21	; 33
    3014:	74 75       	andi	r23, 0x54	; 84
    3016:	77 7a       	andi	r23, 0xA7	; 167
    3018:	7c 7f       	andi	r23, 0xFC	; 252
    301a:	81 84       	ldd	r8, Z+9	; 0x09
    301c:	87 89       	ldd	r24, Z+23	; 0x17
    301e:	8c 8e       	std	Y+28, r8	; 0x1c
    3020:	90 91 93 93 	lds	r25, 0x9393
    3024:	94 94       	.word	0x9494	; ????
    3026:	94 93       	xch	Z, r25
    3028:	92 91       	ld	r25, -Z
    302a:	90 8e       	std	Z+24, r9	; 0x18
    302c:	8d 8b       	std	Y+21, r24	; 0x15
    302e:	89 87       	std	Y+9, r24	; 0x09
    3030:	86 84       	ldd	r8, Z+14	; 0x0e
    3032:	82 81       	ldd	r24, Z+2	; 0x02
    3034:	7f 7e       	andi	r23, 0xEF	; 239
    3036:	7d 7b       	andi	r23, 0xBD	; 189
    3038:	7a 79       	andi	r23, 0x9A	; 154
    303a:	78 77       	andi	r23, 0x78	; 120
    303c:	76 75       	andi	r23, 0x56	; 86
    303e:	74 74       	andi	r23, 0x44	; 68
    3040:	74 74       	andi	r23, 0x44	; 68
    3042:	74 75       	andi	r23, 0x54	; 84
    3044:	76 77       	andi	r23, 0x76	; 118
    3046:	79 7a       	andi	r23, 0xA9	; 169
    3048:	7c 7f       	andi	r23, 0xFC	; 252
    304a:	81 84       	ldd	r8, Z+9	; 0x09
    304c:	86 89       	ldd	r24, Z+22	; 0x16
    304e:	8b 8d       	ldd	r24, Y+27	; 0x1b
    3050:	8f 90       	pop	r8
    3052:	92 93       	st	-Z, r25
    3054:	93 93       	.word	0x9393	; ????
    3056:	93 93       	.word	0x9393	; ????
    3058:	92 91       	ld	r25, -Z
    305a:	90 8e       	std	Z+24, r9	; 0x18
    305c:	8d 8b       	std	Y+21, r24	; 0x15
    305e:	8a 88       	ldd	r8, Y+18	; 0x12
    3060:	87 85       	ldd	r24, Z+15	; 0x0f
    3062:	84 83       	std	Z+4, r24	; 0x04
    3064:	81 80       	ldd	r8, Z+1	; 0x01
    3066:	7f 7e       	andi	r23, 0xEF	; 239
    3068:	7d 7c       	andi	r23, 0xCD	; 205
    306a:	7b 7a       	andi	r23, 0xAB	; 171
    306c:	79 78       	andi	r23, 0x89	; 137
    306e:	78 77       	andi	r23, 0x78	; 120
    3070:	77 76       	andi	r23, 0x67	; 103
    3072:	76 77       	andi	r23, 0x76	; 118
    3074:	77 78       	andi	r23, 0x87	; 135
    3076:	79 7a       	andi	r23, 0xA9	; 169
    3078:	7b 7d       	andi	r23, 0xDB	; 219
    307a:	7e 80       	ldd	r7, Y+6	; 0x06
    307c:	82 84       	ldd	r8, Z+10	; 0x0a
    307e:	85 87       	std	Z+13, r24	; 0x0d
    3080:	88 89       	ldd	r24, Y+16	; 0x10
    3082:	8a 8b       	std	Y+18, r24	; 0x12
    3084:	8b 8b       	std	Y+19, r24	; 0x13
    3086:	8a 8a       	std	Y+18, r8	; 0x12
    3088:	89 87       	std	Y+9, r24	; 0x09
    308a:	86 85       	ldd	r24, Z+14	; 0x0e
    308c:	83 81       	ldd	r24, Z+3	; 0x03
    308e:	80 7e       	andi	r24, 0xE0	; 224
    3090:	7c 7b       	andi	r23, 0xBC	; 188
    3092:	79 77       	andi	r23, 0x79	; 121
    3094:	76 74       	andi	r23, 0x46	; 70
    3096:	73 71       	andi	r23, 0x13	; 19
    3098:	70 6f       	ori	r23, 0xF0	; 240
    309a:	6d 6c       	ori	r22, 0xCD	; 205
    309c:	6b 6a       	ori	r22, 0xAB	; 171
    309e:	69 68       	ori	r22, 0x89	; 137
    30a0:	68 68       	ori	r22, 0x88	; 136
    30a2:	68 68       	ori	r22, 0x88	; 136
    30a4:	69 6a       	ori	r22, 0xA9	; 169
    30a6:	6b 6d       	ori	r22, 0xDB	; 219
    30a8:	6f 72       	andi	r22, 0x2F	; 47
    30aa:	74 77       	andi	r23, 0x74	; 116
    30ac:	79 7c       	andi	r23, 0xC9	; 201
    30ae:	7f 82       	std	Y+7, r7	; 0x07
    30b0:	84 86       	std	Z+12, r8	; 0x0c
    30b2:	88 8a       	std	Y+16, r8	; 0x10
    30b4:	8b 8c       	ldd	r8, Y+27	; 0x1b
    30b6:	8d 8d       	ldd	r24, Y+29	; 0x1d
    30b8:	8e 8d       	ldd	r24, Y+30	; 0x1e
    30ba:	8d 8c       	ldd	r8, Y+29	; 0x1d
    30bc:	8b 8a       	std	Y+19, r8	; 0x13
    30be:	89 87       	std	Y+9, r24	; 0x09
    30c0:	86 85       	ldd	r24, Z+14	; 0x0e
    30c2:	83 82       	std	Z+3, r8	; 0x03
    30c4:	80 7f       	andi	r24, 0xF0	; 240
    30c6:	7e 7c       	andi	r23, 0xCE	; 206
    30c8:	7b 7a       	andi	r23, 0xAB	; 171
    30ca:	79 78       	andi	r23, 0x89	; 137
    30cc:	77 76       	andi	r23, 0x67	; 103
    30ce:	75 75       	andi	r23, 0x55	; 85
    30d0:	74 74       	andi	r23, 0x44	; 68
    30d2:	74 74       	andi	r23, 0x44	; 68
    30d4:	75 76       	andi	r23, 0x65	; 101
    30d6:	77 79       	andi	r23, 0x97	; 151
    30d8:	7a 7c       	andi	r23, 0xCA	; 202
    30da:	7e 81       	ldd	r23, Y+6	; 0x06
    30dc:	83 86       	std	Z+11, r8	; 0x0b
    30de:	88 8a       	std	Y+16, r8	; 0x10
    30e0:	8d 8f       	std	Y+29, r24	; 0x1d
    30e2:	90 92 93 93 	sts	0x9393, r9
    30e6:	94 94       	.word	0x9494	; ????
    30e8:	93 92       	.word	0x9293	; ????
    30ea:	92 90       	ld	r9, -Z
    30ec:	8f 8e       	std	Y+31, r8	; 0x1f
    30ee:	8c 8b       	std	Y+20, r24	; 0x14
    30f0:	89 88       	ldd	r8, Y+17	; 0x11
    30f2:	86 85       	ldd	r24, Z+14	; 0x0e
    30f4:	83 82       	std	Z+3, r8	; 0x03
    30f6:	81 80       	ldd	r8, Z+1	; 0x01
    30f8:	7f 7e       	andi	r23, 0xEF	; 239
    30fa:	7e 7d       	andi	r23, 0xDE	; 222
    30fc:	7c 7b       	andi	r23, 0xBC	; 188
    30fe:	7b 7a       	andi	r23, 0xAB	; 171
    3100:	7a 7a       	andi	r23, 0xAA	; 170
    3102:	7a 7a       	andi	r23, 0xAA	; 170
    3104:	7a 7a       	andi	r23, 0xAA	; 170
    3106:	7b 7c       	andi	r23, 0xCB	; 203
    3108:	7c 7e       	andi	r23, 0xEC	; 236
    310a:	7f 80       	ldd	r7, Y+7	; 0x07
    310c:	82 83       	std	Z+2, r24	; 0x02
    310e:	85 87       	std	Z+13, r24	; 0x0d
    3110:	88 8a       	std	Y+16, r8	; 0x10
    3112:	8b 8c       	ldd	r8, Y+27	; 0x1b
    3114:	8d 8e       	std	Y+29, r8	; 0x1d
    3116:	8e 8e       	std	Y+30, r8	; 0x1e
    3118:	8e 8d       	ldd	r24, Y+30	; 0x1e
    311a:	8d 8c       	ldd	r8, Y+29	; 0x1d
    311c:	8a 89       	ldd	r24, Y+18	; 0x12
    311e:	87 86       	std	Z+15, r8	; 0x0f
    3120:	84 82       	std	Z+4, r8	; 0x04
    3122:	80 7f       	andi	r24, 0xF0	; 240
    3124:	7d 7b       	andi	r23, 0xBD	; 189
    3126:	7a 78       	andi	r23, 0x8A	; 138
    3128:	76 75       	andi	r23, 0x56	; 86
    312a:	74 72       	andi	r23, 0x24	; 36
    312c:	71 70       	andi	r23, 0x01	; 1
    312e:	70 6f       	ori	r23, 0xF0	; 240
    3130:	6e 6e       	ori	r22, 0xEE	; 238
    3132:	6e 6e       	ori	r22, 0xEE	; 238
    3134:	6e 6e       	ori	r22, 0xEE	; 238
    3136:	6f 70       	andi	r22, 0x0F	; 15
    3138:	71 72       	andi	r23, 0x21	; 33
    313a:	74 76       	andi	r23, 0x64	; 100
    313c:	78 7a       	andi	r23, 0xA8	; 168
    313e:	7c 7e       	andi	r23, 0xEC	; 236
    3140:	80 82       	st	Z, r8
    3142:	84 85       	ldd	r24, Z+12	; 0x0c
    3144:	87 88       	ldd	r8, Z+23	; 0x17
    3146:	89 8a       	std	Y+17, r8	; 0x11
    3148:	8a 8a       	std	Y+18, r8	; 0x12
    314a:	8a 89       	ldd	r24, Y+18	; 0x12
    314c:	89 88       	ldd	r8, Y+17	; 0x11
    314e:	86 85       	ldd	r24, Z+14	; 0x0e
    3150:	84 82       	std	Z+4, r8	; 0x04
    3152:	81 7f       	andi	r24, 0xF1	; 241
    3154:	7d 7c       	andi	r23, 0xCD	; 205
    3156:	7a 79       	andi	r23, 0x9A	; 154
    3158:	78 76       	andi	r23, 0x68	; 104
    315a:	75 74       	andi	r23, 0x45	; 69
    315c:	73 72       	andi	r23, 0x23	; 35
    315e:	72 71       	andi	r23, 0x12	; 18
    3160:	71 70       	andi	r23, 0x01	; 1
    3162:	70 71       	andi	r23, 0x10	; 16
    3164:	71 71       	andi	r23, 0x11	; 17
    3166:	72 73       	andi	r23, 0x32	; 50
    3168:	74 76       	andi	r23, 0x64	; 100
    316a:	77 79       	andi	r23, 0x97	; 151
    316c:	7b 7d       	andi	r23, 0xDB	; 219
    316e:	7f 81       	ldd	r23, Y+7	; 0x07
    3170:	83 85       	ldd	r24, Z+11	; 0x0b
    3172:	87 89       	ldd	r24, Z+23	; 0x17
    3174:	8a 8b       	std	Y+18, r24	; 0x12
    3176:	8c 8d       	ldd	r24, Y+28	; 0x1c
    3178:	8d 8d       	ldd	r24, Y+29	; 0x1d
    317a:	8d 8d       	ldd	r24, Y+29	; 0x1d
    317c:	8c 8b       	std	Y+20, r24	; 0x14
    317e:	8a 89       	ldd	r24, Y+18	; 0x12
    3180:	88 87       	std	Y+8, r24	; 0x08
    3182:	86 85       	ldd	r24, Z+14	; 0x0e
    3184:	84 83       	std	Z+4, r24	; 0x04
    3186:	82 81       	ldd	r24, Z+2	; 0x02
    3188:	80 7f       	andi	r24, 0xF0	; 240
    318a:	7f 7e       	andi	r23, 0xEF	; 239
    318c:	7d 7d       	andi	r23, 0xDD	; 221
    318e:	7c 7c       	andi	r23, 0xCC	; 204
    3190:	7b 7b       	andi	r23, 0xBB	; 187
    3192:	7b 7b       	andi	r23, 0xBB	; 187
    3194:	7b 7b       	andi	r23, 0xBB	; 187
    3196:	7b 7c       	andi	r23, 0xCB	; 203
    3198:	7c 7d       	andi	r23, 0xDC	; 220
    319a:	7e 7f       	andi	r23, 0xFE	; 254
    319c:	81 82       	std	Z+1, r8	; 0x01
    319e:	84 85       	ldd	r24, Z+12	; 0x0c
    31a0:	87 88       	ldd	r8, Z+23	; 0x17
    31a2:	8a 8c       	ldd	r8, Y+26	; 0x1a
    31a4:	8d 8e       	std	Y+29, r8	; 0x1d
    31a6:	8f 90       	pop	r8
    31a8:	90 91 91 90 	lds	r25, 0x9091
    31ac:	90 8f       	std	Z+24, r25	; 0x18
    31ae:	8e 8d       	ldd	r24, Y+30	; 0x1e
    31b0:	8c 8b       	std	Y+20, r24	; 0x14
    31b2:	89 88       	ldd	r8, Y+17	; 0x11
    31b4:	86 84       	ldd	r8, Z+14	; 0x0e
    31b6:	83 81       	ldd	r24, Z+3	; 0x03
    31b8:	80 7e       	andi	r24, 0xE0	; 224
    31ba:	7d 7b       	andi	r23, 0xBD	; 189
    31bc:	7a 79       	andi	r23, 0x9A	; 154
    31be:	78 77       	andi	r23, 0x78	; 120
    31c0:	76 75       	andi	r23, 0x56	; 86
    31c2:	74 73       	andi	r23, 0x34	; 52
    31c4:	73 73       	andi	r23, 0x33	; 51
    31c6:	73 73       	andi	r23, 0x33	; 51
    31c8:	73 74       	andi	r23, 0x43	; 67
    31ca:	75 76       	andi	r23, 0x65	; 101
    31cc:	77 79       	andi	r23, 0x97	; 151
    31ce:	7a 7c       	andi	r23, 0xCA	; 202
    31d0:	7e 80       	ldd	r7, Y+6	; 0x06
    31d2:	82 84       	ldd	r8, Z+10	; 0x0a
    31d4:	85 87       	std	Z+13, r24	; 0x0d
    31d6:	88 89       	ldd	r24, Y+16	; 0x10
    31d8:	8a 8a       	std	Y+18, r8	; 0x12
    31da:	8a 8a       	std	Y+18, r8	; 0x12
    31dc:	8a 89       	ldd	r24, Y+18	; 0x12
    31de:	88 87       	std	Y+8, r24	; 0x08
    31e0:	86 84       	ldd	r8, Z+14	; 0x0e
    31e2:	83 81       	ldd	r24, Z+3	; 0x03
    31e4:	80 7e       	andi	r24, 0xE0	; 224
    31e6:	7d 7b       	andi	r23, 0xBD	; 189
    31e8:	79 78       	andi	r23, 0x89	; 137
    31ea:	77 75       	andi	r23, 0x57	; 87
    31ec:	74 73       	andi	r23, 0x34	; 52
    31ee:	72 71       	andi	r23, 0x12	; 18
    31f0:	70 6f       	ori	r23, 0xF0	; 240
    31f2:	6f 6e       	ori	r22, 0xEF	; 239
    31f4:	6e 6e       	ori	r22, 0xEE	; 238
    31f6:	6e 6e       	ori	r22, 0xEE	; 238
    31f8:	6f 70       	andi	r22, 0x0F	; 15
    31fa:	71 73       	andi	r23, 0x31	; 49
    31fc:	74 76       	andi	r23, 0x64	; 100
    31fe:	78 7a       	andi	r23, 0xA8	; 168
    3200:	7c 7f       	andi	r23, 0xFC	; 252
    3202:	81 83       	std	Z+1, r24	; 0x01
    3204:	85 86       	std	Z+13, r8	; 0x0d
    3206:	88 89       	ldd	r24, Y+16	; 0x10
    3208:	8a 8b       	std	Y+18, r24	; 0x12
    320a:	8c 8c       	ldd	r8, Y+28	; 0x1c
    320c:	8c 8b       	std	Y+20, r24	; 0x14
    320e:	8b 8a       	std	Y+19, r8	; 0x13
    3210:	8a 89       	ldd	r24, Y+18	; 0x12
    3212:	88 87       	std	Y+8, r24	; 0x08
    3214:	85 84       	ldd	r8, Z+13	; 0x0d
    3216:	83 82       	std	Z+3, r8	; 0x03
    3218:	81 80       	ldd	r8, Z+1	; 0x01
    321a:	7f 7e       	andi	r23, 0xEF	; 239
    321c:	7d 7c       	andi	r23, 0xCD	; 205
    321e:	7b 7a       	andi	r23, 0xAB	; 171
    3220:	79 78       	andi	r23, 0x89	; 137
    3222:	78 77       	andi	r23, 0x78	; 120
    3224:	76 76       	andi	r23, 0x66	; 102
    3226:	75 75       	andi	r23, 0x55	; 85
    3228:	75 76       	andi	r23, 0x65	; 101
    322a:	76 77       	andi	r23, 0x76	; 118
    322c:	78 79       	andi	r23, 0x98	; 152
    322e:	7b 7c       	andi	r23, 0xCB	; 203
    3230:	7e 80       	ldd	r7, Y+6	; 0x06
    3232:	82 84       	ldd	r8, Z+10	; 0x0a
    3234:	86 88       	ldd	r8, Z+22	; 0x16
    3236:	8a 8b       	std	Y+18, r24	; 0x12
    3238:	8c 8d       	ldd	r24, Y+28	; 0x1c
    323a:	8e 8f       	std	Y+30, r24	; 0x1e
    323c:	8f 8f       	std	Y+31, r24	; 0x1f
    323e:	8f 8e       	std	Y+31, r8	; 0x1f
    3240:	8e 8d       	ldd	r24, Y+30	; 0x1e
    3242:	8c 8b       	std	Y+20, r24	; 0x14
    3244:	8a 89       	ldd	r24, Y+18	; 0x12
    3246:	88 87       	std	Y+8, r24	; 0x08
    3248:	86 84       	ldd	r8, Z+14	; 0x0e
    324a:	83 82       	std	Z+3, r8	; 0x03
    324c:	81 80       	ldd	r8, Z+1	; 0x01
    324e:	7f 7e       	andi	r23, 0xEF	; 239
    3250:	7c 7b       	andi	r23, 0xBC	; 188
    3252:	7a 79       	andi	r23, 0x9A	; 154
    3254:	79 78       	andi	r23, 0x89	; 137
    3256:	77 77       	andi	r23, 0x77	; 119
    3258:	77 77       	andi	r23, 0x77	; 119
    325a:	78 78       	andi	r23, 0x88	; 136
    325c:	79 7b       	andi	r23, 0xB9	; 185
    325e:	7c 7e       	andi	r23, 0xEC	; 236
    3260:	7f 81       	ldd	r23, Y+7	; 0x07
    3262:	83 85       	ldd	r24, Z+11	; 0x0b
    3264:	87 88       	ldd	r8, Z+23	; 0x17
    3266:	8a 8b       	std	Y+18, r24	; 0x12
    3268:	8c 8d       	ldd	r24, Y+28	; 0x1c
    326a:	8d 8e       	std	Y+29, r8	; 0x1d
    326c:	8d 8d       	ldd	r24, Y+29	; 0x1d
    326e:	8c 8b       	std	Y+20, r24	; 0x14
    3270:	8a 89       	ldd	r24, Y+18	; 0x12
    3272:	87 85       	ldd	r24, Z+15	; 0x0f
    3274:	84 82       	std	Z+4, r8	; 0x04
    3276:	80 7f       	andi	r24, 0xF0	; 240
    3278:	7d 7c       	andi	r23, 0xCD	; 205
    327a:	7a 79       	andi	r23, 0x9A	; 154
    327c:	77 76       	andi	r23, 0x67	; 103
    327e:	75 74       	andi	r23, 0x45	; 69
    3280:	73 72       	andi	r23, 0x23	; 35
    3282:	71 70       	andi	r23, 0x01	; 1
    3284:	6f 6f       	ori	r22, 0xFF	; 255
    3286:	6e 6e       	ori	r22, 0xEE	; 238
    3288:	6e 6e       	ori	r22, 0xEE	; 238
    328a:	6f 70       	andi	r22, 0x0F	; 15
    328c:	71 72       	andi	r23, 0x21	; 33
    328e:	73 75       	andi	r23, 0x53	; 83
    3290:	77 79       	andi	r23, 0x97	; 151
    3292:	7b 7d       	andi	r23, 0xDB	; 219
    3294:	7f 81       	ldd	r23, Y+7	; 0x07
    3296:	83 85       	ldd	r24, Z+11	; 0x0b
    3298:	86 88       	ldd	r8, Z+22	; 0x16
    329a:	89 89       	ldd	r24, Y+17	; 0x11
    329c:	8a 8a       	std	Y+18, r8	; 0x12
    329e:	8a 8a       	std	Y+18, r8	; 0x12
    32a0:	89 89       	ldd	r24, Y+17	; 0x11
    32a2:	88 87       	std	Y+8, r24	; 0x08
    32a4:	87 86       	std	Z+15, r8	; 0x0f
    32a6:	85 84       	ldd	r8, Z+13	; 0x0d
    32a8:	83 82       	std	Z+3, r8	; 0x03
    32aa:	81 80       	ldd	r8, Z+1	; 0x01
    32ac:	80 7f       	andi	r24, 0xF0	; 240
    32ae:	7e 7d       	andi	r23, 0xDE	; 222
    32b0:	7c 7b       	andi	r23, 0xBC	; 188
    32b2:	7a 79       	andi	r23, 0x9A	; 154
    32b4:	78 77       	andi	r23, 0x78	; 120
    32b6:	76 75       	andi	r23, 0x56	; 86
    32b8:	75 75       	andi	r23, 0x55	; 85
    32ba:	74 75       	andi	r23, 0x54	; 84
    32bc:	75 76       	andi	r23, 0x65	; 101
    32be:	76 78       	andi	r23, 0x86	; 134
    32c0:	79 7a       	andi	r23, 0xA9	; 169
    32c2:	7c 7e       	andi	r23, 0xEC	; 236
    32c4:	80 81       	ld	r24, Z
    32c6:	83 85       	ldd	r24, Z+11	; 0x0b
    32c8:	86 87       	std	Z+14, r24	; 0x0e
    32ca:	88 89       	ldd	r24, Y+16	; 0x10
    32cc:	8a 8a       	std	Y+18, r8	; 0x12
    32ce:	8a 8a       	std	Y+18, r8	; 0x12
    32d0:	8a 89       	ldd	r24, Y+18	; 0x12
    32d2:	88 87       	std	Y+8, r24	; 0x08
    32d4:	87 86       	std	Z+15, r8	; 0x0f
    32d6:	85 84       	ldd	r8, Z+13	; 0x0d
    32d8:	83 82       	std	Z+3, r8	; 0x03
    32da:	81 80       	ldd	r8, Z+1	; 0x01
    32dc:	7f 7e       	andi	r23, 0xEF	; 239
    32de:	7d 7c       	andi	r23, 0xCD	; 205
    32e0:	7c 7b       	andi	r23, 0xBC	; 188
    32e2:	7a 79       	andi	r23, 0x9A	; 154
    32e4:	79 78       	andi	r23, 0x89	; 137
    32e6:	78 78       	andi	r23, 0x88	; 136
    32e8:	77 77       	andi	r23, 0x77	; 119
    32ea:	78 78       	andi	r23, 0x88	; 136
    32ec:	79 7a       	andi	r23, 0xA9	; 169
    32ee:	7b 7d       	andi	r23, 0xDB	; 219
    32f0:	7e 80       	ldd	r7, Y+6	; 0x06
    32f2:	82 84       	ldd	r8, Z+10	; 0x0a
    32f4:	86 88       	ldd	r8, Z+22	; 0x16
    32f6:	8a 8c       	ldd	r8, Y+26	; 0x1a
    32f8:	8e 8f       	std	Y+30, r24	; 0x1e
    32fa:	90 91 91 91 	lds	r25, 0x9191
    32fe:	91 90       	ld	r9, Z+
    3300:	90 8f       	std	Z+24, r25	; 0x18
    3302:	8d 8c       	ldd	r8, Y+29	; 0x1d
    3304:	8b 89       	ldd	r24, Y+19	; 0x13
    3306:	87 86       	std	Z+15, r8	; 0x0f
    3308:	84 83       	std	Z+4, r24	; 0x04
    330a:	81 80       	ldd	r8, Z+1	; 0x01
    330c:	7f 7d       	andi	r23, 0xDF	; 223
    330e:	7c 7b       	andi	r23, 0xBC	; 188
    3310:	7a 79       	andi	r23, 0x9A	; 154
    3312:	78 77       	andi	r23, 0x78	; 120
    3314:	76 75       	andi	r23, 0x56	; 86
    3316:	74 74       	andi	r23, 0x44	; 68
    3318:	73 73       	andi	r23, 0x33	; 51
    331a:	73 73       	andi	r23, 0x33	; 51
    331c:	73 74       	andi	r23, 0x43	; 67
    331e:	74 75       	andi	r23, 0x54	; 84
    3320:	76 78       	andi	r23, 0x86	; 134
    3322:	79 7b       	andi	r23, 0xB9	; 185
    3324:	7c 7e       	andi	r23, 0xEC	; 236
    3326:	80 81       	ld	r24, Z
    3328:	82 84       	ldd	r8, Z+10	; 0x0a
    332a:	85 85       	ldd	r24, Z+13	; 0x0d
    332c:	86 86       	std	Z+14, r8	; 0x0e
    332e:	86 86       	std	Z+14, r8	; 0x0e
    3330:	86 85       	ldd	r24, Z+14	; 0x0e
    3332:	84 84       	ldd	r8, Z+12	; 0x0c
    3334:	83 82       	std	Z+3, r8	; 0x03
    3336:	81 80       	ldd	r8, Z+1	; 0x01
    3338:	7f 7f       	andi	r23, 0xFF	; 255
    333a:	7e 7e       	andi	r23, 0xEE	; 238
    333c:	7d 7c       	andi	r23, 0xCD	; 205
    333e:	7c 7b       	andi	r23, 0xBC	; 188
    3340:	7b 7a       	andi	r23, 0xAB	; 171
    3342:	7a 79       	andi	r23, 0x9A	; 154
    3344:	78 78       	andi	r23, 0x88	; 136
    3346:	77 76       	andi	r23, 0x67	; 103
    3348:	76 75       	andi	r23, 0x56	; 86
    334a:	75 75       	andi	r23, 0x55	; 85
    334c:	75 75       	andi	r23, 0x55	; 85
    334e:	76 76       	andi	r23, 0x66	; 102
    3350:	78 79       	andi	r23, 0x98	; 152
    3352:	7a 7c       	andi	r23, 0xCA	; 202
    3354:	7d 7f       	andi	r23, 0xFD	; 253
    3356:	81 82       	std	Z+1, r8	; 0x01
    3358:	84 85       	ldd	r24, Z+12	; 0x0c
    335a:	86 87       	std	Z+14, r24	; 0x0e
    335c:	88 88       	ldd	r8, Y+16	; 0x10
    335e:	88 88       	ldd	r8, Y+16	; 0x10
    3360:	88 87       	std	Y+8, r24	; 0x08
    3362:	87 86       	std	Z+15, r8	; 0x0f
    3364:	85 85       	ldd	r24, Z+13	; 0x0d
    3366:	84 83       	std	Z+4, r24	; 0x04
    3368:	82 82       	std	Z+2, r8	; 0x02
    336a:	81 80       	ldd	r8, Z+1	; 0x01
    336c:	80 7f       	andi	r24, 0xF0	; 240
    336e:	7e 7e       	andi	r23, 0xEE	; 238
    3370:	7d 7c       	andi	r23, 0xCD	; 205
    3372:	7c 7b       	andi	r23, 0xBC	; 188
    3374:	7b 7a       	andi	r23, 0xAB	; 171
    3376:	7a 79       	andi	r23, 0x9A	; 154
    3378:	79 79       	andi	r23, 0x99	; 153
    337a:	79 79       	andi	r23, 0x99	; 153
    337c:	79 7a       	andi	r23, 0xA9	; 169
    337e:	7b 7b       	andi	r23, 0xBB	; 187
    3380:	7d 7e       	andi	r23, 0xED	; 237
    3382:	80 81       	ld	r24, Z
    3384:	83 85       	ldd	r24, Z+11	; 0x0b
    3386:	86 88       	ldd	r8, Z+22	; 0x16
    3388:	89 8b       	std	Y+17, r24	; 0x11
    338a:	8c 8d       	ldd	r24, Y+28	; 0x1c
    338c:	8e 8e       	std	Y+30, r8	; 0x1e
    338e:	8e 8e       	std	Y+30, r8	; 0x1e
    3390:	8e 8e       	std	Y+30, r8	; 0x1e
    3392:	8d 8c       	ldd	r8, Y+29	; 0x1d
    3394:	8b 8a       	std	Y+19, r8	; 0x13
    3396:	89 88       	ldd	r8, Y+17	; 0x11
    3398:	86 85       	ldd	r24, Z+14	; 0x0e
    339a:	84 83       	std	Z+4, r24	; 0x04
    339c:	82 81       	ldd	r24, Z+2	; 0x02
    339e:	80 7f       	andi	r24, 0xF0	; 240
    33a0:	7e 7d       	andi	r23, 0xDE	; 222
    33a2:	7c 7b       	andi	r23, 0xBC	; 188
    33a4:	7a 79       	andi	r23, 0x9A	; 154
    33a6:	78 77       	andi	r23, 0x78	; 120
    33a8:	76 76       	andi	r23, 0x66	; 102
    33aa:	75 75       	andi	r23, 0x55	; 85
    33ac:	75 75       	andi	r23, 0x55	; 85
    33ae:	75 75       	andi	r23, 0x55	; 85
    33b0:	76 77       	andi	r23, 0x76	; 118
    33b2:	78 79       	andi	r23, 0x98	; 152
    33b4:	7b 7c       	andi	r23, 0xCB	; 203
    33b6:	7e 7f       	andi	r23, 0xFE	; 254
    33b8:	81 82       	std	Z+1, r8	; 0x01
    33ba:	84 85       	ldd	r24, Z+12	; 0x0c
    33bc:	86 86       	std	Z+14, r8	; 0x0e
    33be:	87 87       	std	Z+15, r24	; 0x0f
    33c0:	87 87       	std	Z+15, r24	; 0x0f
    33c2:	87 86       	std	Z+15, r8	; 0x0f
    33c4:	86 85       	ldd	r24, Z+14	; 0x0e
    33c6:	84 84       	ldd	r8, Z+12	; 0x0c
    33c8:	83 83       	std	Z+3, r24	; 0x03
    33ca:	82 82       	std	Z+2, r8	; 0x02
    33cc:	81 81       	ldd	r24, Z+1	; 0x01
    33ce:	80 80       	ld	r8, Z
    33d0:	7f 7f       	andi	r23, 0xFF	; 255
    33d2:	7e 7d       	andi	r23, 0xDE	; 222
    33d4:	7c 7c       	andi	r23, 0xCC	; 204
    33d6:	7b 7a       	andi	r23, 0xAB	; 171
    33d8:	79 78       	andi	r23, 0x89	; 137
    33da:	78 77       	andi	r23, 0x78	; 120
    33dc:	77 77       	andi	r23, 0x77	; 119
    33de:	77 77       	andi	r23, 0x77	; 119
    33e0:	78 78       	andi	r23, 0x88	; 136
    33e2:	79 7a       	andi	r23, 0xA9	; 169
    33e4:	7c 7d       	andi	r23, 0xDC	; 220
    33e6:	7e 80       	ldd	r7, Y+6	; 0x06
    33e8:	81 82       	std	Z+1, r8	; 0x01
    33ea:	83 84       	ldd	r8, Z+11	; 0x0b
    33ec:	85 86       	std	Z+13, r8	; 0x0d
    33ee:	86 86       	std	Z+14, r8	; 0x0e
    33f0:	86 86       	std	Z+14, r8	; 0x0e
    33f2:	86 86       	std	Z+14, r8	; 0x0e
    33f4:	85 85       	ldd	r24, Z+13	; 0x0d
    33f6:	84 83       	std	Z+4, r24	; 0x04
    33f8:	83 82       	std	Z+3, r8	; 0x03
    33fa:	81 81       	ldd	r24, Z+1	; 0x01
    33fc:	80 7f       	andi	r24, 0xF0	; 240
    33fe:	7f 7e       	andi	r23, 0xEF	; 239
    3400:	7d 7c       	andi	r23, 0xCD	; 205
    3402:	7c 7b       	andi	r23, 0xBC	; 188
    3404:	7a 79       	andi	r23, 0x9A	; 154
    3406:	78 77       	andi	r23, 0x78	; 120
    3408:	76 75       	andi	r23, 0x56	; 86
    340a:	75 74       	andi	r23, 0x45	; 69
    340c:	74 74       	andi	r23, 0x44	; 68
    340e:	75 75       	andi	r23, 0x55	; 85
    3410:	76 77       	andi	r23, 0x76	; 118
    3412:	78 7a       	andi	r23, 0xA8	; 168
    3414:	7c 7d       	andi	r23, 0xDC	; 220
    3416:	7f 81       	ldd	r23, Y+7	; 0x07
    3418:	83 85       	ldd	r24, Z+11	; 0x0b
    341a:	87 89       	ldd	r24, Z+23	; 0x17
    341c:	8a 8b       	std	Y+18, r24	; 0x12
    341e:	8c 8d       	ldd	r24, Y+28	; 0x1c
    3420:	8d 8d       	ldd	r24, Y+29	; 0x1d
    3422:	8d 8d       	ldd	r24, Y+29	; 0x1d
    3424:	8c 8c       	ldd	r8, Y+28	; 0x1c
    3426:	8b 8a       	std	Y+19, r8	; 0x13
    3428:	89 88       	ldd	r8, Y+17	; 0x11
    342a:	87 86       	std	Z+15, r8	; 0x0f
    342c:	85 84       	ldd	r8, Z+13	; 0x0d
    342e:	84 83       	std	Z+4, r24	; 0x04
    3430:	82 81       	ldd	r24, Z+2	; 0x02
    3432:	80 7f       	andi	r24, 0xF0	; 240
    3434:	7e 7d       	andi	r23, 0xDE	; 222
    3436:	7c 7b       	andi	r23, 0xBC	; 188
    3438:	7a 79       	andi	r23, 0x9A	; 154
    343a:	78 78       	andi	r23, 0x88	; 136
    343c:	77 77       	andi	r23, 0x77	; 119
    343e:	77 77       	andi	r23, 0x77	; 119
    3440:	77 78       	andi	r23, 0x87	; 135
    3442:	78 79       	andi	r23, 0x98	; 152
    3444:	7b 7c       	andi	r23, 0xCB	; 203
    3446:	7d 7f       	andi	r23, 0xFD	; 253
    3448:	80 82       	st	Z, r8
    344a:	84 85       	ldd	r24, Z+12	; 0x0c
    344c:	86 87       	std	Z+14, r24	; 0x0e
    344e:	88 89       	ldd	r24, Y+16	; 0x10
    3450:	89 89       	ldd	r24, Y+17	; 0x11
    3452:	89 89       	ldd	r24, Y+17	; 0x11
    3454:	89 88       	ldd	r8, Y+17	; 0x11
    3456:	88 87       	std	Y+8, r24	; 0x08
    3458:	87 86       	std	Z+15, r8	; 0x0f
    345a:	85 84       	ldd	r8, Z+13	; 0x0d
    345c:	84 83       	std	Z+4, r24	; 0x04
    345e:	82 81       	ldd	r24, Z+2	; 0x02
    3460:	81 80       	ldd	r8, Z+1	; 0x01
    3462:	7f 7e       	andi	r23, 0xEF	; 239
    3464:	7d 7c       	andi	r23, 0xCD	; 205
    3466:	7c 7b       	andi	r23, 0xBC	; 188
    3468:	7a 79       	andi	r23, 0x9A	; 154
    346a:	78 77       	andi	r23, 0x78	; 120
    346c:	77 77       	andi	r23, 0x77	; 119
    346e:	76 76       	andi	r23, 0x66	; 102
    3470:	77 77       	andi	r23, 0x77	; 119
    3472:	78 78       	andi	r23, 0x88	; 136
    3474:	7a 7b       	andi	r23, 0xBA	; 186
    3476:	7c 7d       	andi	r23, 0xDC	; 220
    3478:	7f 80       	ldd	r7, Y+7	; 0x07
    347a:	81 82       	std	Z+1, r8	; 0x01
    347c:	83 84       	ldd	r8, Z+11	; 0x0b
    347e:	85 86       	std	Z+13, r8	; 0x0d
    3480:	86 86       	std	Z+14, r8	; 0x0e
    3482:	86 86       	std	Z+14, r8	; 0x0e
    3484:	86 85       	ldd	r24, Z+14	; 0x0e
    3486:	85 84       	ldd	r8, Z+13	; 0x0d
    3488:	84 83       	std	Z+4, r24	; 0x04
    348a:	82 81       	ldd	r24, Z+2	; 0x02
    348c:	81 80       	ldd	r8, Z+1	; 0x01
    348e:	7f 7e       	andi	r23, 0xEF	; 239
    3490:	7d 7c       	andi	r23, 0xCD	; 205
    3492:	7b 7a       	andi	r23, 0xAB	; 171
    3494:	79 78       	andi	r23, 0x89	; 137
    3496:	77 76       	andi	r23, 0x67	; 103
    3498:	75 74       	andi	r23, 0x45	; 69
    349a:	74 73       	andi	r23, 0x34	; 52
    349c:	72 72       	andi	r23, 0x22	; 34
    349e:	72 72       	andi	r23, 0x22	; 34
    34a0:	73 74       	andi	r23, 0x43	; 67
    34a2:	75 76       	andi	r23, 0x65	; 101
    34a4:	77 79       	andi	r23, 0x97	; 151
    34a6:	7b 7d       	andi	r23, 0xDB	; 219
    34a8:	7f 81       	ldd	r23, Y+7	; 0x07
    34aa:	82 84       	ldd	r8, Z+10	; 0x0a
    34ac:	86 87       	std	Z+14, r24	; 0x0e
    34ae:	88 89       	ldd	r24, Y+16	; 0x10
    34b0:	89 8a       	std	Y+17, r8	; 0x11
    34b2:	8a 8a       	std	Y+18, r8	; 0x12
    34b4:	8a 89       	ldd	r24, Y+18	; 0x12
    34b6:	89 88       	ldd	r8, Y+17	; 0x11
    34b8:	87 87       	std	Z+15, r24	; 0x0f
    34ba:	86 85       	ldd	r24, Z+14	; 0x0e
    34bc:	84 84       	ldd	r8, Z+12	; 0x0c
    34be:	83 82       	std	Z+3, r8	; 0x03
    34c0:	82 81       	ldd	r24, Z+2	; 0x02
    34c2:	80 80       	ld	r8, Z
    34c4:	7f 7e       	andi	r23, 0xEF	; 239
    34c6:	7d 7c       	andi	r23, 0xCD	; 205
    34c8:	7c 7b       	andi	r23, 0xBC	; 188
    34ca:	7a 79       	andi	r23, 0x9A	; 154
    34cc:	79 78       	andi	r23, 0x89	; 137
    34ce:	78 78       	andi	r23, 0x88	; 136
    34d0:	79 79       	andi	r23, 0x99	; 153
    34d2:	7a 7b       	andi	r23, 0xBA	; 186
    34d4:	7c 7d       	andi	r23, 0xDC	; 220
    34d6:	7e 80       	ldd	r7, Y+6	; 0x06
    34d8:	81 83       	std	Z+1, r24	; 0x01
    34da:	84 85       	ldd	r24, Z+12	; 0x0c
    34dc:	86 87       	std	Z+14, r24	; 0x0e
    34de:	88 89       	ldd	r24, Y+16	; 0x10
    34e0:	89 89       	ldd	r24, Y+17	; 0x11
    34e2:	89 89       	ldd	r24, Y+17	; 0x11
    34e4:	89 88       	ldd	r8, Y+17	; 0x11
    34e6:	87 87       	std	Z+15, r24	; 0x0f
    34e8:	86 86       	std	Z+14, r8	; 0x0e
    34ea:	85 84       	ldd	r8, Z+13	; 0x0d
    34ec:	84 83       	std	Z+4, r24	; 0x04
    34ee:	83 82       	std	Z+3, r8	; 0x03
    34f0:	82 81       	ldd	r24, Z+2	; 0x02
    34f2:	81 80       	ldd	r8, Z+1	; 0x01
    34f4:	7f 7f       	andi	r23, 0xFF	; 255
    34f6:	7e 7d       	andi	r23, 0xDE	; 222
    34f8:	7c 7b       	andi	r23, 0xBC	; 188
    34fa:	7b 7a       	andi	r23, 0xAB	; 171
    34fc:	79 79       	andi	r23, 0x99	; 153
    34fe:	78 78       	andi	r23, 0x88	; 136
    3500:	78 78       	andi	r23, 0x88	; 136
    3502:	78 79       	andi	r23, 0x98	; 152
    3504:	7a 7b       	andi	r23, 0xBA	; 186
    3506:	7c 7d       	andi	r23, 0xDC	; 220
    3508:	7e 80       	ldd	r7, Y+6	; 0x06
    350a:	81 82       	std	Z+1, r8	; 0x01
    350c:	83 85       	ldd	r24, Z+11	; 0x0b
    350e:	85 86       	std	Z+13, r8	; 0x0d
    3510:	87 87       	std	Z+15, r24	; 0x0f
    3512:	87 87       	std	Z+15, r24	; 0x0f
    3514:	87 87       	std	Z+15, r24	; 0x0f
    3516:	87 86       	std	Z+15, r8	; 0x0f
    3518:	85 85       	ldd	r24, Z+13	; 0x0d
    351a:	84 83       	std	Z+4, r24	; 0x04
    351c:	83 82       	std	Z+3, r8	; 0x03
    351e:	81 80       	ldd	r8, Z+1	; 0x01
    3520:	7f 7f       	andi	r23, 0xFF	; 255
    3522:	7e 7d       	andi	r23, 0xDE	; 222
    3524:	7c 7b       	andi	r23, 0xBC	; 188
    3526:	7a 79       	andi	r23, 0x9A	; 154
    3528:	78 77       	andi	r23, 0x78	; 120
    352a:	76 76       	andi	r23, 0x66	; 102
    352c:	75 74       	andi	r23, 0x45	; 69
    352e:	74 74       	andi	r23, 0x44	; 68
    3530:	74 74       	andi	r23, 0x44	; 68
    3532:	75 76       	andi	r23, 0x65	; 101
    3534:	77 78       	andi	r23, 0x87	; 135
    3536:	7a 7b       	andi	r23, 0xBA	; 186
    3538:	7d 7e       	andi	r23, 0xED	; 237
    353a:	80 81       	ld	r24, Z
    353c:	83 84       	ldd	r8, Z+11	; 0x0b
    353e:	85 86       	std	Z+13, r8	; 0x0d
    3540:	86 86       	std	Z+14, r8	; 0x0e
    3542:	87 86       	std	Z+15, r8	; 0x0f
    3544:	86 86       	std	Z+14, r8	; 0x0e
    3546:	85 84       	ldd	r8, Z+13	; 0x0d
    3548:	84 83       	std	Z+4, r24	; 0x04
    354a:	82 81       	ldd	r24, Z+2	; 0x02
    354c:	80 7f       	andi	r24, 0xF0	; 240
    354e:	7e 7e       	andi	r23, 0xEE	; 238
    3550:	7d 7c       	andi	r23, 0xCD	; 205
    3552:	7b 7b       	andi	r23, 0xBB	; 187
    3554:	7a 79       	andi	r23, 0x9A	; 154
    3556:	79 78       	andi	r23, 0x89	; 137
    3558:	77 77       	andi	r23, 0x77	; 119
    355a:	77 76       	andi	r23, 0x67	; 103
    355c:	76 76       	andi	r23, 0x66	; 102
    355e:	76 76       	andi	r23, 0x66	; 102
    3560:	77 78       	andi	r23, 0x87	; 135
    3562:	79 7a       	andi	r23, 0xA9	; 169
    3564:	7b 7c       	andi	r23, 0xCB	; 203
    3566:	7e 7f       	andi	r23, 0xFE	; 254
    3568:	81 83       	std	Z+1, r24	; 0x01
    356a:	84 86       	std	Z+12, r8	; 0x0c
    356c:	87 88       	ldd	r8, Z+23	; 0x17
    356e:	89 8a       	std	Y+17, r8	; 0x11
    3570:	8b 8b       	std	Y+19, r24	; 0x13
    3572:	8b 8b       	std	Y+19, r24	; 0x13
    3574:	8b 8a       	std	Y+19, r8	; 0x13
    3576:	89 88       	ldd	r8, Y+17	; 0x11
    3578:	88 87       	std	Y+8, r24	; 0x08
    357a:	86 85       	ldd	r24, Z+14	; 0x0e
    357c:	84 83       	std	Z+4, r24	; 0x04
    357e:	82 81       	ldd	r24, Z+2	; 0x02
    3580:	80 7f       	andi	r24, 0xF0	; 240
    3582:	7e 7e       	andi	r23, 0xEE	; 238
    3584:	7d 7c       	andi	r23, 0xCD	; 205
    3586:	7c 7b       	andi	r23, 0xBC	; 188
    3588:	7b 7a       	andi	r23, 0xAB	; 171
    358a:	7a 79       	andi	r23, 0x9A	; 154
    358c:	79 79       	andi	r23, 0x99	; 153
    358e:	79 79       	andi	r23, 0x99	; 153
    3590:	79 79       	andi	r23, 0x99	; 153
    3592:	79 7a       	andi	r23, 0xA9	; 169
    3594:	7b 7c       	andi	r23, 0xCB	; 203
    3596:	7d 7e       	andi	r23, 0xED	; 237
    3598:	7f 80       	ldd	r7, Y+7	; 0x07
    359a:	82 83       	std	Z+2, r24	; 0x02
    359c:	84 85       	ldd	r24, Z+12	; 0x0c
    359e:	87 88       	ldd	r8, Z+23	; 0x17
    35a0:	88 89       	ldd	r24, Y+16	; 0x10
    35a2:	8a 8a       	std	Y+18, r8	; 0x12
    35a4:	8a 8a       	std	Y+18, r8	; 0x12
    35a6:	8a 89       	ldd	r24, Y+18	; 0x12
    35a8:	89 88       	ldd	r8, Y+17	; 0x11
    35aa:	87 86       	std	Z+15, r8	; 0x0f
    35ac:	85 84       	ldd	r8, Z+13	; 0x0d
    35ae:	83 82       	std	Z+3, r8	; 0x03
    35b0:	81 80       	ldd	r8, Z+1	; 0x01
    35b2:	80 7f       	andi	r24, 0xF0	; 240
    35b4:	7e 7d       	andi	r23, 0xDE	; 222
    35b6:	7c 7b       	andi	r23, 0xBC	; 188
    35b8:	7a 79       	andi	r23, 0x9A	; 154
    35ba:	79 78       	andi	r23, 0x89	; 137
    35bc:	77 77       	andi	r23, 0x77	; 119
    35be:	76 76       	andi	r23, 0x66	; 102
    35c0:	75 75       	andi	r23, 0x55	; 85
    35c2:	76 76       	andi	r23, 0x66	; 102
    35c4:	76 77       	andi	r23, 0x76	; 118
    35c6:	78 79       	andi	r23, 0x98	; 152
    35c8:	7a 7c       	andi	r23, 0xCA	; 202
    35ca:	7d 7e       	andi	r23, 0xED	; 237
    35cc:	80 81       	ld	r24, Z
    35ce:	83 84       	ldd	r8, Z+11	; 0x0b
    35d0:	85 86       	std	Z+13, r8	; 0x0d
    35d2:	87 88       	ldd	r8, Z+23	; 0x17
    35d4:	88 88       	ldd	r8, Y+16	; 0x10
    35d6:	88 88       	ldd	r8, Y+16	; 0x10
    35d8:	87 87       	std	Z+15, r24	; 0x0f
    35da:	86 85       	ldd	r24, Z+14	; 0x0e
    35dc:	84 83       	std	Z+4, r24	; 0x04
    35de:	82 81       	ldd	r24, Z+2	; 0x02
    35e0:	80 7f       	andi	r24, 0xF0	; 240
    35e2:	7e 7d       	andi	r23, 0xDE	; 222
    35e4:	7c 7b       	andi	r23, 0xBC	; 188
    35e6:	7a 79       	andi	r23, 0x9A	; 154
    35e8:	78 77       	andi	r23, 0x78	; 120
    35ea:	77 76       	andi	r23, 0x67	; 103
    35ec:	75 75       	andi	r23, 0x55	; 85
    35ee:	74 74       	andi	r23, 0x44	; 68
    35f0:	74 74       	andi	r23, 0x44	; 68
    35f2:	74 74       	andi	r23, 0x44	; 68
    35f4:	75 76       	andi	r23, 0x65	; 101
    35f6:	77 78       	andi	r23, 0x87	; 135
    35f8:	79 7a       	andi	r23, 0xA9	; 169
    35fa:	7c 7d       	andi	r23, 0xDC	; 220
    35fc:	7f 81       	ldd	r23, Y+7	; 0x07
    35fe:	82 83       	std	Z+2, r24	; 0x02
    3600:	85 86       	std	Z+13, r8	; 0x0d
    3602:	87 88       	ldd	r8, Z+23	; 0x17
    3604:	88 89       	ldd	r24, Y+16	; 0x10
    3606:	89 89       	ldd	r24, Y+17	; 0x11
    3608:	88 88       	ldd	r8, Y+16	; 0x10
    360a:	88 87       	std	Y+8, r24	; 0x08
    360c:	86 86       	std	Z+14, r8	; 0x0e
    360e:	85 84       	ldd	r8, Z+13	; 0x0d
    3610:	83 82       	std	Z+3, r8	; 0x03
    3612:	82 81       	ldd	r24, Z+2	; 0x02
    3614:	80 7f       	andi	r24, 0xF0	; 240
    3616:	7f 7e       	andi	r23, 0xEF	; 239
    3618:	7d 7d       	andi	r23, 0xDD	; 221
    361a:	7c 7b       	andi	r23, 0xBC	; 188
    361c:	7b 7a       	andi	r23, 0xAB	; 171
    361e:	7a 7a       	andi	r23, 0xAA	; 170
    3620:	79 79       	andi	r23, 0x99	; 153
    3622:	79 79       	andi	r23, 0x99	; 153
    3624:	7a 7a       	andi	r23, 0xAA	; 170
    3626:	7b 7b       	andi	r23, 0xBB	; 187
    3628:	7c 7d       	andi	r23, 0xDC	; 220
    362a:	7f 80       	ldd	r7, Y+7	; 0x07
    362c:	81 83       	std	Z+1, r24	; 0x01
    362e:	84 85       	ldd	r24, Z+12	; 0x0c
    3630:	86 87       	std	Z+14, r24	; 0x0e
    3632:	88 89       	ldd	r24, Y+16	; 0x10
    3634:	89 8a       	std	Y+17, r8	; 0x11
    3636:	8a 8a       	std	Y+18, r8	; 0x12
    3638:	89 89       	ldd	r24, Y+17	; 0x11
    363a:	88 88       	ldd	r8, Y+16	; 0x10
    363c:	87 86       	std	Z+15, r8	; 0x0f
    363e:	85 84       	ldd	r8, Z+13	; 0x0d
    3640:	83 82       	std	Z+3, r8	; 0x03
    3642:	81 80       	ldd	r8, Z+1	; 0x01
    3644:	7f 7e       	andi	r23, 0xEF	; 239
    3646:	7d 7c       	andi	r23, 0xCD	; 205
    3648:	7b 7a       	andi	r23, 0xAB	; 171
    364a:	79 79       	andi	r23, 0x99	; 153
    364c:	78 78       	andi	r23, 0x88	; 136
    364e:	77 77       	andi	r23, 0x77	; 119
    3650:	77 76       	andi	r23, 0x67	; 103
    3652:	77 77       	andi	r23, 0x77	; 119
    3654:	77 78       	andi	r23, 0x87	; 135
    3656:	79 7a       	andi	r23, 0xA9	; 169
    3658:	7b 7d       	andi	r23, 0xDB	; 219
    365a:	7e 80       	ldd	r7, Y+6	; 0x06
    365c:	81 83       	std	Z+1, r24	; 0x01
    365e:	85 86       	std	Z+13, r8	; 0x0d
    3660:	88 89       	ldd	r24, Y+16	; 0x10
    3662:	8a 8b       	std	Y+18, r24	; 0x12
    3664:	8b 8c       	ldd	r8, Y+27	; 0x1b
    3666:	8c 8c       	ldd	r8, Y+28	; 0x1c
    3668:	8b 8b       	std	Y+19, r24	; 0x13
    366a:	8a 89       	ldd	r24, Y+18	; 0x12
    366c:	88 87       	std	Y+8, r24	; 0x08
    366e:	86 85       	ldd	r24, Z+14	; 0x0e
    3670:	84 82       	std	Z+4, r8	; 0x04
    3672:	81 80       	ldd	r8, Z+1	; 0x01
    3674:	7f 7e       	andi	r23, 0xEF	; 239
    3676:	7d 7c       	andi	r23, 0xCD	; 205
    3678:	7b 7a       	andi	r23, 0xAB	; 171
    367a:	79 78       	andi	r23, 0x89	; 137
    367c:	77 77       	andi	r23, 0x77	; 119
    367e:	76 75       	andi	r23, 0x56	; 86
    3680:	75 74       	andi	r23, 0x45	; 69
    3682:	74 74       	andi	r23, 0x44	; 68
    3684:	74 75       	andi	r23, 0x54	; 84
    3686:	75 76       	andi	r23, 0x65	; 101
    3688:	77 78       	andi	r23, 0x87	; 135
    368a:	79 7a       	andi	r23, 0xA9	; 169
    368c:	7c 7d       	andi	r23, 0xDC	; 220
    368e:	7f 80       	ldd	r7, Y+7	; 0x07
    3690:	81 82       	std	Z+1, r8	; 0x01
    3692:	83 84       	ldd	r8, Z+11	; 0x0b
    3694:	85 85       	ldd	r24, Z+13	; 0x0d
    3696:	85 85       	ldd	r24, Z+13	; 0x0d
    3698:	85 85       	ldd	r24, Z+13	; 0x0d
    369a:	84 83       	std	Z+4, r24	; 0x04
    369c:	83 82       	std	Z+3, r8	; 0x03
    369e:	81 81       	ldd	r24, Z+1	; 0x01
    36a0:	80 7f       	andi	r24, 0xF0	; 240
    36a2:	7f 7e       	andi	r23, 0xEF	; 239
    36a4:	7e 7d       	andi	r23, 0xDE	; 222
    36a6:	7d 7d       	andi	r23, 0xDD	; 221
    36a8:	7c 7c       	andi	r23, 0xCC	; 204
    36aa:	7b 7b       	andi	r23, 0xBB	; 187
    36ac:	7b 7a       	andi	r23, 0xAB	; 171
    36ae:	7a 79       	andi	r23, 0x9A	; 154
    36b0:	79 79       	andi	r23, 0x99	; 153
    36b2:	79 79       	andi	r23, 0x99	; 153
    36b4:	79 79       	andi	r23, 0x99	; 153
    36b6:	7a 7a       	andi	r23, 0xAA	; 170
    36b8:	7b 7c       	andi	r23, 0xCB	; 203
    36ba:	7d 7f       	andi	r23, 0xFD	; 253
    36bc:	80 82       	st	Z, r8
    36be:	83 85       	ldd	r24, Z+11	; 0x0b
    36c0:	86 87       	std	Z+14, r24	; 0x0e
    36c2:	89 89       	ldd	r24, Y+17	; 0x11
    36c4:	8a 8b       	std	Y+18, r24	; 0x12
    36c6:	8b 8b       	std	Y+19, r24	; 0x13
    36c8:	8b 8a       	std	Y+19, r8	; 0x13
    36ca:	89 89       	ldd	r24, Y+17	; 0x11
    36cc:	88 87       	std	Y+8, r24	; 0x08
    36ce:	85 84       	ldd	r8, Z+13	; 0x0d
    36d0:	83 82       	std	Z+3, r8	; 0x03
    36d2:	81 80       	ldd	r8, Z+1	; 0x01
    36d4:	7f 7e       	andi	r23, 0xEF	; 239
    36d6:	7d 7d       	andi	r23, 0xDD	; 221
    36d8:	7c 7b       	andi	r23, 0xBC	; 188
    36da:	7a 7a       	andi	r23, 0xAA	; 170
    36dc:	79 78       	andi	r23, 0x89	; 137
    36de:	78 77       	andi	r23, 0x78	; 120
    36e0:	77 77       	andi	r23, 0x77	; 119
    36e2:	76 76       	andi	r23, 0x66	; 102
    36e4:	77 77       	andi	r23, 0x77	; 119
    36e6:	78 78       	andi	r23, 0x88	; 136
    36e8:	79 7a       	andi	r23, 0xA9	; 169
    36ea:	7c 7d       	andi	r23, 0xDC	; 220
    36ec:	7f 81       	ldd	r23, Y+7	; 0x07
    36ee:	83 84       	ldd	r8, Z+11	; 0x0b
    36f0:	86 88       	ldd	r8, Z+22	; 0x16
    36f2:	89 8a       	std	Y+17, r8	; 0x11
    36f4:	8b 8c       	ldd	r8, Y+27	; 0x1b
    36f6:	8d 8d       	ldd	r24, Y+29	; 0x1d
    36f8:	8d 8c       	ldd	r8, Y+29	; 0x1d
    36fa:	8c 8b       	std	Y+20, r24	; 0x14
    36fc:	8a 89       	ldd	r24, Y+18	; 0x12
    36fe:	88 86       	std	Y+8, r8	; 0x08
    3700:	85 84       	ldd	r8, Z+13	; 0x0d
    3702:	83 81       	ldd	r24, Z+3	; 0x03
    3704:	80 7f       	andi	r24, 0xF0	; 240
    3706:	7e 7d       	andi	r23, 0xDE	; 222
    3708:	7d 7c       	andi	r23, 0xCD	; 205
    370a:	7b 7a       	andi	r23, 0xAB	; 171
    370c:	7a 79       	andi	r23, 0x9A	; 154
    370e:	79 78       	andi	r23, 0x89	; 137
    3710:	77 77       	andi	r23, 0x77	; 119
    3712:	77 77       	andi	r23, 0x77	; 119
    3714:	77 77       	andi	r23, 0x77	; 119
    3716:	77 77       	andi	r23, 0x77	; 119
    3718:	78 79       	andi	r23, 0x98	; 152
    371a:	7a 7b       	andi	r23, 0xBA	; 186
    371c:	7c 7d       	andi	r23, 0xDC	; 220
    371e:	7e 7f       	andi	r23, 0xFE	; 254
    3720:	81 82       	std	Z+1, r8	; 0x01
    3722:	83 84       	ldd	r8, Z+11	; 0x0b
    3724:	85 85       	ldd	r24, Z+13	; 0x0d
    3726:	85 86       	std	Z+13, r8	; 0x0d
    3728:	86 85       	ldd	r24, Z+14	; 0x0e
    372a:	85 85       	ldd	r24, Z+13	; 0x0d
    372c:	84 83       	std	Z+4, r24	; 0x04
    372e:	83 82       	std	Z+3, r8	; 0x03
    3730:	81 80       	ldd	r8, Z+1	; 0x01
    3732:	80 7f       	andi	r24, 0xF0	; 240
    3734:	7e 7e       	andi	r23, 0xEE	; 238
    3736:	7d 7c       	andi	r23, 0xCD	; 205
    3738:	7c 7b       	andi	r23, 0xBC	; 188
    373a:	7a 7a       	andi	r23, 0xAA	; 170
    373c:	79 79       	andi	r23, 0x99	; 153
    373e:	78 78       	andi	r23, 0x88	; 136
    3740:	77 77       	andi	r23, 0x77	; 119
    3742:	77 77       	andi	r23, 0x77	; 119
    3744:	77 77       	andi	r23, 0x77	; 119
    3746:	77 78       	andi	r23, 0x87	; 135
    3748:	79 7a       	andi	r23, 0xA9	; 169
    374a:	7b 7c       	andi	r23, 0xCB	; 203
    374c:	7e 7f       	andi	r23, 0xFE	; 254
    374e:	81 82       	std	Z+1, r8	; 0x01
    3750:	84 85       	ldd	r24, Z+12	; 0x0c
    3752:	86 87       	std	Z+14, r24	; 0x0e
    3754:	88 89       	ldd	r24, Y+16	; 0x10
    3756:	89 89       	ldd	r24, Y+17	; 0x11
    3758:	89 89       	ldd	r24, Y+17	; 0x11
    375a:	89 88       	ldd	r8, Y+17	; 0x11
    375c:	88 87       	std	Y+8, r24	; 0x08
    375e:	86 85       	ldd	r24, Z+14	; 0x0e
    3760:	84 83       	std	Z+4, r24	; 0x04
    3762:	82 81       	ldd	r24, Z+2	; 0x02
    3764:	80 7f       	andi	r24, 0xF0	; 240
    3766:	7f 7e       	andi	r23, 0xEF	; 239
    3768:	7d 7c       	andi	r23, 0xCD	; 205
    376a:	7b 7a       	andi	r23, 0xAB	; 171
    376c:	79 79       	andi	r23, 0x99	; 153
    376e:	78 77       	andi	r23, 0x78	; 120
    3770:	76 76       	andi	r23, 0x66	; 102
    3772:	75 75       	andi	r23, 0x55	; 85
    3774:	75 75       	andi	r23, 0x55	; 85
    3776:	76 76       	andi	r23, 0x66	; 102
    3778:	77 78       	andi	r23, 0x87	; 135
    377a:	7a 7b       	andi	r23, 0xBA	; 186
    377c:	7d 7f       	andi	r23, 0xFD	; 253
    377e:	81 82       	std	Z+1, r8	; 0x01
    3780:	84 86       	std	Z+12, r8	; 0x0c
    3782:	88 89       	ldd	r24, Y+16	; 0x10
    3784:	8a 8b       	std	Y+18, r24	; 0x12
    3786:	8c 8d       	ldd	r24, Y+28	; 0x1c
    3788:	8d 8d       	ldd	r24, Y+29	; 0x1d
    378a:	8d 8c       	ldd	r8, Y+29	; 0x1d
    378c:	8b 8b       	std	Y+19, r24	; 0x13
    378e:	8a 89       	ldd	r24, Y+18	; 0x12
    3790:	88 87       	std	Y+8, r24	; 0x08
    3792:	86 85       	ldd	r24, Z+14	; 0x0e
    3794:	84 83       	std	Z+4, r24	; 0x04
    3796:	82 81       	ldd	r24, Z+2	; 0x02
    3798:	80 80       	ld	r8, Z
    379a:	7f 7e       	andi	r23, 0xEF	; 239
    379c:	7d 7d       	andi	r23, 0xDD	; 221
    379e:	7c 7b       	andi	r23, 0xBC	; 188
    37a0:	7b 7a       	andi	r23, 0xAB	; 171
    37a2:	79 79       	andi	r23, 0x99	; 153
    37a4:	78 78       	andi	r23, 0x88	; 136
    37a6:	78 77       	andi	r23, 0x78	; 120
    37a8:	78 78       	andi	r23, 0x88	; 136
    37aa:	78 79       	andi	r23, 0x98	; 152
    37ac:	7a 7b       	andi	r23, 0xBA	; 186
    37ae:	7c 7d       	andi	r23, 0xDC	; 220
    37b0:	7f 80       	ldd	r7, Y+7	; 0x07
    37b2:	81 82       	std	Z+1, r8	; 0x01
    37b4:	83 84       	ldd	r8, Z+11	; 0x0b
    37b6:	85 85       	ldd	r24, Z+13	; 0x0d
    37b8:	86 86       	std	Z+14, r8	; 0x0e
    37ba:	86 86       	std	Z+14, r8	; 0x0e
    37bc:	85 85       	ldd	r24, Z+13	; 0x0d
    37be:	85 84       	ldd	r8, Z+13	; 0x0d
    37c0:	83 83       	std	Z+3, r24	; 0x03
    37c2:	82 82       	std	Z+2, r8	; 0x02
    37c4:	81 81       	ldd	r24, Z+1	; 0x01
    37c6:	80 80       	ld	r8, Z
    37c8:	7f 7f       	andi	r23, 0xFF	; 255
    37ca:	7e 7e       	andi	r23, 0xEE	; 238
    37cc:	7d 7d       	andi	r23, 0xDD	; 221
    37ce:	7c 7b       	andi	r23, 0xBC	; 188
    37d0:	7b 7a       	andi	r23, 0xAB	; 171
    37d2:	79 79       	andi	r23, 0x99	; 153
    37d4:	78 78       	andi	r23, 0x88	; 136
    37d6:	77 77       	andi	r23, 0x77	; 119
    37d8:	77 78       	andi	r23, 0x87	; 135
    37da:	78 79       	andi	r23, 0x98	; 152
    37dc:	7a 7b       	andi	r23, 0xBA	; 186
    37de:	7c 7d       	andi	r23, 0xDC	; 220
    37e0:	7e 7f       	andi	r23, 0xFE	; 254
    37e2:	81 82       	std	Z+1, r8	; 0x01
    37e4:	83 84       	ldd	r8, Z+11	; 0x0b
    37e6:	85 85       	ldd	r24, Z+13	; 0x0d
    37e8:	86 86       	std	Z+14, r8	; 0x0e
    37ea:	86 86       	std	Z+14, r8	; 0x0e
    37ec:	86 86       	std	Z+14, r8	; 0x0e
    37ee:	86 85       	ldd	r24, Z+14	; 0x0e
    37f0:	85 84       	ldd	r8, Z+13	; 0x0d
    37f2:	83 83       	std	Z+3, r24	; 0x03
    37f4:	82 81       	ldd	r24, Z+2	; 0x02
    37f6:	81 80       	ldd	r8, Z+1	; 0x01
    37f8:	7f 7e       	andi	r23, 0xEF	; 239
    37fa:	7d 7c       	andi	r23, 0xCD	; 205
    37fc:	7c 7b       	andi	r23, 0xBC	; 188
    37fe:	7a 79       	andi	r23, 0x9A	; 154
    3800:	78 77       	andi	r23, 0x78	; 120
    3802:	76 76       	andi	r23, 0x66	; 102
    3804:	75 75       	andi	r23, 0x55	; 85
    3806:	75 75       	andi	r23, 0x55	; 85
    3808:	75 76       	andi	r23, 0x65	; 101
    380a:	77 77       	andi	r23, 0x77	; 119
    380c:	79 7a       	andi	r23, 0xA9	; 169
    380e:	7b 7c       	andi	r23, 0xCB	; 203
    3810:	7e 7f       	andi	r23, 0xFE	; 254
    3812:	81 82       	std	Z+1, r8	; 0x01
    3814:	84 85       	ldd	r24, Z+12	; 0x0c
    3816:	86 87       	std	Z+14, r24	; 0x0e
    3818:	88 89       	ldd	r24, Y+16	; 0x10
    381a:	89 89       	ldd	r24, Y+17	; 0x11
    381c:	8a 8a       	std	Y+18, r8	; 0x12
    381e:	89 89       	ldd	r24, Y+17	; 0x11
    3820:	89 89       	ldd	r24, Y+17	; 0x11
    3822:	88 88       	ldd	r8, Y+16	; 0x10
    3824:	87 87       	std	Z+15, r24	; 0x0f
    3826:	86 85       	ldd	r24, Z+14	; 0x0e
    3828:	85 84       	ldd	r8, Z+13	; 0x0d
    382a:	83 83       	std	Z+3, r24	; 0x03
    382c:	82 81       	ldd	r24, Z+2	; 0x02
    382e:	80 80       	ld	r8, Z
    3830:	7f 7e       	andi	r23, 0xEF	; 239
    3832:	7d 7c       	andi	r23, 0xCD	; 205
    3834:	7c 7b       	andi	r23, 0xBC	; 188
    3836:	7b 7a       	andi	r23, 0xAB	; 171
    3838:	7a 7a       	andi	r23, 0xAA	; 170
    383a:	7a 7a       	andi	r23, 0xAA	; 170
    383c:	7b 7b       	andi	r23, 0xBB	; 187
    383e:	7c 7d       	andi	r23, 0xDC	; 220
    3840:	7e 7e       	andi	r23, 0xEE	; 238
    3842:	7f 80       	ldd	r7, Y+7	; 0x07
    3844:	81 82       	std	Z+1, r8	; 0x01
    3846:	82 83       	std	Z+2, r24	; 0x02
    3848:	83 83       	std	Z+3, r24	; 0x03
    384a:	84 84       	ldd	r8, Z+12	; 0x0c
    384c:	84 84       	ldd	r8, Z+12	; 0x0c
    384e:	83 83       	std	Z+3, r24	; 0x03
    3850:	83 83       	std	Z+3, r24	; 0x03
    3852:	83 83       	std	Z+3, r24	; 0x03
    3854:	82 82       	std	Z+2, r8	; 0x02
    3856:	82 82       	std	Z+2, r8	; 0x02
    3858:	81 81       	ldd	r24, Z+1	; 0x01
    385a:	81 80       	ldd	r8, Z+1	; 0x01
    385c:	80 7f       	andi	r24, 0xF0	; 240
    385e:	7e 7e       	andi	r23, 0xEE	; 238
    3860:	7d 7c       	andi	r23, 0xCD	; 205
    3862:	7c 7b       	andi	r23, 0xBC	; 188
    3864:	7a 7a       	andi	r23, 0xAA	; 170
    3866:	7a 79       	andi	r23, 0x9A	; 154
    3868:	79 79       	andi	r23, 0x99	; 153
    386a:	7a 7a       	andi	r23, 0xAA	; 170
    386c:	7b 7b       	andi	r23, 0xBB	; 187
    386e:	7c 7d       	andi	r23, 0xDC	; 220
    3870:	7e 7f       	andi	r23, 0xFE	; 254
    3872:	80 81       	ld	r24, Z
    3874:	82 83       	std	Z+2, r24	; 0x02
    3876:	83 84       	ldd	r8, Z+11	; 0x0b
    3878:	84 84       	ldd	r8, Z+12	; 0x0c
    387a:	84 84       	ldd	r8, Z+12	; 0x0c
    387c:	84 84       	ldd	r8, Z+12	; 0x0c
    387e:	83 83       	std	Z+3, r24	; 0x03
    3880:	82 82       	std	Z+2, r8	; 0x02
    3882:	81 81       	ldd	r24, Z+1	; 0x01
    3884:	80 7f       	andi	r24, 0xF0	; 240
    3886:	7f 7e       	andi	r23, 0xEF	; 239
    3888:	7e 7d       	andi	r23, 0xDE	; 222
    388a:	7d 7c       	andi	r23, 0xCD	; 205
    388c:	7c 7b       	andi	r23, 0xBC	; 188
    388e:	7b 7a       	andi	r23, 0xAB	; 171
    3890:	7a 79       	andi	r23, 0x9A	; 154
    3892:	79 78       	andi	r23, 0x89	; 137
    3894:	78 78       	andi	r23, 0x88	; 136
    3896:	77 77       	andi	r23, 0x77	; 119
    3898:	78 78       	andi	r23, 0x88	; 136
    389a:	78 79       	andi	r23, 0x98	; 152
    389c:	7a 7b       	andi	r23, 0xBA	; 186
    389e:	7c 7d       	andi	r23, 0xDC	; 220
    38a0:	7e 7f       	andi	r23, 0xFE	; 254
    38a2:	81 82       	std	Z+1, r8	; 0x01
    38a4:	83 84       	ldd	r8, Z+11	; 0x0b
    38a6:	85 86       	std	Z+13, r8	; 0x0d
    38a8:	87 87       	std	Z+15, r24	; 0x0f
    38aa:	88 88       	ldd	r8, Y+16	; 0x10
    38ac:	88 88       	ldd	r8, Y+16	; 0x10
    38ae:	87 87       	std	Z+15, r24	; 0x0f
    38b0:	86 85       	ldd	r24, Z+14	; 0x0e
    38b2:	84 84       	ldd	r8, Z+12	; 0x0c
    38b4:	83 82       	std	Z+3, r8	; 0x03
    38b6:	81 80       	ldd	r8, Z+1	; 0x01
    38b8:	7f 7f       	andi	r23, 0xFF	; 255
    38ba:	7e 7d       	andi	r23, 0xDE	; 222
    38bc:	7d 7c       	andi	r23, 0xCD	; 205
    38be:	7c 7b       	andi	r23, 0xBC	; 188
    38c0:	7b 7a       	andi	r23, 0xAB	; 171
    38c2:	7a 79       	andi	r23, 0x9A	; 154
    38c4:	79 79       	andi	r23, 0x99	; 153
    38c6:	79 79       	andi	r23, 0x99	; 153
    38c8:	79 79       	andi	r23, 0x99	; 153
    38ca:	7a 7a       	andi	r23, 0xAA	; 170
    38cc:	7b 7b       	andi	r23, 0xBB	; 187
    38ce:	7c 7d       	andi	r23, 0xDC	; 220
    38d0:	7e 7f       	andi	r23, 0xFE	; 254
    38d2:	80 82       	st	Z, r8
    38d4:	83 84       	ldd	r8, Z+11	; 0x0b
    38d6:	85 86       	std	Z+13, r8	; 0x0d
    38d8:	87 87       	std	Z+15, r24	; 0x0f
    38da:	88 88       	ldd	r8, Y+16	; 0x10
    38dc:	88 88       	ldd	r8, Y+16	; 0x10
    38de:	88 88       	ldd	r8, Y+16	; 0x10
    38e0:	88 87       	std	Y+8, r24	; 0x08
    38e2:	87 86       	std	Z+15, r8	; 0x0f
    38e4:	86 85       	ldd	r24, Z+14	; 0x0e
    38e6:	84 84       	ldd	r8, Z+12	; 0x0c
    38e8:	83 82       	std	Z+3, r8	; 0x03
    38ea:	81 81       	ldd	r24, Z+1	; 0x01
    38ec:	80 7f       	andi	r24, 0xF0	; 240
    38ee:	7e 7d       	andi	r23, 0xDE	; 222
    38f0:	7d 7c       	andi	r23, 0xCD	; 205
    38f2:	7b 7b       	andi	r23, 0xBB	; 187
    38f4:	7a 7a       	andi	r23, 0xAA	; 170
    38f6:	7a 7a       	andi	r23, 0xAA	; 170
    38f8:	7a 7a       	andi	r23, 0xAA	; 170
    38fa:	7a 7b       	andi	r23, 0xBA	; 186
    38fc:	7b 7c       	andi	r23, 0xCB	; 203
    38fe:	7d 7e       	andi	r23, 0xED	; 237
    3900:	7f 80       	ldd	r7, Y+7	; 0x07
    3902:	81 82       	std	Z+1, r8	; 0x01
    3904:	83 84       	ldd	r8, Z+11	; 0x0b
    3906:	85 85       	ldd	r24, Z+13	; 0x0d
    3908:	86 86       	std	Z+14, r8	; 0x0e
    390a:	86 86       	std	Z+14, r8	; 0x0e
    390c:	86 86       	std	Z+14, r8	; 0x0e
    390e:	85 84       	ldd	r8, Z+13	; 0x0d
    3910:	84 83       	std	Z+4, r24	; 0x04
    3912:	82 81       	ldd	r24, Z+2	; 0x02
    3914:	80 7f       	andi	r24, 0xF0	; 240
    3916:	7e 7d       	andi	r23, 0xDE	; 222
    3918:	7d 7c       	andi	r23, 0xCD	; 205
    391a:	7b 7a       	andi	r23, 0xAB	; 171
    391c:	79 78       	andi	r23, 0x89	; 137
    391e:	78 77       	andi	r23, 0x78	; 120
    3920:	76 76       	andi	r23, 0x66	; 102
    3922:	75 75       	andi	r23, 0x55	; 85
    3924:	74 74       	andi	r23, 0x44	; 68
    3926:	74 74       	andi	r23, 0x44	; 68
    3928:	75 75       	andi	r23, 0x55	; 85
    392a:	76 77       	andi	r23, 0x76	; 118
    392c:	78 79       	andi	r23, 0x98	; 152
    392e:	7a 7c       	andi	r23, 0xCA	; 202
    3930:	7e 7f       	andi	r23, 0xFE	; 254
    3932:	81 83       	std	Z+1, r24	; 0x01
    3934:	84 86       	std	Z+12, r8	; 0x0c
    3936:	87 88       	ldd	r8, Z+23	; 0x17
    3938:	89 8a       	std	Y+17, r8	; 0x11
    393a:	8b 8b       	std	Y+19, r24	; 0x13
    393c:	8b 8b       	std	Y+19, r24	; 0x13
    393e:	8a 8a       	std	Y+18, r8	; 0x12
    3940:	89 88       	ldd	r8, Y+17	; 0x11
    3942:	88 87       	std	Y+8, r24	; 0x08
    3944:	86 84       	ldd	r8, Z+14	; 0x0e
    3946:	83 82       	std	Z+3, r8	; 0x03
    3948:	81 80       	ldd	r8, Z+1	; 0x01
    394a:	7f 7e       	andi	r23, 0xEF	; 239
    394c:	7e 7d       	andi	r23, 0xDE	; 222
    394e:	7c 7b       	andi	r23, 0xBC	; 188
    3950:	7a 79       	andi	r23, 0x9A	; 154
    3952:	78 78       	andi	r23, 0x88	; 136
    3954:	77 76       	andi	r23, 0x67	; 103
    3956:	76 75       	andi	r23, 0x56	; 86
    3958:	75 75       	andi	r23, 0x55	; 85
    395a:	75 76       	andi	r23, 0x65	; 101
    395c:	76 77       	andi	r23, 0x76	; 118
    395e:	78 79       	andi	r23, 0x98	; 152
    3960:	7a 7b       	andi	r23, 0xBA	; 186
    3962:	7d 7e       	andi	r23, 0xED	; 237
    3964:	80 81       	ld	r24, Z
    3966:	83 84       	ldd	r8, Z+11	; 0x0b
    3968:	85 86       	std	Z+13, r8	; 0x0d
    396a:	87 88       	ldd	r8, Z+23	; 0x17
    396c:	88 88       	ldd	r8, Y+16	; 0x10
    396e:	88 88       	ldd	r8, Y+16	; 0x10
    3970:	88 88       	ldd	r8, Y+16	; 0x10
    3972:	87 87       	std	Z+15, r24	; 0x0f
    3974:	86 85       	ldd	r24, Z+14	; 0x0e
    3976:	85 84       	ldd	r8, Z+13	; 0x0d
    3978:	83 82       	std	Z+3, r8	; 0x03
    397a:	82 81       	ldd	r24, Z+2	; 0x02
    397c:	80 80       	ld	r8, Z
    397e:	7f 7e       	andi	r23, 0xEF	; 239
    3980:	7d 7d       	andi	r23, 0xDD	; 221
    3982:	7c 7b       	andi	r23, 0xBC	; 188
    3984:	7a 7a       	andi	r23, 0xAA	; 170
    3986:	79 79       	andi	r23, 0x99	; 153
    3988:	78 78       	andi	r23, 0x88	; 136
    398a:	78 78       	andi	r23, 0x88	; 136
    398c:	79 79       	andi	r23, 0x99	; 153
    398e:	7a 7b       	andi	r23, 0xBA	; 186
    3990:	7c 7e       	andi	r23, 0xEC	; 236
    3992:	7f 81       	ldd	r23, Y+7	; 0x07
    3994:	82 83       	std	Z+2, r24	; 0x02
    3996:	85 86       	std	Z+13, r8	; 0x0d
    3998:	87 88       	ldd	r8, Z+23	; 0x17
    399a:	89 89       	ldd	r24, Y+17	; 0x11
    399c:	89 89       	ldd	r24, Y+17	; 0x11
    399e:	89 89       	ldd	r24, Y+17	; 0x11
    39a0:	88 88       	ldd	r8, Y+16	; 0x10
    39a2:	87 86       	std	Z+15, r8	; 0x0f
    39a4:	85 84       	ldd	r8, Z+13	; 0x0d
    39a6:	83 82       	std	Z+3, r8	; 0x03
    39a8:	81 80       	ldd	r8, Z+1	; 0x01
    39aa:	7f 7f       	andi	r23, 0xFF	; 255
    39ac:	7e 7d       	andi	r23, 0xDE	; 222
    39ae:	7c 7b       	andi	r23, 0xBC	; 188
    39b0:	7a 79       	andi	r23, 0x9A	; 154
    39b2:	78 78       	andi	r23, 0x88	; 136
    39b4:	77 76       	andi	r23, 0x67	; 103
    39b6:	76 76       	andi	r23, 0x66	; 102
    39b8:	75 75       	andi	r23, 0x55	; 85
    39ba:	75 76       	andi	r23, 0x65	; 101
    39bc:	76 77       	andi	r23, 0x76	; 118
    39be:	77 78       	andi	r23, 0x87	; 135
    39c0:	7a 7b       	andi	r23, 0xBA	; 186
    39c2:	7c 7e       	andi	r23, 0xEC	; 236
    39c4:	7f 80       	ldd	r7, Y+7	; 0x07
    39c6:	82 83       	std	Z+2, r24	; 0x02
    39c8:	84 85       	ldd	r24, Z+12	; 0x0c
    39ca:	86 87       	std	Z+14, r24	; 0x0e
    39cc:	87 87       	std	Z+15, r24	; 0x0f
    39ce:	87 87       	std	Z+15, r24	; 0x0f
    39d0:	87 87       	std	Z+15, r24	; 0x0f
    39d2:	86 86       	std	Z+14, r8	; 0x0e
    39d4:	85 84       	ldd	r8, Z+13	; 0x0d
    39d6:	84 83       	std	Z+4, r24	; 0x04
    39d8:	82 81       	ldd	r24, Z+2	; 0x02
    39da:	81 80       	ldd	r8, Z+1	; 0x01
    39dc:	7f 7e       	andi	r23, 0xEF	; 239
    39de:	7e 7d       	andi	r23, 0xDE	; 222
    39e0:	7c 7b       	andi	r23, 0xBC	; 188
    39e2:	7b 7a       	andi	r23, 0xAB	; 171
    39e4:	79 79       	andi	r23, 0x99	; 153
    39e6:	78 77       	andi	r23, 0x78	; 120
    39e8:	77 77       	andi	r23, 0x77	; 119
    39ea:	77 77       	andi	r23, 0x77	; 119
    39ec:	77 78       	andi	r23, 0x87	; 135
    39ee:	78 79       	andi	r23, 0x98	; 152
    39f0:	7a 7b       	andi	r23, 0xBA	; 186
    39f2:	7d 7e       	andi	r23, 0xED	; 237
    39f4:	7f 81       	ldd	r23, Y+7	; 0x07
    39f6:	82 83       	std	Z+2, r24	; 0x02
    39f8:	84 85       	ldd	r24, Z+12	; 0x0c
    39fa:	86 87       	std	Z+14, r24	; 0x0e
    39fc:	87 87       	std	Z+15, r24	; 0x0f
    39fe:	87 87       	std	Z+15, r24	; 0x0f
    3a00:	87 87       	std	Z+15, r24	; 0x0f
    3a02:	87 86       	std	Z+15, r8	; 0x0f
    3a04:	86 85       	ldd	r24, Z+14	; 0x0e
    3a06:	84 84       	ldd	r8, Z+12	; 0x0c
    3a08:	83 82       	std	Z+3, r8	; 0x03
    3a0a:	81 81       	ldd	r24, Z+1	; 0x01
    3a0c:	80 7f       	andi	r24, 0xF0	; 240
    3a0e:	7e 7e       	andi	r23, 0xEE	; 238
    3a10:	7d 7c       	andi	r23, 0xCD	; 205
    3a12:	7b 7a       	andi	r23, 0xAB	; 171
    3a14:	7a 79       	andi	r23, 0x9A	; 154
    3a16:	78 78       	andi	r23, 0x88	; 136
    3a18:	78 77       	andi	r23, 0x78	; 120
    3a1a:	77 78       	andi	r23, 0x87	; 135
    3a1c:	78 79       	andi	r23, 0x98	; 152
    3a1e:	7a 7b       	andi	r23, 0xBA	; 186
    3a20:	7c 7d       	andi	r23, 0xDC	; 220
    3a22:	7e 80       	ldd	r7, Y+6	; 0x06
    3a24:	82 83       	std	Z+2, r24	; 0x02
    3a26:	85 86       	std	Z+13, r8	; 0x0d
    3a28:	87 88       	ldd	r8, Z+23	; 0x17
    3a2a:	89 8a       	std	Y+17, r8	; 0x11
    3a2c:	8a 8b       	std	Y+18, r24	; 0x12
    3a2e:	8b 8a       	std	Y+19, r8	; 0x13
    3a30:	8a 89       	ldd	r24, Y+18	; 0x12
    3a32:	89 88       	ldd	r8, Y+17	; 0x11
    3a34:	87 86       	std	Z+15, r8	; 0x0f
    3a36:	85 84       	ldd	r8, Z+13	; 0x0d
    3a38:	83 82       	std	Z+3, r8	; 0x03
    3a3a:	81 80       	ldd	r8, Z+1	; 0x01
    3a3c:	7f 7e       	andi	r23, 0xEF	; 239
    3a3e:	7d 7c       	andi	r23, 0xCD	; 205
    3a40:	7c 7b       	andi	r23, 0xBC	; 188
    3a42:	7a 7a       	andi	r23, 0xAA	; 170
    3a44:	79 78       	andi	r23, 0x89	; 137
    3a46:	78 78       	andi	r23, 0x88	; 136
    3a48:	77 77       	andi	r23, 0x77	; 119
    3a4a:	77 77       	andi	r23, 0x77	; 119
    3a4c:	77 78       	andi	r23, 0x87	; 135
    3a4e:	79 79       	andi	r23, 0x99	; 153
    3a50:	7a 7b       	andi	r23, 0xBA	; 186
    3a52:	7d 7e       	andi	r23, 0xED	; 237
    3a54:	7f 81       	ldd	r23, Y+7	; 0x07
    3a56:	82 83       	std	Z+2, r24	; 0x02
    3a58:	85 86       	std	Z+13, r8	; 0x0d
    3a5a:	87 87       	std	Z+15, r24	; 0x0f
    3a5c:	88 88       	ldd	r8, Y+16	; 0x10
    3a5e:	88 88       	ldd	r8, Y+16	; 0x10
    3a60:	88 87       	std	Y+8, r24	; 0x08
    3a62:	87 86       	std	Z+15, r8	; 0x0f
    3a64:	85 84       	ldd	r8, Z+13	; 0x0d
    3a66:	83 82       	std	Z+3, r8	; 0x03
    3a68:	81 80       	ldd	r8, Z+1	; 0x01
    3a6a:	80 7f       	andi	r24, 0xF0	; 240
    3a6c:	7e 7d       	andi	r23, 0xDE	; 222
    3a6e:	7d 7c       	andi	r23, 0xCD	; 205
    3a70:	7b 7b       	andi	r23, 0xBB	; 187
    3a72:	7a 7a       	andi	r23, 0xAA	; 170
    3a74:	79 79       	andi	r23, 0x99	; 153
    3a76:	78 78       	andi	r23, 0x88	; 136
    3a78:	78 78       	andi	r23, 0x88	; 136
    3a7a:	77 77       	andi	r23, 0x77	; 119
    3a7c:	78 78       	andi	r23, 0x88	; 136
    3a7e:	78 79       	andi	r23, 0x98	; 152
    3a80:	79 7a       	andi	r23, 0xA9	; 169
    3a82:	7b 7c       	andi	r23, 0xCB	; 203
    3a84:	7d 7f       	andi	r23, 0xFD	; 253
    3a86:	80 81       	ld	r24, Z
    3a88:	82 84       	ldd	r8, Z+10	; 0x0a
    3a8a:	85 85       	ldd	r24, Z+13	; 0x0d
    3a8c:	86 87       	std	Z+14, r24	; 0x0e
    3a8e:	87 87       	std	Z+15, r24	; 0x0f
    3a90:	87 87       	std	Z+15, r24	; 0x0f
    3a92:	86 86       	std	Z+14, r8	; 0x0e
    3a94:	85 84       	ldd	r8, Z+13	; 0x0d
    3a96:	83 83       	std	Z+3, r24	; 0x03
    3a98:	82 81       	ldd	r24, Z+2	; 0x02
    3a9a:	80 7f       	andi	r24, 0xF0	; 240
    3a9c:	7e 7d       	andi	r23, 0xDE	; 222
    3a9e:	7d 7c       	andi	r23, 0xCD	; 205
    3aa0:	7b 7b       	andi	r23, 0xBB	; 187
    3aa2:	7a 7a       	andi	r23, 0xAA	; 170
    3aa4:	79 79       	andi	r23, 0x99	; 153
    3aa6:	79 79       	andi	r23, 0x99	; 153
    3aa8:	79 79       	andi	r23, 0x99	; 153
    3aaa:	79 79       	andi	r23, 0x99	; 153
    3aac:	79 7a       	andi	r23, 0xA9	; 169
    3aae:	7a 7b       	andi	r23, 0xBA	; 186
    3ab0:	7c 7d       	andi	r23, 0xDC	; 220
    3ab2:	7e 7f       	andi	r23, 0xFE	; 254
    3ab4:	80 81       	ld	r24, Z
    3ab6:	83 84       	ldd	r8, Z+11	; 0x0b
    3ab8:	85 86       	std	Z+13, r8	; 0x0d
    3aba:	87 88       	ldd	r8, Z+23	; 0x17
    3abc:	89 89       	ldd	r24, Y+17	; 0x11
    3abe:	8a 8a       	std	Y+18, r8	; 0x12
    3ac0:	8a 89       	ldd	r24, Y+18	; 0x12
    3ac2:	89 88       	ldd	r8, Y+17	; 0x11
    3ac4:	87 86       	std	Z+15, r8	; 0x0f
    3ac6:	85 84       	ldd	r8, Z+13	; 0x0d
    3ac8:	83 82       	std	Z+3, r8	; 0x03
    3aca:	81 80       	ldd	r8, Z+1	; 0x01
    3acc:	7f 7e       	andi	r23, 0xEF	; 239
    3ace:	7d 7c       	andi	r23, 0xCD	; 205
    3ad0:	7b 7b       	andi	r23, 0xBB	; 187
    3ad2:	7a 7a       	andi	r23, 0xAA	; 170
    3ad4:	79 79       	andi	r23, 0x99	; 153
    3ad6:	79 78       	andi	r23, 0x89	; 137
    3ad8:	78 78       	andi	r23, 0x88	; 136
    3ada:	78 78       	andi	r23, 0x88	; 136
    3adc:	78 79       	andi	r23, 0x98	; 152
    3ade:	79 7a       	andi	r23, 0xA9	; 169
    3ae0:	7a 7b       	andi	r23, 0xBA	; 186
    3ae2:	7c 7d       	andi	r23, 0xDC	; 220
    3ae4:	7e 80       	ldd	r7, Y+6	; 0x06
    3ae6:	81 82       	std	Z+1, r8	; 0x01
    3ae8:	83 84       	ldd	r8, Z+11	; 0x0b
    3aea:	86 86       	std	Z+14, r8	; 0x0e
    3aec:	87 88       	ldd	r8, Z+23	; 0x17
    3aee:	89 89       	ldd	r24, Y+17	; 0x11
    3af0:	89 89       	ldd	r24, Y+17	; 0x11
    3af2:	89 89       	ldd	r24, Y+17	; 0x11
    3af4:	88 87       	std	Y+8, r24	; 0x08
    3af6:	87 86       	std	Z+15, r8	; 0x0f
    3af8:	85 84       	ldd	r8, Z+13	; 0x0d
    3afa:	84 83       	std	Z+4, r24	; 0x04
    3afc:	82 81       	ldd	r24, Z+2	; 0x02
    3afe:	80 7f       	andi	r24, 0xF0	; 240
    3b00:	7e 7e       	andi	r23, 0xEE	; 238
    3b02:	7d 7c       	andi	r23, 0xCD	; 205
    3b04:	7b 7b       	andi	r23, 0xBB	; 187
    3b06:	7a 7a       	andi	r23, 0xAA	; 170
    3b08:	79 79       	andi	r23, 0x99	; 153
    3b0a:	78 78       	andi	r23, 0x88	; 136
    3b0c:	78 78       	andi	r23, 0x88	; 136
    3b0e:	78 78       	andi	r23, 0x88	; 136
    3b10:	79 79       	andi	r23, 0x99	; 153
    3b12:	7a 7b       	andi	r23, 0xBA	; 186
    3b14:	7c 7d       	andi	r23, 0xDC	; 220
    3b16:	7e 7f       	andi	r23, 0xFE	; 254
    3b18:	80 81       	ld	r24, Z
    3b1a:	82 83       	std	Z+2, r24	; 0x02
    3b1c:	84 85       	ldd	r24, Z+12	; 0x0c
    3b1e:	85 86       	std	Z+13, r8	; 0x0d
    3b20:	86 86       	std	Z+14, r8	; 0x0e
    3b22:	86 86       	std	Z+14, r8	; 0x0e
    3b24:	86 85       	ldd	r24, Z+14	; 0x0e
    3b26:	85 84       	ldd	r8, Z+13	; 0x0d
    3b28:	83 83       	std	Z+3, r24	; 0x03
    3b2a:	82 81       	ldd	r24, Z+2	; 0x02
    3b2c:	80 7f       	andi	r24, 0xF0	; 240
    3b2e:	7f 7e       	andi	r23, 0xEF	; 239
    3b30:	7d 7c       	andi	r23, 0xCD	; 205
    3b32:	7c 7b       	andi	r23, 0xBC	; 188
    3b34:	7a 7a       	andi	r23, 0xAA	; 170
    3b36:	79 78       	andi	r23, 0x89	; 137
    3b38:	78 78       	andi	r23, 0x88	; 136
    3b3a:	77 77       	andi	r23, 0x77	; 119
    3b3c:	77 77       	andi	r23, 0x77	; 119
    3b3e:	77 77       	andi	r23, 0x77	; 119
    3b40:	78 78       	andi	r23, 0x88	; 136
    3b42:	79 7a       	andi	r23, 0xA9	; 169
    3b44:	7b 7c       	andi	r23, 0xCB	; 203
    3b46:	7e 7f       	andi	r23, 0xFE	; 254
    3b48:	80 81       	ld	r24, Z
    3b4a:	83 84       	ldd	r8, Z+11	; 0x0b
    3b4c:	85 86       	std	Z+13, r8	; 0x0d
    3b4e:	87 88       	ldd	r8, Z+23	; 0x17
    3b50:	88 89       	ldd	r24, Y+16	; 0x10
    3b52:	89 89       	ldd	r24, Y+17	; 0x11
    3b54:	89 89       	ldd	r24, Y+17	; 0x11
    3b56:	88 88       	ldd	r8, Y+16	; 0x10
    3b58:	87 86       	std	Z+15, r8	; 0x0f
    3b5a:	86 85       	ldd	r24, Z+14	; 0x0e
    3b5c:	84 83       	std	Z+4, r24	; 0x04
    3b5e:	82 81       	ldd	r24, Z+2	; 0x02
    3b60:	81 80       	ldd	r8, Z+1	; 0x01
    3b62:	7f 7e       	andi	r23, 0xEF	; 239
    3b64:	7d 7d       	andi	r23, 0xDD	; 221
    3b66:	7c 7b       	andi	r23, 0xBC	; 188
    3b68:	7a 7a       	andi	r23, 0xAA	; 170
    3b6a:	79 79       	andi	r23, 0x99	; 153
    3b6c:	79 78       	andi	r23, 0x89	; 137
    3b6e:	78 78       	andi	r23, 0x88	; 136
    3b70:	78 79       	andi	r23, 0x98	; 152
    3b72:	79 7a       	andi	r23, 0xA9	; 169
    3b74:	7b 7c       	andi	r23, 0xCB	; 203
    3b76:	7d 7e       	andi	r23, 0xED	; 237
    3b78:	7f 80       	ldd	r7, Y+7	; 0x07
    3b7a:	82 83       	std	Z+2, r24	; 0x02
    3b7c:	84 85       	ldd	r24, Z+12	; 0x0c
    3b7e:	86 87       	std	Z+14, r24	; 0x0e
    3b80:	87 88       	ldd	r8, Z+23	; 0x17
    3b82:	88 88       	ldd	r8, Y+16	; 0x10
    3b84:	88 88       	ldd	r8, Y+16	; 0x10
    3b86:	88 88       	ldd	r8, Y+16	; 0x10
    3b88:	87 87       	std	Z+15, r24	; 0x0f
    3b8a:	86 85       	ldd	r24, Z+14	; 0x0e
    3b8c:	85 84       	ldd	r8, Z+13	; 0x0d
    3b8e:	83 82       	std	Z+3, r8	; 0x03
    3b90:	81 81       	ldd	r24, Z+1	; 0x01
    3b92:	80 7f       	andi	r24, 0xF0	; 240
    3b94:	7e 7d       	andi	r23, 0xDE	; 222
    3b96:	7c 7c       	andi	r23, 0xCC	; 204
    3b98:	7b 7a       	andi	r23, 0xAB	; 171
    3b9a:	79 79       	andi	r23, 0x99	; 153
    3b9c:	78 78       	andi	r23, 0x88	; 136
    3b9e:	78 78       	andi	r23, 0x88	; 136
    3ba0:	78 78       	andi	r23, 0x88	; 136
    3ba2:	78 79       	andi	r23, 0x98	; 152
    3ba4:	79 7a       	andi	r23, 0xA9	; 169
    3ba6:	7b 7c       	andi	r23, 0xCB	; 203
    3ba8:	7d 7e       	andi	r23, 0xED	; 237
    3baa:	7f 80       	ldd	r7, Y+7	; 0x07
    3bac:	82 82       	std	Z+2, r8	; 0x02
    3bae:	83 84       	ldd	r8, Z+11	; 0x0b
    3bb0:	85 85       	ldd	r24, Z+13	; 0x0d
    3bb2:	85 86       	std	Z+13, r8	; 0x0d
    3bb4:	86 86       	std	Z+14, r8	; 0x0e
    3bb6:	85 85       	ldd	r24, Z+13	; 0x0d
    3bb8:	85 84       	ldd	r8, Z+13	; 0x0d
    3bba:	84 83       	std	Z+4, r24	; 0x04
    3bbc:	83 82       	std	Z+3, r8	; 0x03
    3bbe:	82 81       	ldd	r24, Z+2	; 0x02
    3bc0:	80 80       	ld	r8, Z
    3bc2:	7f 7e       	andi	r23, 0xEF	; 239
    3bc4:	7e 7d       	andi	r23, 0xDE	; 222
    3bc6:	7c 7b       	andi	r23, 0xBC	; 188
    3bc8:	7b 7a       	andi	r23, 0xAB	; 171
    3bca:	79 79       	andi	r23, 0x99	; 153
    3bcc:	78 78       	andi	r23, 0x88	; 136
    3bce:	77 77       	andi	r23, 0x77	; 119
    3bd0:	77 77       	andi	r23, 0x77	; 119
    3bd2:	78 78       	andi	r23, 0x88	; 136
    3bd4:	79 79       	andi	r23, 0x99	; 153
    3bd6:	7a 7b       	andi	r23, 0xBA	; 186
    3bd8:	7c 7e       	andi	r23, 0xEC	; 236
    3bda:	7f 80       	ldd	r7, Y+7	; 0x07
    3bdc:	81 82       	std	Z+1, r8	; 0x01
    3bde:	83 84       	ldd	r8, Z+11	; 0x0b
    3be0:	84 85       	ldd	r24, Z+12	; 0x0c
    3be2:	85 85       	ldd	r24, Z+13	; 0x0d
    3be4:	85 85       	ldd	r24, Z+13	; 0x0d
    3be6:	84 84       	ldd	r8, Z+12	; 0x0c
    3be8:	84 83       	std	Z+4, r24	; 0x04
    3bea:	82 82       	std	Z+2, r8	; 0x02
    3bec:	81 81       	ldd	r24, Z+1	; 0x01
    3bee:	80 7f       	andi	r24, 0xF0	; 240
    3bf0:	7f 7e       	andi	r23, 0xEF	; 239
    3bf2:	7e 7e       	andi	r23, 0xEE	; 238
    3bf4:	7d 7d       	andi	r23, 0xDD	; 221
    3bf6:	7d 7c       	andi	r23, 0xCD	; 205
    3bf8:	7c 7b       	andi	r23, 0xBC	; 188
    3bfa:	7b 7b       	andi	r23, 0xBB	; 187
    3bfc:	7a 7a       	andi	r23, 0xAA	; 170
    3bfe:	7a 7a       	andi	r23, 0xAA	; 170
    3c00:	7a 7a       	andi	r23, 0xAA	; 170
    3c02:	7a 7b       	andi	r23, 0xBA	; 186
    3c04:	7b 7c       	andi	r23, 0xCB	; 203
    3c06:	7d 7d       	andi	r23, 0xDD	; 221
    3c08:	7f 80       	ldd	r7, Y+7	; 0x07
    3c0a:	81 82       	std	Z+1, r8	; 0x01
    3c0c:	83 84       	ldd	r8, Z+11	; 0x0b
    3c0e:	85 86       	std	Z+13, r8	; 0x0d
    3c10:	87 87       	std	Z+15, r24	; 0x0f
    3c12:	87 88       	ldd	r8, Z+23	; 0x17
    3c14:	88 88       	ldd	r8, Y+16	; 0x10
    3c16:	87 87       	std	Z+15, r24	; 0x0f
    3c18:	86 86       	std	Z+14, r8	; 0x0e
    3c1a:	85 84       	ldd	r8, Z+13	; 0x0d
    3c1c:	84 83       	std	Z+4, r24	; 0x04
    3c1e:	83 82       	std	Z+3, r8	; 0x03
    3c20:	82 81       	ldd	r24, Z+2	; 0x02
    3c22:	81 80       	ldd	r8, Z+1	; 0x01
    3c24:	80 80       	ld	r8, Z
    3c26:	80 7f       	andi	r24, 0xF0	; 240
    3c28:	7f 7f       	andi	r23, 0xFF	; 255
    3c2a:	7e 7e       	andi	r23, 0xEE	; 238
    3c2c:	7d 7d       	andi	r23, 0xDD	; 221
    3c2e:	7d 7c       	andi	r23, 0xCD	; 205
    3c30:	7c 7c       	andi	r23, 0xCC	; 204
    3c32:	7c 7c       	andi	r23, 0xCC	; 204
    3c34:	7c 7c       	andi	r23, 0xCC	; 204
    3c36:	7d 7d       	andi	r23, 0xDD	; 221
    3c38:	7e 7f       	andi	r23, 0xFE	; 254
    3c3a:	80 81       	ld	r24, Z
    3c3c:	82 83       	std	Z+2, r24	; 0x02
    3c3e:	84 85       	ldd	r24, Z+12	; 0x0c
    3c40:	86 87       	std	Z+14, r24	; 0x0e
    3c42:	87 88       	ldd	r8, Z+23	; 0x17
    3c44:	88 88       	ldd	r8, Y+16	; 0x10
    3c46:	88 88       	ldd	r8, Y+16	; 0x10
    3c48:	87 86       	std	Z+15, r8	; 0x0f
    3c4a:	86 85       	ldd	r24, Z+14	; 0x0e
    3c4c:	84 83       	std	Z+4, r24	; 0x04
    3c4e:	82 82       	std	Z+2, r8	; 0x02
    3c50:	81 80       	ldd	r8, Z+1	; 0x01
    3c52:	7f 7e       	andi	r23, 0xEF	; 239
    3c54:	7e 7d       	andi	r23, 0xDE	; 222
    3c56:	7c 7c       	andi	r23, 0xCC	; 204
    3c58:	7b 7b       	andi	r23, 0xBB	; 187
    3c5a:	7a 7a       	andi	r23, 0xAA	; 170
    3c5c:	79 79       	andi	r23, 0x99	; 153
    3c5e:	79 78       	andi	r23, 0x89	; 137
    3c60:	78 78       	andi	r23, 0x88	; 136
    3c62:	78 78       	andi	r23, 0x88	; 136
    3c64:	79 79       	andi	r23, 0x99	; 153
    3c66:	7a 7b       	andi	r23, 0xBA	; 186
    3c68:	7c 7d       	andi	r23, 0xDC	; 220
    3c6a:	7e 7f       	andi	r23, 0xFE	; 254
    3c6c:	80 81       	ld	r24, Z
    3c6e:	83 84       	ldd	r8, Z+11	; 0x0b
    3c70:	84 85       	ldd	r24, Z+12	; 0x0c
    3c72:	86 86       	std	Z+14, r8	; 0x0e
    3c74:	87 87       	std	Z+15, r24	; 0x0f
    3c76:	86 86       	std	Z+14, r8	; 0x0e
    3c78:	86 85       	ldd	r24, Z+14	; 0x0e
    3c7a:	84 83       	std	Z+4, r24	; 0x04
    3c7c:	82 81       	ldd	r24, Z+2	; 0x02
    3c7e:	80 7f       	andi	r24, 0xF0	; 240
    3c80:	7e 7d       	andi	r23, 0xDE	; 222
    3c82:	7c 7c       	andi	r23, 0xCC	; 204
    3c84:	7b 7a       	andi	r23, 0xAB	; 171
    3c86:	7a 79       	andi	r23, 0x9A	; 154
    3c88:	79 78       	andi	r23, 0x89	; 137
    3c8a:	78 78       	andi	r23, 0x88	; 136
    3c8c:	78 78       	andi	r23, 0x88	; 136
    3c8e:	78 78       	andi	r23, 0x88	; 136
    3c90:	78 78       	andi	r23, 0x88	; 136
    3c92:	78 79       	andi	r23, 0x98	; 152
    3c94:	7a 7a       	andi	r23, 0xAA	; 170
    3c96:	7b 7c       	andi	r23, 0xCB	; 203
    3c98:	7d 7e       	andi	r23, 0xED	; 237
    3c9a:	7f 80       	ldd	r7, Y+7	; 0x07
    3c9c:	82 83       	std	Z+2, r24	; 0x02
    3c9e:	84 85       	ldd	r24, Z+12	; 0x0c
    3ca0:	86 86       	std	Z+14, r8	; 0x0e
    3ca2:	87 87       	std	Z+15, r24	; 0x0f
    3ca4:	88 88       	ldd	r8, Y+16	; 0x10
    3ca6:	88 87       	std	Y+8, r24	; 0x08
    3ca8:	87 86       	std	Z+15, r8	; 0x0f
    3caa:	86 85       	ldd	r24, Z+14	; 0x0e
    3cac:	84 84       	ldd	r8, Z+12	; 0x0c
    3cae:	83 82       	std	Z+3, r8	; 0x03
    3cb0:	81 80       	ldd	r8, Z+1	; 0x01
    3cb2:	7f 7f       	andi	r23, 0xFF	; 255
    3cb4:	7e 7d       	andi	r23, 0xDE	; 222
    3cb6:	7d 7c       	andi	r23, 0xCD	; 205
    3cb8:	7c 7b       	andi	r23, 0xBC	; 188
    3cba:	7b 7a       	andi	r23, 0xAB	; 171
    3cbc:	7a 79       	andi	r23, 0x9A	; 154
    3cbe:	79 79       	andi	r23, 0x99	; 153
    3cc0:	78 78       	andi	r23, 0x88	; 136
    3cc2:	78 78       	andi	r23, 0x88	; 136
    3cc4:	79 79       	andi	r23, 0x99	; 153
    3cc6:	7a 7a       	andi	r23, 0xAA	; 170
    3cc8:	7b 7c       	andi	r23, 0xCB	; 203
    3cca:	7d 7e       	andi	r23, 0xED	; 237
    3ccc:	7f 81       	ldd	r23, Y+7	; 0x07
    3cce:	82 83       	std	Z+2, r24	; 0x02
    3cd0:	85 86       	std	Z+13, r8	; 0x0d
    3cd2:	87 88       	ldd	r8, Z+23	; 0x17
    3cd4:	88 89       	ldd	r24, Y+16	; 0x10
    3cd6:	89 8a       	std	Y+17, r8	; 0x11
    3cd8:	8a 8a       	std	Y+18, r8	; 0x12
    3cda:	8a 89       	ldd	r24, Y+18	; 0x12
    3cdc:	89 88       	ldd	r8, Y+17	; 0x11
    3cde:	88 87       	std	Y+8, r24	; 0x08
    3ce0:	87 86       	std	Z+15, r8	; 0x0f
    3ce2:	85 84       	ldd	r8, Z+13	; 0x0d
    3ce4:	83 83       	std	Z+3, r24	; 0x03
    3ce6:	82 81       	ldd	r24, Z+2	; 0x02
    3ce8:	80 7f       	andi	r24, 0xF0	; 240
    3cea:	7e 7e       	andi	r23, 0xEE	; 238
    3cec:	7d 7c       	andi	r23, 0xCD	; 205
    3cee:	7b 7a       	andi	r23, 0xAB	; 171
    3cf0:	7a 79       	andi	r23, 0x9A	; 154
    3cf2:	79 78       	andi	r23, 0x89	; 137
    3cf4:	78 78       	andi	r23, 0x88	; 136
    3cf6:	78 79       	andi	r23, 0x98	; 152
    3cf8:	79 7a       	andi	r23, 0xA9	; 169
    3cfa:	7b 7c       	andi	r23, 0xCB	; 203
    3cfc:	7d 7e       	andi	r23, 0xED	; 237
    3cfe:	7f 81       	ldd	r23, Y+7	; 0x07
    3d00:	82 83       	std	Z+2, r24	; 0x02
    3d02:	84 85       	ldd	r24, Z+12	; 0x0c
    3d04:	86 87       	std	Z+14, r24	; 0x0e
    3d06:	87 87       	std	Z+15, r24	; 0x0f
    3d08:	87 87       	std	Z+15, r24	; 0x0f
    3d0a:	87 86       	std	Z+15, r8	; 0x0f
    3d0c:	85 84       	ldd	r8, Z+13	; 0x0d
    3d0e:	84 83       	std	Z+4, r24	; 0x04
    3d10:	82 81       	ldd	r24, Z+2	; 0x02
    3d12:	80 7f       	andi	r24, 0xF0	; 240
    3d14:	7e 7d       	andi	r23, 0xDE	; 222
    3d16:	7c 7b       	andi	r23, 0xBC	; 188
    3d18:	7b 7a       	andi	r23, 0xAB	; 171
    3d1a:	7a 79       	andi	r23, 0x9A	; 154
    3d1c:	79 78       	andi	r23, 0x89	; 137
    3d1e:	78 78       	andi	r23, 0x88	; 136
    3d20:	78 77       	andi	r23, 0x78	; 120
    3d22:	77 77       	andi	r23, 0x77	; 119
    3d24:	78 78       	andi	r23, 0x88	; 136
    3d26:	78 79       	andi	r23, 0x98	; 152
    3d28:	79 7a       	andi	r23, 0xA9	; 169
    3d2a:	7b 7c       	andi	r23, 0xCB	; 203
    3d2c:	7d 7e       	andi	r23, 0xED	; 237
    3d2e:	7f 80       	ldd	r7, Y+7	; 0x07
    3d30:	82 83       	std	Z+2, r24	; 0x02
    3d32:	84 85       	ldd	r24, Z+12	; 0x0c
    3d34:	86 86       	std	Z+14, r8	; 0x0e
    3d36:	87 87       	std	Z+15, r24	; 0x0f
    3d38:	88 88       	ldd	r8, Y+16	; 0x10
    3d3a:	88 87       	std	Y+8, r24	; 0x08
    3d3c:	87 86       	std	Z+15, r8	; 0x0f
    3d3e:	86 85       	ldd	r24, Z+14	; 0x0e
    3d40:	84 83       	std	Z+4, r24	; 0x04
    3d42:	82 82       	std	Z+2, r8	; 0x02
    3d44:	81 80       	ldd	r8, Z+1	; 0x01
    3d46:	7f 7e       	andi	r23, 0xEF	; 239
    3d48:	7e 7d       	andi	r23, 0xDE	; 222
    3d4a:	7c 7c       	andi	r23, 0xCC	; 204
    3d4c:	7b 7b       	andi	r23, 0xBB	; 187
    3d4e:	7a 7a       	andi	r23, 0xAA	; 170
    3d50:	79 79       	andi	r23, 0x99	; 153
    3d52:	78 78       	andi	r23, 0x88	; 136
    3d54:	78 77       	andi	r23, 0x78	; 120
    3d56:	77 77       	andi	r23, 0x77	; 119
    3d58:	77 78       	andi	r23, 0x87	; 135
    3d5a:	78 79       	andi	r23, 0x98	; 152
    3d5c:	79 7a       	andi	r23, 0xA9	; 169
    3d5e:	7b 7c       	andi	r23, 0xCB	; 203
    3d60:	7d 7e       	andi	r23, 0xED	; 237
    3d62:	7f 80       	ldd	r7, Y+7	; 0x07
    3d64:	81 82       	std	Z+1, r8	; 0x01
    3d66:	83 84       	ldd	r8, Z+11	; 0x0b
    3d68:	85 85       	ldd	r24, Z+13	; 0x0d
    3d6a:	86 86       	std	Z+14, r8	; 0x0e
    3d6c:	86 87       	std	Z+14, r24	; 0x0e
    3d6e:	87 87       	std	Z+15, r24	; 0x0f
    3d70:	86 86       	std	Z+14, r8	; 0x0e
    3d72:	86 85       	ldd	r24, Z+14	; 0x0e
    3d74:	85 85       	ldd	r24, Z+13	; 0x0d
    3d76:	84 84       	ldd	r8, Z+12	; 0x0c
    3d78:	83 82       	std	Z+3, r8	; 0x03
    3d7a:	82 81       	ldd	r24, Z+2	; 0x02
    3d7c:	80 80       	ld	r8, Z
    3d7e:	7f 7e       	andi	r23, 0xEF	; 239
    3d80:	7d 7d       	andi	r23, 0xDD	; 221
    3d82:	7c 7c       	andi	r23, 0xCC	; 204
    3d84:	7b 7b       	andi	r23, 0xBB	; 187
    3d86:	7a 7a       	andi	r23, 0xAA	; 170
    3d88:	7a 7b       	andi	r23, 0xBA	; 186
    3d8a:	7b 7b       	andi	r23, 0xBB	; 187
    3d8c:	7c 7d       	andi	r23, 0xDC	; 220
    3d8e:	7e 7f       	andi	r23, 0xFE	; 254
    3d90:	80 81       	ld	r24, Z
    3d92:	82 83       	std	Z+2, r24	; 0x02
    3d94:	83 84       	ldd	r8, Z+11	; 0x0b
    3d96:	85 85       	ldd	r24, Z+13	; 0x0d
    3d98:	85 86       	std	Z+13, r8	; 0x0d
    3d9a:	86 85       	ldd	r24, Z+14	; 0x0e
    3d9c:	85 85       	ldd	r24, Z+13	; 0x0d
    3d9e:	84 83       	std	Z+4, r24	; 0x04
    3da0:	83 82       	std	Z+3, r8	; 0x03
    3da2:	81 81       	ldd	r24, Z+1	; 0x01
    3da4:	80 7f       	andi	r24, 0xF0	; 240
    3da6:	7f 7e       	andi	r23, 0xEF	; 239
    3da8:	7d 7d       	andi	r23, 0xDD	; 221
    3daa:	7c 7c       	andi	r23, 0xCC	; 204
    3dac:	7b 7b       	andi	r23, 0xBB	; 187
    3dae:	7a 7a       	andi	r23, 0xAA	; 170
    3db0:	79 79       	andi	r23, 0x99	; 153
    3db2:	79 78       	andi	r23, 0x89	; 137
    3db4:	78 78       	andi	r23, 0x88	; 136
    3db6:	78 79       	andi	r23, 0x98	; 152
    3db8:	79 7a       	andi	r23, 0xA9	; 169
    3dba:	7a 7b       	andi	r23, 0xBA	; 186
    3dbc:	7c 7d       	andi	r23, 0xDC	; 220
    3dbe:	7e 7f       	andi	r23, 0xFE	; 254
    3dc0:	81 82       	std	Z+1, r8	; 0x01
    3dc2:	83 84       	ldd	r8, Z+11	; 0x0b
    3dc4:	85 86       	std	Z+13, r8	; 0x0d
    3dc6:	86 87       	std	Z+14, r24	; 0x0e
    3dc8:	87 87       	std	Z+15, r24	; 0x0f
    3dca:	87 87       	std	Z+15, r24	; 0x0f
    3dcc:	86 86       	std	Z+14, r8	; 0x0e
    3dce:	85 84       	ldd	r8, Z+13	; 0x0d
    3dd0:	84 83       	std	Z+4, r24	; 0x04
    3dd2:	82 82       	std	Z+2, r8	; 0x02
    3dd4:	81 81       	ldd	r24, Z+1	; 0x01
    3dd6:	80 80       	ld	r8, Z
    3dd8:	7f 7f       	andi	r23, 0xFF	; 255
    3dda:	7f 7f       	andi	r23, 0xFF	; 255
    3ddc:	7e 7e       	andi	r23, 0xEE	; 238
    3dde:	7e 7d       	andi	r23, 0xDE	; 222
    3de0:	7d 7c       	andi	r23, 0xCD	; 205
    3de2:	7c 7b       	andi	r23, 0xBC	; 188
    3de4:	7b 7a       	andi	r23, 0xAB	; 171
    3de6:	79 79       	andi	r23, 0x99	; 153
    3de8:	79 79       	andi	r23, 0x99	; 153
    3dea:	79 79       	andi	r23, 0x99	; 153
    3dec:	79 79       	andi	r23, 0x99	; 153
    3dee:	7a 7b       	andi	r23, 0xBA	; 186
    3df0:	7c 7d       	andi	r23, 0xDC	; 220
    3df2:	7e 7f       	andi	r23, 0xFE	; 254
    3df4:	80 81       	ld	r24, Z
    3df6:	82 83       	std	Z+2, r24	; 0x02
    3df8:	84 84       	ldd	r8, Z+12	; 0x0c
    3dfa:	85 85       	ldd	r24, Z+13	; 0x0d
    3dfc:	85 85       	ldd	r24, Z+13	; 0x0d
    3dfe:	85 85       	ldd	r24, Z+13	; 0x0d
    3e00:	84 84       	ldd	r8, Z+12	; 0x0c
    3e02:	83 83       	std	Z+3, r24	; 0x03
    3e04:	82 82       	std	Z+2, r8	; 0x02
    3e06:	81 81       	ldd	r24, Z+1	; 0x01
    3e08:	80 80       	ld	r8, Z
    3e0a:	7f 7f       	andi	r23, 0xFF	; 255
    3e0c:	7e 7e       	andi	r23, 0xEE	; 238
    3e0e:	7d 7d       	andi	r23, 0xDD	; 221
    3e10:	7c 7c       	andi	r23, 0xCC	; 204
    3e12:	7c 7b       	andi	r23, 0xBC	; 188
    3e14:	7b 7a       	andi	r23, 0xAB	; 171
    3e16:	7a 7a       	andi	r23, 0xAA	; 170
    3e18:	7a 7a       	andi	r23, 0xAA	; 170
    3e1a:	7b 7b       	andi	r23, 0xBB	; 187
    3e1c:	7c 7d       	andi	r23, 0xDC	; 220
    3e1e:	7e 7f       	andi	r23, 0xFE	; 254
    3e20:	80 81       	ld	r24, Z
    3e22:	82 83       	std	Z+2, r24	; 0x02
    3e24:	84 85       	ldd	r24, Z+12	; 0x0c
    3e26:	86 87       	std	Z+14, r24	; 0x0e
    3e28:	88 88       	ldd	r8, Y+16	; 0x10
    3e2a:	88 88       	ldd	r8, Y+16	; 0x10
    3e2c:	88 88       	ldd	r8, Y+16	; 0x10
    3e2e:	87 87       	std	Z+15, r24	; 0x0f
    3e30:	86 85       	ldd	r24, Z+14	; 0x0e
    3e32:	84 83       	std	Z+4, r24	; 0x04
    3e34:	82 81       	ldd	r24, Z+2	; 0x02
    3e36:	80 80       	ld	r8, Z
    3e38:	7f 7e       	andi	r23, 0xEF	; 239
    3e3a:	7d 7c       	andi	r23, 0xCD	; 205
    3e3c:	7c 7b       	andi	r23, 0xBC	; 188
    3e3e:	7a 7a       	andi	r23, 0xAA	; 170
    3e40:	79 79       	andi	r23, 0x99	; 153
    3e42:	79 79       	andi	r23, 0x99	; 153
    3e44:	79 79       	andi	r23, 0x99	; 153
    3e46:	79 79       	andi	r23, 0x99	; 153
    3e48:	7a 7a       	andi	r23, 0xAA	; 170
    3e4a:	7b 7c       	andi	r23, 0xCB	; 203
    3e4c:	7c 7d       	andi	r23, 0xDC	; 220
    3e4e:	7f 80       	ldd	r7, Y+7	; 0x07
    3e50:	81 82       	std	Z+1, r8	; 0x01
    3e52:	83 84       	ldd	r8, Z+11	; 0x0b
    3e54:	85 86       	std	Z+13, r8	; 0x0d
    3e56:	87 87       	std	Z+15, r24	; 0x0f
    3e58:	88 88       	ldd	r8, Y+16	; 0x10
    3e5a:	88 88       	ldd	r8, Y+16	; 0x10
    3e5c:	88 88       	ldd	r8, Y+16	; 0x10
    3e5e:	87 86       	std	Z+15, r8	; 0x0f
    3e60:	86 85       	ldd	r24, Z+14	; 0x0e
    3e62:	84 83       	std	Z+4, r24	; 0x04
    3e64:	83 82       	std	Z+3, r8	; 0x03
    3e66:	81 80       	ldd	r8, Z+1	; 0x01
    3e68:	80 7f       	andi	r24, 0xF0	; 240
    3e6a:	7f 7e       	andi	r23, 0xEF	; 239
    3e6c:	7d 7d       	andi	r23, 0xDD	; 221
    3e6e:	7c 7c       	andi	r23, 0xCC	; 204
    3e70:	7b 7a       	andi	r23, 0xAB	; 171
    3e72:	7a 79       	andi	r23, 0x9A	; 154
    3e74:	79 78       	andi	r23, 0x89	; 137
    3e76:	78 78       	andi	r23, 0x88	; 136
    3e78:	77 77       	andi	r23, 0x77	; 119
    3e7a:	78 78       	andi	r23, 0x88	; 136
    3e7c:	78 79       	andi	r23, 0x98	; 152
    3e7e:	7a 7b       	andi	r23, 0xBA	; 186
    3e80:	7c 7d       	andi	r23, 0xDC	; 220
    3e82:	7e 7f       	andi	r23, 0xFE	; 254
    3e84:	80 82       	st	Z, r8
    3e86:	83 84       	ldd	r8, Z+11	; 0x0b
    3e88:	85 85       	ldd	r24, Z+13	; 0x0d
    3e8a:	86 86       	std	Z+14, r8	; 0x0e
    3e8c:	87 87       	std	Z+15, r24	; 0x0f
    3e8e:	87 87       	std	Z+15, r24	; 0x0f
    3e90:	86 86       	std	Z+14, r8	; 0x0e
    3e92:	85 85       	ldd	r24, Z+13	; 0x0d
    3e94:	84 84       	ldd	r8, Z+12	; 0x0c
    3e96:	83 82       	std	Z+3, r8	; 0x03
    3e98:	82 81       	ldd	r24, Z+2	; 0x02
    3e9a:	80 80       	ld	r8, Z
    3e9c:	7f 7e       	andi	r23, 0xEF	; 239
    3e9e:	7e 7d       	andi	r23, 0xDE	; 222
    3ea0:	7c 7b       	andi	r23, 0xBC	; 188
    3ea2:	7a 7a       	andi	r23, 0xAA	; 170
    3ea4:	79 78       	andi	r23, 0x89	; 137
    3ea6:	78 77       	andi	r23, 0x78	; 120
    3ea8:	77 77       	andi	r23, 0x77	; 119
    3eaa:	77 77       	andi	r23, 0x77	; 119
    3eac:	77 78       	andi	r23, 0x87	; 135
    3eae:	79 7a       	andi	r23, 0xA9	; 169
    3eb0:	7b 7c       	andi	r23, 0xCB	; 203
    3eb2:	7d 7f       	andi	r23, 0xFD	; 253
    3eb4:	80 82       	st	Z, r8
    3eb6:	83 85       	ldd	r24, Z+11	; 0x0b
    3eb8:	86 87       	std	Z+14, r24	; 0x0e
    3eba:	88 88       	ldd	r8, Y+16	; 0x10
    3ebc:	89 89       	ldd	r24, Y+17	; 0x11
    3ebe:	89 89       	ldd	r24, Y+17	; 0x11
    3ec0:	88 88       	ldd	r8, Y+16	; 0x10
    3ec2:	87 86       	std	Z+15, r8	; 0x0f
    3ec4:	85 84       	ldd	r8, Z+13	; 0x0d
    3ec6:	84 83       	std	Z+4, r24	; 0x04
    3ec8:	82 81       	ldd	r24, Z+2	; 0x02
    3eca:	80 80       	ld	r8, Z
    3ecc:	7f 7e       	andi	r23, 0xEF	; 239
    3ece:	7e 7d       	andi	r23, 0xDE	; 222
    3ed0:	7d 7c       	andi	r23, 0xCD	; 205
    3ed2:	7c 7b       	andi	r23, 0xBC	; 188
    3ed4:	7b 7a       	andi	r23, 0xAB	; 171
    3ed6:	7a 7a       	andi	r23, 0xAA	; 170
    3ed8:	79 79       	andi	r23, 0x99	; 153
    3eda:	79 7a       	andi	r23, 0xA9	; 169
    3edc:	7a 7a       	andi	r23, 0xAA	; 170
    3ede:	7b 7c       	andi	r23, 0xCB	; 203
    3ee0:	7c 7d       	andi	r23, 0xDC	; 220
    3ee2:	7f 80       	ldd	r7, Y+7	; 0x07
    3ee4:	81 82       	std	Z+1, r8	; 0x01
    3ee6:	83 84       	ldd	r8, Z+11	; 0x0b
    3ee8:	85 86       	std	Z+13, r8	; 0x0d
    3eea:	87 88       	ldd	r8, Z+23	; 0x17
    3eec:	88 88       	ldd	r8, Y+16	; 0x10
    3eee:	88 88       	ldd	r8, Y+16	; 0x10
    3ef0:	88 88       	ldd	r8, Y+16	; 0x10
    3ef2:	87 87       	std	Z+15, r24	; 0x0f
    3ef4:	86 85       	ldd	r24, Z+14	; 0x0e
    3ef6:	85 84       	ldd	r8, Z+13	; 0x0d
    3ef8:	83 82       	std	Z+3, r8	; 0x03
    3efa:	82 81       	ldd	r24, Z+2	; 0x02
    3efc:	80 80       	ld	r8, Z
    3efe:	7f 7e       	andi	r23, 0xEF	; 239
    3f00:	7e 7d       	andi	r23, 0xDE	; 222
    3f02:	7c 7b       	andi	r23, 0xBC	; 188
    3f04:	7b 7a       	andi	r23, 0xAB	; 171
    3f06:	79 79       	andi	r23, 0x99	; 153
    3f08:	78 77       	andi	r23, 0x78	; 120
    3f0a:	77 77       	andi	r23, 0x77	; 119
    3f0c:	77 77       	andi	r23, 0x77	; 119
    3f0e:	77 77       	andi	r23, 0x77	; 119
    3f10:	78 78       	andi	r23, 0x88	; 136
    3f12:	79 7a       	andi	r23, 0xA9	; 169
    3f14:	7b 7c       	andi	r23, 0xCB	; 203
    3f16:	7d 7f       	andi	r23, 0xFD	; 253
    3f18:	80 81       	ld	r24, Z
    3f1a:	82 83       	std	Z+2, r24	; 0x02
    3f1c:	83 84       	ldd	r8, Z+11	; 0x0b
    3f1e:	85 85       	ldd	r24, Z+13	; 0x0d
    3f20:	85 85       	ldd	r24, Z+13	; 0x0d
    3f22:	85 85       	ldd	r24, Z+13	; 0x0d
    3f24:	85 85       	ldd	r24, Z+13	; 0x0d
    3f26:	85 84       	ldd	r8, Z+13	; 0x0d
    3f28:	84 84       	ldd	r8, Z+12	; 0x0c
    3f2a:	83 83       	std	Z+3, r24	; 0x03
    3f2c:	82 82       	std	Z+2, r8	; 0x02
    3f2e:	81 80       	ldd	r8, Z+1	; 0x01
    3f30:	80 7f       	andi	r24, 0xF0	; 240
    3f32:	7e 7d       	andi	r23, 0xDE	; 222
    3f34:	7d 7c       	andi	r23, 0xCD	; 205
    3f36:	7b 7a       	andi	r23, 0xAB	; 171
    3f38:	7a 79       	andi	r23, 0x9A	; 154
    3f3a:	79 78       	andi	r23, 0x89	; 137
    3f3c:	78 78       	andi	r23, 0x88	; 136
    3f3e:	78 78       	andi	r23, 0x88	; 136
    3f40:	79 7a       	andi	r23, 0xA9	; 169
    3f42:	7a 7b       	andi	r23, 0xBA	; 186
    3f44:	7c 7d       	andi	r23, 0xDC	; 220
    3f46:	7e 7f       	andi	r23, 0xFE	; 254
    3f48:	81 82       	std	Z+1, r8	; 0x01
    3f4a:	82 83       	std	Z+2, r24	; 0x02
    3f4c:	84 84       	ldd	r8, Z+12	; 0x0c
    3f4e:	85 85       	ldd	r24, Z+13	; 0x0d
    3f50:	85 85       	ldd	r24, Z+13	; 0x0d
    3f52:	85 84       	ldd	r8, Z+13	; 0x0d
    3f54:	84 84       	ldd	r8, Z+12	; 0x0c
    3f56:	83 83       	std	Z+3, r24	; 0x03
    3f58:	82 82       	std	Z+2, r8	; 0x02
    3f5a:	81 81       	ldd	r24, Z+1	; 0x01
    3f5c:	80 80       	ld	r8, Z
    3f5e:	7f 7f       	andi	r23, 0xFF	; 255
    3f60:	7e 7e       	andi	r23, 0xEE	; 238
    3f62:	7d 7d       	andi	r23, 0xDD	; 221
    3f64:	7d 7c       	andi	r23, 0xCD	; 205
    3f66:	7c 7b       	andi	r23, 0xBC	; 188
    3f68:	7b 7b       	andi	r23, 0xBB	; 187
    3f6a:	7b 7b       	andi	r23, 0xBB	; 187
    3f6c:	7b 7b       	andi	r23, 0xBB	; 187
    3f6e:	7b 7b       	andi	r23, 0xBB	; 187
    3f70:	7c 7c       	andi	r23, 0xCC	; 204
    3f72:	7d 7e       	andi	r23, 0xED	; 237
    3f74:	7f 80       	ldd	r7, Y+7	; 0x07
    3f76:	81 82       	std	Z+1, r8	; 0x01
    3f78:	83 83       	std	Z+3, r24	; 0x03
    3f7a:	84 85       	ldd	r24, Z+12	; 0x0c
    3f7c:	85 86       	std	Z+13, r8	; 0x0d
    3f7e:	86 86       	std	Z+14, r8	; 0x0e
    3f80:	86 86       	std	Z+14, r8	; 0x0e
    3f82:	85 85       	ldd	r24, Z+13	; 0x0d
    3f84:	85 84       	ldd	r8, Z+13	; 0x0d
    3f86:	84 83       	std	Z+4, r24	; 0x04
    3f88:	83 83       	std	Z+3, r24	; 0x03
    3f8a:	82 82       	std	Z+2, r8	; 0x02
    3f8c:	82 81       	ldd	r24, Z+2	; 0x02
    3f8e:	81 81       	ldd	r24, Z+1	; 0x01
    3f90:	80 80       	ld	r8, Z
    3f92:	7f 7f       	andi	r23, 0xFF	; 255
    3f94:	7e 7e       	andi	r23, 0xEE	; 238
    3f96:	7d 7d       	andi	r23, 0xDD	; 221
    3f98:	7c 7b       	andi	r23, 0xBC	; 188
    3f9a:	7b 7a       	andi	r23, 0xAB	; 171
    3f9c:	7a 7a       	andi	r23, 0xAA	; 170
    3f9e:	7a 7a       	andi	r23, 0xAA	; 170
    3fa0:	7a 7a       	andi	r23, 0xAA	; 170
    3fa2:	7b 7c       	andi	r23, 0xCB	; 203
    3fa4:	7c 7d       	andi	r23, 0xDC	; 220
    3fa6:	7e 7f       	andi	r23, 0xFE	; 254
    3fa8:	80 81       	ld	r24, Z
    3faa:	82 83       	std	Z+2, r24	; 0x02
    3fac:	83 84       	ldd	r8, Z+11	; 0x0b
    3fae:	84 85       	ldd	r24, Z+12	; 0x0c
    3fb0:	85 85       	ldd	r24, Z+13	; 0x0d
    3fb2:	85 85       	ldd	r24, Z+13	; 0x0d
    3fb4:	85 84       	ldd	r8, Z+13	; 0x0d
    3fb6:	84 84       	ldd	r8, Z+12	; 0x0c
    3fb8:	83 83       	std	Z+3, r24	; 0x03
    3fba:	82 82       	std	Z+2, r8	; 0x02
    3fbc:	81 80       	ldd	r8, Z+1	; 0x01
    3fbe:	80 7f       	andi	r24, 0xF0	; 240
    3fc0:	7e 7e       	andi	r23, 0xEE	; 238
    3fc2:	7d 7c       	andi	r23, 0xCD	; 205
    3fc4:	7c 7b       	andi	r23, 0xBC	; 188
    3fc6:	7a 79       	andi	r23, 0x9A	; 154
    3fc8:	79 78       	andi	r23, 0x89	; 137
    3fca:	78 78       	andi	r23, 0x88	; 136
    3fcc:	77 77       	andi	r23, 0x77	; 119
    3fce:	77 78       	andi	r23, 0x87	; 135
    3fd0:	78 79       	andi	r23, 0x98	; 152
    3fd2:	7a 7a       	andi	r23, 0xAA	; 170
    3fd4:	7b 7c       	andi	r23, 0xCB	; 203
    3fd6:	7e 7f       	andi	r23, 0xFE	; 254
    3fd8:	80 81       	ld	r24, Z
    3fda:	82 83       	std	Z+2, r24	; 0x02
    3fdc:	84 84       	ldd	r8, Z+12	; 0x0c
    3fde:	85 85       	ldd	r24, Z+13	; 0x0d
    3fe0:	85 85       	ldd	r24, Z+13	; 0x0d
    3fe2:	85 85       	ldd	r24, Z+13	; 0x0d
    3fe4:	85 84       	ldd	r8, Z+13	; 0x0d
    3fe6:	84 84       	ldd	r8, Z+12	; 0x0c
    3fe8:	84 84       	ldd	r8, Z+12	; 0x0c
    3fea:	83 83       	std	Z+3, r24	; 0x03
    3fec:	83 83       	std	Z+3, r24	; 0x03
    3fee:	83 83       	std	Z+3, r24	; 0x03
    3ff0:	84 84       	ldd	r8, Z+12	; 0x0c
    3ff2:	83 83       	std	Z+3, r24	; 0x03
    3ff4:	83 83       	std	Z+3, r24	; 0x03
    3ff6:	82 82       	std	Z+2, r8	; 0x02
    3ff8:	81 81       	ldd	r24, Z+1	; 0x01
    3ffa:	80 7f       	andi	r24, 0xF0	; 240
    3ffc:	7e 7d       	andi	r23, 0xDE	; 222
    3ffe:	7d 7c       	andi	r23, 0xCD	; 205
    4000:	7b 7b       	andi	r23, 0xBB	; 187
    4002:	7a 7a       	andi	r23, 0xAA	; 170
    4004:	7a 7a       	andi	r23, 0xAA	; 170
    4006:	7a 7a       	andi	r23, 0xAA	; 170
    4008:	7a 7a       	andi	r23, 0xAA	; 170
    400a:	7a 7a       	andi	r23, 0xAA	; 170
    400c:	7a 7a       	andi	r23, 0xAA	; 170
    400e:	7a 79       	andi	r23, 0x9A	; 154
    4010:	79 79       	andi	r23, 0x99	; 153
    4012:	78 78       	andi	r23, 0x88	; 136
    4014:	77 77       	andi	r23, 0x77	; 119
    4016:	77 76       	andi	r23, 0x67	; 103
    4018:	76 76       	andi	r23, 0x66	; 102
    401a:	76 76       	andi	r23, 0x66	; 102
    401c:	76 76       	andi	r23, 0x66	; 102
    401e:	76 76       	andi	r23, 0x66	; 102
    4020:	76 77       	andi	r23, 0x76	; 118
    4022:	77 78       	andi	r23, 0x87	; 135
    4024:	78 78       	andi	r23, 0x88	; 136
    4026:	79 79       	andi	r23, 0x99	; 153
    4028:	7a 7b       	andi	r23, 0xBA	; 186
    402a:	7b 7c       	andi	r23, 0xCB	; 203
    402c:	7d 7e       	andi	r23, 0xED	; 237
    402e:	7e 7f       	andi	r23, 0xFE	; 254
    4030:	81 82       	std	Z+1, r8	; 0x01
    4032:	83 84       	ldd	r8, Z+11	; 0x0b
    4034:	86 87       	std	Z+14, r24	; 0x0e
    4036:	88 8a       	std	Y+16, r8	; 0x10
    4038:	8b 8c       	ldd	r8, Y+27	; 0x1b
    403a:	8d 8f       	std	Y+29, r24	; 0x1d
    403c:	90 91 91 92 	lds	r25, 0x9291
    4040:	93 94       	inc	r9
    4042:	94 94       	.word	0x9494	; ????
    4044:	95 95       	asr	r25
    4046:	95 95       	asr	r25
    4048:	95 94       	asr	r9
    404a:	94 93       	xch	Z, r25
    404c:	92 91       	ld	r25, -Z
    404e:	90 8f       	std	Z+24, r25	; 0x18
    4050:	8d 8b       	std	Y+21, r24	; 0x15
    4052:	89 87       	std	Y+9, r24	; 0x09
    4054:	85 83       	std	Z+5, r24	; 0x05
    4056:	80 7e       	andi	r24, 0xE0	; 224
    4058:	7c 79       	andi	r23, 0x9C	; 156
    405a:	77 75       	andi	r23, 0x57	; 87
    405c:	73 72       	andi	r23, 0x23	; 35
    405e:	70 6f       	ori	r23, 0xF0	; 240
    4060:	6f 6e       	ori	r22, 0xEF	; 239
    4062:	6e 6e       	ori	r22, 0xEE	; 238
    4064:	6f 70       	andi	r22, 0x0F	; 15
    4066:	71 72       	andi	r23, 0x21	; 33
    4068:	74 75       	andi	r23, 0x54	; 84
    406a:	77 78       	andi	r23, 0x87	; 135
    406c:	7a 7c       	andi	r23, 0xCA	; 202
    406e:	7d 7f       	andi	r23, 0xFD	; 253
    4070:	80 81       	ld	r24, Z
    4072:	82 83       	std	Z+2, r24	; 0x02
    4074:	83 84       	ldd	r8, Z+11	; 0x0b
    4076:	84 84       	ldd	r8, Z+12	; 0x0c
    4078:	84 83       	std	Z+4, r24	; 0x04
    407a:	83 83       	std	Z+3, r24	; 0x03
    407c:	82 81       	ldd	r24, Z+2	; 0x02
    407e:	81 80       	ldd	r8, Z+1	; 0x01
    4080:	7f 7e       	andi	r23, 0xEF	; 239
    4082:	7e 7d       	andi	r23, 0xDE	; 222
    4084:	7c 7c       	andi	r23, 0xCC	; 204
    4086:	7b 7a       	andi	r23, 0xAB	; 171
    4088:	7a 79       	andi	r23, 0x9A	; 154
    408a:	79 78       	andi	r23, 0x89	; 137
    408c:	78 78       	andi	r23, 0x88	; 136
    408e:	78 78       	andi	r23, 0x88	; 136
    4090:	78 79       	andi	r23, 0x98	; 152
    4092:	79 7a       	andi	r23, 0xA9	; 169
    4094:	7b 7c       	andi	r23, 0xCB	; 203
    4096:	7e 7f       	andi	r23, 0xFE	; 254
    4098:	81 82       	std	Z+1, r8	; 0x01
    409a:	84 85       	ldd	r24, Z+12	; 0x0c
    409c:	87 88       	ldd	r8, Z+23	; 0x17
    409e:	89 8a       	std	Y+17, r8	; 0x11
    40a0:	8a 8b       	std	Y+18, r24	; 0x12
    40a2:	8b 8a       	std	Y+19, r8	; 0x13
    40a4:	8a 89       	ldd	r24, Y+18	; 0x12
    40a6:	88 87       	std	Y+8, r24	; 0x08
    40a8:	86 85       	ldd	r24, Z+14	; 0x0e
    40aa:	83 81       	ldd	r24, Z+3	; 0x03
    40ac:	80 7e       	andi	r24, 0xE0	; 224
    40ae:	7d 7b       	andi	r23, 0xBD	; 189
    40b0:	79 78       	andi	r23, 0x89	; 137
    40b2:	76 75       	andi	r23, 0x56	; 86
    40b4:	74 73       	andi	r23, 0x34	; 52
    40b6:	72 71       	andi	r23, 0x12	; 18
    40b8:	70 6f       	ori	r23, 0xF0	; 240
    40ba:	6f 6e       	ori	r22, 0xEF	; 239
    40bc:	6e 6e       	ori	r22, 0xEE	; 238
    40be:	6e 6e       	ori	r22, 0xEE	; 238
    40c0:	6f 6f       	ori	r22, 0xFF	; 255
    40c2:	70 71       	andi	r23, 0x10	; 16
    40c4:	72 73       	andi	r23, 0x32	; 50
    40c6:	75 76       	andi	r23, 0x65	; 101
    40c8:	78 7a       	andi	r23, 0xA8	; 168
    40ca:	7b 7d       	andi	r23, 0xDB	; 219
    40cc:	7f 80       	ldd	r7, Y+7	; 0x07
    40ce:	82 83       	std	Z+2, r24	; 0x02
    40d0:	85 86       	std	Z+13, r8	; 0x0d
    40d2:	87 88       	ldd	r8, Z+23	; 0x17
    40d4:	89 8a       	std	Y+17, r8	; 0x11
    40d6:	8a 8a       	std	Y+18, r8	; 0x12
    40d8:	8b 8b       	std	Y+19, r24	; 0x13
    40da:	8b 8b       	std	Y+19, r24	; 0x13
    40dc:	8b 8b       	std	Y+19, r24	; 0x13
    40de:	8b 8a       	std	Y+19, r8	; 0x13
    40e0:	8a 8a       	std	Y+18, r8	; 0x12
    40e2:	89 89       	ldd	r24, Y+17	; 0x11
    40e4:	88 88       	ldd	r8, Y+16	; 0x10
    40e6:	87 86       	std	Z+15, r8	; 0x0f
    40e8:	86 85       	ldd	r24, Z+14	; 0x0e
    40ea:	84 84       	ldd	r8, Z+12	; 0x0c
    40ec:	83 82       	std	Z+3, r8	; 0x03
    40ee:	82 81       	ldd	r24, Z+2	; 0x02
    40f0:	81 81       	ldd	r24, Z+1	; 0x01
    40f2:	81 81       	ldd	r24, Z+1	; 0x01
    40f4:	81 81       	ldd	r24, Z+1	; 0x01
    40f6:	81 82       	std	Z+1, r8	; 0x01
    40f8:	82 83       	std	Z+2, r24	; 0x02
    40fa:	83 84       	ldd	r8, Z+11	; 0x0b
    40fc:	84 85       	ldd	r24, Z+12	; 0x0c
    40fe:	85 85       	ldd	r24, Z+13	; 0x0d
    4100:	86 86       	std	Z+14, r8	; 0x0e
    4102:	86 86       	std	Z+14, r8	; 0x0e
    4104:	85 85       	ldd	r24, Z+13	; 0x0d
    4106:	84 84       	ldd	r8, Z+12	; 0x0c
    4108:	83 83       	std	Z+3, r24	; 0x03
    410a:	82 81       	ldd	r24, Z+2	; 0x02
    410c:	81 80       	ldd	r8, Z+1	; 0x01
    410e:	7f 7f       	andi	r23, 0xFF	; 255
    4110:	7e 7e       	andi	r23, 0xEE	; 238
    4112:	7e 7d       	andi	r23, 0xDE	; 222
    4114:	7d 7c       	andi	r23, 0xCD	; 205
    4116:	7c 7c       	andi	r23, 0xCC	; 204
    4118:	7b 7b       	andi	r23, 0xBB	; 187
    411a:	7b 7b       	andi	r23, 0xBB	; 187
    411c:	7a 7a       	andi	r23, 0xAA	; 170
    411e:	7a 7a       	andi	r23, 0xAA	; 170
    4120:	79 79       	andi	r23, 0x99	; 153
    4122:	79 7a       	andi	r23, 0xA9	; 169
    4124:	7a 7a       	andi	r23, 0xAA	; 170
    4126:	7b 7b       	andi	r23, 0xBB	; 187
    4128:	7c 7d       	andi	r23, 0xDC	; 220
    412a:	7e 7e       	andi	r23, 0xEE	; 238
    412c:	7f 80       	ldd	r7, Y+7	; 0x07
    412e:	81 82       	std	Z+1, r8	; 0x01
    4130:	83 83       	std	Z+3, r24	; 0x03
    4132:	84 84       	ldd	r8, Z+12	; 0x0c
    4134:	85 85       	ldd	r24, Z+13	; 0x0d
    4136:	85 85       	ldd	r24, Z+13	; 0x0d
    4138:	85 85       	ldd	r24, Z+13	; 0x0d
    413a:	85 84       	ldd	r8, Z+13	; 0x0d
    413c:	84 84       	ldd	r8, Z+12	; 0x0c
    413e:	83 83       	std	Z+3, r24	; 0x03
    4140:	82 82       	std	Z+2, r8	; 0x02
    4142:	81 81       	ldd	r24, Z+1	; 0x01
    4144:	80 7f       	andi	r24, 0xF0	; 240
    4146:	7f 7e       	andi	r23, 0xEF	; 239
    4148:	7d 7c       	andi	r23, 0xCD	; 205
    414a:	7b 7a       	andi	r23, 0xAB	; 171
    414c:	7a 79       	andi	r23, 0x9A	; 154
    414e:	78 77       	andi	r23, 0x78	; 120
    4150:	76 76       	andi	r23, 0x66	; 102
    4152:	75 75       	andi	r23, 0x55	; 85
    4154:	75 75       	andi	r23, 0x55	; 85
    4156:	75 75       	andi	r23, 0x55	; 85
    4158:	75 76       	andi	r23, 0x65	; 101
    415a:	77 77       	andi	r23, 0x77	; 119
    415c:	78 79       	andi	r23, 0x98	; 152
    415e:	79 7a       	andi	r23, 0xA9	; 169
    4160:	7b 7b       	andi	r23, 0xBB	; 187
    4162:	7c 7c       	andi	r23, 0xCC	; 204
    4164:	7c 7c       	andi	r23, 0xCC	; 204
    4166:	7c 7c       	andi	r23, 0xCC	; 204
    4168:	7c 7c       	andi	r23, 0xCC	; 204
    416a:	7c 7c       	andi	r23, 0xCC	; 204
    416c:	7c 7c       	andi	r23, 0xCC	; 204
    416e:	7c 7c       	andi	r23, 0xCC	; 204
    4170:	7c 7c       	andi	r23, 0xCC	; 204
    4172:	7c 7c       	andi	r23, 0xCC	; 204
    4174:	7c 7c       	andi	r23, 0xCC	; 204
    4176:	7c 7c       	andi	r23, 0xCC	; 204
    4178:	7c 7c       	andi	r23, 0xCC	; 204
    417a:	7c 7c       	andi	r23, 0xCC	; 204
    417c:	7c 7c       	andi	r23, 0xCC	; 204
    417e:	7b 7b       	andi	r23, 0xBB	; 187
    4180:	7b 7c       	andi	r23, 0xCB	; 203
    4182:	7c 7c       	andi	r23, 0xCC	; 204
    4184:	7d 7e       	andi	r23, 0xED	; 237
    4186:	7f 80       	ldd	r7, Y+7	; 0x07
    4188:	81 82       	std	Z+1, r8	; 0x01
    418a:	83 85       	ldd	r24, Z+11	; 0x0b
    418c:	86 88       	ldd	r8, Z+22	; 0x16
    418e:	89 8a       	std	Y+17, r8	; 0x11
    4190:	8b 8c       	ldd	r8, Y+27	; 0x1b
    4192:	8d 8d       	ldd	r24, Y+29	; 0x1d
    4194:	8e 8e       	std	Y+30, r8	; 0x1e
    4196:	8d 8d       	ldd	r24, Y+29	; 0x1d
    4198:	8d 8c       	ldd	r8, Y+29	; 0x1d
    419a:	8b 8a       	std	Y+19, r8	; 0x13
    419c:	89 88       	ldd	r8, Y+17	; 0x11
    419e:	87 86       	std	Z+15, r8	; 0x0f
    41a0:	85 84       	ldd	r8, Z+13	; 0x0d
    41a2:	83 83       	std	Z+3, r24	; 0x03
    41a4:	82 81       	ldd	r24, Z+2	; 0x02
    41a6:	80 80       	ld	r8, Z
    41a8:	7f 7e       	andi	r23, 0xEF	; 239
    41aa:	7e 7d       	andi	r23, 0xDE	; 222
    41ac:	7d 7d       	andi	r23, 0xDD	; 221
    41ae:	7c 7c       	andi	r23, 0xCC	; 204
    41b0:	7c 7c       	andi	r23, 0xCC	; 204
    41b2:	7c 7d       	andi	r23, 0xDC	; 220
    41b4:	7d 7e       	andi	r23, 0xED	; 237
    41b6:	7e 7f       	andi	r23, 0xFE	; 254
    41b8:	80 80       	ld	r8, Z
    41ba:	81 82       	std	Z+1, r8	; 0x01
    41bc:	83 84       	ldd	r8, Z+11	; 0x0b
    41be:	85 85       	ldd	r24, Z+13	; 0x0d
    41c0:	86 86       	std	Z+14, r8	; 0x0e
    41c2:	87 87       	std	Z+15, r24	; 0x0f
    41c4:	87 87       	std	Z+15, r24	; 0x0f
    41c6:	86 86       	std	Z+14, r8	; 0x0e
    41c8:	86 85       	ldd	r24, Z+14	; 0x0e
    41ca:	85 84       	ldd	r8, Z+13	; 0x0d
    41cc:	83 83       	std	Z+3, r24	; 0x03
    41ce:	82 81       	ldd	r24, Z+2	; 0x02
    41d0:	81 80       	ldd	r8, Z+1	; 0x01
    41d2:	7f 7f       	andi	r23, 0xFF	; 255
    41d4:	7e 7e       	andi	r23, 0xEE	; 238
    41d6:	7d 7c       	andi	r23, 0xCD	; 205
    41d8:	7c 7b       	andi	r23, 0xBC	; 188
    41da:	7a 7a       	andi	r23, 0xAA	; 170
    41dc:	79 79       	andi	r23, 0x99	; 153
    41de:	78 78       	andi	r23, 0x88	; 136
    41e0:	78 77       	andi	r23, 0x78	; 120
    41e2:	77 78       	andi	r23, 0x87	; 135
    41e4:	78 78       	andi	r23, 0x88	; 136
    41e6:	79 7a       	andi	r23, 0xA9	; 169
    41e8:	7b 7c       	andi	r23, 0xCB	; 203
    41ea:	7d 7e       	andi	r23, 0xED	; 237
    41ec:	7f 80       	ldd	r7, Y+7	; 0x07
    41ee:	81 82       	std	Z+1, r8	; 0x01
    41f0:	83 84       	ldd	r8, Z+11	; 0x0b
    41f2:	85 85       	ldd	r24, Z+13	; 0x0d
    41f4:	86 86       	std	Z+14, r8	; 0x0e
    41f6:	86 86       	std	Z+14, r8	; 0x0e
    41f8:	86 86       	std	Z+14, r8	; 0x0e
    41fa:	85 85       	ldd	r24, Z+13	; 0x0d
    41fc:	84 84       	ldd	r8, Z+12	; 0x0c
    41fe:	83 82       	std	Z+3, r8	; 0x03
    4200:	82 81       	ldd	r24, Z+2	; 0x02
    4202:	80 7f       	andi	r24, 0xF0	; 240
    4204:	7e 7d       	andi	r23, 0xDE	; 222
    4206:	7c 7a       	andi	r23, 0xAC	; 172
    4208:	79 78       	andi	r23, 0x89	; 137
    420a:	77 76       	andi	r23, 0x67	; 103
    420c:	75 74       	andi	r23, 0x45	; 69
    420e:	73 72       	andi	r23, 0x23	; 35
    4210:	72 71       	andi	r23, 0x12	; 18
    4212:	71 71       	andi	r23, 0x11	; 17
    4214:	72 72       	andi	r23, 0x22	; 34
    4216:	73 74       	andi	r23, 0x43	; 67
    4218:	75 76       	andi	r23, 0x65	; 101
    421a:	78 79       	andi	r23, 0x98	; 152
    421c:	7b 7c       	andi	r23, 0xCB	; 203
    421e:	7e 7f       	andi	r23, 0xFE	; 254
    4220:	81 82       	std	Z+1, r8	; 0x01
    4222:	83 84       	ldd	r8, Z+11	; 0x0b
    4224:	85 86       	std	Z+13, r8	; 0x0d
    4226:	86 86       	std	Z+14, r8	; 0x0e
    4228:	86 86       	std	Z+14, r8	; 0x0e
    422a:	86 86       	std	Z+14, r8	; 0x0e
    422c:	85 84       	ldd	r8, Z+13	; 0x0d
    422e:	84 83       	std	Z+4, r24	; 0x04
    4230:	82 82       	std	Z+2, r8	; 0x02
    4232:	81 80       	ldd	r8, Z+1	; 0x01
    4234:	80 7f       	andi	r24, 0xF0	; 240
    4236:	7f 7e       	andi	r23, 0xEF	; 239
    4238:	7e 7d       	andi	r23, 0xDE	; 222
    423a:	7d 7d       	andi	r23, 0xDD	; 221
    423c:	7c 7c       	andi	r23, 0xCC	; 204
    423e:	7c 7c       	andi	r23, 0xCC	; 204
    4240:	7c 7d       	andi	r23, 0xDC	; 220
    4242:	7d 7e       	andi	r23, 0xED	; 237
    4244:	7e 7f       	andi	r23, 0xFE	; 254
    4246:	80 80       	ld	r8, Z
    4248:	81 83       	std	Z+1, r24	; 0x01
    424a:	84 85       	ldd	r24, Z+12	; 0x0c
    424c:	86 87       	std	Z+14, r24	; 0x0e
    424e:	88 89       	ldd	r24, Y+16	; 0x10
    4250:	8a 8a       	std	Y+18, r8	; 0x12
    4252:	8b 8b       	std	Y+19, r24	; 0x13
    4254:	8c 8c       	ldd	r8, Y+28	; 0x1c
    4256:	8c 8b       	std	Y+20, r24	; 0x14
    4258:	8b 8a       	std	Y+19, r8	; 0x13
    425a:	8a 89       	ldd	r24, Y+18	; 0x12
    425c:	88 88       	ldd	r8, Y+16	; 0x10
    425e:	87 86       	std	Z+15, r8	; 0x0f
    4260:	85 85       	ldd	r24, Z+13	; 0x0d
    4262:	84 83       	std	Z+4, r24	; 0x04
    4264:	83 82       	std	Z+3, r8	; 0x03
    4266:	81 81       	ldd	r24, Z+1	; 0x01
    4268:	80 7f       	andi	r24, 0xF0	; 240
    426a:	7f 7e       	andi	r23, 0xEF	; 239
    426c:	7d 7d       	andi	r23, 0xDD	; 221
    426e:	7c 7b       	andi	r23, 0xBC	; 188
    4270:	7b 7a       	andi	r23, 0xAB	; 171
    4272:	7a 79       	andi	r23, 0x9A	; 154
    4274:	79 79       	andi	r23, 0x99	; 153
    4276:	79 79       	andi	r23, 0x99	; 153
    4278:	79 79       	andi	r23, 0x99	; 153
    427a:	7a 7b       	andi	r23, 0xBA	; 186
    427c:	7b 7c       	andi	r23, 0xCB	; 203
    427e:	7d 7e       	andi	r23, 0xED	; 237
    4280:	7f 80       	ldd	r7, Y+7	; 0x07
    4282:	81 82       	std	Z+1, r8	; 0x01
    4284:	83 83       	std	Z+3, r24	; 0x03
    4286:	84 84       	ldd	r8, Z+12	; 0x0c
    4288:	85 85       	ldd	r24, Z+13	; 0x0d
    428a:	85 85       	ldd	r24, Z+13	; 0x0d
    428c:	85 85       	ldd	r24, Z+13	; 0x0d
    428e:	84 84       	ldd	r8, Z+12	; 0x0c
    4290:	83 83       	std	Z+3, r24	; 0x03
    4292:	82 82       	std	Z+2, r8	; 0x02
    4294:	81 81       	ldd	r24, Z+1	; 0x01
    4296:	80 7f       	andi	r24, 0xF0	; 240
    4298:	7e 7e       	andi	r23, 0xEE	; 238
    429a:	7d 7c       	andi	r23, 0xCD	; 205
    429c:	7b 7b       	andi	r23, 0xBB	; 187
    429e:	7a 79       	andi	r23, 0x9A	; 154
    42a0:	79 79       	andi	r23, 0x99	; 153
    42a2:	78 78       	andi	r23, 0x88	; 136
    42a4:	78 78       	andi	r23, 0x88	; 136
    42a6:	78 79       	andi	r23, 0x98	; 152
    42a8:	79 7a       	andi	r23, 0xA9	; 169
    42aa:	7a 7b       	andi	r23, 0xBA	; 186
    42ac:	7c 7c       	andi	r23, 0xCC	; 204
    42ae:	7d 7e       	andi	r23, 0xED	; 237
    42b0:	7f 7f       	andi	r23, 0xFF	; 255
    42b2:	80 81       	ld	r24, Z
    42b4:	81 81       	ldd	r24, Z+1	; 0x01
    42b6:	81 81       	ldd	r24, Z+1	; 0x01
    42b8:	81 81       	ldd	r24, Z+1	; 0x01
    42ba:	81 81       	ldd	r24, Z+1	; 0x01
    42bc:	80 80       	ld	r8, Z
    42be:	80 7f       	andi	r24, 0xF0	; 240
    42c0:	7f 7e       	andi	r23, 0xEF	; 239
    42c2:	7e 7e       	andi	r23, 0xEE	; 238
    42c4:	7d 7d       	andi	r23, 0xDD	; 221
    42c6:	7d 7c       	andi	r23, 0xCD	; 205
    42c8:	7c 7c       	andi	r23, 0xCC	; 204
    42ca:	7c 7c       	andi	r23, 0xCC	; 204
    42cc:	7b 7b       	andi	r23, 0xBB	; 187
    42ce:	7b 7b       	andi	r23, 0xBB	; 187
    42d0:	7b 7b       	andi	r23, 0xBB	; 187
    42d2:	7b 7c       	andi	r23, 0xCB	; 203
    42d4:	7c 7c       	andi	r23, 0xCC	; 204
    42d6:	7d 7d       	andi	r23, 0xDD	; 221
    42d8:	7e 7f       	andi	r23, 0xFE	; 254
    42da:	80 80       	ld	r8, Z
    42dc:	81 82       	std	Z+1, r8	; 0x01
    42de:	83 84       	ldd	r8, Z+11	; 0x0b
    42e0:	84 85       	ldd	r24, Z+12	; 0x0c
    42e2:	85 85       	ldd	r24, Z+13	; 0x0d
    42e4:	85 86       	std	Z+13, r8	; 0x0d
    42e6:	85 85       	ldd	r24, Z+13	; 0x0d
    42e8:	85 85       	ldd	r24, Z+13	; 0x0d
    42ea:	85 84       	ldd	r8, Z+13	; 0x0d
    42ec:	84 84       	ldd	r8, Z+12	; 0x0c
    42ee:	84 83       	std	Z+4, r24	; 0x04
    42f0:	83 83       	std	Z+3, r24	; 0x03
    42f2:	83 83       	std	Z+3, r24	; 0x03
    42f4:	83 83       	std	Z+3, r24	; 0x03
    42f6:	83 82       	std	Z+3, r8	; 0x03
    42f8:	82 82       	std	Z+2, r8	; 0x02
    42fa:	82 81       	ldd	r24, Z+2	; 0x02
    42fc:	81 81       	ldd	r24, Z+1	; 0x01
    42fe:	81 80       	ldd	r8, Z+1	; 0x01
    4300:	80 80       	ld	r8, Z
    4302:	80 7f       	andi	r24, 0xF0	; 240
    4304:	7f 7f       	andi	r23, 0xFF	; 255
    4306:	7f 7f       	andi	r23, 0xFF	; 255
    4308:	80 80       	ld	r8, Z
    430a:	80 80       	ld	r8, Z
    430c:	81 81       	ldd	r24, Z+1	; 0x01
    430e:	81 82       	std	Z+1, r8	; 0x01
    4310:	82 82       	std	Z+2, r8	; 0x02
    4312:	83 83       	std	Z+3, r24	; 0x03
    4314:	83 83       	std	Z+3, r24	; 0x03
    4316:	83 83       	std	Z+3, r24	; 0x03
    4318:	83 83       	std	Z+3, r24	; 0x03
    431a:	82 82       	std	Z+2, r8	; 0x02
    431c:	81 80       	ldd	r8, Z+1	; 0x01
    431e:	80 7f       	andi	r24, 0xF0	; 240
    4320:	7e 7d       	andi	r23, 0xDE	; 222
    4322:	7c 7b       	andi	r23, 0xBC	; 188
    4324:	7a 7a       	andi	r23, 0xAA	; 170
    4326:	79 79       	andi	r23, 0x99	; 153
    4328:	79 79       	andi	r23, 0x99	; 153
    432a:	7a 7b       	andi	r23, 0xBA	; 186
    432c:	7c 7d       	andi	r23, 0xDC	; 220
    432e:	7f 81       	ldd	r23, Y+7	; 0x07
    4330:	83 85       	ldd	r24, Z+11	; 0x0b
    4332:	87 89       	ldd	r24, Z+23	; 0x17
    4334:	8c 8e       	std	Y+28, r8	; 0x1c
    4336:	90 91 93 94 	lds	r25, 0x9493
    433a:	95 96       	adiw	r26, 0x25	; 37
    433c:	97 97       	sbiw	r26, 0x27	; 39
    433e:	97 97       	sbiw	r26, 0x27	; 39
    4340:	97 96       	adiw	r26, 0x27	; 39
    4342:	95 94       	asr	r9
    4344:	93 91       	.word	0x9193	; ????
    4346:	8f 8d       	ldd	r24, Y+31	; 0x1f
    4348:	8b 88       	ldd	r8, Y+19	; 0x13
    434a:	85 82       	std	Z+5, r8	; 0x05
    434c:	7e 7a       	andi	r23, 0xAE	; 174
    434e:	76 72       	andi	r23, 0x26	; 38
    4350:	6e 6a       	ori	r22, 0xAE	; 174
    4352:	66 62       	ori	r22, 0x26	; 38
    4354:	5e 5b       	subi	r21, 0xBE	; 190
    4356:	58 55       	subi	r21, 0x58	; 88
    4358:	53 51       	subi	r21, 0x13	; 19
    435a:	50 50       	subi	r21, 0x00	; 0
    435c:	50 50       	subi	r21, 0x00	; 0
    435e:	52 53       	subi	r21, 0x32	; 50
    4360:	56 58       	subi	r21, 0x86	; 134
    4362:	5c 5f       	subi	r21, 0xFC	; 252
    4364:	63 67       	ori	r22, 0x73	; 115
    4366:	6b 70       	andi	r22, 0x0B	; 11
    4368:	74 79       	andi	r23, 0x94	; 148
    436a:	7d 81       	ldd	r23, Y+5	; 0x05
    436c:	85 89       	ldd	r24, Z+21	; 0x15
    436e:	8d 90       	ld	r8, X+
    4370:	93 96       	adiw	r26, 0x23	; 35
    4372:	98 9a       	sbi	0x13, 0	; 19
    4374:	9c 9d       	mul	r25, r12
    4376:	9d 9d       	mul	r25, r13
    4378:	9d 9c       	mul	r9, r13
    437a:	9b 99       	sbic	0x13, 3	; 19
    437c:	97 94       	ror	r9
    437e:	91 8e       	std	Z+25, r9	; 0x19
    4380:	8a 87       	std	Y+10, r24	; 0x0a
    4382:	84 80       	ldd	r8, Z+4	; 0x04
    4384:	7e 7b       	andi	r23, 0xBE	; 190
    4386:	79 78       	andi	r23, 0x89	; 137
    4388:	77 77       	andi	r23, 0x77	; 119
    438a:	77 78       	andi	r23, 0x87	; 135
    438c:	7a 7c       	andi	r23, 0xCA	; 202
    438e:	7f 81       	ldd	r23, Y+7	; 0x07
    4390:	84 87       	std	Z+12, r24	; 0x0c
    4392:	8a 8d       	ldd	r24, Y+26	; 0x1a
    4394:	90 92 94 96 	sts	0x9694, r9
    4398:	97 98       	cbi	0x12, 7	; 18
    439a:	99 99       	sbic	0x13, 1	; 19
    439c:	9a 9a       	sbi	0x13, 2	; 19
    439e:	9a 9a       	sbi	0x13, 2	; 19
    43a0:	9a 9a       	sbi	0x13, 2	; 19
    43a2:	99 98       	cbi	0x13, 1	; 19
    43a4:	97 96       	adiw	r26, 0x27	; 39
    43a6:	94 92       	xch	Z, r9
    43a8:	8f 8c       	ldd	r8, Y+31	; 0x1f
    43aa:	88 84       	ldd	r8, Y+8	; 0x08
    43ac:	7f 7a       	andi	r23, 0xAF	; 175
    43ae:	76 71       	andi	r23, 0x16	; 22
    43b0:	6c 68       	ori	r22, 0x8C	; 140
    43b2:	64 60       	ori	r22, 0x04	; 4
    43b4:	5e 5c       	subi	r21, 0xCE	; 206
    43b6:	5b 5b       	subi	r21, 0xBB	; 187
    43b8:	5c 5d       	subi	r21, 0xDC	; 220
    43ba:	60 63       	ori	r22, 0x30	; 48
    43bc:	67 6b       	ori	r22, 0xB7	; 183
    43be:	6f 74       	andi	r22, 0x4F	; 79
    43c0:	78 7d       	andi	r23, 0xD8	; 216
    43c2:	81 85       	ldd	r24, Z+9	; 0x09
    43c4:	89 8c       	ldd	r8, Y+25	; 0x19
    43c6:	8f 92       	push	r8
    43c8:	94 96       	adiw	r26, 0x24	; 36
    43ca:	98 99       	sbic	0x13, 0	; 19
    43cc:	9b 9b       	sbis	0x13, 3	; 19
    43ce:	9c 9c       	mul	r9, r12
    43d0:	9c 9c       	mul	r9, r12
    43d2:	9b 99       	sbic	0x13, 3	; 19
    43d4:	97 95       	ror	r25
    43d6:	92 8f       	std	Z+26, r25	; 0x1a
    43d8:	8b 87       	std	Y+11, r24	; 0x0b
    43da:	82 7e       	andi	r24, 0xE2	; 226
    43dc:	79 74       	andi	r23, 0x49	; 73
    43de:	70 6c       	ori	r23, 0xC0	; 192
    43e0:	68 65       	ori	r22, 0x58	; 88
    43e2:	63 61       	ori	r22, 0x13	; 19
    43e4:	60 60       	ori	r22, 0x00	; 0
    43e6:	61 63       	ori	r22, 0x31	; 49
    43e8:	65 67       	ori	r22, 0x75	; 117
    43ea:	6a 6e       	ori	r22, 0xEA	; 234
    43ec:	71 74       	andi	r23, 0x41	; 65
    43ee:	77 7a       	andi	r23, 0xA7	; 167
    43f0:	7d 7f       	andi	r23, 0xFD	; 253
    43f2:	81 82       	std	Z+1, r8	; 0x01
    43f4:	82 83       	std	Z+2, r24	; 0x02
    43f6:	83 83       	std	Z+3, r24	; 0x03
    43f8:	82 82       	std	Z+2, r8	; 0x02
    43fa:	81 80       	ldd	r8, Z+1	; 0x01
    43fc:	80 7f       	andi	r24, 0xF0	; 240
    43fe:	7e 7d       	andi	r23, 0xDE	; 222
    4400:	7c 7a       	andi	r23, 0xAC	; 172
    4402:	79 77       	andi	r23, 0x79	; 121
    4404:	75 72       	andi	r23, 0x25	; 37
    4406:	6f 6c       	ori	r22, 0xCF	; 207
    4408:	69 66       	ori	r22, 0x69	; 105
    440a:	62 5f       	subi	r22, 0xF2	; 242
    440c:	5d 5b       	subi	r21, 0xBD	; 189
    440e:	59 58       	subi	r21, 0x89	; 137
    4410:	58 59       	subi	r21, 0x98	; 152
    4412:	5b 5e       	subi	r21, 0xEB	; 235
    4414:	62 66       	ori	r22, 0x62	; 98
    4416:	6b 70       	andi	r22, 0x0B	; 11
    4418:	76 7b       	andi	r23, 0xB6	; 182
    441a:	81 86       	std	Z+9, r8	; 0x09
    441c:	8b 8f       	std	Y+27, r24	; 0x1b
    441e:	93 95       	inc	r25
    4420:	98 99       	sbic	0x13, 0	; 19
    4422:	9a 9b       	sbis	0x13, 2	; 19
    4424:	9b 9a       	sbi	0x13, 3	; 19
    4426:	99 99       	sbic	0x13, 1	; 19
    4428:	98 97       	sbiw	r26, 0x28	; 40
    442a:	96 95       	lsr	r25
    442c:	94 92       	xch	Z, r9
    442e:	91 90       	ld	r9, Z+
    4430:	8e 8c       	ldd	r8, Y+30	; 0x1e
    4432:	8a 87       	std	Y+10, r24	; 0x0a
    4434:	85 82       	std	Z+5, r8	; 0x05
    4436:	7f 7c       	andi	r23, 0xCF	; 207
    4438:	79 77       	andi	r23, 0x79	; 121
    443a:	75 73       	andi	r23, 0x35	; 53
    443c:	72 71       	andi	r23, 0x12	; 18
    443e:	72 73       	andi	r23, 0x32	; 50
    4440:	74 77       	andi	r23, 0x74	; 116
    4442:	7a 7d       	andi	r23, 0xDA	; 218
    4444:	80 84       	ldd	r8, Z+8	; 0x08
    4446:	88 8c       	ldd	r8, Y+24	; 0x18
    4448:	8f 92       	push	r8
    444a:	95 97       	sbiw	r26, 0x25	; 37
    444c:	98 99       	sbic	0x13, 0	; 19
    444e:	99 99       	sbic	0x13, 1	; 19
    4450:	99 98       	cbi	0x13, 1	; 19
    4452:	97 95       	ror	r25
    4454:	94 93       	xch	Z, r25
    4456:	91 90       	ld	r9, Z+
    4458:	8f 8d       	ldd	r24, Y+31	; 0x1f
    445a:	8c 8b       	std	Y+20, r24	; 0x14
    445c:	89 88       	ldd	r8, Y+17	; 0x11
    445e:	86 84       	ldd	r8, Z+14	; 0x0e
    4460:	81 7f       	andi	r24, 0xF1	; 241
    4462:	7c 79       	andi	r23, 0x9C	; 156
    4464:	76 73       	andi	r23, 0x36	; 54
    4466:	70 6d       	ori	r23, 0xD0	; 208
    4468:	6b 6a       	ori	r22, 0xAB	; 171
    446a:	69 68       	ori	r22, 0x89	; 137
    446c:	69 6a       	ori	r22, 0xA9	; 169
    446e:	6c 6e       	ori	r22, 0xEC	; 236
    4470:	71 75       	andi	r23, 0x51	; 81
    4472:	79 7c       	andi	r23, 0xC9	; 201
    4474:	80 84       	ldd	r8, Z+8	; 0x08
    4476:	88 8b       	std	Y+16, r24	; 0x10
    4478:	8e 90       	ld	r8, -X
    447a:	92 93       	st	-Z, r25
    447c:	93 94       	inc	r9
    447e:	94 93       	xch	Z, r25
    4480:	92 91       	ld	r25, -Z
    4482:	90 8f       	std	Z+24, r25	; 0x18
    4484:	8e 8d       	ldd	r24, Y+30	; 0x1e
    4486:	8c 8b       	std	Y+20, r24	; 0x14
    4488:	8a 88       	ldd	r8, Y+18	; 0x12
    448a:	87 85       	ldd	r24, Z+15	; 0x0f
    448c:	83 81       	ldd	r24, Z+3	; 0x03
    448e:	7e 7c       	andi	r23, 0xCE	; 206
    4490:	79 76       	andi	r23, 0x69	; 105
    4492:	73 6f       	ori	r23, 0xF3	; 243
    4494:	6d 6a       	ori	r22, 0xAD	; 173
    4496:	67 65       	ori	r22, 0x57	; 87
    4498:	64 63       	ori	r22, 0x34	; 52
    449a:	63 63       	ori	r22, 0x33	; 51
    449c:	65 66       	ori	r22, 0x65	; 101
    449e:	68 6b       	ori	r22, 0xB8	; 184
    44a0:	6e 71       	andi	r22, 0x1E	; 30
    44a2:	74 77       	andi	r23, 0x74	; 116
    44a4:	7a 7c       	andi	r23, 0xCA	; 202
    44a6:	7f 81       	ldd	r23, Y+7	; 0x07
    44a8:	82 83       	std	Z+2, r24	; 0x02
    44aa:	84 84       	ldd	r8, Z+12	; 0x0c
    44ac:	84 84       	ldd	r8, Z+12	; 0x0c
    44ae:	84 83       	std	Z+4, r24	; 0x04
    44b0:	82 81       	ldd	r24, Z+2	; 0x02
    44b2:	80 7f       	andi	r24, 0xF0	; 240
    44b4:	7e 7d       	andi	r23, 0xDE	; 222
    44b6:	7c 7a       	andi	r23, 0xAC	; 172
    44b8:	79 77       	andi	r23, 0x79	; 121
    44ba:	75 73       	andi	r23, 0x35	; 53
    44bc:	71 6f       	ori	r23, 0xF1	; 241
    44be:	6c 6a       	ori	r22, 0xAC	; 172
    44c0:	68 65       	ori	r22, 0x58	; 88
    44c2:	64 62       	ori	r22, 0x24	; 36
    44c4:	61 60       	ori	r22, 0x01	; 1
    44c6:	61 61       	ori	r22, 0x11	; 17
    44c8:	62 64       	ori	r22, 0x42	; 66
    44ca:	67 6a       	ori	r22, 0xA7	; 167
    44cc:	6d 71       	andi	r22, 0x1D	; 29
    44ce:	75 79       	andi	r23, 0x95	; 149
    44d0:	7d 81       	ldd	r23, Y+5	; 0x05
    44d2:	85 89       	ldd	r24, Z+21	; 0x15
    44d4:	8c 8f       	std	Y+28, r24	; 0x1c
    44d6:	91 93       	st	Z+, r25
    44d8:	94 95       	.word	0x9594	; ????
    44da:	96 97       	sbiw	r26, 0x26	; 38
    44dc:	97 97       	sbiw	r26, 0x27	; 39
    44de:	96 96       	adiw	r26, 0x26	; 38
    44e0:	96 95       	lsr	r25
    44e2:	94 94       	.word	0x9494	; ????
    44e4:	93 92       	.word	0x9293	; ????
    44e6:	90 8f       	std	Z+24, r25	; 0x18
    44e8:	8d 8c       	ldd	r8, Y+29	; 0x1d
    44ea:	8a 88       	ldd	r8, Y+18	; 0x12
    44ec:	85 83       	std	Z+5, r24	; 0x05
    44ee:	81 7f       	andi	r24, 0xF1	; 241
    44f0:	7d 7b       	andi	r23, 0xBD	; 189
    44f2:	79 78       	andi	r23, 0x89	; 137
    44f4:	78 77       	andi	r23, 0x78	; 120
    44f6:	78 78       	andi	r23, 0x88	; 136
    44f8:	7a 7b       	andi	r23, 0xBA	; 186
    44fa:	7d 7f       	andi	r23, 0xFD	; 253
    44fc:	82 84       	ldd	r8, Z+10	; 0x0a
    44fe:	86 89       	ldd	r24, Z+22	; 0x16
    4500:	8b 8d       	ldd	r24, Y+27	; 0x1b
    4502:	8e 90       	ld	r8, -X
    4504:	91 91       	ld	r25, Z+
    4506:	92 92       	st	-Z, r9
    4508:	92 91       	ld	r25, -Z
    450a:	91 90       	ld	r9, Z+
    450c:	8f 8e       	std	Y+31, r8	; 0x1f
    450e:	8d 8d       	ldd	r24, Y+29	; 0x1d
    4510:	8c 8b       	std	Y+20, r24	; 0x14
    4512:	89 88       	ldd	r8, Y+17	; 0x11
    4514:	87 86       	std	Z+15, r8	; 0x0f
    4516:	84 82       	std	Z+4, r8	; 0x04
    4518:	80 7e       	andi	r24, 0xE0	; 224
    451a:	7c 79       	andi	r23, 0x9C	; 156
    451c:	77 75       	andi	r23, 0x57	; 87
    451e:	73 71       	andi	r23, 0x13	; 19
    4520:	6f 6e       	ori	r22, 0xEF	; 239
    4522:	6d 6d       	ori	r22, 0xDD	; 221
    4524:	6d 6e       	ori	r22, 0xED	; 237
    4526:	6f 70       	andi	r22, 0x0F	; 15
    4528:	73 75       	andi	r23, 0x53	; 83
    452a:	78 7b       	andi	r23, 0xB8	; 184
    452c:	7e 81       	ldd	r23, Y+6	; 0x06
    452e:	84 87       	std	Z+12, r24	; 0x0c
    4530:	8a 8c       	ldd	r8, Y+26	; 0x1a
    4532:	8e 90       	ld	r8, -X
    4534:	91 92       	st	Z+, r9
    4536:	93 93       	.word	0x9393	; ????
    4538:	93 93       	.word	0x9393	; ????
    453a:	93 92       	.word	0x9293	; ????
    453c:	92 91       	ld	r25, -Z
    453e:	90 8f       	std	Z+24, r25	; 0x18
    4540:	8e 8d       	ldd	r24, Y+30	; 0x1e
    4542:	8c 8a       	std	Y+20, r8	; 0x14
    4544:	88 86       	std	Y+8, r8	; 0x08
    4546:	83 81       	ldd	r24, Z+3	; 0x03
    4548:	7e 7b       	andi	r23, 0xBE	; 190
    454a:	78 75       	andi	r23, 0x58	; 88
    454c:	72 6f       	ori	r23, 0xF2	; 242
    454e:	6c 6a       	ori	r22, 0xAC	; 172
    4550:	68 67       	ori	r22, 0x78	; 120
    4552:	66 66       	ori	r22, 0x66	; 102
    4554:	66 66       	ori	r22, 0x66	; 102
    4556:	67 69       	ori	r22, 0x97	; 151
    4558:	6b 6d       	ori	r22, 0xDB	; 219
    455a:	6f 72       	andi	r22, 0x2F	; 47
    455c:	74 77       	andi	r23, 0x74	; 116
    455e:	79 7b       	andi	r23, 0xB9	; 185
    4560:	7d 7f       	andi	r23, 0xFD	; 253
    4562:	80 81       	ld	r24, Z
    4564:	82 83       	std	Z+2, r24	; 0x02
    4566:	83 84       	ldd	r8, Z+11	; 0x0b
    4568:	84 84       	ldd	r8, Z+12	; 0x0c
    456a:	83 83       	std	Z+3, r24	; 0x03
    456c:	82 81       	ldd	r24, Z+2	; 0x02
    456e:	80 7e       	andi	r24, 0xE0	; 224
    4570:	7c 7b       	andi	r23, 0xBC	; 188
    4572:	78 76       	andi	r23, 0x68	; 104
    4574:	74 71       	andi	r23, 0x14	; 20
    4576:	6e 6c       	ori	r22, 0xCE	; 206
    4578:	6a 67       	ori	r22, 0x7A	; 122
    457a:	66 64       	ori	r22, 0x46	; 70
    457c:	63 63       	ori	r22, 0x33	; 51
    457e:	63 64       	ori	r22, 0x43	; 67
    4580:	65 67       	ori	r22, 0x75	; 117
    4582:	6a 6d       	ori	r22, 0xDA	; 218
    4584:	70 74       	andi	r23, 0x40	; 64
    4586:	78 7c       	andi	r23, 0xC8	; 200
    4588:	80 84       	ldd	r8, Z+8	; 0x08
    458a:	88 8c       	ldd	r8, Y+24	; 0x18
    458c:	90 93 96 98 	sts	0x9896, r25
    4590:	9a 9c       	mul	r9, r10
    4592:	9d 9e       	mul	r9, r29
    4594:	9f 9f       	mul	r25, r31
    4596:	9f 9f       	mul	r25, r31
    4598:	9e 9d       	mul	r25, r14
    459a:	9c 9a       	sbi	0x13, 4	; 19
    459c:	99 97       	sbiw	r26, 0x29	; 41
    459e:	94 92       	xch	Z, r9
    45a0:	8f 8c       	ldd	r8, Y+31	; 0x1f
    45a2:	89 85       	ldd	r24, Y+9	; 0x09
    45a4:	82 7f       	andi	r24, 0xF2	; 242
    45a6:	7b 78       	andi	r23, 0x8B	; 139
    45a8:	75 73       	andi	r23, 0x35	; 53
    45aa:	71 70       	andi	r23, 0x01	; 1
    45ac:	6f 6e       	ori	r22, 0xEF	; 239
    45ae:	6e 6f       	ori	r22, 0xFE	; 254
    45b0:	71 72       	andi	r23, 0x21	; 33
    45b2:	75 77       	andi	r23, 0x75	; 117
    45b4:	7a 7d       	andi	r23, 0xDA	; 218
    45b6:	80 83       	st	Z, r24
    45b8:	86 89       	ldd	r24, Z+22	; 0x16
    45ba:	8c 8e       	std	Y+28, r8	; 0x1c
    45bc:	90 91 93 94 	lds	r25, 0x9493
    45c0:	94 94       	.word	0x9494	; ????
    45c2:	94 94       	.word	0x9494	; ????
    45c4:	93 92       	.word	0x9293	; ????
    45c6:	91 8f       	std	Z+25, r25	; 0x19
    45c8:	8e 8c       	ldd	r8, Y+30	; 0x1e
    45ca:	8a 88       	ldd	r8, Y+18	; 0x12
    45cc:	85 83       	std	Z+5, r24	; 0x05
    45ce:	80 7d       	andi	r24, 0xD0	; 208
    45d0:	7a 78       	andi	r23, 0x8A	; 138
    45d2:	75 72       	andi	r23, 0x25	; 37
    45d4:	6f 6d       	ori	r22, 0xDF	; 223
    45d6:	6b 6a       	ori	r22, 0xAB	; 171
    45d8:	69 68       	ori	r22, 0x89	; 137
    45da:	68 69       	ori	r22, 0x98	; 152
    45dc:	6a 6c       	ori	r22, 0xCA	; 202
    45de:	6e 71       	andi	r22, 0x1E	; 30
    45e0:	74 77       	andi	r23, 0x74	; 116
    45e2:	7a 7e       	andi	r23, 0xEA	; 234
    45e4:	82 85       	ldd	r24, Z+10	; 0x0a
    45e6:	88 8b       	std	Y+16, r24	; 0x10
    45e8:	8e 90       	ld	r8, -X
    45ea:	92 94       	swap	r9
    45ec:	95 96       	adiw	r26, 0x25	; 37
    45ee:	96 96       	adiw	r26, 0x26	; 38
    45f0:	96 96       	adiw	r26, 0x26	; 38
    45f2:	95 94       	asr	r9
    45f4:	93 92       	.word	0x9293	; ????
    45f6:	90 8e       	std	Z+24, r9	; 0x18
    45f8:	8c 8a       	std	Y+20, r8	; 0x14
    45fa:	87 84       	ldd	r8, Z+15	; 0x0f
    45fc:	81 7e       	andi	r24, 0xE1	; 225
    45fe:	7b 77       	andi	r23, 0x7B	; 123
    4600:	73 70       	andi	r23, 0x03	; 3
    4602:	6d 6a       	ori	r22, 0xAD	; 173
    4604:	67 64       	ori	r22, 0x47	; 71
    4606:	63 61       	ori	r22, 0x13	; 19
    4608:	61 60       	ori	r22, 0x01	; 1
    460a:	61 62       	ori	r22, 0x21	; 33
    460c:	64 66       	ori	r22, 0x64	; 100
    460e:	68 6b       	ori	r22, 0xB8	; 184
    4610:	6e 71       	andi	r22, 0x1E	; 30
    4612:	74 77       	andi	r23, 0x74	; 116
    4614:	7a 7c       	andi	r23, 0xCA	; 202
    4616:	7f 81       	ldd	r23, Y+7	; 0x07
    4618:	83 84       	ldd	r8, Z+11	; 0x0b
    461a:	85 86       	std	Z+13, r8	; 0x0d
    461c:	87 88       	ldd	r8, Z+23	; 0x17
    461e:	88 88       	ldd	r8, Y+16	; 0x10
    4620:	89 88       	ldd	r8, Y+17	; 0x11
    4622:	88 88       	ldd	r8, Y+16	; 0x10
    4624:	87 86       	std	Z+15, r8	; 0x0f
    4626:	85 83       	std	Z+5, r24	; 0x05
    4628:	81 7f       	andi	r24, 0xF1	; 241
    462a:	7d 7a       	andi	r23, 0xAD	; 173
    462c:	78 75       	andi	r23, 0x58	; 88
    462e:	73 70       	andi	r23, 0x03	; 3
    4630:	6e 6c       	ori	r22, 0xCE	; 206
    4632:	6a 69       	ori	r22, 0x9A	; 154
    4634:	69 69       	ori	r22, 0x99	; 153
    4636:	6a 6b       	ori	r22, 0xBA	; 186
    4638:	6d 6f       	ori	r22, 0xFD	; 253
    463a:	72 75       	andi	r23, 0x52	; 82
    463c:	79 7c       	andi	r23, 0xC9	; 201
    463e:	80 83       	st	Z, r24
    4640:	86 89       	ldd	r24, Z+22	; 0x16
    4642:	8c 8f       	std	Y+28, r24	; 0x1c
    4644:	91 93       	st	Z+, r25
    4646:	94 95       	.word	0x9594	; ????
    4648:	96 97       	sbiw	r26, 0x26	; 38
    464a:	97 98       	cbi	0x12, 7	; 18
    464c:	98 98       	cbi	0x13, 0	; 19
    464e:	97 97       	sbiw	r26, 0x27	; 39
    4650:	96 96       	adiw	r26, 0x26	; 38
    4652:	94 93       	xch	Z, r25
    4654:	91 8f       	std	Z+25, r25	; 0x19
    4656:	8d 8a       	std	Y+21, r8	; 0x15
    4658:	87 83       	std	Z+7, r24	; 0x07
    465a:	80 7d       	andi	r24, 0xD0	; 208
    465c:	79 76       	andi	r23, 0x69	; 105
    465e:	73 71       	andi	r23, 0x13	; 19
    4660:	6f 6d       	ori	r22, 0xDF	; 223
    4662:	6c 6b       	ori	r22, 0xBC	; 188
    4664:	6c 6c       	ori	r22, 0xCC	; 204
    4666:	6e 70       	andi	r22, 0x0E	; 14
    4668:	72 75       	andi	r23, 0x52	; 82
    466a:	77 7a       	andi	r23, 0xA7	; 167
    466c:	7e 81       	ldd	r23, Y+6	; 0x06
    466e:	84 87       	std	Z+12, r24	; 0x0c
    4670:	89 8c       	ldd	r8, Y+25	; 0x19
    4672:	8e 90       	ld	r8, -X
    4674:	91 93       	st	Z+, r25
    4676:	94 94       	.word	0x9494	; ????
    4678:	95 95       	asr	r25
    467a:	95 95       	asr	r25
    467c:	95 94       	asr	r9
    467e:	93 92       	.word	0x9293	; ????
    4680:	91 8f       	std	Z+25, r25	; 0x19
    4682:	8d 8a       	std	Y+21, r8	; 0x15
    4684:	88 85       	ldd	r24, Y+8	; 0x08
    4686:	81 7e       	andi	r24, 0xE1	; 225
    4688:	7b 77       	andi	r23, 0x7B	; 123
    468a:	74 71       	andi	r23, 0x14	; 20
    468c:	6e 6c       	ori	r22, 0xCE	; 206
    468e:	6a 69       	ori	r22, 0x9A	; 154
    4690:	68 68       	ori	r22, 0x88	; 136
    4692:	68 69       	ori	r22, 0x98	; 152
    4694:	6a 6c       	ori	r22, 0xCA	; 202
    4696:	6f 72       	andi	r22, 0x2F	; 47
    4698:	75 78       	andi	r23, 0x85	; 133
    469a:	7b 7f       	andi	r23, 0xFB	; 251
    469c:	82 85       	ldd	r24, Z+10	; 0x0a
    469e:	88 8a       	std	Y+16, r8	; 0x10
    46a0:	8c 8e       	std	Y+28, r8	; 0x1c
    46a2:	8f 91       	pop	r24
    46a4:	91 92       	st	Z+, r9
    46a6:	92 92       	st	-Z, r9
    46a8:	91 91       	ld	r25, Z+
    46aa:	90 8f       	std	Z+24, r25	; 0x18
    46ac:	8d 8b       	std	Y+21, r24	; 0x15
    46ae:	89 87       	std	Y+9, r24	; 0x09
    46b0:	84 82       	std	Z+4, r8	; 0x04
    46b2:	7e 7b       	andi	r23, 0xBE	; 190
    46b4:	77 74       	andi	r23, 0x47	; 71
    46b6:	70 6c       	ori	r23, 0xC0	; 192
    46b8:	69 65       	ori	r22, 0x59	; 89
    46ba:	62 60       	ori	r22, 0x02	; 2
    46bc:	5e 5d       	subi	r21, 0xDE	; 222
    46be:	5c 5c       	subi	r21, 0xCC	; 204
    46c0:	5d 5f       	subi	r21, 0xFD	; 253
    46c2:	61 64       	ori	r22, 0x41	; 65
    46c4:	67 6b       	ori	r22, 0xB7	; 183
    46c6:	6f 73       	andi	r22, 0x3F	; 63
    46c8:	77 7b       	andi	r23, 0xB7	; 183
    46ca:	7f 83       	std	Y+7, r23	; 0x07
    46cc:	86 89       	ldd	r24, Z+22	; 0x16
    46ce:	8b 8d       	ldd	r24, Y+27	; 0x1b
    46d0:	8f 90       	pop	r8
    46d2:	91 92       	st	Z+, r9
    46d4:	92 92       	st	-Z, r9
    46d6:	92 91       	ld	r25, -Z
    46d8:	90 8f       	std	Z+24, r25	; 0x18
    46da:	8e 8d       	ldd	r24, Y+30	; 0x1e
    46dc:	8b 89       	ldd	r24, Y+19	; 0x13
    46de:	86 84       	ldd	r8, Z+14	; 0x0e
    46e0:	81 7e       	andi	r24, 0xE1	; 225
    46e2:	7a 77       	andi	r23, 0x7A	; 122
    46e4:	74 70       	andi	r23, 0x04	; 4
    46e6:	6d 6a       	ori	r22, 0xAD	; 173
    46e8:	68 66       	ori	r22, 0x68	; 104
    46ea:	65 64       	ori	r22, 0x45	; 69
    46ec:	64 65       	ori	r22, 0x54	; 84
    46ee:	67 69       	ori	r22, 0x97	; 151
    46f0:	6c 6f       	ori	r22, 0xFC	; 252
    46f2:	73 77       	andi	r23, 0x73	; 115
    46f4:	7b 7f       	andi	r23, 0xFB	; 251
    46f6:	83 87       	std	Z+11, r24	; 0x0b
    46f8:	8b 8e       	std	Y+27, r8	; 0x1b
    46fa:	91 93       	st	Z+, r25
    46fc:	95 97       	sbiw	r26, 0x25	; 37
    46fe:	98 99       	sbic	0x13, 0	; 19
    4700:	9a 9a       	sbi	0x13, 2	; 19
    4702:	9a 9a       	sbi	0x13, 2	; 19
    4704:	9a 99       	sbic	0x13, 2	; 19
    4706:	99 98       	cbi	0x13, 1	; 19
    4708:	97 95       	ror	r25
    470a:	93 91       	.word	0x9193	; ????
    470c:	8f 8c       	ldd	r8, Y+31	; 0x1f
    470e:	89 86       	std	Y+9, r8	; 0x09
    4710:	82 7f       	andi	r24, 0xF2	; 242
    4712:	7b 78       	andi	r23, 0x8B	; 139
    4714:	75 72       	andi	r23, 0x25	; 37
    4716:	6f 6d       	ori	r22, 0xDF	; 223
    4718:	6c 6b       	ori	r22, 0xBC	; 188
    471a:	6b 6c       	ori	r22, 0xCB	; 203
    471c:	6d 6e       	ori	r22, 0xED	; 237
    471e:	70 73       	andi	r23, 0x30	; 48
    4720:	76 79       	andi	r23, 0x96	; 150
    4722:	7c 7f       	andi	r23, 0xFC	; 252
    4724:	82 85       	ldd	r24, Z+10	; 0x0a
    4726:	87 8a       	std	Z+23, r8	; 0x17
    4728:	8c 8e       	std	Y+28, r8	; 0x1c
    472a:	8f 91       	pop	r24
    472c:	92 93       	st	-Z, r25
    472e:	93 94       	inc	r9
    4730:	94 94       	.word	0x9494	; ????
    4732:	93 93       	.word	0x9393	; ????
    4734:	92 91       	ld	r25, -Z
    4736:	90 8e       	std	Z+24, r9	; 0x18
    4738:	8d 8a       	std	Y+21, r8	; 0x15
    473a:	88 85       	ldd	r24, Y+8	; 0x08
    473c:	82 7f       	andi	r24, 0xF2	; 242
    473e:	7c 79       	andi	r23, 0x9C	; 156
    4740:	76 73       	andi	r23, 0x36	; 54
    4742:	70 6d       	ori	r23, 0xD0	; 208
    4744:	6b 69       	ori	r22, 0x9B	; 155
    4746:	68 67       	ori	r22, 0x78	; 120
    4748:	67 68       	ori	r22, 0x87	; 135
    474a:	69 6a       	ori	r22, 0xA9	; 169
    474c:	6c 6e       	ori	r22, 0xEC	; 236
    474e:	71 74       	andi	r23, 0x41	; 65
    4750:	77 7a       	andi	r23, 0xA7	; 167
    4752:	7d 80       	ldd	r7, Y+5	; 0x05
    4754:	83 85       	ldd	r24, Z+11	; 0x0b
    4756:	87 89       	ldd	r24, Z+23	; 0x17
    4758:	8b 8c       	ldd	r8, Y+27	; 0x1b
    475a:	8d 8e       	std	Y+29, r8	; 0x1d
    475c:	8e 8e       	std	Y+30, r8	; 0x1e
    475e:	8e 8e       	std	Y+30, r8	; 0x1e
    4760:	8e 8d       	ldd	r24, Y+30	; 0x1e
    4762:	8c 8b       	std	Y+20, r24	; 0x14
    4764:	89 88       	ldd	r8, Y+17	; 0x11
    4766:	86 84       	ldd	r8, Z+14	; 0x0e
    4768:	81 7f       	andi	r24, 0xF1	; 241
    476a:	7c 79       	andi	r23, 0x9C	; 156
    476c:	75 72       	andi	r23, 0x25	; 37
    476e:	6f 6c       	ori	r22, 0xCF	; 207
    4770:	69 66       	ori	r22, 0x69	; 105
    4772:	64 62       	ori	r22, 0x24	; 36
    4774:	61 61       	ori	r22, 0x11	; 17
    4776:	61 62       	ori	r22, 0x21	; 33
    4778:	63 66       	ori	r22, 0x63	; 99
    477a:	68 6b       	ori	r22, 0xB8	; 184
    477c:	6e 72       	andi	r22, 0x2E	; 46
    477e:	76 79       	andi	r23, 0x96	; 150
    4780:	7d 80       	ldd	r7, Y+5	; 0x05
    4782:	83 85       	ldd	r24, Z+11	; 0x0b
    4784:	87 89       	ldd	r24, Z+23	; 0x17
    4786:	8a 8b       	std	Y+18, r24	; 0x12
    4788:	8c 8d       	ldd	r24, Y+28	; 0x1c
    478a:	8d 8d       	ldd	r24, Y+29	; 0x1d
    478c:	8d 8d       	ldd	r24, Y+29	; 0x1d
    478e:	8c 8c       	ldd	r8, Y+28	; 0x1c
    4790:	8b 8b       	std	Y+19, r24	; 0x13
    4792:	8a 88       	ldd	r8, Y+18	; 0x12
    4794:	87 85       	ldd	r24, Z+15	; 0x0f
    4796:	83 81       	ldd	r24, Z+3	; 0x03
    4798:	7e 7b       	andi	r23, 0xBE	; 190
    479a:	78 76       	andi	r23, 0x68	; 104
    479c:	73 70       	andi	r23, 0x03	; 3
    479e:	6e 6c       	ori	r22, 0xCE	; 206
    47a0:	6b 6a       	ori	r22, 0xAB	; 171
    47a2:	6a 6a       	ori	r22, 0xAA	; 170
    47a4:	6b 6d       	ori	r22, 0xDB	; 219
    47a6:	70 73       	andi	r23, 0x30	; 48
    47a8:	76 79       	andi	r23, 0x96	; 150
    47aa:	7d 81       	ldd	r23, Y+5	; 0x05
    47ac:	84 88       	ldd	r8, Z+20	; 0x14
    47ae:	8b 8d       	ldd	r24, Y+27	; 0x1b
    47b0:	90 92 94 95 	sts	0x9594, r9
    47b4:	96 97       	sbiw	r26, 0x26	; 38
    47b6:	97 97       	sbiw	r26, 0x27	; 39
    47b8:	97 97       	sbiw	r26, 0x27	; 39
    47ba:	97 97       	sbiw	r26, 0x27	; 39
    47bc:	96 95       	lsr	r25
    47be:	94 93       	xch	Z, r25
    47c0:	92 90       	ld	r9, -Z
    47c2:	8d 8b       	std	Y+21, r24	; 0x15
    47c4:	88 85       	ldd	r24, Y+8	; 0x08
    47c6:	82 7e       	andi	r24, 0xE2	; 226
    47c8:	7b 77       	andi	r23, 0x7B	; 123
    47ca:	74 71       	andi	r23, 0x14	; 20
    47cc:	6f 6d       	ori	r22, 0xDF	; 223
    47ce:	6b 6b       	ori	r22, 0xBB	; 187
    47d0:	6a 6b       	ori	r22, 0xBA	; 186
    47d2:	6c 6d       	ori	r22, 0xDC	; 220
    47d4:	6f 72       	andi	r22, 0x2F	; 47
    47d6:	75 78       	andi	r23, 0x85	; 133
    47d8:	7b 7e       	andi	r23, 0xEB	; 235
    47da:	81 84       	ldd	r8, Z+9	; 0x09
    47dc:	87 89       	ldd	r24, Z+23	; 0x17
    47de:	8c 8e       	std	Y+28, r8	; 0x1c
    47e0:	90 91 93 94 	lds	r25, 0x9493
    47e4:	95 95       	asr	r25
    47e6:	96 96       	adiw	r26, 0x26	; 38
    47e8:	96 96       	adiw	r26, 0x26	; 38
    47ea:	95 94       	asr	r9
    47ec:	93 91       	.word	0x9193	; ????
    47ee:	8f 8d       	ldd	r24, Y+31	; 0x1f
    47f0:	8b 88       	ldd	r8, Y+19	; 0x13
    47f2:	85 82       	std	Z+5, r8	; 0x05
    47f4:	7e 7b       	andi	r23, 0xBE	; 190
    47f6:	77 74       	andi	r23, 0x47	; 71
    47f8:	71 6e       	ori	r23, 0xE1	; 225
    47fa:	6b 69       	ori	r22, 0x9B	; 155
    47fc:	68 66       	ori	r22, 0x68	; 104
    47fe:	66 66       	ori	r22, 0x66	; 102
    4800:	66 67       	ori	r22, 0x76	; 118
    4802:	69 6b       	ori	r22, 0xB9	; 185
    4804:	6d 70       	andi	r22, 0x0D	; 13
    4806:	72 75       	andi	r23, 0x52	; 82
    4808:	78 7b       	andi	r23, 0xB8	; 184
    480a:	7e 81       	ldd	r23, Y+6	; 0x06
    480c:	84 86       	std	Z+12, r8	; 0x0c
    480e:	88 89       	ldd	r24, Y+16	; 0x10
    4810:	8b 8c       	ldd	r8, Y+27	; 0x1b
    4812:	8d 8d       	ldd	r24, Y+29	; 0x1d
    4814:	8d 8d       	ldd	r24, Y+29	; 0x1d
    4816:	8d 8c       	ldd	r8, Y+29	; 0x1d
    4818:	8b 8a       	std	Y+19, r8	; 0x13
    481a:	89 88       	ldd	r8, Y+17	; 0x11
    481c:	86 84       	ldd	r8, Z+14	; 0x0e
    481e:	81 7f       	andi	r24, 0xF1	; 241
    4820:	7c 79       	andi	r23, 0x9C	; 156
    4822:	76 73       	andi	r23, 0x36	; 54
    4824:	70 6c       	ori	r23, 0xC0	; 192
    4826:	6a 67       	ori	r22, 0x7A	; 122
    4828:	65 63       	ori	r22, 0x35	; 53
    482a:	62 61       	ori	r22, 0x12	; 18
    482c:	61 62       	ori	r22, 0x21	; 33
    482e:	63 65       	ori	r22, 0x53	; 83
    4830:	67 6a       	ori	r22, 0xA7	; 167
    4832:	6d 70       	andi	r22, 0x0D	; 13
    4834:	74 77       	andi	r23, 0x74	; 116
    4836:	7b 7e       	andi	r23, 0xEB	; 235
    4838:	81 84       	ldd	r8, Z+9	; 0x09
    483a:	86 88       	ldd	r8, Z+22	; 0x16
    483c:	8a 8c       	ldd	r8, Y+26	; 0x1a
    483e:	8d 8e       	std	Y+29, r8	; 0x1d
    4840:	8f 8f       	std	Y+31, r24	; 0x1f
    4842:	90 90 90 90 	lds	r9, 0x9090
    4846:	90 8f       	std	Z+24, r25	; 0x18
    4848:	8e 8d       	ldd	r24, Y+30	; 0x1e
    484a:	8c 8b       	std	Y+20, r24	; 0x14
    484c:	89 86       	std	Y+9, r8	; 0x09
    484e:	84 81       	ldd	r24, Z+4	; 0x04
    4850:	7e 7b       	andi	r23, 0xBE	; 190
    4852:	78 76       	andi	r23, 0x68	; 104
    4854:	73 71       	andi	r23, 0x13	; 19
    4856:	6e 6d       	ori	r22, 0xDE	; 222
    4858:	6c 6b       	ori	r22, 0xBC	; 188
    485a:	6b 6c       	ori	r22, 0xCB	; 203
    485c:	6d 6f       	ori	r22, 0xFD	; 253
    485e:	71 73       	andi	r23, 0x31	; 49
    4860:	76 79       	andi	r23, 0x96	; 150
    4862:	7c 7e       	andi	r23, 0xEC	; 236
    4864:	81 84       	ldd	r8, Z+9	; 0x09
    4866:	86 89       	ldd	r24, Z+22	; 0x16
    4868:	8b 8d       	ldd	r24, Y+27	; 0x1b
    486a:	8e 90       	ld	r8, -X
    486c:	91 92       	st	Z+, r9
    486e:	93 94       	inc	r9
    4870:	94 95       	.word	0x9594	; ????
    4872:	95 95       	asr	r25
    4874:	94 94       	.word	0x9494	; ????
    4876:	93 92       	.word	0x9293	; ????
    4878:	91 8f       	std	Z+25, r25	; 0x19
    487a:	8d 8b       	std	Y+21, r24	; 0x15
    487c:	88 86       	std	Y+8, r8	; 0x08
    487e:	83 80       	ldd	r8, Z+3	; 0x03
    4880:	7e 7b       	andi	r23, 0xBE	; 190
    4882:	79 76       	andi	r23, 0x69	; 105
    4884:	75 73       	andi	r23, 0x35	; 53
    4886:	72 71       	andi	r23, 0x12	; 18
    4888:	71 72       	andi	r23, 0x21	; 33
    488a:	72 73       	andi	r23, 0x32	; 50
    488c:	75 76       	andi	r23, 0x65	; 101
    488e:	78 7a       	andi	r23, 0xA8	; 168
    4890:	7c 7f       	andi	r23, 0xFC	; 252
    4892:	81 83       	std	Z+1, r24	; 0x01
    4894:	85 87       	std	Z+13, r24	; 0x0d
    4896:	88 8a       	std	Y+16, r8	; 0x10
    4898:	8b 8d       	ldd	r24, Y+27	; 0x1b
    489a:	8e 8e       	std	Y+30, r8	; 0x1e
    489c:	8f 8f       	std	Y+31, r24	; 0x1f
    489e:	90 90 8f 8f 	lds	r9, 0x8F8F
    48a2:	8e 8d       	ldd	r24, Y+30	; 0x1e
    48a4:	8c 8b       	std	Y+20, r24	; 0x14
    48a6:	89 87       	std	Y+9, r24	; 0x09
    48a8:	85 82       	std	Z+5, r8	; 0x05
    48aa:	7f 7d       	andi	r23, 0xDF	; 223
    48ac:	7a 77       	andi	r23, 0x7A	; 122
    48ae:	74 71       	andi	r23, 0x14	; 20
    48b0:	6e 6c       	ori	r22, 0xCE	; 206
    48b2:	6a 68       	ori	r22, 0x8A	; 138
    48b4:	67 67       	ori	r22, 0x77	; 119
    48b6:	67 68       	ori	r22, 0x87	; 135
    48b8:	69 6a       	ori	r22, 0xA9	; 169
    48ba:	6c 6f       	ori	r22, 0xFC	; 252
    48bc:	72 74       	andi	r23, 0x42	; 66
    48be:	77 7a       	andi	r23, 0xA7	; 167
    48c0:	7d 80       	ldd	r7, Y+5	; 0x05
    48c2:	83 85       	ldd	r24, Z+11	; 0x0b
    48c4:	87 89       	ldd	r24, Z+23	; 0x17
    48c6:	8b 8c       	ldd	r8, Y+27	; 0x1b
    48c8:	8d 8e       	std	Y+29, r8	; 0x1d
    48ca:	8e 8e       	std	Y+30, r8	; 0x1e
    48cc:	8f 8e       	std	Y+31, r8	; 0x1f
    48ce:	8e 8e       	std	Y+30, r8	; 0x1e
    48d0:	8d 8c       	ldd	r8, Y+29	; 0x1d
    48d2:	8a 89       	ldd	r24, Y+18	; 0x12
    48d4:	87 84       	ldd	r8, Z+15	; 0x0f
    48d6:	82 7f       	andi	r24, 0xF2	; 242
    48d8:	7c 79       	andi	r23, 0x9C	; 156
    48da:	75 72       	andi	r23, 0x25	; 37
    48dc:	6f 6c       	ori	r22, 0xCF	; 207
    48de:	6a 67       	ori	r22, 0x7A	; 122
    48e0:	66 65       	ori	r22, 0x56	; 86
    48e2:	64 64       	ori	r22, 0x44	; 68
    48e4:	65 66       	ori	r22, 0x65	; 101
    48e6:	68 6a       	ori	r22, 0xA8	; 168
    48e8:	6c 6f       	ori	r22, 0xFC	; 252
    48ea:	72 75       	andi	r23, 0x52	; 82
    48ec:	79 7c       	andi	r23, 0xC9	; 201
    48ee:	7e 81       	ldd	r23, Y+6	; 0x06
    48f0:	84 86       	std	Z+12, r8	; 0x0c
    48f2:	88 8a       	std	Y+16, r8	; 0x10
    48f4:	8b 8c       	ldd	r8, Y+27	; 0x1b
    48f6:	8d 8e       	std	Y+29, r8	; 0x1d
    48f8:	8f 8f       	std	Y+31, r24	; 0x1f
    48fa:	90 90 90 90 	lds	r9, 0x9090
    48fe:	8f 8e       	std	Y+31, r8	; 0x1f
    4900:	8d 8c       	ldd	r8, Y+29	; 0x1d
    4902:	8a 88       	ldd	r8, Y+18	; 0x12
    4904:	85 83       	std	Z+5, r24	; 0x05
    4906:	80 7e       	andi	r24, 0xE0	; 224
    4908:	7b 78       	andi	r23, 0x8B	; 139
    490a:	76 73       	andi	r23, 0x36	; 54
    490c:	71 70       	andi	r23, 0x01	; 1
    490e:	6f 6e       	ori	r22, 0xEF	; 239
    4910:	6e 6f       	ori	r22, 0xFE	; 254
    4912:	70 71       	andi	r23, 0x10	; 16
    4914:	73 75       	andi	r23, 0x53	; 83
    4916:	77 7a       	andi	r23, 0xA7	; 167
    4918:	7d 7f       	andi	r23, 0xFD	; 253
    491a:	82 85       	ldd	r24, Z+10	; 0x0a
    491c:	88 8a       	std	Y+16, r8	; 0x10
    491e:	8c 8e       	std	Y+28, r8	; 0x1c
    4920:	90 91 93 94 	lds	r25, 0x9493
    4924:	95 95       	asr	r25
    4926:	96 96       	adiw	r26, 0x26	; 38
    4928:	96 95       	lsr	r25
    492a:	95 94       	asr	r9
    492c:	93 92       	.word	0x9293	; ????
    492e:	90 8e       	std	Z+24, r9	; 0x18
    4930:	8c 89       	ldd	r24, Y+20	; 0x14
    4932:	87 84       	ldd	r8, Z+15	; 0x0f
    4934:	81 7e       	andi	r24, 0xE1	; 225
    4936:	7b 78       	andi	r23, 0x8B	; 139
    4938:	75 73       	andi	r23, 0x35	; 53
    493a:	70 6f       	ori	r23, 0xF0	; 240
    493c:	6d 6c       	ori	r22, 0xCD	; 205
    493e:	6c 6c       	ori	r22, 0xCC	; 204
    4940:	6d 6e       	ori	r22, 0xED	; 237
    4942:	6f 71       	andi	r22, 0x1F	; 31
    4944:	73 76       	andi	r23, 0x63	; 99
    4946:	79 7b       	andi	r23, 0xB9	; 185
    4948:	7e 81       	ldd	r23, Y+6	; 0x06
    494a:	83 86       	std	Z+11, r8	; 0x0b
    494c:	88 8a       	std	Y+16, r8	; 0x10
    494e:	8c 8d       	ldd	r24, Y+28	; 0x1c
    4950:	8e 8f       	std	Y+30, r24	; 0x1e
    4952:	90 91 91 92 	lds	r25, 0x9291
    4956:	92 92       	st	-Z, r9
    4958:	92 92       	st	-Z, r9
    495a:	91 90       	ld	r9, Z+
    495c:	8f 8e       	std	Y+31, r8	; 0x1f
    495e:	8c 8a       	std	Y+20, r8	; 0x14
    4960:	87 84       	ldd	r8, Z+15	; 0x0f
    4962:	81 7e       	andi	r24, 0xE1	; 225
    4964:	7b 77       	andi	r23, 0x7B	; 123
    4966:	74 71       	andi	r23, 0x14	; 20
    4968:	6e 6c       	ori	r22, 0xCE	; 206
    496a:	6a 69       	ori	r22, 0x9A	; 154
    496c:	69 69       	ori	r22, 0x99	; 153
    496e:	69 6a       	ori	r22, 0xA9	; 169
    4970:	6c 6e       	ori	r22, 0xEC	; 236
    4972:	71 73       	andi	r23, 0x31	; 49
    4974:	76 78       	andi	r23, 0x86	; 134
    4976:	7b 7d       	andi	r23, 0xDB	; 219
    4978:	7f 81       	ldd	r23, Y+7	; 0x07
    497a:	83 84       	ldd	r8, Z+11	; 0x0b
    497c:	85 86       	std	Z+13, r8	; 0x0d
    497e:	87 87       	std	Z+15, r24	; 0x0f
    4980:	88 88       	ldd	r8, Y+16	; 0x10
    4982:	88 88       	ldd	r8, Y+16	; 0x10
    4984:	88 88       	ldd	r8, Y+16	; 0x10
    4986:	88 87       	std	Y+8, r24	; 0x08
    4988:	87 86       	std	Z+15, r8	; 0x0f
    498a:	85 83       	std	Z+5, r24	; 0x05
    498c:	81 7f       	andi	r24, 0xF1	; 241
    498e:	7d 7b       	andi	r23, 0xBD	; 189
    4990:	78 75       	andi	r23, 0x58	; 88
    4992:	73 70       	andi	r23, 0x03	; 3
    4994:	6e 6c       	ori	r22, 0xCE	; 206
    4996:	6a 69       	ori	r22, 0x9A	; 154
    4998:	69 69       	ori	r22, 0x99	; 153
    499a:	6a 6b       	ori	r22, 0xBA	; 186
    499c:	6d 6f       	ori	r22, 0xFD	; 253
    499e:	71 74       	andi	r23, 0x41	; 65
    49a0:	76 79       	andi	r23, 0x96	; 150
    49a2:	7c 7e       	andi	r23, 0xEC	; 236
    49a4:	81 83       	std	Z+1, r24	; 0x01
    49a6:	85 87       	std	Z+13, r24	; 0x0d
    49a8:	88 8a       	std	Y+16, r8	; 0x10
    49aa:	8b 8c       	ldd	r8, Y+27	; 0x1b
    49ac:	8d 8e       	std	Y+29, r8	; 0x1d
    49ae:	8e 8f       	std	Y+30, r24	; 0x1e
    49b0:	8f 8f       	std	Y+31, r24	; 0x1f
    49b2:	8f 8f       	std	Y+31, r24	; 0x1f
    49b4:	8f 8e       	std	Y+31, r8	; 0x1f
    49b6:	8d 8c       	ldd	r8, Y+29	; 0x1d
    49b8:	8a 88       	ldd	r8, Y+18	; 0x12
    49ba:	86 84       	ldd	r8, Z+14	; 0x0e
    49bc:	81 7f       	andi	r24, 0xF1	; 241
    49be:	7c 79       	andi	r23, 0x9C	; 156
    49c0:	77 74       	andi	r23, 0x47	; 71
    49c2:	72 70       	andi	r23, 0x02	; 2
    49c4:	6f 6e       	ori	r22, 0xEF	; 239
    49c6:	6d 6d       	ori	r22, 0xDD	; 221
    49c8:	6e 6f       	ori	r22, 0xFE	; 254
    49ca:	70 71       	andi	r23, 0x10	; 16
    49cc:	73 75       	andi	r23, 0x53	; 83
    49ce:	78 7a       	andi	r23, 0xA8	; 168
    49d0:	7c 7f       	andi	r23, 0xFC	; 252
    49d2:	81 83       	std	Z+1, r24	; 0x01
    49d4:	85 87       	std	Z+13, r24	; 0x0d
    49d6:	89 8a       	std	Y+17, r8	; 0x11
    49d8:	8c 8d       	ldd	r24, Y+28	; 0x1c
    49da:	8e 8f       	std	Y+30, r24	; 0x1e
    49dc:	90 90 91 91 	lds	r9, 0x9191
    49e0:	91 91       	ld	r25, Z+
    49e2:	91 90       	ld	r9, Z+
    49e4:	8f 8e       	std	Y+31, r8	; 0x1f
    49e6:	8d 8b       	std	Y+21, r24	; 0x15
    49e8:	89 87       	std	Y+9, r24	; 0x09
    49ea:	85 82       	std	Z+5, r8	; 0x05
    49ec:	80 7d       	andi	r24, 0xD0	; 208
    49ee:	7a 78       	andi	r23, 0x8A	; 138
    49f0:	76 74       	andi	r23, 0x46	; 70
    49f2:	72 71       	andi	r23, 0x12	; 18
    49f4:	70 70       	andi	r23, 0x00	; 0
    49f6:	70 71       	andi	r23, 0x10	; 16
    49f8:	72 74       	andi	r23, 0x42	; 66
    49fa:	76 78       	andi	r23, 0x86	; 134
    49fc:	7a 7d       	andi	r23, 0xDA	; 218
    49fe:	7f 82       	std	Y+7, r7	; 0x07
    4a00:	84 86       	std	Z+12, r8	; 0x0c
    4a02:	88 8a       	std	Y+16, r8	; 0x10
    4a04:	8b 8c       	ldd	r8, Y+27	; 0x1b
    4a06:	8d 8e       	std	Y+29, r8	; 0x1d
    4a08:	8f 8f       	std	Y+31, r24	; 0x1f
    4a0a:	8f 8f       	std	Y+31, r24	; 0x1f
    4a0c:	8f 8f       	std	Y+31, r24	; 0x1f
    4a0e:	8f 8e       	std	Y+31, r8	; 0x1f
    4a10:	8d 8c       	ldd	r8, Y+29	; 0x1d
    4a12:	8b 8a       	std	Y+19, r8	; 0x13
    4a14:	88 86       	std	Y+8, r8	; 0x08
    4a16:	83 80       	ldd	r8, Z+3	; 0x03
    4a18:	7d 7a       	andi	r23, 0xAD	; 173
    4a1a:	77 74       	andi	r23, 0x47	; 71
    4a1c:	71 6e       	ori	r23, 0xE1	; 225
    4a1e:	6c 69       	ori	r22, 0x9C	; 156
    4a20:	68 66       	ori	r22, 0x68	; 104
    4a22:	66 66       	ori	r22, 0x66	; 102
    4a24:	66 67       	ori	r22, 0x76	; 118
    4a26:	69 6b       	ori	r22, 0xB9	; 185
    4a28:	6d 70       	andi	r22, 0x0D	; 13
    4a2a:	73 76       	andi	r23, 0x63	; 99
    4a2c:	78 7b       	andi	r23, 0xB8	; 184
    4a2e:	7e 80       	ldd	r7, Y+6	; 0x06
    4a30:	83 85       	ldd	r24, Z+11	; 0x0b
    4a32:	87 88       	ldd	r8, Z+23	; 0x17
    4a34:	8a 8b       	std	Y+18, r24	; 0x12
    4a36:	8c 8d       	ldd	r24, Y+28	; 0x1c
    4a38:	8e 8f       	std	Y+30, r24	; 0x1e
    4a3a:	8f 8f       	std	Y+31, r24	; 0x1f
    4a3c:	8f 8f       	std	Y+31, r24	; 0x1f
    4a3e:	8e 8d       	ldd	r24, Y+30	; 0x1e
    4a40:	8c 8a       	std	Y+20, r8	; 0x14
    4a42:	88 86       	std	Y+8, r8	; 0x08
    4a44:	83 81       	ldd	r24, Z+3	; 0x03
    4a46:	7e 7a       	andi	r23, 0xAE	; 174
    4a48:	77 74       	andi	r23, 0x47	; 71
    4a4a:	71 6f       	ori	r23, 0xF1	; 241
    4a4c:	6c 6b       	ori	r22, 0xBC	; 188
    4a4e:	69 68       	ori	r22, 0x89	; 137
    4a50:	68 68       	ori	r22, 0x88	; 136
    4a52:	68 69       	ori	r22, 0x98	; 152
    4a54:	6b 6c       	ori	r22, 0xCB	; 203
    4a56:	6e 71       	andi	r22, 0x1E	; 30
    4a58:	73 75       	andi	r23, 0x53	; 83
    4a5a:	78 7a       	andi	r23, 0xA8	; 168
    4a5c:	7c 7f       	andi	r23, 0xFC	; 252
    4a5e:	81 83       	std	Z+1, r24	; 0x01
    4a60:	85 87       	std	Z+13, r24	; 0x0d
    4a62:	88 8a       	std	Y+16, r8	; 0x10
    4a64:	8b 8d       	ldd	r24, Y+27	; 0x1b
    4a66:	8e 8e       	std	Y+30, r8	; 0x1e
    4a68:	8f 8f       	std	Y+31, r24	; 0x1f
    4a6a:	8f 8f       	std	Y+31, r24	; 0x1f
    4a6c:	8f 8e       	std	Y+31, r8	; 0x1f
    4a6e:	8d 8b       	std	Y+21, r24	; 0x15
    4a70:	89 87       	std	Y+9, r24	; 0x09
    4a72:	85 83       	std	Z+5, r24	; 0x05
    4a74:	80 7d       	andi	r24, 0xD0	; 208
    4a76:	7b 78       	andi	r23, 0x8B	; 139
    4a78:	76 73       	andi	r23, 0x36	; 54
    4a7a:	71 70       	andi	r23, 0x01	; 1
    4a7c:	6f 6e       	ori	r22, 0xEF	; 239
    4a7e:	6e 6e       	ori	r22, 0xEE	; 238
    4a80:	6e 6f       	ori	r22, 0xFE	; 254
    4a82:	71 73       	andi	r23, 0x31	; 49
    4a84:	75 77       	andi	r23, 0x75	; 117
    4a86:	79 7c       	andi	r23, 0xC9	; 201
    4a88:	7f 81       	ldd	r23, Y+7	; 0x07
    4a8a:	84 86       	std	Z+12, r8	; 0x0c
    4a8c:	88 8a       	std	Y+16, r8	; 0x10
    4a8e:	8c 8e       	std	Y+28, r8	; 0x1c
    4a90:	90 91 92 93 	lds	r25, 0x9392
    4a94:	94 95       	.word	0x9594	; ????
    4a96:	95 96       	adiw	r26, 0x25	; 37
    4a98:	95 95       	asr	r25
    4a9a:	95 94       	asr	r9
    4a9c:	92 91       	ld	r25, -Z
    4a9e:	8f 8d       	ldd	r24, Y+31	; 0x1f
    4aa0:	8a 88       	ldd	r8, Y+18	; 0x12
    4aa2:	85 82       	std	Z+5, r8	; 0x05
    4aa4:	7f 7b       	andi	r23, 0xBF	; 191
    4aa6:	78 76       	andi	r23, 0x68	; 104
    4aa8:	73 71       	andi	r23, 0x13	; 19
    4aaa:	6f 6e       	ori	r22, 0xEF	; 239
    4aac:	6d 6d       	ori	r22, 0xDD	; 221
    4aae:	6d 6e       	ori	r22, 0xED	; 237
    4ab0:	6f 70       	andi	r22, 0x0F	; 15
    4ab2:	72 74       	andi	r23, 0x42	; 66
    4ab4:	76 79       	andi	r23, 0x96	; 150
    4ab6:	7b 7e       	andi	r23, 0xEB	; 235
    4ab8:	80 82       	st	Z, r8
    4aba:	84 86       	std	Z+12, r8	; 0x0c
    4abc:	88 8a       	std	Y+16, r8	; 0x10
    4abe:	8b 8c       	ldd	r8, Y+27	; 0x1b
    4ac0:	8d 8e       	std	Y+29, r8	; 0x1d
    4ac2:	8f 90       	pop	r8
    4ac4:	90 90 90 8f 	lds	r9, 0x8F90
    4ac8:	8e 8d       	ldd	r24, Y+30	; 0x1e
    4aca:	8b 89       	ldd	r24, Y+19	; 0x13
    4acc:	87 84       	ldd	r8, Z+15	; 0x0f
    4ace:	81 7e       	andi	r24, 0xE1	; 225
    4ad0:	7b 78       	andi	r23, 0x8B	; 139
    4ad2:	75 72       	andi	r23, 0x25	; 37
    4ad4:	70 6d       	ori	r23, 0xD0	; 208
    4ad6:	6c 6a       	ori	r22, 0xAC	; 172
    4ad8:	69 69       	ori	r22, 0x99	; 153
    4ada:	69 6a       	ori	r22, 0xA9	; 169
    4adc:	6b 6d       	ori	r22, 0xDB	; 219
    4ade:	6f 71       	andi	r22, 0x1F	; 31
    4ae0:	73 75       	andi	r23, 0x53	; 83
    4ae2:	78 7a       	andi	r23, 0xA8	; 168
    4ae4:	7d 7f       	andi	r23, 0xFD	; 253
    4ae6:	81 83       	std	Z+1, r24	; 0x01
    4ae8:	85 86       	std	Z+13, r8	; 0x0d
    4aea:	88 89       	ldd	r24, Y+16	; 0x10
    4aec:	8a 8c       	ldd	r8, Y+26	; 0x1a
    4aee:	8c 8d       	ldd	r24, Y+28	; 0x1c
    4af0:	8e 8e       	std	Y+30, r8	; 0x1e
    4af2:	8e 8e       	std	Y+30, r8	; 0x1e
    4af4:	8d 8d       	ldd	r24, Y+29	; 0x1d
    4af6:	8b 8a       	std	Y+19, r8	; 0x13
    4af8:	88 86       	std	Y+8, r8	; 0x08
    4afa:	83 81       	ldd	r24, Z+3	; 0x03
    4afc:	7e 7b       	andi	r23, 0xBE	; 190
    4afe:	78 75       	andi	r23, 0x58	; 88
    4b00:	72 6f       	ori	r23, 0xF2	; 242
    4b02:	6d 6b       	ori	r22, 0xBD	; 189
    4b04:	6a 69       	ori	r22, 0x9A	; 154
    4b06:	68 68       	ori	r22, 0x88	; 136
    4b08:	68 69       	ori	r22, 0x98	; 152
    4b0a:	6b 6c       	ori	r22, 0xCB	; 203
    4b0c:	6e 71       	andi	r22, 0x1E	; 30
    4b0e:	73 76       	andi	r23, 0x63	; 99
    4b10:	78 7b       	andi	r23, 0xB8	; 184
    4b12:	7e 80       	ldd	r7, Y+6	; 0x06
    4b14:	83 85       	ldd	r24, Z+11	; 0x0b
    4b16:	87 89       	ldd	r24, Z+23	; 0x17
    4b18:	8b 8c       	ldd	r8, Y+27	; 0x1b
    4b1a:	8e 8f       	std	Y+30, r24	; 0x1e
    4b1c:	90 90 91 91 	lds	r9, 0x9191
    4b20:	91 90       	ld	r9, Z+
    4b22:	90 8f       	std	Z+24, r25	; 0x18
    4b24:	8e 8d       	ldd	r24, Y+30	; 0x1e
    4b26:	8b 89       	ldd	r24, Y+19	; 0x13
    4b28:	87 85       	ldd	r24, Z+15	; 0x0f
    4b2a:	82 80       	ldd	r8, Z+2	; 0x02
    4b2c:	7d 7b       	andi	r23, 0xBD	; 189
    4b2e:	78 76       	andi	r23, 0x68	; 104
    4b30:	74 72       	andi	r23, 0x24	; 36
    4b32:	71 70       	andi	r23, 0x01	; 1
    4b34:	6f 6f       	ori	r22, 0xFF	; 255
    4b36:	6f 70       	andi	r22, 0x0F	; 15
    4b38:	71 73       	andi	r23, 0x31	; 49
    4b3a:	75 77       	andi	r23, 0x75	; 117
    4b3c:	7a 7c       	andi	r23, 0xCA	; 202
    4b3e:	7f 81       	ldd	r23, Y+7	; 0x07
    4b40:	84 86       	std	Z+12, r8	; 0x0c
    4b42:	88 8a       	std	Y+16, r8	; 0x10
    4b44:	8c 8e       	std	Y+28, r8	; 0x1c
    4b46:	8f 90       	pop	r8
    4b48:	91 92       	st	Z+, r9
    4b4a:	93 93       	.word	0x9393	; ????
    4b4c:	93 94       	inc	r9
    4b4e:	93 93       	.word	0x9393	; ????
    4b50:	93 92       	.word	0x9293	; ????
    4b52:	91 8f       	std	Z+25, r25	; 0x19
    4b54:	8e 8b       	std	Y+22, r24	; 0x16
    4b56:	89 87       	std	Y+9, r24	; 0x09
    4b58:	84 81       	ldd	r24, Z+4	; 0x04
    4b5a:	7e 7b       	andi	r23, 0xBE	; 190
    4b5c:	78 75       	andi	r23, 0x58	; 88
    4b5e:	73 71       	andi	r23, 0x13	; 19
    4b60:	6f 6e       	ori	r22, 0xEF	; 239
    4b62:	6d 6d       	ori	r22, 0xDD	; 221
    4b64:	6d 6e       	ori	r22, 0xED	; 237
    4b66:	6f 70       	andi	r22, 0x0F	; 15
    4b68:	71 73       	andi	r23, 0x31	; 49
    4b6a:	74 76       	andi	r23, 0x64	; 100
    4b6c:	77 79       	andi	r23, 0x97	; 151
    4b6e:	7a 7b       	andi	r23, 0xBA	; 186
    4b70:	7c 7d       	andi	r23, 0xDC	; 220
    4b72:	7e 7e       	andi	r23, 0xEE	; 238
    4b74:	7f 7f       	andi	r23, 0xFF	; 255
    4b76:	80 80       	ld	r8, Z
    4b78:	81 81       	ldd	r24, Z+1	; 0x01
    4b7a:	82 82       	std	Z+2, r8	; 0x02
    4b7c:	82 83       	std	Z+2, r24	; 0x02
    4b7e:	82 82       	std	Z+2, r8	; 0x02
    4b80:	81 80       	ldd	r8, Z+1	; 0x01
    4b82:	7f 7d       	andi	r23, 0xDF	; 223
    4b84:	7b 79       	andi	r23, 0x9B	; 155
    4b86:	77 75       	andi	r23, 0x57	; 87
    4b88:	73 71       	andi	r23, 0x13	; 19
    4b8a:	6f 6d       	ori	r22, 0xDF	; 223
    4b8c:	6c 6c       	ori	r22, 0xCC	; 204
    4b8e:	6b 6c       	ori	r22, 0xCB	; 203
    4b90:	6c 6d       	ori	r22, 0xDC	; 220
    4b92:	6f 71       	andi	r22, 0x1F	; 31
    4b94:	73 76       	andi	r23, 0x63	; 99
    4b96:	78 7b       	andi	r23, 0xB8	; 184
    4b98:	7e 81       	ldd	r23, Y+6	; 0x06
    4b9a:	84 86       	std	Z+12, r8	; 0x0c
    4b9c:	89 8b       	std	Y+17, r24	; 0x11
    4b9e:	8d 90       	ld	r8, X+
    4ba0:	91 93       	st	Z+, r25
    4ba2:	95 97       	sbiw	r26, 0x25	; 37
    4ba4:	98 99       	sbic	0x13, 0	; 19
    4ba6:	9a 9b       	sbis	0x13, 2	; 19
    4ba8:	9c 9c       	mul	r9, r12
    4baa:	9c 9c       	mul	r9, r12
    4bac:	9b 9a       	sbi	0x13, 3	; 19
    4bae:	99 97       	sbiw	r26, 0x29	; 41
    4bb0:	95 92       	las	Z, r9
    4bb2:	8f 8c       	ldd	r8, Y+31	; 0x1f
    4bb4:	88 85       	ldd	r24, Y+8	; 0x08
    4bb6:	81 7d       	andi	r24, 0xD1	; 209
    4bb8:	7a 77       	andi	r23, 0x7A	; 122
    4bba:	74 72       	andi	r23, 0x24	; 36
    4bbc:	70 6e       	ori	r23, 0xE0	; 224
    4bbe:	6d 6c       	ori	r22, 0xCD	; 205
    4bc0:	6c 6d       	ori	r22, 0xDC	; 220
    4bc2:	6e 6f       	ori	r22, 0xFE	; 254
    4bc4:	70 72       	andi	r23, 0x20	; 32
    4bc6:	74 76       	andi	r23, 0x64	; 100
    4bc8:	78 7a       	andi	r23, 0xA8	; 168
    4bca:	7c 7e       	andi	r23, 0xEC	; 236
    4bcc:	80 82       	st	Z, r8
    4bce:	83 85       	ldd	r24, Z+11	; 0x0b
    4bd0:	86 87       	std	Z+14, r24	; 0x0e
    4bd2:	88 89       	ldd	r24, Y+16	; 0x10
    4bd4:	8a 8a       	std	Y+18, r8	; 0x12
    4bd6:	8a 8b       	std	Y+18, r24	; 0x12
    4bd8:	8a 8a       	std	Y+18, r8	; 0x12
    4bda:	8a 89       	ldd	r24, Y+18	; 0x12
    4bdc:	88 87       	std	Y+8, r24	; 0x08
    4bde:	85 84       	ldd	r8, Z+13	; 0x0d
    4be0:	82 80       	ldd	r8, Z+2	; 0x02
    4be2:	7e 7c       	andi	r23, 0xCE	; 206
    4be4:	7a 78       	andi	r23, 0x8A	; 138
    4be6:	76 75       	andi	r23, 0x56	; 86
    4be8:	73 72       	andi	r23, 0x23	; 35
    4bea:	72 72       	andi	r23, 0x22	; 34
    4bec:	72 72       	andi	r23, 0x22	; 34
    4bee:	73 75       	andi	r23, 0x53	; 83
    4bf0:	76 78       	andi	r23, 0x86	; 134
    4bf2:	7a 7d       	andi	r23, 0xDA	; 218
    4bf4:	7f 81       	ldd	r23, Y+7	; 0x07
    4bf6:	83 85       	ldd	r24, Z+11	; 0x0b
    4bf8:	87 88       	ldd	r8, Z+23	; 0x17
    4bfa:	8a 8b       	std	Y+18, r24	; 0x12
    4bfc:	8c 8d       	ldd	r24, Y+28	; 0x1c
    4bfe:	8d 8e       	std	Y+29, r8	; 0x1d
    4c00:	8e 8e       	std	Y+30, r8	; 0x1e
    4c02:	8e 8e       	std	Y+30, r8	; 0x1e
    4c04:	8d 8d       	ldd	r24, Y+29	; 0x1d
    4c06:	8c 8b       	std	Y+20, r24	; 0x14
    4c08:	8a 88       	ldd	r8, Y+18	; 0x12
    4c0a:	86 84       	ldd	r8, Z+14	; 0x0e
    4c0c:	82 7f       	andi	r24, 0xF2	; 242
    4c0e:	7c 79       	andi	r23, 0x9C	; 156
    4c10:	76 73       	andi	r23, 0x36	; 54
    4c12:	70 6e       	ori	r23, 0xE0	; 224
    4c14:	6b 69       	ori	r22, 0x9B	; 155
    4c16:	67 66       	ori	r22, 0x67	; 103
    4c18:	66 65       	ori	r22, 0x56	; 86
    4c1a:	66 66       	ori	r22, 0x66	; 102
    4c1c:	67 69       	ori	r22, 0x97	; 151
    4c1e:	6b 6d       	ori	r22, 0xDB	; 219
    4c20:	6f 72       	andi	r22, 0x2F	; 47
    4c22:	74 77       	andi	r23, 0x74	; 116
    4c24:	79 7b       	andi	r23, 0xB9	; 185
    4c26:	7e 80       	ldd	r7, Y+6	; 0x06
    4c28:	82 83       	std	Z+2, r24	; 0x02
    4c2a:	85 87       	std	Z+13, r24	; 0x0d
    4c2c:	88 89       	ldd	r24, Y+16	; 0x10
    4c2e:	8b 8c       	ldd	r8, Y+27	; 0x1b
    4c30:	8c 8d       	ldd	r24, Y+28	; 0x1c
    4c32:	8e 8e       	std	Y+30, r8	; 0x1e
    4c34:	8e 8e       	std	Y+30, r8	; 0x1e
    4c36:	8e 8d       	ldd	r24, Y+30	; 0x1e
    4c38:	8c 8b       	std	Y+20, r24	; 0x14
    4c3a:	89 87       	std	Y+9, r24	; 0x09
    4c3c:	85 83       	std	Z+5, r24	; 0x05
    4c3e:	81 7f       	andi	r24, 0xF1	; 241
    4c40:	7d 7b       	andi	r23, 0xBD	; 189
    4c42:	79 78       	andi	r23, 0x89	; 137
    4c44:	76 76       	andi	r23, 0x66	; 102
    4c46:	75 75       	andi	r23, 0x55	; 85
    4c48:	75 76       	andi	r23, 0x65	; 101
    4c4a:	77 78       	andi	r23, 0x87	; 135
    4c4c:	7a 7b       	andi	r23, 0xBA	; 186
    4c4e:	7d 7f       	andi	r23, 0xFD	; 253
    4c50:	81 84       	ldd	r8, Z+9	; 0x09
    4c52:	86 88       	ldd	r8, Z+22	; 0x16
    4c54:	8a 8b       	std	Y+18, r24	; 0x12
    4c56:	8d 8e       	std	Y+29, r8	; 0x1d
    4c58:	8f 90       	pop	r8
    4c5a:	91 92       	st	Z+, r9
    4c5c:	92 93       	st	-Z, r25
    4c5e:	93 93       	.word	0x9393	; ????
    4c60:	92 92       	st	-Z, r9
    4c62:	91 90       	ld	r9, Z+
    4c64:	8f 8d       	ldd	r24, Y+31	; 0x1f
    4c66:	8b 89       	ldd	r24, Y+19	; 0x13
    4c68:	87 85       	ldd	r24, Z+15	; 0x0f
    4c6a:	83 80       	ldd	r8, Z+3	; 0x03
    4c6c:	7d 7b       	andi	r23, 0xBD	; 189
    4c6e:	78 76       	andi	r23, 0x68	; 104
    4c70:	74 72       	andi	r23, 0x24	; 36
    4c72:	70 6e       	ori	r23, 0xE0	; 224
    4c74:	6d 6d       	ori	r22, 0xDD	; 221
    4c76:	6d 6d       	ori	r22, 0xDD	; 221
    4c78:	6e 6f       	ori	r22, 0xFE	; 254
    4c7a:	70 72       	andi	r23, 0x20	; 32
    4c7c:	73 75       	andi	r23, 0x53	; 83
    4c7e:	78 7a       	andi	r23, 0xA8	; 168
    4c80:	7c 7e       	andi	r23, 0xEC	; 236
    4c82:	80 82       	st	Z, r8
    4c84:	84 85       	ldd	r24, Z+12	; 0x0c
    4c86:	87 88       	ldd	r8, Z+23	; 0x17
    4c88:	89 8b       	std	Y+17, r24	; 0x11
    4c8a:	8c 8d       	ldd	r24, Y+28	; 0x1c
    4c8c:	8d 8e       	std	Y+29, r8	; 0x1d
    4c8e:	8e 8f       	std	Y+30, r24	; 0x1e
    4c90:	8f 8f       	std	Y+31, r24	; 0x1f
    4c92:	8e 8d       	ldd	r24, Y+30	; 0x1e
    4c94:	8c 8b       	std	Y+20, r24	; 0x14
    4c96:	89 87       	std	Y+9, r24	; 0x09
    4c98:	84 82       	std	Z+4, r8	; 0x04
    4c9a:	7f 7c       	andi	r23, 0xCF	; 207
    4c9c:	79 77       	andi	r23, 0x79	; 121
    4c9e:	74 72       	andi	r23, 0x24	; 36
    4ca0:	70 6e       	ori	r23, 0xE0	; 224
    4ca2:	6d 6c       	ori	r22, 0xCD	; 205
    4ca4:	6c 6c       	ori	r22, 0xCC	; 204
    4ca6:	6d 6e       	ori	r22, 0xED	; 237
    4ca8:	6f 71       	andi	r22, 0x1F	; 31
    4caa:	73 75       	andi	r23, 0x53	; 83
    4cac:	77 79       	andi	r23, 0x97	; 151
    4cae:	7b 7c       	andi	r23, 0xCB	; 203
    4cb0:	7e 80       	ldd	r7, Y+6	; 0x06
    4cb2:	82 83       	std	Z+2, r24	; 0x02
    4cb4:	84 86       	std	Z+12, r8	; 0x0c
    4cb6:	87 88       	ldd	r8, Z+23	; 0x17
    4cb8:	89 8a       	std	Y+17, r8	; 0x11
    4cba:	8a 8b       	std	Y+18, r24	; 0x12
    4cbc:	8b 8b       	std	Y+19, r24	; 0x13
    4cbe:	8b 8b       	std	Y+19, r24	; 0x13
    4cc0:	8a 89       	ldd	r24, Y+18	; 0x12
    4cc2:	87 86       	std	Z+15, r8	; 0x0f
    4cc4:	84 81       	ldd	r24, Z+4	; 0x04
    4cc6:	7f 7d       	andi	r23, 0xDF	; 223
    4cc8:	7a 78       	andi	r23, 0x8A	; 138
    4cca:	75 73       	andi	r23, 0x35	; 53
    4ccc:	71 6f       	ori	r23, 0xF1	; 241
    4cce:	6e 6d       	ori	r22, 0xDE	; 222
    4cd0:	6c 6c       	ori	r22, 0xCC	; 204
    4cd2:	6c 6d       	ori	r22, 0xDC	; 220
    4cd4:	6d 6e       	ori	r22, 0xED	; 237
    4cd6:	70 71       	andi	r23, 0x10	; 16
    4cd8:	73 75       	andi	r23, 0x53	; 83
    4cda:	77 79       	andi	r23, 0x97	; 151
    4cdc:	7b 7d       	andi	r23, 0xDB	; 219
    4cde:	7e 80       	ldd	r7, Y+6	; 0x06
    4ce0:	82 84       	ldd	r8, Z+10	; 0x0a
    4ce2:	86 87       	std	Z+14, r24	; 0x0e
    4ce4:	89 8a       	std	Y+17, r8	; 0x11
    4ce6:	8b 8c       	ldd	r8, Y+27	; 0x1b
    4ce8:	8d 8d       	ldd	r24, Y+29	; 0x1d
    4cea:	8e 8d       	ldd	r24, Y+30	; 0x1e
    4cec:	8d 8c       	ldd	r8, Y+29	; 0x1d
    4cee:	8b 8a       	std	Y+19, r8	; 0x13
    4cf0:	89 87       	std	Y+9, r24	; 0x09
    4cf2:	85 83       	std	Z+5, r24	; 0x05
    4cf4:	81 7f       	andi	r24, 0xF1	; 241
    4cf6:	7d 7b       	andi	r23, 0xBD	; 189
    4cf8:	79 78       	andi	r23, 0x89	; 137
    4cfa:	77 76       	andi	r23, 0x67	; 103
    4cfc:	75 75       	andi	r23, 0x55	; 85
    4cfe:	74 75       	andi	r23, 0x54	; 84
    4d00:	75 76       	andi	r23, 0x65	; 101
    4d02:	77 78       	andi	r23, 0x87	; 135
    4d04:	7a 7b       	andi	r23, 0xBA	; 186
    4d06:	7d 7f       	andi	r23, 0xFD	; 253
    4d08:	81 83       	std	Z+1, r24	; 0x01
    4d0a:	84 86       	std	Z+12, r8	; 0x0c
    4d0c:	88 89       	ldd	r24, Y+16	; 0x10
    4d0e:	8a 8c       	ldd	r8, Y+26	; 0x1a
    4d10:	8d 8d       	ldd	r24, Y+29	; 0x1d
    4d12:	8e 8e       	std	Y+30, r8	; 0x1e
    4d14:	8f 8f       	std	Y+31, r24	; 0x1f
    4d16:	8e 8e       	std	Y+30, r8	; 0x1e
    4d18:	8d 8c       	ldd	r8, Y+29	; 0x1d
    4d1a:	8b 8a       	std	Y+19, r8	; 0x13
    4d1c:	88 87       	std	Y+8, r24	; 0x08
    4d1e:	85 83       	std	Z+5, r24	; 0x05
    4d20:	81 7f       	andi	r24, 0xF1	; 241
    4d22:	7d 7a       	andi	r23, 0xAD	; 173
    4d24:	78 77       	andi	r23, 0x78	; 120
    4d26:	75 74       	andi	r23, 0x45	; 69
    4d28:	73 72       	andi	r23, 0x23	; 35
    4d2a:	71 71       	andi	r23, 0x11	; 17
    4d2c:	71 72       	andi	r23, 0x21	; 33
    4d2e:	73 74       	andi	r23, 0x43	; 67
    4d30:	75 77       	andi	r23, 0x75	; 117
    4d32:	78 7a       	andi	r23, 0xA8	; 168
    4d34:	7b 7d       	andi	r23, 0xDB	; 219
    4d36:	7e 80       	ldd	r7, Y+6	; 0x06
    4d38:	81 82       	std	Z+1, r8	; 0x01
    4d3a:	83 84       	ldd	r8, Z+11	; 0x0b
    4d3c:	85 85       	ldd	r24, Z+13	; 0x0d
    4d3e:	86 87       	std	Z+14, r24	; 0x0e
    4d40:	87 88       	ldd	r8, Z+23	; 0x17
    4d42:	88 88       	ldd	r8, Y+16	; 0x10
    4d44:	89 89       	ldd	r24, Y+17	; 0x11
    4d46:	89 88       	ldd	r8, Y+17	; 0x11
    4d48:	88 87       	std	Y+8, r24	; 0x08
    4d4a:	86 85       	ldd	r24, Z+14	; 0x0e
    4d4c:	84 82       	std	Z+4, r8	; 0x04
    4d4e:	81 7f       	andi	r24, 0xF1	; 241
    4d50:	7d 7b       	andi	r23, 0xBD	; 189
    4d52:	79 78       	andi	r23, 0x89	; 137
    4d54:	77 76       	andi	r23, 0x67	; 103
    4d56:	75 74       	andi	r23, 0x45	; 69
    4d58:	75 75       	andi	r23, 0x55	; 85
    4d5a:	76 77       	andi	r23, 0x76	; 118
    4d5c:	78 7a       	andi	r23, 0xA8	; 168
    4d5e:	7b 7d       	andi	r23, 0xDB	; 219
    4d60:	7f 81       	ldd	r23, Y+7	; 0x07
    4d62:	82 83       	std	Z+2, r24	; 0x02
    4d64:	85 85       	ldd	r24, Z+13	; 0x0d
    4d66:	86 86       	std	Z+14, r8	; 0x0e
    4d68:	86 86       	std	Z+14, r8	; 0x0e
    4d6a:	86 85       	ldd	r24, Z+14	; 0x0e
    4d6c:	84 83       	std	Z+4, r24	; 0x04
    4d6e:	82 81       	ldd	r24, Z+2	; 0x02
    4d70:	80 7e       	andi	r24, 0xE0	; 224
    4d72:	7d 7b       	andi	r23, 0xBD	; 189
    4d74:	7a 79       	andi	r23, 0x9A	; 154
    4d76:	77 76       	andi	r23, 0x67	; 103
    4d78:	75 74       	andi	r23, 0x45	; 69
    4d7a:	74 74       	andi	r23, 0x44	; 68
    4d7c:	74 74       	andi	r23, 0x44	; 68
    4d7e:	75 76       	andi	r23, 0x65	; 101
    4d80:	77 79       	andi	r23, 0x97	; 151
    4d82:	7a 7c       	andi	r23, 0xCA	; 202
    4d84:	7f 81       	ldd	r23, Y+7	; 0x07
    4d86:	83 86       	std	Z+11, r8	; 0x0b
    4d88:	88 89       	ldd	r24, Y+16	; 0x10
    4d8a:	8b 8c       	ldd	r8, Y+27	; 0x1b
    4d8c:	8d 8e       	std	Y+29, r8	; 0x1d
    4d8e:	8e 8e       	std	Y+30, r8	; 0x1e
    4d90:	8d 8d       	ldd	r24, Y+29	; 0x1d
    4d92:	8c 8b       	std	Y+20, r24	; 0x14
    4d94:	89 88       	ldd	r8, Y+17	; 0x11
    4d96:	87 86       	std	Z+15, r8	; 0x0f
    4d98:	85 83       	std	Z+5, r24	; 0x05
    4d9a:	82 81       	ldd	r24, Z+2	; 0x02
    4d9c:	80 7f       	andi	r24, 0xF0	; 240
    4d9e:	7d 7c       	andi	r23, 0xCD	; 205
    4da0:	7a 78       	andi	r23, 0x8A	; 138
    4da2:	76 73       	andi	r23, 0x36	; 54
    4da4:	71 6e       	ori	r23, 0xE1	; 225
    4da6:	6b 67       	ori	r22, 0x7B	; 123
    4da8:	64 61       	ori	r22, 0x14	; 20
    4daa:	5f 5c       	subi	r21, 0xCF	; 207
    4dac:	5b 59       	subi	r21, 0x9B	; 155
    4dae:	58 58       	subi	r21, 0x88	; 136
    4db0:	59 5a       	subi	r21, 0xA9	; 169
    4db2:	5d 5f       	subi	r21, 0xFD	; 253
    4db4:	63 66       	ori	r22, 0x63	; 99
    4db6:	6a 6f       	ori	r22, 0xFA	; 250
    4db8:	73 78       	andi	r23, 0x83	; 131
    4dba:	7c 80       	ldd	r7, Y+4	; 0x04
    4dbc:	84 88       	ldd	r8, Z+20	; 0x14
    4dbe:	8b 8d       	ldd	r24, Y+27	; 0x1b
    4dc0:	8f 91       	pop	r24
    4dc2:	93 94       	inc	r9
    4dc4:	95 95       	asr	r25
    4dc6:	96 97       	sbiw	r26, 0x26	; 38
    4dc8:	98 99       	sbic	0x13, 0	; 19
    4dca:	9a 9b       	sbis	0x13, 2	; 19
    4dcc:	9d 9e       	mul	r9, r29
    4dce:	a0 a1       	ldd	r26, Z+32	; 0x20
    4dd0:	a3 a3       	std	Z+35, r26	; 0x23
    4dd2:	a4 a4       	ldd	r10, Z+44	; 0x2c
    4dd4:	a4 a3       	std	Z+36, r26	; 0x24
    4dd6:	a1 9f       	mul	r26, r17
    4dd8:	9c 99       	sbic	0x13, 4	; 19
    4dda:	96 93       	lac	Z, r25
    4ddc:	8f 8c       	ldd	r8, Y+31	; 0x1f
    4dde:	89 86       	std	Y+9, r8	; 0x09
    4de0:	84 82       	std	Z+4, r8	; 0x04
    4de2:	81 81       	ldd	r24, Z+1	; 0x01
    4de4:	81 82       	std	Z+1, r8	; 0x01
    4de6:	83 84       	ldd	r8, Z+11	; 0x0b
    4de8:	86 88       	ldd	r8, Z+22	; 0x16
    4dea:	8a 8b       	std	Y+18, r24	; 0x12
    4dec:	8c 8d       	ldd	r24, Y+28	; 0x1c
    4dee:	8e 8d       	ldd	r24, Y+30	; 0x1e
    4df0:	8d 8b       	std	Y+21, r24	; 0x15
    4df2:	89 87       	std	Y+9, r24	; 0x09
    4df4:	85 82       	std	Z+5, r8	; 0x05
    4df6:	7f 7c       	andi	r23, 0xCF	; 207
    4df8:	78 75       	andi	r23, 0x58	; 88
    4dfa:	72 70       	andi	r23, 0x02	; 2
    4dfc:	6d 6b       	ori	r22, 0xBD	; 189
    4dfe:	69 67       	ori	r22, 0x79	; 121
    4e00:	65 64       	ori	r22, 0x45	; 69
    4e02:	63 62       	ori	r22, 0x23	; 35
    4e04:	62 61       	ori	r22, 0x12	; 18
    4e06:	61 61       	ori	r22, 0x11	; 17
    4e08:	61 62       	ori	r22, 0x21	; 33
    4e0a:	63 64       	ori	r22, 0x43	; 67
    4e0c:	66 68       	ori	r22, 0x86	; 134
    4e0e:	6a 6d       	ori	r22, 0xDA	; 218
    4e10:	70 73       	andi	r23, 0x30	; 48
    4e12:	76 79       	andi	r23, 0x96	; 150
    4e14:	7d 80       	ldd	r7, Y+5	; 0x05
    4e16:	83 86       	std	Z+11, r8	; 0x0b
    4e18:	89 8c       	ldd	r8, Y+25	; 0x19
    4e1a:	8e 90       	ld	r8, -X
    4e1c:	92 93       	st	-Z, r25
    4e1e:	95 95       	asr	r25
    4e20:	96 96       	adiw	r26, 0x26	; 38
    4e22:	96 96       	adiw	r26, 0x26	; 38
    4e24:	96 95       	lsr	r25
    4e26:	94 93       	xch	Z, r25
    4e28:	91 90       	ld	r9, Z+
    4e2a:	8d 8b       	std	Y+21, r24	; 0x15
    4e2c:	88 85       	ldd	r24, Y+8	; 0x08
    4e2e:	82 7e       	andi	r24, 0xE2	; 226
    4e30:	7a 76       	andi	r23, 0x6A	; 106
    4e32:	72 6d       	ori	r23, 0xD2	; 210
    4e34:	69 65       	ori	r22, 0x59	; 89
    4e36:	61 5d       	subi	r22, 0xD1	; 209
    4e38:	5a 57       	subi	r21, 0x7A	; 122
    4e3a:	55 53       	subi	r21, 0x35	; 53
    4e3c:	52 52       	subi	r21, 0x22	; 34
    4e3e:	52 53       	subi	r21, 0x32	; 50
    4e40:	55 57       	subi	r21, 0x75	; 117
    4e42:	59 5c       	subi	r21, 0xC9	; 201
    4e44:	60 63       	ori	r22, 0x30	; 48
    4e46:	67 6b       	ori	r22, 0xB7	; 183
    4e48:	6f 73       	andi	r22, 0x3F	; 63
    4e4a:	77 7a       	andi	r23, 0xA7	; 167
    4e4c:	7d 80       	ldd	r7, Y+5	; 0x05
    4e4e:	83 85       	ldd	r24, Z+11	; 0x0b
    4e50:	87 89       	ldd	r24, Z+23	; 0x17
    4e52:	8a 8a       	std	Y+18, r8	; 0x12
    4e54:	8b 8b       	std	Y+19, r24	; 0x13
    4e56:	8b 8a       	std	Y+19, r8	; 0x13
    4e58:	89 88       	ldd	r8, Y+17	; 0x11
    4e5a:	87 86       	std	Z+15, r8	; 0x0f
    4e5c:	85 83       	std	Z+5, r24	; 0x05
    4e5e:	82 81       	ldd	r24, Z+2	; 0x02
    4e60:	7f 7e       	andi	r23, 0xEF	; 239
    4e62:	7c 7b       	andi	r23, 0xBC	; 188
    4e64:	7a 78       	andi	r23, 0x8A	; 138
    4e66:	77 76       	andi	r23, 0x67	; 103
    4e68:	75 75       	andi	r23, 0x55	; 85
    4e6a:	74 74       	andi	r23, 0x44	; 68
    4e6c:	74 75       	andi	r23, 0x54	; 84
    4e6e:	75 77       	andi	r23, 0x75	; 117
    4e70:	78 7a       	andi	r23, 0xA8	; 168
    4e72:	7d 80       	ldd	r7, Y+5	; 0x05
    4e74:	83 87       	std	Z+11, r24	; 0x0b
    4e76:	8b 8f       	std	Y+27, r24	; 0x1b
    4e78:	94 98       	cbi	0x12, 4	; 18
    4e7a:	9c a0       	ldd	r9, Y+36	; 0x24
    4e7c:	a3 a7       	std	Z+43, r26	; 0x2b
    4e7e:	a9 ab       	std	Y+49, r26	; 0x31
    4e80:	ad ae       	std	Y+61, r10	; 0x3d
    4e82:	ae ae       	std	Y+62, r10	; 0x3e
    4e84:	ad ab       	std	Y+53, r26	; 0x35
    4e86:	a9 a6       	std	Y+41, r10	; 0x29
    4e88:	a3 9f       	mul	r26, r19
    4e8a:	9c 98       	cbi	0x13, 4	; 19
    4e8c:	94 90       	lpm	r9, Z
    4e8e:	8c 89       	ldd	r24, Y+20	; 0x14
    4e90:	85 81       	ldd	r24, Z+5	; 0x05
    4e92:	7e 7b       	andi	r23, 0xBE	; 190
    4e94:	78 75       	andi	r23, 0x58	; 88
    4e96:	72 70       	andi	r23, 0x02	; 2
    4e98:	6e 6c       	ori	r22, 0xCE	; 206
    4e9a:	6a 68       	ori	r22, 0x8A	; 138
    4e9c:	67 66       	ori	r22, 0x67	; 103
    4e9e:	65 65       	ori	r22, 0x55	; 85
    4ea0:	65 66       	ori	r22, 0x65	; 101
    4ea2:	67 68       	ori	r22, 0x87	; 135
    4ea4:	6a 6d       	ori	r22, 0xDA	; 218
    4ea6:	70 73       	andi	r23, 0x30	; 48
    4ea8:	76 7a       	andi	r23, 0xA6	; 166
    4eaa:	7e 82       	std	Y+6, r7	; 0x06
    4eac:	86 8a       	std	Z+22, r8	; 0x16
    4eae:	8d 91       	ld	r24, X+
    4eb0:	94 97       	sbiw	r26, 0x24	; 36
    4eb2:	99 9a       	sbi	0x13, 1	; 19
    4eb4:	9b 9c       	mul	r9, r11
    4eb6:	9c 9b       	sbis	0x13, 4	; 19
    4eb8:	9a 99       	sbic	0x13, 2	; 19
    4eba:	97 94       	ror	r9
    4ebc:	91 8e       	std	Z+25, r9	; 0x19
    4ebe:	8b 88       	ldd	r8, Y+19	; 0x13
    4ec0:	85 81       	ldd	r24, Z+5	; 0x05
    4ec2:	7e 7a       	andi	r23, 0xAE	; 174
    4ec4:	77 74       	andi	r23, 0x47	; 71
    4ec6:	72 6f       	ori	r23, 0xF2	; 242
    4ec8:	6d 6b       	ori	r22, 0xBD	; 189
    4eca:	69 68       	ori	r22, 0x89	; 137
    4ecc:	67 67       	ori	r22, 0x77	; 119
    4ece:	66 67       	ori	r22, 0x76	; 118
    4ed0:	67 68       	ori	r22, 0x87	; 135
    4ed2:	69 6b       	ori	r22, 0xB9	; 185
    4ed4:	6d 6f       	ori	r22, 0xFD	; 253
    4ed6:	71 73       	andi	r23, 0x31	; 49
    4ed8:	76 78       	andi	r23, 0x86	; 134
    4eda:	7b 7d       	andi	r23, 0xDB	; 219
    4edc:	80 82       	st	Z, r8
    4ede:	84 86       	std	Z+12, r8	; 0x0c
    4ee0:	87 88       	ldd	r8, Z+23	; 0x17
    4ee2:	89 89       	ldd	r24, Y+17	; 0x11
    4ee4:	89 88       	ldd	r8, Y+17	; 0x11
    4ee6:	88 87       	std	Y+8, r24	; 0x08
    4ee8:	85 83       	std	Z+5, r24	; 0x05
    4eea:	82 7f       	andi	r24, 0xF2	; 242
    4eec:	7d 7b       	andi	r23, 0xBD	; 189
    4eee:	78 76       	andi	r23, 0x68	; 104
    4ef0:	73 71       	andi	r23, 0x13	; 19
    4ef2:	6f 6d       	ori	r22, 0xDF	; 223
    4ef4:	6b 69       	ori	r22, 0x9B	; 155
    4ef6:	67 66       	ori	r22, 0x67	; 103
    4ef8:	65 64       	ori	r22, 0x45	; 69
    4efa:	63 63       	ori	r22, 0x33	; 51
    4efc:	63 64       	ori	r22, 0x43	; 67
    4efe:	65 66       	ori	r22, 0x65	; 101
    4f00:	68 6a       	ori	r22, 0xA8	; 168
    4f02:	6c 6f       	ori	r22, 0xFC	; 252
    4f04:	71 75       	andi	r23, 0x51	; 81
    4f06:	78 7c       	andi	r23, 0xC8	; 200
    4f08:	7f 83       	std	Y+7, r23	; 0x07
    4f0a:	86 89       	ldd	r24, Z+22	; 0x16
    4f0c:	8c 8f       	std	Y+28, r24	; 0x1c
    4f0e:	91 93       	st	Z+, r25
    4f10:	95 96       	adiw	r26, 0x25	; 37
    4f12:	96 96       	adiw	r26, 0x26	; 38
    4f14:	96 95       	lsr	r25
    4f16:	94 93       	xch	Z, r25
    4f18:	91 8f       	std	Z+25, r25	; 0x19
    4f1a:	8e 8c       	ldd	r8, Y+30	; 0x1e
    4f1c:	8a 88       	ldd	r8, Y+18	; 0x12
    4f1e:	86 85       	ldd	r24, Z+14	; 0x0e
    4f20:	83 82       	std	Z+3, r8	; 0x03
    4f22:	81 80       	ldd	r8, Z+1	; 0x01
    4f24:	7f 7f       	andi	r23, 0xFF	; 255
    4f26:	7e 7e       	andi	r23, 0xEE	; 238
    4f28:	7e 7d       	andi	r23, 0xDE	; 222
    4f2a:	7d 7d       	andi	r23, 0xDD	; 221
    4f2c:	7d 7d       	andi	r23, 0xDD	; 221
    4f2e:	7d 7d       	andi	r23, 0xDD	; 221
    4f30:	7d 7e       	andi	r23, 0xED	; 237
    4f32:	7e 7f       	andi	r23, 0xFE	; 254
    4f34:	80 81       	ld	r24, Z
    4f36:	82 84       	ldd	r8, Z+10	; 0x0a
    4f38:	86 87       	std	Z+14, r24	; 0x0e
    4f3a:	89 8b       	std	Y+17, r24	; 0x11
    4f3c:	8d 8f       	std	Y+29, r24	; 0x1d
    4f3e:	91 93       	st	Z+, r25
    4f40:	94 95       	.word	0x9594	; ????
    4f42:	95 96       	adiw	r26, 0x25	; 37
    4f44:	95 95       	asr	r25
    4f46:	94 92       	xch	Z, r9
    4f48:	91 8f       	std	Z+25, r25	; 0x19
    4f4a:	8d 8b       	std	Y+21, r24	; 0x15
    4f4c:	89 87       	std	Y+9, r24	; 0x09
    4f4e:	85 83       	std	Z+5, r24	; 0x05
    4f50:	81 7f       	andi	r24, 0xF1	; 241
    4f52:	7e 7d       	andi	r23, 0xDE	; 222
    4f54:	7c 7b       	andi	r23, 0xBC	; 188
    4f56:	7a 79       	andi	r23, 0x9A	; 154
    4f58:	78 77       	andi	r23, 0x78	; 120
    4f5a:	76 75       	andi	r23, 0x56	; 86
    4f5c:	74 73       	andi	r23, 0x34	; 52
    4f5e:	72 71       	andi	r23, 0x12	; 18
    4f60:	71 70       	andi	r23, 0x01	; 1
    4f62:	70 6f       	ori	r23, 0xF0	; 240
    4f64:	6f 70       	andi	r22, 0x0F	; 15
    4f66:	70 72       	andi	r23, 0x20	; 32
    4f68:	73 75       	andi	r23, 0x53	; 83
    4f6a:	77 79       	andi	r23, 0x97	; 151
    4f6c:	7c 7e       	andi	r23, 0xEC	; 236
    4f6e:	81 83       	std	Z+1, r24	; 0x01
    4f70:	86 88       	ldd	r8, Z+22	; 0x16
    4f72:	8a 8b       	std	Y+18, r24	; 0x12
    4f74:	8c 8c       	ldd	r8, Y+28	; 0x1c
    4f76:	8c 8c       	ldd	r8, Y+28	; 0x1c
    4f78:	8b 8a       	std	Y+19, r8	; 0x13
    4f7a:	88 86       	std	Y+8, r8	; 0x08
    4f7c:	84 82       	std	Z+4, r8	; 0x04
    4f7e:	80 7e       	andi	r24, 0xE0	; 224
    4f80:	7b 79       	andi	r23, 0x9B	; 155
    4f82:	77 75       	andi	r23, 0x57	; 87
    4f84:	74 73       	andi	r23, 0x34	; 52
    4f86:	71 71       	andi	r23, 0x11	; 17
    4f88:	70 6f       	ori	r23, 0xF0	; 240
    4f8a:	6f 6f       	ori	r22, 0xFF	; 255
    4f8c:	6f 6f       	ori	r22, 0xFF	; 255
    4f8e:	6f 6f       	ori	r22, 0xFF	; 255
    4f90:	6f 70       	andi	r22, 0x0F	; 15
    4f92:	70 71       	andi	r23, 0x10	; 16
    4f94:	72 73       	andi	r23, 0x32	; 50
    4f96:	75 76       	andi	r23, 0x65	; 101
    4f98:	78 79       	andi	r23, 0x98	; 152
    4f9a:	7b 7d       	andi	r23, 0xDB	; 219
    4f9c:	7f 82       	std	Y+7, r7	; 0x07
    4f9e:	84 86       	std	Z+12, r8	; 0x0c
    4fa0:	87 89       	ldd	r24, Z+23	; 0x17
    4fa2:	8a 8c       	ldd	r8, Y+26	; 0x1a
    4fa4:	8d 8d       	ldd	r24, Y+29	; 0x1d
    4fa6:	8d 8d       	ldd	r24, Y+29	; 0x1d
    4fa8:	8d 8d       	ldd	r24, Y+29	; 0x1d
    4faa:	8c 8b       	std	Y+20, r24	; 0x14
    4fac:	8a 89       	ldd	r24, Y+18	; 0x12
    4fae:	88 86       	std	Y+8, r8	; 0x08
    4fb0:	85 84       	ldd	r8, Z+13	; 0x0d
    4fb2:	83 82       	std	Z+3, r8	; 0x03
    4fb4:	81 80       	ldd	r8, Z+1	; 0x01
    4fb6:	80 7f       	andi	r24, 0xF0	; 240
    4fb8:	7e 7e       	andi	r23, 0xEE	; 238
    4fba:	7d 7c       	andi	r23, 0xCD	; 205
    4fbc:	7c 7c       	andi	r23, 0xCC	; 204
    4fbe:	7b 7b       	andi	r23, 0xBB	; 187
    4fc0:	7b 7b       	andi	r23, 0xBB	; 187
    4fc2:	7b 7c       	andi	r23, 0xCB	; 203
    4fc4:	7c 7d       	andi	r23, 0xDC	; 220
    4fc6:	7e 80       	ldd	r7, Y+6	; 0x06
    4fc8:	81 83       	std	Z+1, r24	; 0x01
    4fca:	85 87       	std	Z+13, r24	; 0x0d
    4fcc:	89 8b       	std	Y+17, r24	; 0x11
    4fce:	8d 8f       	std	Y+29, r24	; 0x1d
    4fd0:	91 92       	st	Z+, r9
    4fd2:	93 94       	inc	r9
    4fd4:	94 94       	.word	0x9494	; ????
    4fd6:	94 93       	xch	Z, r25
    4fd8:	93 91       	.word	0x9193	; ????
    4fda:	90 8f       	std	Z+24, r25	; 0x18
    4fdc:	8d 8c       	ldd	r8, Y+29	; 0x1d
    4fde:	8a 89       	ldd	r24, Y+18	; 0x12
    4fe0:	87 86       	std	Z+15, r8	; 0x0f
    4fe2:	85 84       	ldd	r8, Z+13	; 0x0d
    4fe4:	83 82       	std	Z+3, r8	; 0x03
    4fe6:	81 81       	ldd	r24, Z+1	; 0x01
    4fe8:	80 7f       	andi	r24, 0xF0	; 240
    4fea:	7f 7e       	andi	r23, 0xEF	; 239
    4fec:	7d 7c       	andi	r23, 0xCD	; 205
    4fee:	7c 7b       	andi	r23, 0xBC	; 188
    4ff0:	7a 7a       	andi	r23, 0xAA	; 170
    4ff2:	79 79       	andi	r23, 0x99	; 153
    4ff4:	78 78       	andi	r23, 0x88	; 136
    4ff6:	78 79       	andi	r23, 0x98	; 152
    4ff8:	7a 7a       	andi	r23, 0xAA	; 170
    4ffa:	7b 7d       	andi	r23, 0xDB	; 219
    4ffc:	7e 80       	ldd	r7, Y+6	; 0x06
    4ffe:	81 83       	std	Z+1, r24	; 0x01
    5000:	84 86       	std	Z+12, r8	; 0x0c
    5002:	87 88       	ldd	r8, Z+23	; 0x17
    5004:	89 89       	ldd	r24, Y+17	; 0x11
    5006:	89 89       	ldd	r24, Y+17	; 0x11
    5008:	89 88       	ldd	r8, Y+17	; 0x11
    500a:	87 86       	std	Z+15, r8	; 0x0f
    500c:	84 83       	std	Z+4, r24	; 0x04
    500e:	82 80       	ldd	r8, Z+2	; 0x02
    5010:	7e 7d       	andi	r23, 0xDE	; 222
    5012:	7b 7a       	andi	r23, 0xAB	; 171
    5014:	79 77       	andi	r23, 0x79	; 121
    5016:	76 75       	andi	r23, 0x56	; 86
    5018:	74 73       	andi	r23, 0x34	; 52
    501a:	72 71       	andi	r23, 0x12	; 18
    501c:	70 6f       	ori	r23, 0xF0	; 240
    501e:	6e 6d       	ori	r22, 0xDE	; 222
    5020:	6d 6c       	ori	r22, 0xCD	; 205
    5022:	6c 6b       	ori	r22, 0xBC	; 188
    5024:	6b 6c       	ori	r22, 0xCB	; 203
    5026:	6c 6c       	ori	r22, 0xCC	; 204
    5028:	6d 6e       	ori	r22, 0xED	; 237
    502a:	70 71       	andi	r23, 0x10	; 16
    502c:	73 74       	andi	r23, 0x43	; 67
    502e:	76 78       	andi	r23, 0x86	; 134
    5030:	7a 7c       	andi	r23, 0xCA	; 202
    5032:	7d 7f       	andi	r23, 0xFD	; 253
    5034:	80 82       	st	Z, r8
    5036:	83 84       	ldd	r8, Z+11	; 0x0b
    5038:	84 85       	ldd	r24, Z+12	; 0x0c
    503a:	85 85       	ldd	r24, Z+13	; 0x0d
    503c:	84 84       	ldd	r8, Z+12	; 0x0c
    503e:	83 83       	std	Z+3, r24	; 0x03
    5040:	82 81       	ldd	r24, Z+2	; 0x02
    5042:	80 7f       	andi	r24, 0xF0	; 240
    5044:	7e 7d       	andi	r23, 0xDE	; 222
    5046:	7c 7c       	andi	r23, 0xCC	; 204
    5048:	7b 7a       	andi	r23, 0xAB	; 171
    504a:	79 79       	andi	r23, 0x99	; 153
    504c:	78 78       	andi	r23, 0x88	; 136
    504e:	77 77       	andi	r23, 0x77	; 119
    5050:	76 76       	andi	r23, 0x66	; 102
    5052:	76 75       	andi	r23, 0x56	; 86
    5054:	75 75       	andi	r23, 0x55	; 85
    5056:	76 76       	andi	r23, 0x66	; 102
    5058:	77 78       	andi	r23, 0x87	; 135
    505a:	79 7a       	andi	r23, 0xA9	; 169
    505c:	7c 7e       	andi	r23, 0xEC	; 236
    505e:	80 82       	st	Z, r8
    5060:	85 87       	std	Z+13, r24	; 0x0d
    5062:	8a 8c       	ldd	r8, Y+26	; 0x1a
    5064:	8e 90       	ld	r8, -X
    5066:	92 94       	swap	r9
    5068:	95 96       	adiw	r26, 0x25	; 37
    506a:	97 98       	cbi	0x12, 7	; 18
    506c:	98 98       	cbi	0x13, 0	; 19
    506e:	97 97       	sbiw	r26, 0x27	; 39
    5070:	96 95       	lsr	r25
    5072:	94 92       	xch	Z, r9
    5074:	91 8f       	std	Z+25, r25	; 0x19
    5076:	8e 8c       	ldd	r8, Y+30	; 0x1e
    5078:	8b 89       	ldd	r24, Y+19	; 0x13
    507a:	87 86       	std	Z+15, r8	; 0x0f
    507c:	84 82       	std	Z+4, r8	; 0x04
    507e:	80 7f       	andi	r24, 0xF0	; 240
    5080:	7d 7b       	andi	r23, 0xBD	; 189
    5082:	7a 78       	andi	r23, 0x8A	; 138
    5084:	77 76       	andi	r23, 0x67	; 103
    5086:	76 75       	andi	r23, 0x56	; 86
    5088:	75 75       	andi	r23, 0x55	; 85
    508a:	76 77       	andi	r23, 0x76	; 118
    508c:	78 7a       	andi	r23, 0xA8	; 168
    508e:	7c 7e       	andi	r23, 0xEC	; 236
    5090:	80 82       	st	Z, r8
    5092:	84 86       	std	Z+12, r8	; 0x0c
    5094:	88 8a       	std	Y+16, r8	; 0x10
    5096:	8c 8d       	ldd	r24, Y+28	; 0x1c
    5098:	8e 8f       	std	Y+30, r24	; 0x1e
    509a:	8f 8f       	std	Y+31, r24	; 0x1f
    509c:	8f 8e       	std	Y+31, r8	; 0x1f
    509e:	8e 8d       	ldd	r24, Y+30	; 0x1e
    50a0:	8b 8a       	std	Y+19, r8	; 0x13
    50a2:	89 87       	std	Y+9, r24	; 0x09
    50a4:	86 85       	ldd	r24, Z+14	; 0x0e
    50a6:	83 82       	std	Z+3, r8	; 0x03
    50a8:	81 7f       	andi	r24, 0xF1	; 241
    50aa:	7e 7c       	andi	r23, 0xCE	; 206
    50ac:	7b 7a       	andi	r23, 0xAB	; 171
    50ae:	78 77       	andi	r23, 0x78	; 120
    50b0:	76 74       	andi	r23, 0x46	; 70
    50b2:	73 72       	andi	r23, 0x23	; 35
    50b4:	71 70       	andi	r23, 0x01	; 1
    50b6:	6f 6f       	ori	r22, 0xFF	; 255
    50b8:	6f 6f       	ori	r22, 0xFF	; 255
    50ba:	70 71       	andi	r23, 0x10	; 16
    50bc:	72 74       	andi	r23, 0x42	; 66
    50be:	75 77       	andi	r23, 0x75	; 117
    50c0:	79 7b       	andi	r23, 0xB9	; 185
    50c2:	7d 7f       	andi	r23, 0xFD	; 253
    50c4:	81 82       	std	Z+1, r8	; 0x01
    50c6:	84 85       	ldd	r24, Z+12	; 0x0c
    50c8:	85 85       	ldd	r24, Z+13	; 0x0d
    50ca:	85 85       	ldd	r24, Z+13	; 0x0d
    50cc:	84 83       	std	Z+4, r24	; 0x04
    50ce:	81 80       	ldd	r8, Z+1	; 0x01
    50d0:	7e 7d       	andi	r23, 0xDE	; 222
    50d2:	7b 7a       	andi	r23, 0xAB	; 171
    50d4:	79 77       	andi	r23, 0x79	; 121
    50d6:	76 75       	andi	r23, 0x56	; 86
    50d8:	74 73       	andi	r23, 0x34	; 52
    50da:	72 71       	andi	r23, 0x12	; 18
    50dc:	71 70       	andi	r23, 0x01	; 1
    50de:	6f 6e       	ori	r22, 0xEF	; 239
    50e0:	6d 6c       	ori	r22, 0xCD	; 205
    50e2:	6c 6b       	ori	r22, 0xBC	; 188
    50e4:	6a 6a       	ori	r22, 0xAA	; 170
    50e6:	6a 6a       	ori	r22, 0xAA	; 170
    50e8:	6a 6b       	ori	r22, 0xBA	; 186
    50ea:	6c 6d       	ori	r22, 0xDC	; 220
    50ec:	6f 71       	andi	r22, 0x1F	; 31
    50ee:	73 76       	andi	r23, 0x63	; 99
    50f0:	79 7c       	andi	r23, 0xC9	; 201
    50f2:	7f 82       	std	Y+7, r7	; 0x07
    50f4:	86 89       	ldd	r24, Z+22	; 0x16
    50f6:	8b 8e       	std	Y+27, r8	; 0x1b
    50f8:	90 92 94 95 	sts	0x9594, r9
    50fc:	96 96       	adiw	r26, 0x26	; 38
    50fe:	96 96       	adiw	r26, 0x26	; 38
    5100:	96 95       	lsr	r25
    5102:	94 93       	xch	Z, r25
    5104:	92 90       	ld	r9, -Z
    5106:	8f 8d       	ldd	r24, Y+31	; 0x1f
    5108:	8c 8a       	std	Y+20, r8	; 0x14
    510a:	89 87       	std	Y+9, r24	; 0x09
    510c:	85 84       	ldd	r8, Z+13	; 0x0d
    510e:	82 80       	ldd	r8, Z+2	; 0x02
    5110:	7f 7d       	andi	r23, 0xDF	; 223
    5112:	7c 7a       	andi	r23, 0xAC	; 172
    5114:	79 78       	andi	r23, 0x89	; 137
    5116:	78 77       	andi	r23, 0x78	; 120
    5118:	77 78       	andi	r23, 0x87	; 135
    511a:	78 79       	andi	r23, 0x98	; 152
    511c:	7a 7c       	andi	r23, 0xCA	; 202
    511e:	7e 80       	ldd	r7, Y+6	; 0x06
    5120:	82 85       	ldd	r24, Z+10	; 0x0a
    5122:	87 89       	ldd	r24, Z+23	; 0x17
    5124:	8b 8d       	ldd	r24, Y+27	; 0x1b
    5126:	8f 90       	pop	r8
    5128:	91 92       	st	Z+, r9
    512a:	92 92       	st	-Z, r9
    512c:	92 91       	ld	r25, -Z
    512e:	90 8f       	std	Z+24, r25	; 0x18
    5130:	8e 8d       	ldd	r24, Y+30	; 0x1e
    5132:	8c 8a       	std	Y+20, r8	; 0x14
    5134:	89 87       	std	Y+9, r24	; 0x09
    5136:	86 84       	ldd	r8, Z+14	; 0x0e
    5138:	83 81       	ldd	r24, Z+3	; 0x03
    513a:	80 7e       	andi	r24, 0xE0	; 224
    513c:	7d 7b       	andi	r23, 0xBD	; 189
    513e:	7a 78       	andi	r23, 0x8A	; 138
    5140:	77 75       	andi	r23, 0x57	; 87
    5142:	74 73       	andi	r23, 0x34	; 52
    5144:	71 71       	andi	r23, 0x11	; 17
    5146:	70 70       	andi	r23, 0x00	; 0
    5148:	70 70       	andi	r23, 0x00	; 0
    514a:	71 72       	andi	r23, 0x21	; 33
    514c:	73 75       	andi	r23, 0x53	; 83
    514e:	77 79       	andi	r23, 0x97	; 151
    5150:	7b 7e       	andi	r23, 0xEB	; 235
    5152:	80 83       	st	Z, r24
    5154:	85 87       	std	Z+13, r24	; 0x0d
    5156:	89 8b       	std	Y+17, r24	; 0x11
    5158:	8c 8d       	ldd	r24, Y+28	; 0x1c
    515a:	8e 8e       	std	Y+30, r8	; 0x1e
    515c:	8e 8d       	ldd	r24, Y+30	; 0x1e
    515e:	8c 8b       	std	Y+20, r24	; 0x14
    5160:	8a 89       	ldd	r24, Y+18	; 0x12
    5162:	87 85       	ldd	r24, Z+15	; 0x0f
    5164:	84 82       	std	Z+4, r8	; 0x04
    5166:	80 7e       	andi	r24, 0xE0	; 224
    5168:	7d 7b       	andi	r23, 0xBD	; 189
    516a:	79 78       	andi	r23, 0x89	; 137
    516c:	76 74       	andi	r23, 0x46	; 70
    516e:	73 71       	andi	r23, 0x13	; 19
    5170:	6f 6e       	ori	r22, 0xEF	; 239
    5172:	6c 6b       	ori	r22, 0xBC	; 188
    5174:	6a 69       	ori	r22, 0x9A	; 154
    5176:	68 68       	ori	r22, 0x88	; 136
    5178:	68 68       	ori	r22, 0x88	; 136
    517a:	68 69       	ori	r22, 0x98	; 152
    517c:	6a 6c       	ori	r22, 0xCA	; 202
    517e:	6e 70       	andi	r22, 0x0E	; 14
    5180:	72 75       	andi	r23, 0x52	; 82
    5182:	77 7a       	andi	r23, 0xA7	; 167
    5184:	7c 7f       	andi	r23, 0xFC	; 252
    5186:	81 83       	std	Z+1, r24	; 0x01
    5188:	85 87       	std	Z+13, r24	; 0x0d
    518a:	88 89       	ldd	r24, Y+16	; 0x10
    518c:	8a 8a       	std	Y+18, r8	; 0x12
    518e:	8a 8a       	std	Y+18, r8	; 0x12
    5190:	8a 8a       	std	Y+18, r8	; 0x12
    5192:	89 88       	ldd	r8, Y+17	; 0x11
    5194:	87 86       	std	Z+15, r8	; 0x0f
    5196:	85 84       	ldd	r8, Z+13	; 0x0d
    5198:	83 81       	ldd	r24, Z+3	; 0x03
    519a:	80 7f       	andi	r24, 0xF0	; 240
    519c:	7e 7d       	andi	r23, 0xDE	; 222
    519e:	7c 7b       	andi	r23, 0xBC	; 188
    51a0:	7a 79       	andi	r23, 0x9A	; 154
    51a2:	79 78       	andi	r23, 0x89	; 137
    51a4:	78 77       	andi	r23, 0x78	; 120
    51a6:	77 77       	andi	r23, 0x77	; 119
    51a8:	77 78       	andi	r23, 0x87	; 135
    51aa:	78 79       	andi	r23, 0x98	; 152
    51ac:	7a 7b       	andi	r23, 0xBA	; 186
    51ae:	7c 7d       	andi	r23, 0xDC	; 220
    51b0:	7f 80       	ldd	r7, Y+7	; 0x07
    51b2:	82 84       	ldd	r8, Z+10	; 0x0a
    51b4:	85 87       	std	Z+13, r24	; 0x0d
    51b6:	89 8a       	std	Y+17, r8	; 0x11
    51b8:	8c 8d       	ldd	r24, Y+28	; 0x1c
    51ba:	8f 90       	pop	r8
    51bc:	91 91       	ld	r25, Z+
    51be:	92 92       	st	-Z, r9
    51c0:	92 92       	st	-Z, r9
    51c2:	91 91       	ld	r25, Z+
    51c4:	90 8f       	std	Z+24, r25	; 0x18
    51c6:	8e 8d       	ldd	r24, Y+30	; 0x1e
    51c8:	8b 8a       	std	Y+19, r8	; 0x13
    51ca:	88 86       	std	Y+8, r8	; 0x08
    51cc:	84 82       	std	Z+4, r8	; 0x04
    51ce:	81 7f       	andi	r24, 0xF1	; 241
    51d0:	7d 7b       	andi	r23, 0xBD	; 189
    51d2:	7a 79       	andi	r23, 0x9A	; 154
    51d4:	77 77       	andi	r23, 0x77	; 119
    51d6:	76 76       	andi	r23, 0x66	; 102
    51d8:	76 76       	andi	r23, 0x66	; 102
    51da:	77 78       	andi	r23, 0x87	; 135
    51dc:	7a 7c       	andi	r23, 0xCA	; 202
    51de:	7e 80       	ldd	r7, Y+6	; 0x06
    51e0:	83 86       	std	Z+11, r8	; 0x0b
    51e2:	89 8c       	ldd	r8, Y+25	; 0x19
    51e4:	8f 92       	push	r8
    51e6:	95 98       	cbi	0x12, 5	; 18
    51e8:	9a 9c       	mul	r9, r10
    51ea:	9e 9f       	mul	r25, r30
    51ec:	a0 a0       	ldd	r10, Z+32	; 0x20
    51ee:	a0 9f       	mul	r26, r16
    51f0:	9e 9d       	mul	r25, r14
    51f2:	9b 99       	sbic	0x13, 3	; 19
    51f4:	97 94       	ror	r9
    51f6:	91 8e       	std	Z+25, r9	; 0x19
    51f8:	8b 87       	std	Y+11, r24	; 0x0b
    51fa:	84 80       	ldd	r8, Z+4	; 0x04
    51fc:	7c 78       	andi	r23, 0x8C	; 140
    51fe:	73 6f       	ori	r23, 0xF3	; 243
    5200:	6b 66       	ori	r22, 0x6B	; 107
    5202:	62 5e       	subi	r22, 0xE2	; 226
    5204:	5a 57       	subi	r21, 0x7A	; 122
    5206:	54 51       	subi	r21, 0x14	; 20
    5208:	4f 4d       	sbci	r20, 0xDF	; 223
    520a:	4c 4c       	sbci	r20, 0xCC	; 204
    520c:	4c 4d       	sbci	r20, 0xDC	; 220
    520e:	4f 51       	subi	r20, 0x1F	; 31
    5210:	54 57       	subi	r21, 0x74	; 116
    5212:	5b 5f       	subi	r21, 0xFB	; 251
    5214:	64 69       	ori	r22, 0x94	; 148
    5216:	6e 72       	andi	r22, 0x2E	; 46
    5218:	77 7c       	andi	r23, 0xC7	; 199
    521a:	80 84       	ldd	r8, Z+8	; 0x08
    521c:	88 8c       	ldd	r8, Y+24	; 0x18
    521e:	8f 92       	push	r8
    5220:	94 96       	adiw	r26, 0x24	; 36
    5222:	97 98       	cbi	0x12, 7	; 18
    5224:	99 99       	sbic	0x13, 1	; 19
    5226:	98 97       	sbiw	r26, 0x28	; 40
    5228:	96 94       	lsr	r9
    522a:	91 8e       	std	Z+25, r9	; 0x19
    522c:	8b 88       	ldd	r8, Y+19	; 0x13
    522e:	84 80       	ldd	r8, Z+4	; 0x04
    5230:	7d 79       	andi	r23, 0x9D	; 157
    5232:	75 72       	andi	r23, 0x25	; 37
    5234:	6f 6d       	ori	r22, 0xDF	; 223
    5236:	6b 6a       	ori	r22, 0xAB	; 171
    5238:	6a 6a       	ori	r22, 0xAA	; 170
    523a:	6c 6e       	ori	r22, 0xEC	; 236
    523c:	70 73       	andi	r23, 0x30	; 48
    523e:	77 7b       	andi	r23, 0xB7	; 183
    5240:	7f 84       	ldd	r7, Y+15	; 0x0f
    5242:	88 8d       	ldd	r24, Y+24	; 0x18
    5244:	91 95       	neg	r25
    5246:	99 9c       	mul	r9, r9
    5248:	9f a1       	ldd	r25, Y+39	; 0x27
    524a:	a3 a5       	ldd	r26, Z+43	; 0x2b
    524c:	a6 a6       	std	Z+46, r10	; 0x2e
    524e:	a6 a6       	std	Z+46, r10	; 0x2e
    5250:	a5 a4       	ldd	r10, Z+45	; 0x2d
    5252:	a3 a1       	ldd	r26, Z+35	; 0x23
    5254:	9f 9d       	mul	r25, r15
    5256:	9a 97       	sbiw	r26, 0x2a	; 42
    5258:	94 90       	lpm	r9, Z
    525a:	8c 88       	ldd	r8, Y+20	; 0x14
    525c:	84 7f       	andi	r24, 0xF4	; 244
    525e:	7a 76       	andi	r23, 0x6A	; 106
    5260:	71 6d       	ori	r23, 0xD1	; 209
    5262:	69 66       	ori	r22, 0x69	; 105
    5264:	63 61       	ori	r22, 0x13	; 19
    5266:	60 60       	ori	r22, 0x00	; 0
    5268:	60 61       	ori	r22, 0x10	; 16
    526a:	63 65       	ori	r22, 0x53	; 83
    526c:	68 6b       	ori	r22, 0xB8	; 184
    526e:	6f 73       	andi	r22, 0x3F	; 63
    5270:	78 7c       	andi	r23, 0xC8	; 200
    5272:	80 84       	ldd	r8, Z+8	; 0x08
    5274:	88 8c       	ldd	r8, Y+24	; 0x18
    5276:	8f 93       	push	r24
    5278:	95 98       	cbi	0x12, 5	; 18
    527a:	9a 9b       	sbis	0x13, 2	; 19
    527c:	9d 9e       	mul	r9, r29
    527e:	9f a0       	ldd	r9, Y+39	; 0x27
    5280:	a0 a0       	ldd	r10, Z+32	; 0x20
    5282:	9f 9e       	mul	r9, r31
    5284:	9d 9b       	sbis	0x13, 5	; 19
    5286:	98 95       	break
    5288:	92 8e       	std	Z+26, r9	; 0x1a
    528a:	8a 85       	ldd	r24, Y+10	; 0x0a
    528c:	80 7c       	andi	r24, 0xC0	; 192
    528e:	77 72       	andi	r23, 0x27	; 39
    5290:	6e 6a       	ori	r22, 0xAE	; 174
    5292:	67 64       	ori	r22, 0x47	; 71
    5294:	62 61       	ori	r22, 0x12	; 18
    5296:	60 61       	ori	r22, 0x10	; 16
    5298:	61 63       	ori	r22, 0x31	; 49
    529a:	65 68       	ori	r22, 0x85	; 133
    529c:	6a 6e       	ori	r22, 0xEA	; 234
    529e:	71 74       	andi	r23, 0x41	; 65
    52a0:	77 7a       	andi	r23, 0xA7	; 167
    52a2:	7d 7f       	andi	r23, 0xFD	; 253
    52a4:	81 83       	std	Z+1, r24	; 0x01
    52a6:	85 86       	std	Z+13, r8	; 0x0d
    52a8:	87 88       	ldd	r8, Z+23	; 0x17
    52aa:	89 89       	ldd	r24, Y+17	; 0x11
    52ac:	89 89       	ldd	r24, Y+17	; 0x11
    52ae:	89 88       	ldd	r8, Y+17	; 0x11
    52b0:	87 85       	ldd	r24, Z+15	; 0x0f
    52b2:	83 80       	ldd	r8, Z+3	; 0x03
    52b4:	7d 7a       	andi	r23, 0xAD	; 173
    52b6:	76 72       	andi	r23, 0x26	; 38
    52b8:	6e 69       	ori	r22, 0x9E	; 158
    52ba:	65 60       	ori	r22, 0x05	; 5
    52bc:	5c 59       	subi	r21, 0x9C	; 156
    52be:	56 53       	subi	r21, 0x36	; 54
    52c0:	52 51       	subi	r21, 0x12	; 18
    52c2:	51 52       	subi	r21, 0x21	; 33
    52c4:	54 57       	subi	r21, 0x74	; 116
    52c6:	5a 5e       	subi	r21, 0xEA	; 234
    52c8:	63 67       	ori	r22, 0x73	; 115
    52ca:	6c 71       	andi	r22, 0x1C	; 28
    52cc:	76 7b       	andi	r23, 0xB6	; 182
    52ce:	7f 83       	std	Y+7, r23	; 0x07
    52d0:	87 8a       	std	Z+23, r8	; 0x17
    52d2:	8d 90       	ld	r8, X+
    52d4:	92 94       	swap	r9
    52d6:	95 97       	sbiw	r26, 0x25	; 37
    52d8:	98 99       	sbic	0x13, 0	; 19
    52da:	99 99       	sbic	0x13, 1	; 19
    52dc:	99 99       	sbic	0x13, 1	; 19
    52de:	98 97       	sbiw	r26, 0x28	; 40
    52e0:	95 93       	las	Z, r25
    52e2:	90 8e       	std	Z+24, r9	; 0x18
    52e4:	8a 87       	std	Y+10, r24	; 0x0a
    52e6:	84 81       	ldd	r24, Z+4	; 0x04
    52e8:	7d 7b       	andi	r23, 0xBD	; 189
    52ea:	78 76       	andi	r23, 0x68	; 104
    52ec:	75 74       	andi	r23, 0x45	; 69
    52ee:	74 74       	andi	r23, 0x44	; 68
    52f0:	76 77       	andi	r23, 0x76	; 118
    52f2:	7a 7c       	andi	r23, 0xCA	; 202
    52f4:	7f 82       	std	Y+7, r7	; 0x07
    52f6:	86 89       	ldd	r24, Z+22	; 0x16
    52f8:	8b 8e       	std	Y+27, r8	; 0x1b
    52fa:	90 92 93 94 	sts	0x9493, r9
    52fe:	95 95       	asr	r25
    5300:	95 95       	asr	r25
    5302:	95 94       	asr	r9
    5304:	93 93       	.word	0x9393	; ????
    5306:	92 91       	ld	r25, -Z
    5308:	90 8e       	std	Z+24, r9	; 0x18
    530a:	8d 8b       	std	Y+21, r24	; 0x15
    530c:	88 86       	std	Y+8, r8	; 0x08
    530e:	83 80       	ldd	r8, Z+3	; 0x03
    5310:	7d 79       	andi	r23, 0x9D	; 157
    5312:	75 72       	andi	r23, 0x25	; 37
    5314:	6e 6a       	ori	r22, 0xAE	; 174
    5316:	67 64       	ori	r22, 0x47	; 71
    5318:	62 61       	ori	r22, 0x12	; 18
    531a:	60 60       	ori	r22, 0x00	; 0
    531c:	60 62       	ori	r22, 0x20	; 32
    531e:	64 67       	ori	r22, 0x74	; 116
    5320:	6b 6f       	ori	r22, 0xFB	; 251
    5322:	73 78       	andi	r23, 0x83	; 131
    5324:	7c 81       	ldd	r23, Y+4	; 0x04
    5326:	85 8a       	std	Z+21, r8	; 0x15
    5328:	8d 91       	ld	r24, X+
    532a:	94 96       	adiw	r26, 0x24	; 36
    532c:	98 9a       	sbi	0x13, 0	; 19
    532e:	9b 9c       	mul	r9, r11
    5330:	9d 9d       	mul	r25, r13
    5332:	9d 9d       	mul	r25, r13
    5334:	9d 9c       	mul	r9, r13
    5336:	9b 9b       	sbis	0x13, 3	; 19
    5338:	99 98       	cbi	0x13, 1	; 19
    533a:	96 94       	lsr	r9
    533c:	92 90       	ld	r9, -Z
    533e:	8d 89       	ldd	r24, Y+21	; 0x15
    5340:	86 82       	std	Z+6, r8	; 0x06
    5342:	7e 7b       	andi	r23, 0xBE	; 190
    5344:	77 74       	andi	r23, 0x47	; 71
    5346:	71 6e       	ori	r23, 0xE1	; 225
    5348:	6d 6b       	ori	r22, 0xBD	; 189
    534a:	6b 6b       	ori	r22, 0xBB	; 187
    534c:	6b 6c       	ori	r22, 0xCB	; 203
    534e:	6e 70       	andi	r22, 0x0E	; 14
    5350:	73 75       	andi	r23, 0x53	; 83
    5352:	78 7a       	andi	r23, 0xA8	; 168
    5354:	7c 7e       	andi	r23, 0xEC	; 236
    5356:	7f 80       	ldd	r7, Y+7	; 0x07
    5358:	80 80       	ld	r8, Z
    535a:	80 7f       	andi	r24, 0xF0	; 240
    535c:	7e 7d       	andi	r23, 0xDE	; 222
    535e:	7c 7a       	andi	r23, 0xAC	; 172
    5360:	79 78       	andi	r23, 0x89	; 137
    5362:	77 76       	andi	r23, 0x67	; 103
    5364:	75 74       	andi	r23, 0x45	; 69
    5366:	73 73       	andi	r23, 0x33	; 51
    5368:	72 71       	andi	r23, 0x12	; 18
    536a:	70 6f       	ori	r23, 0xF0	; 240
    536c:	6e 6c       	ori	r22, 0xCE	; 206
    536e:	6a 68       	ori	r22, 0x8A	; 138
    5370:	67 65       	ori	r22, 0x57	; 87
    5372:	63 62       	ori	r22, 0x23	; 35
    5374:	61 61       	ori	r22, 0x11	; 17
    5376:	61 62       	ori	r22, 0x21	; 33
    5378:	64 66       	ori	r22, 0x64	; 100
    537a:	69 6c       	ori	r22, 0xC9	; 201
    537c:	70 74       	andi	r23, 0x40	; 64
    537e:	78 7c       	andi	r23, 0xC8	; 200
    5380:	80 84       	ldd	r8, Z+8	; 0x08
    5382:	88 8b       	std	Y+16, r24	; 0x10
    5384:	8e 90       	ld	r8, -X
    5386:	92 93       	st	-Z, r25
    5388:	94 95       	.word	0x9594	; ????
    538a:	95 95       	asr	r25
    538c:	95 94       	asr	r9
    538e:	94 93       	xch	Z, r25
    5390:	93 92       	.word	0x9293	; ????
    5392:	91 90       	ld	r9, Z+
    5394:	8f 8e       	std	Y+31, r8	; 0x1f
    5396:	8c 8b       	std	Y+20, r24	; 0x14
    5398:	89 87       	std	Y+9, r24	; 0x09
    539a:	85 82       	std	Z+5, r8	; 0x05
    539c:	80 7e       	andi	r24, 0xE0	; 224
    539e:	7b 79       	andi	r23, 0x9B	; 155
    53a0:	77 75       	andi	r23, 0x57	; 87
    53a2:	74 73       	andi	r23, 0x34	; 52
    53a4:	72 72       	andi	r23, 0x22	; 34
    53a6:	72 72       	andi	r23, 0x22	; 34
    53a8:	73 75       	andi	r23, 0x53	; 83
    53aa:	76 78       	andi	r23, 0x86	; 134
    53ac:	7a 7c       	andi	r23, 0xCA	; 202
    53ae:	7e 81       	ldd	r23, Y+6	; 0x06
    53b0:	83 85       	ldd	r24, Z+11	; 0x0b
    53b2:	86 88       	ldd	r8, Z+22	; 0x16
    53b4:	89 8b       	std	Y+17, r24	; 0x11
    53b6:	8c 8c       	ldd	r8, Y+28	; 0x1c
    53b8:	8d 8d       	ldd	r24, Y+29	; 0x1d
    53ba:	8e 8e       	std	Y+30, r8	; 0x1e
    53bc:	8e 8d       	ldd	r24, Y+30	; 0x1e
    53be:	8d 8c       	ldd	r8, Y+29	; 0x1d
    53c0:	8c 8b       	std	Y+20, r24	; 0x14
    53c2:	8a 88       	ldd	r8, Y+18	; 0x12
    53c4:	87 85       	ldd	r24, Z+15	; 0x0f
    53c6:	84 82       	std	Z+4, r8	; 0x04
    53c8:	80 7e       	andi	r24, 0xE0	; 224
    53ca:	7c 7a       	andi	r23, 0xAC	; 172
    53cc:	78 77       	andi	r23, 0x78	; 120
    53ce:	75 74       	andi	r23, 0x45	; 69
    53d0:	73 72       	andi	r23, 0x23	; 35
    53d2:	72 72       	andi	r23, 0x22	; 34
    53d4:	73 74       	andi	r23, 0x43	; 67
    53d6:	75 77       	andi	r23, 0x75	; 117
    53d8:	79 7c       	andi	r23, 0xC9	; 201
    53da:	7f 82       	std	Y+7, r7	; 0x07
    53dc:	85 88       	ldd	r8, Z+21	; 0x15
    53de:	8b 8e       	std	Y+27, r8	; 0x1b
    53e0:	90 93 95 96 	sts	0x9695, r25
    53e4:	97 98       	cbi	0x12, 7	; 18
    53e6:	98 98       	cbi	0x13, 0	; 19
    53e8:	98 97       	sbiw	r26, 0x28	; 40
    53ea:	96 95       	lsr	r25
    53ec:	94 92       	xch	Z, r9
    53ee:	91 8f       	std	Z+25, r25	; 0x19
    53f0:	8d 8b       	std	Y+21, r24	; 0x15
    53f2:	89 86       	std	Y+9, r8	; 0x09
    53f4:	84 81       	ldd	r24, Z+4	; 0x04
    53f6:	7e 7b       	andi	r23, 0xBE	; 190
    53f8:	78 75       	andi	r23, 0x58	; 88
    53fa:	72 6f       	ori	r23, 0xF2	; 242
    53fc:	6c 6a       	ori	r22, 0xAC	; 172
    53fe:	68 66       	ori	r22, 0x68	; 104
    5400:	65 64       	ori	r22, 0x45	; 69
    5402:	64 64       	ori	r22, 0x44	; 68
    5404:	65 66       	ori	r22, 0x65	; 101
    5406:	67 69       	ori	r22, 0x97	; 151
    5408:	6c 6e       	ori	r22, 0xEC	; 236
    540a:	71 73       	andi	r23, 0x31	; 49
    540c:	75 78       	andi	r23, 0x85	; 133
    540e:	7a 7c       	andi	r23, 0xCA	; 202
    5410:	7d 7f       	andi	r23, 0xFD	; 253
    5412:	80 81       	ld	r24, Z
    5414:	82 83       	std	Z+2, r24	; 0x02
    5416:	83 84       	ldd	r8, Z+11	; 0x0b
    5418:	84 85       	ldd	r24, Z+12	; 0x0c
    541a:	85 85       	ldd	r24, Z+13	; 0x0d
    541c:	85 84       	ldd	r8, Z+13	; 0x0d
    541e:	83 82       	std	Z+3, r8	; 0x03
    5420:	81 7f       	andi	r24, 0xF1	; 241
    5422:	7d 7b       	andi	r23, 0xBD	; 189
    5424:	78 75       	andi	r23, 0x58	; 88
    5426:	73 70       	andi	r23, 0x03	; 3
    5428:	6d 6b       	ori	r22, 0xBD	; 189
    542a:	69 67       	ori	r22, 0x79	; 121
    542c:	66 66       	ori	r22, 0x66	; 102
    542e:	66 67       	ori	r22, 0x76	; 118
    5430:	68 6a       	ori	r22, 0xA8	; 168
    5432:	6c 6f       	ori	r22, 0xFC	; 252
    5434:	72 75       	andi	r23, 0x52	; 82
    5436:	78 7c       	andi	r23, 0xC8	; 200
    5438:	7f 82       	std	Y+7, r7	; 0x07
    543a:	85 88       	ldd	r8, Z+21	; 0x15
    543c:	8b 8d       	ldd	r24, Y+27	; 0x1b
    543e:	8f 91       	pop	r24
    5440:	92 94       	swap	r9
    5442:	95 96       	adiw	r26, 0x25	; 37
    5444:	96 97       	sbiw	r26, 0x26	; 38
    5446:	97 96       	adiw	r26, 0x27	; 39
    5448:	96 95       	lsr	r25
    544a:	94 93       	xch	Z, r25
    544c:	91 8f       	std	Z+25, r25	; 0x19
    544e:	8c 89       	ldd	r24, Y+20	; 0x14
    5450:	86 83       	std	Z+6, r24	; 0x06
    5452:	7f 7c       	andi	r23, 0xCF	; 207
    5454:	78 75       	andi	r23, 0x58	; 88
    5456:	71 6e       	ori	r23, 0xE1	; 225
    5458:	6b 69       	ori	r22, 0x9B	; 155
    545a:	67 66       	ori	r22, 0x67	; 103
    545c:	65 66       	ori	r22, 0x65	; 101
    545e:	66 68       	ori	r22, 0x86	; 134
    5460:	6a 6d       	ori	r22, 0xDA	; 218
    5462:	71 75       	andi	r23, 0x51	; 81
    5464:	7a 7f       	andi	r23, 0xFA	; 250
    5466:	84 8a       	std	Z+20, r8	; 0x14
    5468:	8f 95 9a a0 	call	0x634134	; 0x634134 <__data_load_end+0x62ca88>
    546c:	a5 a9       	ldd	r26, Z+53	; 0x35
    546e:	ad b0       	in	r10, 0x0d	; 13
    5470:	b3 b5       	in	r27, 0x23	; 35
    5472:	b6 b6       	in	r11, 0x36	; 54
    5474:	b6 b5       	in	r27, 0x26	; 38
    5476:	b4 b1       	in	r27, 0x04	; 4
    5478:	ae ab       	std	Y+54, r26	; 0x36
    547a:	a7 a3       	std	Z+39, r26	; 0x27
    547c:	9e 98       	cbi	0x13, 6	; 19
    547e:	93 8d       	ldd	r25, Z+27	; 0x1b
    5480:	87 81       	ldd	r24, Z+7	; 0x07
    5482:	7b 75       	andi	r23, 0x5B	; 91
    5484:	6f 69       	ori	r22, 0x9F	; 159
    5486:	64 5f       	subi	r22, 0xF4	; 244
    5488:	5b 58       	subi	r21, 0x8B	; 139
    548a:	54 52       	subi	r21, 0x24	; 36
    548c:	50 4f       	sbci	r21, 0xF0	; 240
    548e:	4e 4e       	sbci	r20, 0xEE	; 238
    5490:	4f 50       	subi	r20, 0x0F	; 15
    5492:	52 54       	subi	r21, 0x42	; 66
    5494:	56 59       	subi	r21, 0x96	; 150
    5496:	5c 60       	ori	r21, 0x0C	; 12
    5498:	63 67       	ori	r22, 0x73	; 115
    549a:	6b 6f       	ori	r22, 0xFB	; 251
    549c:	74 78       	andi	r23, 0x84	; 132
    549e:	7d 81       	ldd	r23, Y+5	; 0x05
    54a0:	86 8a       	std	Z+22, r8	; 0x16
    54a2:	8f 92       	push	r8
    54a4:	96 99       	sbic	0x12, 6	; 18
    54a6:	9b 9c       	mul	r9, r11
    54a8:	9d 9d       	mul	r25, r13
    54aa:	9c 9a       	sbi	0x13, 4	; 19
    54ac:	98 95       	break
    54ae:	91 8d       	ldd	r25, Z+25	; 0x19
    54b0:	89 85       	ldd	r24, Y+9	; 0x09
    54b2:	82 7e       	andi	r24, 0xE2	; 226
    54b4:	7b 79       	andi	r23, 0x9B	; 155
    54b6:	77 76       	andi	r23, 0x67	; 103
    54b8:	76 76       	andi	r23, 0x66	; 102
    54ba:	77 78       	andi	r23, 0x87	; 135
    54bc:	7a 7c       	andi	r23, 0xCA	; 202
    54be:	7f 81       	ldd	r23, Y+7	; 0x07
    54c0:	83 85       	ldd	r24, Z+11	; 0x0b
    54c2:	87 88       	ldd	r8, Z+23	; 0x17
    54c4:	89 8a       	std	Y+17, r8	; 0x11
    54c6:	8a 8b       	std	Y+18, r24	; 0x12
    54c8:	8b 8b       	std	Y+19, r24	; 0x13
    54ca:	8b 8b       	std	Y+19, r24	; 0x13
    54cc:	8c 8c       	ldd	r8, Y+28	; 0x1c
    54ce:	8d 8e       	std	Y+29, r8	; 0x1d
    54d0:	8f 90       	pop	r8
    54d2:	91 92       	st	Z+, r9
    54d4:	92 92       	st	-Z, r9
    54d6:	92 91       	ld	r25, -Z
    54d8:	8f 8d       	ldd	r24, Y+31	; 0x1f
    54da:	8b 88       	ldd	r8, Y+19	; 0x13
    54dc:	84 80       	ldd	r8, Z+4	; 0x04
    54de:	7c 78       	andi	r23, 0x8C	; 140
    54e0:	74 70       	andi	r23, 0x04	; 4
    54e2:	6c 69       	ori	r22, 0x9C	; 156
    54e4:	66 64       	ori	r22, 0x46	; 70
    54e6:	62 61       	ori	r22, 0x12	; 18
    54e8:	61 61       	ori	r22, 0x11	; 17
    54ea:	61 62       	ori	r22, 0x21	; 33
    54ec:	64 66       	ori	r22, 0x64	; 100
    54ee:	68 6a       	ori	r22, 0xA8	; 168
    54f0:	6c 6f       	ori	r22, 0xFC	; 252
    54f2:	72 74       	andi	r23, 0x42	; 66
    54f4:	77 7a       	andi	r23, 0xA7	; 167
    54f6:	7d 80       	ldd	r7, Y+5	; 0x05
    54f8:	83 86       	std	Z+11, r8	; 0x0b
    54fa:	89 8b       	std	Y+17, r24	; 0x11
    54fc:	8e 91       	ld	r24, -X
    54fe:	94 96       	adiw	r26, 0x24	; 36
    5500:	99 9a       	sbi	0x13, 1	; 19
    5502:	9c 9d       	mul	r25, r12
    5504:	9e 9e       	mul	r9, r30
    5506:	9e 9d       	mul	r25, r14
    5508:	9c 9a       	sbi	0x13, 4	; 19
    550a:	98 95       	break
    550c:	92 8f       	std	Z+26, r25	; 0x1a
    550e:	8c 89       	ldd	r24, Y+20	; 0x14
    5510:	86 82       	std	Z+6, r8	; 0x06
    5512:	7f 7d       	andi	r23, 0xDF	; 223
    5514:	7a 78       	andi	r23, 0x8A	; 138
    5516:	76 75       	andi	r23, 0x56	; 86
    5518:	74 73       	andi	r23, 0x34	; 52
    551a:	72 72       	andi	r23, 0x22	; 34
    551c:	72 72       	andi	r23, 0x22	; 34
    551e:	72 73       	andi	r23, 0x32	; 50
    5520:	73 73       	andi	r23, 0x33	; 51
    5522:	74 74       	andi	r23, 0x44	; 68
    5524:	75 75       	andi	r23, 0x55	; 85
    5526:	76 77       	andi	r23, 0x76	; 118
    5528:	78 79       	andi	r23, 0x98	; 152
    552a:	7a 7b       	andi	r23, 0xBA	; 186
    552c:	7c 7e       	andi	r23, 0xEC	; 236
    552e:	7f 80       	ldd	r7, Y+7	; 0x07
    5530:	81 82       	std	Z+1, r8	; 0x01
    5532:	82 82       	std	Z+2, r8	; 0x02
    5534:	82 81       	ldd	r24, Z+2	; 0x02
    5536:	80 7f       	andi	r24, 0xF0	; 240
    5538:	7d 7b       	andi	r23, 0xBD	; 189
    553a:	78 76       	andi	r23, 0x68	; 104
    553c:	74 71       	andi	r23, 0x14	; 20
    553e:	6f 6d       	ori	r22, 0xDF	; 223
    5540:	6c 6b       	ori	r22, 0xBC	; 188
    5542:	6b 6b       	ori	r22, 0xBB	; 187
    5544:	6c 6d       	ori	r22, 0xDC	; 220
    5546:	6e 70       	andi	r22, 0x0E	; 14
    5548:	72 75       	andi	r23, 0x52	; 82
    554a:	77 7a       	andi	r23, 0xA7	; 167
    554c:	7c 7e       	andi	r23, 0xEC	; 236
    554e:	80 82       	st	Z, r8
    5550:	83 84       	ldd	r8, Z+11	; 0x0b
    5552:	85 85       	ldd	r24, Z+13	; 0x0d
    5554:	86 86       	std	Z+14, r8	; 0x0e
    5556:	86 86       	std	Z+14, r8	; 0x0e
    5558:	86 86       	std	Z+14, r8	; 0x0e
    555a:	86 86       	std	Z+14, r8	; 0x0e
    555c:	87 87       	std	Z+15, r24	; 0x0f
    555e:	88 88       	ldd	r8, Y+16	; 0x10
    5560:	89 89       	ldd	r24, Y+17	; 0x11
    5562:	89 8a       	std	Y+17, r8	; 0x11
    5564:	8a 8a       	std	Y+18, r8	; 0x12
    5566:	8a 89       	ldd	r24, Y+18	; 0x12
    5568:	89 88       	ldd	r8, Y+17	; 0x11
    556a:	87 86       	std	Z+15, r8	; 0x0f
    556c:	85 84       	ldd	r8, Z+13	; 0x0d
    556e:	83 82       	std	Z+3, r8	; 0x03
    5570:	81 81       	ldd	r24, Z+1	; 0x01
    5572:	80 80       	ld	r8, Z
    5574:	80 80       	ld	r8, Z
    5576:	80 80       	ld	r8, Z
    5578:	81 81       	ldd	r24, Z+1	; 0x01
    557a:	82 83       	std	Z+2, r24	; 0x02
    557c:	83 84       	ldd	r8, Z+11	; 0x0b
    557e:	85 85       	ldd	r24, Z+13	; 0x0d
    5580:	85 85       	ldd	r24, Z+13	; 0x0d
    5582:	85 85       	ldd	r24, Z+13	; 0x0d
    5584:	84 83       	std	Z+4, r24	; 0x04
    5586:	82 81       	ldd	r24, Z+2	; 0x02
    5588:	7f 7d       	andi	r23, 0xDF	; 223
    558a:	7b 79       	andi	r23, 0x9B	; 155
    558c:	77 75       	andi	r23, 0x57	; 87
    558e:	74 72       	andi	r23, 0x24	; 36
    5590:	70 6f       	ori	r23, 0xF0	; 240
    5592:	6e 6d       	ori	r22, 0xDE	; 222
    5594:	6d 6d       	ori	r22, 0xDD	; 221
    5596:	6d 6e       	ori	r22, 0xED	; 237
    5598:	6f 71       	andi	r22, 0x1F	; 31
    559a:	72 74       	andi	r23, 0x42	; 66
    559c:	76 78       	andi	r23, 0x86	; 134
    559e:	7b 7d       	andi	r23, 0xDB	; 219
    55a0:	7f 82       	std	Y+7, r7	; 0x07
    55a2:	84 86       	std	Z+12, r8	; 0x0c
    55a4:	89 8b       	std	Y+17, r24	; 0x11
    55a6:	8d 8e       	std	Y+29, r8	; 0x1d
    55a8:	90 91 92 93 	lds	r25, 0x9392
    55ac:	93 94       	inc	r9
    55ae:	94 94       	.word	0x9494	; ????
    55b0:	93 93       	.word	0x9393	; ????
    55b2:	92 91       	ld	r25, -Z
    55b4:	8f 8e       	std	Y+31, r8	; 0x1f
    55b6:	8c 8a       	std	Y+20, r8	; 0x14
    55b8:	88 86       	std	Y+8, r8	; 0x08
    55ba:	84 82       	std	Z+4, r8	; 0x04
    55bc:	7f 7d       	andi	r23, 0xDF	; 223
    55be:	7b 78       	andi	r23, 0x8B	; 139
    55c0:	76 74       	andi	r23, 0x46	; 70
    55c2:	73 71       	andi	r23, 0x13	; 19
    55c4:	70 6f       	ori	r23, 0xF0	; 240
    55c6:	6e 6e       	ori	r22, 0xEE	; 238
    55c8:	6e 6f       	ori	r22, 0xFE	; 254
    55ca:	70 71       	andi	r23, 0x10	; 16
    55cc:	73 75       	andi	r23, 0x53	; 83
    55ce:	77 7a       	andi	r23, 0xA7	; 167
    55d0:	7c 7f       	andi	r23, 0xFC	; 252
    55d2:	82 84       	ldd	r8, Z+10	; 0x0a
    55d4:	86 88       	ldd	r8, Z+22	; 0x16
    55d6:	8a 8b       	std	Y+18, r24	; 0x12
    55d8:	8d 8d       	ldd	r24, Y+29	; 0x1d
    55da:	8e 8e       	std	Y+30, r8	; 0x1e
    55dc:	8e 8d       	ldd	r24, Y+30	; 0x1e
    55de:	8d 8c       	ldd	r8, Y+29	; 0x1d
    55e0:	8b 89       	ldd	r24, Y+19	; 0x13
    55e2:	87 86       	std	Z+15, r8	; 0x0f
    55e4:	84 82       	std	Z+4, r8	; 0x04
    55e6:	7f 7d       	andi	r23, 0xDF	; 223
    55e8:	7a 78       	andi	r23, 0x8A	; 138
    55ea:	75 72       	andi	r23, 0x25	; 37
    55ec:	6f 6d       	ori	r22, 0xDF	; 223
    55ee:	6b 69       	ori	r22, 0x9B	; 155
    55f0:	67 66       	ori	r22, 0x67	; 103
    55f2:	65 65       	ori	r22, 0x55	; 85
    55f4:	66 67       	ori	r22, 0x76	; 118
    55f6:	68 6b       	ori	r22, 0xB8	; 184
    55f8:	6d 70       	andi	r22, 0x0D	; 13
    55fa:	74 77       	andi	r23, 0x74	; 116
    55fc:	7b 7f       	andi	r23, 0xFB	; 251
    55fe:	82 86       	std	Z+10, r8	; 0x0a
    5600:	89 8c       	ldd	r8, Y+25	; 0x19
    5602:	8f 91       	pop	r24
    5604:	93 95       	inc	r25
    5606:	96 97       	sbiw	r26, 0x26	; 38
    5608:	98 98       	cbi	0x13, 0	; 19
    560a:	99 99       	sbic	0x13, 1	; 19
    560c:	99 98       	cbi	0x13, 1	; 19
    560e:	98 97       	sbiw	r26, 0x28	; 40
    5610:	95 94       	asr	r9
    5612:	92 8f       	std	Z+26, r25	; 0x1a
    5614:	8d 8a       	std	Y+21, r8	; 0x15
    5616:	86 82       	std	Z+6, r8	; 0x06
    5618:	7e 7a       	andi	r23, 0xAE	; 174
    561a:	76 72       	andi	r23, 0x26	; 38
    561c:	6e 6a       	ori	r22, 0xAE	; 174
    561e:	67 65       	ori	r22, 0x57	; 87
    5620:	63 62       	ori	r22, 0x23	; 35
    5622:	61 61       	ori	r22, 0x11	; 17
    5624:	62 64       	ori	r22, 0x42	; 66
    5626:	67 6a       	ori	r22, 0xA7	; 167
    5628:	6e 71       	andi	r22, 0x1E	; 30
    562a:	76 7a       	andi	r23, 0xA6	; 166
    562c:	7e 83       	std	Y+6, r23	; 0x06
    562e:	87 8a       	std	Z+23, r8	; 0x17
    5630:	8d 90       	ld	r8, X+
    5632:	93 94       	inc	r9
    5634:	96 97       	sbiw	r26, 0x26	; 38
    5636:	97 97       	sbiw	r26, 0x27	; 39
    5638:	96 95       	lsr	r25
    563a:	94 93       	xch	Z, r25
    563c:	91 8f       	std	Z+25, r25	; 0x19
    563e:	8d 8a       	std	Y+21, r8	; 0x15
    5640:	88 85       	ldd	r24, Y+8	; 0x08
    5642:	82 7f       	andi	r24, 0xF2	; 242
    5644:	7c 79       	andi	r23, 0x9C	; 156
    5646:	76 73       	andi	r23, 0x36	; 54
    5648:	6f 6c       	ori	r22, 0xCF	; 207
    564a:	6a 67       	ori	r22, 0x7A	; 122
    564c:	65 63       	ori	r22, 0x35	; 53
    564e:	62 61       	ori	r22, 0x12	; 18
    5650:	61 61       	ori	r22, 0x11	; 17
    5652:	62 64       	ori	r22, 0x42	; 66
    5654:	67 6a       	ori	r22, 0xA7	; 167
    5656:	6d 71       	andi	r22, 0x1D	; 29
    5658:	76 7b       	andi	r23, 0xB6	; 182
    565a:	7f 84       	ldd	r7, Y+15	; 0x0f
    565c:	89 8e       	std	Y+25, r8	; 0x19
    565e:	92 96       	adiw	r26, 0x22	; 34
    5660:	99 9c       	mul	r9, r9
    5662:	9e a0       	ldd	r9, Y+38	; 0x26
    5664:	a1 a1       	ldd	r26, Z+33	; 0x21
    5666:	a0 9f       	mul	r26, r16
    5668:	9e 9c       	mul	r9, r14
    566a:	9a 97       	sbiw	r26, 0x2a	; 42
    566c:	94 90       	lpm	r9, Z
    566e:	8d 89       	ldd	r24, Y+21	; 0x15
    5670:	85 81       	ldd	r24, Z+5	; 0x05
    5672:	7d 78       	andi	r23, 0x8D	; 141
    5674:	74 70       	andi	r23, 0x04	; 4
    5676:	6c 68       	ori	r22, 0x8C	; 140
    5678:	64 60       	ori	r22, 0x04	; 4
    567a:	5d 5a       	subi	r21, 0xAD	; 173
    567c:	58 57       	subi	r21, 0x78	; 120
    567e:	56 56       	subi	r21, 0x66	; 102
    5680:	57 59       	subi	r21, 0x97	; 151
    5682:	5b 5e       	subi	r21, 0xEB	; 235
    5684:	62 67       	ori	r22, 0x72	; 114
    5686:	6b 70       	andi	r22, 0x0B	; 11
    5688:	76 7b       	andi	r23, 0xB6	; 182
    568a:	80 85       	ldd	r24, Z+8	; 0x08
    568c:	8a 8e       	std	Y+26, r8	; 0x1a
    568e:	91 95       	neg	r25
    5690:	97 99       	sbic	0x12, 7	; 18
    5692:	9b 9c       	mul	r9, r11
    5694:	9d 9d       	mul	r25, r13
    5696:	9d 9d       	mul	r25, r13
    5698:	9c 9b       	sbis	0x13, 4	; 19
    569a:	9a 99       	sbic	0x13, 2	; 19
    569c:	97 95       	ror	r25
    569e:	93 90       	.word	0x9093	; ????
    56a0:	8e 8a       	std	Y+22, r8	; 0x16
    56a2:	87 83       	std	Z+7, r24	; 0x07
    56a4:	7f 7c       	andi	r23, 0xCF	; 207
    56a6:	78 74       	andi	r23, 0x48	; 72
    56a8:	70 6d       	ori	r23, 0xD0	; 208
    56aa:	6a 68       	ori	r22, 0x8A	; 138
    56ac:	66 65       	ori	r22, 0x56	; 86
    56ae:	64 65       	ori	r22, 0x54	; 84
    56b0:	66 68       	ori	r22, 0x86	; 134
    56b2:	6b 6e       	ori	r22, 0xEB	; 235
    56b4:	72 76       	andi	r23, 0x62	; 98
    56b6:	7b 80       	ldd	r7, Y+3	; 0x03
    56b8:	84 89       	ldd	r24, Z+20	; 0x14
    56ba:	8d 92       	st	X+, r8
    56bc:	95 99       	sbic	0x12, 5	; 18
    56be:	9b 9d       	mul	r25, r11
    56c0:	9f a0       	ldd	r9, Y+39	; 0x27
    56c2:	a1 a1       	ldd	r26, Z+33	; 0x21
    56c4:	a0 9f       	mul	r26, r16
    56c6:	9e 9c       	mul	r9, r14
    56c8:	99 97       	sbiw	r26, 0x29	; 41
    56ca:	94 91       	lpm	r25, Z
    56cc:	8e 8a       	std	Y+22, r8	; 0x16
    56ce:	87 83       	std	Z+7, r24	; 0x07
    56d0:	7f 7c       	andi	r23, 0xCF	; 207
    56d2:	78 74       	andi	r23, 0x48	; 72
    56d4:	70 6d       	ori	r23, 0xD0	; 208
    56d6:	6a 67       	ori	r22, 0x7A	; 122
    56d8:	64 62       	ori	r22, 0x24	; 36
    56da:	61 5f       	subi	r22, 0xF1	; 241
    56dc:	5f 5f       	subi	r21, 0xFF	; 255
    56de:	60 61       	ori	r22, 0x10	; 16
    56e0:	63 65       	ori	r22, 0x53	; 83
    56e2:	69 6c       	ori	r22, 0xC9	; 201
    56e4:	70 75       	andi	r23, 0x50	; 80
    56e6:	79 7e       	andi	r23, 0xE9	; 233
    56e8:	83 87       	std	Z+11, r24	; 0x0b
    56ea:	8c 90       	ld	r8, X
    56ec:	93 97       	sbiw	r26, 0x23	; 35
    56ee:	99 9b       	sbis	0x13, 1	; 19
    56f0:	9d 9e       	mul	r9, r29
    56f2:	9e 9e       	mul	r9, r30
    56f4:	9d 9b       	sbis	0x13, 5	; 19
    56f6:	99 97       	sbiw	r26, 0x29	; 41
    56f8:	95 92       	las	Z, r9
    56fa:	8f 8b       	std	Y+23, r24	; 0x17
    56fc:	88 85       	ldd	r24, Y+8	; 0x08
    56fe:	81 7e       	andi	r24, 0xE1	; 225
    5700:	7a 77       	andi	r23, 0x7A	; 122
    5702:	73 70       	andi	r23, 0x03	; 3
    5704:	6d 6a       	ori	r22, 0xAD	; 173
    5706:	68 65       	ori	r22, 0x58	; 88
    5708:	64 62       	ori	r22, 0x24	; 36
    570a:	61 61       	ori	r22, 0x11	; 17
    570c:	61 61       	ori	r22, 0x11	; 17
    570e:	62 63       	ori	r22, 0x32	; 50
    5710:	65 68       	ori	r22, 0x85	; 133
    5712:	6a 6d       	ori	r22, 0xDA	; 218
    5714:	71 74       	andi	r23, 0x41	; 65
    5716:	77 7b       	andi	r23, 0xB7	; 183
    5718:	7e 81       	ldd	r23, Y+6	; 0x06
    571a:	84 87       	std	Z+12, r24	; 0x0c
    571c:	89 8b       	std	Y+17, r24	; 0x11
    571e:	8c 8d       	ldd	r24, Y+28	; 0x1c
    5720:	8e 8f       	std	Y+30, r24	; 0x1e
    5722:	8f 8e       	std	Y+31, r8	; 0x1f
    5724:	8e 8d       	ldd	r24, Y+30	; 0x1e
    5726:	8b 8a       	std	Y+19, r8	; 0x13
    5728:	88 86       	std	Y+8, r8	; 0x08
    572a:	84 81       	ldd	r24, Z+4	; 0x04
    572c:	7f 7c       	andi	r23, 0xCF	; 207
    572e:	79 77       	andi	r23, 0x79	; 121
    5730:	74 71       	andi	r23, 0x14	; 20
    5732:	6f 6d       	ori	r22, 0xDF	; 223
    5734:	6b 69       	ori	r22, 0x9B	; 155
    5736:	68 67       	ori	r22, 0x78	; 120
    5738:	66 66       	ori	r22, 0x66	; 102
    573a:	67 67       	ori	r22, 0x77	; 119
    573c:	68 6a       	ori	r22, 0xA8	; 168
    573e:	6c 6e       	ori	r22, 0xEC	; 236
    5740:	71 74       	andi	r23, 0x41	; 65
    5742:	77 7a       	andi	r23, 0xA7	; 167
    5744:	7e 81       	ldd	r23, Y+6	; 0x06
    5746:	85 88       	ldd	r8, Z+21	; 0x15
    5748:	8c 90       	ld	r8, X
    574a:	93 96       	adiw	r26, 0x23	; 35
    574c:	99 9c       	mul	r9, r9
    574e:	9e a0       	ldd	r9, Y+38	; 0x26
    5750:	a2 a3       	std	Z+34, r26	; 0x22
    5752:	a3 a3       	std	Z+35, r26	; 0x23
    5754:	a3 a2       	std	Z+35, r10	; 0x23
    5756:	a1 9f       	mul	r26, r17
    5758:	9d 9b       	sbis	0x13, 5	; 19
    575a:	98 95       	break
    575c:	92 8e       	std	Z+26, r9	; 0x1a
    575e:	8b 88       	ldd	r8, Y+19	; 0x13
    5760:	84 81       	ldd	r24, Z+4	; 0x04
    5762:	7e 7b       	andi	r23, 0xBE	; 190
    5764:	79 76       	andi	r23, 0x69	; 105
    5766:	74 72       	andi	r23, 0x24	; 36
    5768:	71 70       	andi	r23, 0x01	; 1
    576a:	6f 6f       	ori	r22, 0xFF	; 255
    576c:	6f 6f       	ori	r22, 0xFF	; 255
    576e:	6f 70       	andi	r22, 0x0F	; 15
    5770:	71 73       	andi	r23, 0x31	; 49
    5772:	75 77       	andi	r23, 0x75	; 117
    5774:	79 7b       	andi	r23, 0xB9	; 185
    5776:	7e 80       	ldd	r7, Y+6	; 0x06
    5778:	83 85       	ldd	r24, Z+11	; 0x0b
    577a:	88 8a       	std	Y+16, r8	; 0x10
    577c:	8d 8f       	std	Y+29, r24	; 0x1d
    577e:	90 92 93 93 	sts	0x9393, r9
    5782:	93 93       	.word	0x9393	; ????
    5784:	92 91       	ld	r25, -Z
    5786:	8f 8d       	ldd	r24, Y+31	; 0x1f
    5788:	8b 88       	ldd	r8, Y+19	; 0x13
    578a:	85 82       	std	Z+5, r8	; 0x05
    578c:	7f 7d       	andi	r23, 0xDF	; 223
    578e:	7a 77       	andi	r23, 0x7A	; 122
    5790:	75 73       	andi	r23, 0x35	; 53
    5792:	71 6f       	ori	r23, 0xF1	; 241
    5794:	6e 6d       	ori	r22, 0xDE	; 222
    5796:	6d 6d       	ori	r22, 0xDD	; 221
    5798:	6d 6d       	ori	r22, 0xDD	; 221
    579a:	6e 6e       	ori	r22, 0xEE	; 238
    579c:	6f 70       	andi	r22, 0x0F	; 15
    579e:	71 73       	andi	r23, 0x31	; 49
    57a0:	74 75       	andi	r23, 0x54	; 84
    57a2:	77 79       	andi	r23, 0x97	; 151
    57a4:	7a 7c       	andi	r23, 0xCA	; 202
    57a6:	7e 80       	ldd	r7, Y+6	; 0x06
    57a8:	82 85       	ldd	r24, Z+10	; 0x0a
    57aa:	87 89       	ldd	r24, Z+23	; 0x17
    57ac:	8b 8d       	ldd	r24, Y+27	; 0x1b
    57ae:	8e 90       	ld	r8, -X
    57b0:	91 91       	ld	r25, Z+
    57b2:	92 91       	ld	r25, -Z
    57b4:	91 8f       	std	Z+25, r25	; 0x19
    57b6:	8e 8c       	ldd	r8, Y+30	; 0x1e
    57b8:	89 87       	std	Y+9, r24	; 0x09
    57ba:	84 81       	ldd	r24, Z+4	; 0x04
    57bc:	7e 7b       	andi	r23, 0xBE	; 190
    57be:	79 76       	andi	r23, 0x69	; 105
    57c0:	74 72       	andi	r23, 0x24	; 36
    57c2:	71 6f       	ori	r23, 0xF1	; 241
    57c4:	6f 6e       	ori	r22, 0xEF	; 239
    57c6:	6e 6e       	ori	r22, 0xEE	; 238
    57c8:	6e 6e       	ori	r22, 0xEE	; 238
    57ca:	6f 6f       	ori	r22, 0xFF	; 255
    57cc:	6f 70       	andi	r22, 0x0F	; 15
    57ce:	70 71       	andi	r23, 0x10	; 16
    57d0:	71 72       	andi	r23, 0x21	; 33
    57d2:	73 74       	andi	r23, 0x43	; 67
    57d4:	75 77       	andi	r23, 0x75	; 117
    57d6:	78 7a       	andi	r23, 0xA8	; 168
    57d8:	7c 7e       	andi	r23, 0xEC	; 236
    57da:	81 83       	std	Z+1, r24	; 0x01
    57dc:	85 87       	std	Z+13, r24	; 0x0d
    57de:	89 8b       	std	Y+17, r24	; 0x11
    57e0:	8c 8d       	ldd	r24, Y+28	; 0x1c
    57e2:	8e 8e       	std	Y+30, r8	; 0x1e
    57e4:	8e 8d       	ldd	r24, Y+30	; 0x1e
    57e6:	8c 8b       	std	Y+20, r24	; 0x14
    57e8:	89 88       	ldd	r8, Y+17	; 0x11
    57ea:	86 84       	ldd	r8, Z+14	; 0x0e
    57ec:	83 81       	ldd	r24, Z+3	; 0x03
    57ee:	80 7e       	andi	r24, 0xE0	; 224
    57f0:	7d 7d       	andi	r23, 0xDD	; 221
    57f2:	7c 7b       	andi	r23, 0xBC	; 188
    57f4:	7b 7b       	andi	r23, 0xBB	; 187
    57f6:	7b 7a       	andi	r23, 0xAB	; 171
    57f8:	7a 7a       	andi	r23, 0xAA	; 170
    57fa:	7a 7a       	andi	r23, 0xAA	; 170
    57fc:	7a 7a       	andi	r23, 0xAA	; 170
    57fe:	7a 7a       	andi	r23, 0xAA	; 170
    5800:	7b 7b       	andi	r23, 0xBB	; 187
    5802:	7c 7e       	andi	r23, 0xEC	; 236
    5804:	7f 81       	ldd	r23, Y+7	; 0x07
    5806:	82 84       	ldd	r8, Z+10	; 0x0a
    5808:	86 88       	ldd	r8, Z+22	; 0x16
    580a:	8a 8c       	ldd	r8, Y+26	; 0x1a
    580c:	8e 8f       	std	Y+30, r24	; 0x1e
    580e:	90 91 91 91 	lds	r25, 0x9191
    5812:	91 90       	ld	r9, Z+
    5814:	8f 8d       	ldd	r24, Y+31	; 0x1f
    5816:	8c 8a       	std	Y+20, r8	; 0x14
    5818:	88 87       	std	Y+8, r24	; 0x08
    581a:	85 84       	ldd	r8, Z+13	; 0x0d
    581c:	82 81       	ldd	r24, Z+2	; 0x02
    581e:	80 7f       	andi	r24, 0xF0	; 240
    5820:	7e 7e       	andi	r23, 0xEE	; 238
    5822:	7d 7d       	andi	r23, 0xDD	; 221
    5824:	7c 7c       	andi	r23, 0xCC	; 204
    5826:	7b 7b       	andi	r23, 0xBB	; 187
    5828:	7a 7a       	andi	r23, 0xAA	; 170
    582a:	79 79       	andi	r23, 0x99	; 153
    582c:	78 78       	andi	r23, 0x88	; 136
    582e:	77 77       	andi	r23, 0x77	; 119
    5830:	77 77       	andi	r23, 0x77	; 119
    5832:	77 78       	andi	r23, 0x87	; 135
    5834:	78 79       	andi	r23, 0x98	; 152
    5836:	7a 7b       	andi	r23, 0xBA	; 186
    5838:	7d 7e       	andi	r23, 0xED	; 237
    583a:	80 81       	ld	r24, Z
    583c:	83 84       	ldd	r8, Z+11	; 0x0b
    583e:	85 86       	std	Z+13, r8	; 0x0d
    5840:	87 87       	std	Z+15, r24	; 0x0f
    5842:	87 87       	std	Z+15, r24	; 0x0f
    5844:	87 87       	std	Z+15, r24	; 0x0f
    5846:	86 85       	ldd	r24, Z+14	; 0x0e
    5848:	84 83       	std	Z+4, r24	; 0x04
    584a:	82 81       	ldd	r24, Z+2	; 0x02
    584c:	80 7e       	andi	r24, 0xE0	; 224
    584e:	7d 7d       	andi	r23, 0xDD	; 221
    5850:	7c 7b       	andi	r23, 0xBC	; 188
    5852:	7b 7a       	andi	r23, 0xAB	; 171
    5854:	7a 79       	andi	r23, 0x9A	; 154
    5856:	79 79       	andi	r23, 0x99	; 153
    5858:	79 79       	andi	r23, 0x99	; 153
    585a:	78 78       	andi	r23, 0x88	; 136
    585c:	77 77       	andi	r23, 0x77	; 119
    585e:	76 76       	andi	r23, 0x66	; 102
    5860:	75 74       	andi	r23, 0x45	; 69
    5862:	74 73       	andi	r23, 0x34	; 52
    5864:	73 73       	andi	r23, 0x33	; 51
    5866:	73 73       	andi	r23, 0x33	; 51
    5868:	73 74       	andi	r23, 0x43	; 67
    586a:	74 75       	andi	r23, 0x54	; 84
    586c:	77 78       	andi	r23, 0x87	; 135
    586e:	79 7b       	andi	r23, 0xB9	; 185
    5870:	7c 7e       	andi	r23, 0xEC	; 236
    5872:	7f 80       	ldd	r7, Y+7	; 0x07
    5874:	81 82       	std	Z+1, r8	; 0x01
    5876:	82 82       	std	Z+2, r8	; 0x02
    5878:	82 82       	std	Z+2, r8	; 0x02
    587a:	82 82       	std	Z+2, r8	; 0x02
    587c:	81 80       	ldd	r8, Z+1	; 0x01
    587e:	80 7f       	andi	r24, 0xF0	; 240
    5880:	7f 7f       	andi	r23, 0xFF	; 255
    5882:	7e 7e       	andi	r23, 0xEE	; 238
    5884:	7e 7f       	andi	r23, 0xFE	; 254
    5886:	7f 80       	ldd	r7, Y+7	; 0x07
    5888:	80 81       	ld	r24, Z
    588a:	81 82       	std	Z+1, r8	; 0x01
    588c:	82 83       	std	Z+2, r24	; 0x02
    588e:	83 83       	std	Z+3, r24	; 0x03
    5890:	83 83       	std	Z+3, r24	; 0x03
    5892:	83 82       	std	Z+3, r8	; 0x03
    5894:	82 82       	std	Z+2, r8	; 0x02
    5896:	82 82       	std	Z+2, r8	; 0x02
    5898:	82 83       	std	Z+2, r24	; 0x02
    589a:	83 84       	ldd	r8, Z+11	; 0x0b
    589c:	85 86       	std	Z+13, r8	; 0x0d
    589e:	86 87       	std	Z+14, r24	; 0x0e
    58a0:	88 89       	ldd	r24, Y+16	; 0x10
    58a2:	8a 8b       	std	Y+18, r24	; 0x12
    58a4:	8b 8b       	std	Y+19, r24	; 0x13
    58a6:	8c 8c       	ldd	r8, Y+28	; 0x1c
    58a8:	8c 8b       	std	Y+20, r24	; 0x14
    58aa:	8b 8a       	std	Y+19, r8	; 0x13
    58ac:	8a 89       	ldd	r24, Y+18	; 0x12
    58ae:	88 87       	std	Y+8, r24	; 0x08
    58b0:	87 86       	std	Z+15, r8	; 0x0f
    58b2:	85 84       	ldd	r8, Z+13	; 0x0d
    58b4:	83 83       	std	Z+3, r24	; 0x03
    58b6:	82 81       	ldd	r24, Z+2	; 0x02
    58b8:	81 80       	ldd	r8, Z+1	; 0x01
    58ba:	7f 7f       	andi	r23, 0xFF	; 255
    58bc:	7e 7e       	andi	r23, 0xEE	; 238
    58be:	7d 7c       	andi	r23, 0xCD	; 205
    58c0:	7c 7b       	andi	r23, 0xBC	; 188
    58c2:	7b 7a       	andi	r23, 0xAB	; 171
    58c4:	7a 79       	andi	r23, 0x9A	; 154
    58c6:	79 79       	andi	r23, 0x99	; 153
    58c8:	79 79       	andi	r23, 0x99	; 153
    58ca:	79 79       	andi	r23, 0x99	; 153
    58cc:	79 79       	andi	r23, 0x99	; 153
    58ce:	79 7a       	andi	r23, 0xA9	; 169
    58d0:	7a 7b       	andi	r23, 0xBA	; 186
    58d2:	7b 7c       	andi	r23, 0xCB	; 203
    58d4:	7d 7d       	andi	r23, 0xDD	; 221
    58d6:	7e 7f       	andi	r23, 0xFE	; 254
    58d8:	7f 80       	ldd	r7, Y+7	; 0x07
    58da:	81 81       	ldd	r24, Z+1	; 0x01
    58dc:	81 82       	std	Z+1, r8	; 0x01
    58de:	82 82       	std	Z+2, r8	; 0x02
    58e0:	81 81       	ldd	r24, Z+1	; 0x01
    58e2:	81 81       	ldd	r24, Z+1	; 0x01
    58e4:	80 80       	ld	r8, Z
    58e6:	80 7f       	andi	r24, 0xF0	; 240
    58e8:	7f 7f       	andi	r23, 0xFF	; 255
    58ea:	7f 7f       	andi	r23, 0xFF	; 255
    58ec:	7f 7e       	andi	r23, 0xEF	; 239
    58ee:	7e 7e       	andi	r23, 0xEE	; 238
    58f0:	7e 7d       	andi	r23, 0xDE	; 222
    58f2:	7d 7c       	andi	r23, 0xCD	; 205
    58f4:	7c 7b       	andi	r23, 0xBC	; 188
    58f6:	7a 79       	andi	r23, 0x9A	; 154
    58f8:	78 77       	andi	r23, 0x78	; 120
    58fa:	77 76       	andi	r23, 0x67	; 103
    58fc:	76 76       	andi	r23, 0x66	; 102
    58fe:	76 77       	andi	r23, 0x76	; 118
    5900:	78 79       	andi	r23, 0x98	; 152
    5902:	7a 7b       	andi	r23, 0xBA	; 186
    5904:	7d 7f       	andi	r23, 0xFD	; 253
    5906:	81 82       	std	Z+1, r8	; 0x01
    5908:	84 85       	ldd	r24, Z+12	; 0x0c
    590a:	86 87       	std	Z+14, r24	; 0x0e
    590c:	88 89       	ldd	r24, Y+16	; 0x10
    590e:	89 89       	ldd	r24, Y+17	; 0x11
    5910:	88 88       	ldd	r8, Y+16	; 0x10
    5912:	87 87       	std	Z+15, r24	; 0x0f
    5914:	86 85       	ldd	r24, Z+14	; 0x0e
    5916:	84 83       	std	Z+4, r24	; 0x04
    5918:	82 81       	ldd	r24, Z+2	; 0x02
    591a:	80 7f       	andi	r24, 0xF0	; 240
    591c:	7e 7d       	andi	r23, 0xDE	; 222
    591e:	7b 7a       	andi	r23, 0xAB	; 171
    5920:	78 77       	andi	r23, 0x78	; 120
    5922:	75 74       	andi	r23, 0x45	; 69
    5924:	72 70       	andi	r23, 0x02	; 2
    5926:	6f 6e       	ori	r22, 0xEF	; 239
    5928:	6d 6c       	ori	r22, 0xCD	; 205
    592a:	6b 6b       	ori	r22, 0xBB	; 187
    592c:	6c 6c       	ori	r22, 0xCC	; 204
    592e:	6d 6f       	ori	r22, 0xFD	; 253
    5930:	70 72       	andi	r23, 0x20	; 32
    5932:	74 76       	andi	r23, 0x64	; 100
    5934:	78 7a       	andi	r23, 0xA8	; 168
    5936:	7c 7e       	andi	r23, 0xEC	; 236
    5938:	7f 81       	ldd	r23, Y+7	; 0x07
    593a:	82 83       	std	Z+2, r24	; 0x02
    593c:	84 85       	ldd	r24, Z+12	; 0x0c
    593e:	85 86       	std	Z+13, r8	; 0x0d
    5940:	86 87       	std	Z+14, r24	; 0x0e
    5942:	87 88       	ldd	r8, Z+23	; 0x17
    5944:	89 89       	ldd	r24, Y+17	; 0x11
    5946:	8a 8a       	std	Y+18, r8	; 0x12
    5948:	8b 8b       	std	Y+19, r24	; 0x13
    594a:	8b 8b       	std	Y+19, r24	; 0x13
    594c:	8b 8a       	std	Y+19, r8	; 0x13
    594e:	89 88       	ldd	r8, Y+17	; 0x11
    5950:	87 86       	std	Z+15, r8	; 0x0f
    5952:	84 83       	std	Z+4, r24	; 0x04
    5954:	82 81       	ldd	r24, Z+2	; 0x02
    5956:	80 7f       	andi	r24, 0xF0	; 240
    5958:	7f 7f       	andi	r23, 0xFF	; 255
    595a:	80 80       	ld	r8, Z
    595c:	82 83       	std	Z+2, r24	; 0x02
    595e:	85 87       	std	Z+13, r24	; 0x0d
    5960:	8a 8c       	ldd	r8, Y+26	; 0x1a
    5962:	8e 91       	ld	r24, -X
    5964:	93 94       	inc	r9
    5966:	96 97       	sbiw	r26, 0x26	; 38
    5968:	98 98       	cbi	0x13, 0	; 19
    596a:	98 98       	cbi	0x13, 0	; 19
    596c:	97 96       	adiw	r26, 0x27	; 39
    596e:	95 94       	asr	r9
    5970:	92 91       	ld	r25, -Z
    5972:	8f 8d       	ldd	r24, Y+31	; 0x1f
    5974:	8c 8a       	std	Y+20, r8	; 0x14
    5976:	88 86       	std	Y+8, r8	; 0x08
    5978:	85 83       	std	Z+5, r24	; 0x05
    597a:	81 7f       	andi	r24, 0xF1	; 241
    597c:	7d 7c       	andi	r23, 0xCD	; 205
    597e:	7a 78       	andi	r23, 0x8A	; 138
    5980:	76 74       	andi	r23, 0x46	; 70
    5982:	73 71       	andi	r23, 0x13	; 19
    5984:	70 6e       	ori	r23, 0xE0	; 224
    5986:	6d 6d       	ori	r22, 0xDD	; 221
    5988:	6c 6c       	ori	r22, 0xCC	; 204
    598a:	6c 6c       	ori	r22, 0xCC	; 204
    598c:	6c 6d       	ori	r22, 0xDC	; 220
    598e:	6e 6f       	ori	r22, 0xFE	; 254
    5990:	70 72       	andi	r23, 0x20	; 32
    5992:	73 75       	andi	r23, 0x53	; 83
    5994:	76 78       	andi	r23, 0x86	; 134
    5996:	79 7a       	andi	r23, 0xA9	; 169
    5998:	7b 7c       	andi	r23, 0xCB	; 203
    599a:	7d 7d       	andi	r23, 0xDD	; 221
    599c:	7e 7e       	andi	r23, 0xEE	; 238
    599e:	7e 7e       	andi	r23, 0xEE	; 238
    59a0:	7e 7e       	andi	r23, 0xEE	; 238
    59a2:	7d 7d       	andi	r23, 0xDD	; 221
    59a4:	7d 7d       	andi	r23, 0xDD	; 221
    59a6:	7d 7c       	andi	r23, 0xCD	; 205
    59a8:	7c 7c       	andi	r23, 0xCC	; 204
    59aa:	7c 7c       	andi	r23, 0xCC	; 204
    59ac:	7c 7c       	andi	r23, 0xCC	; 204
    59ae:	7b 7b       	andi	r23, 0xBB	; 187
    59b0:	7b 7a       	andi	r23, 0xAB	; 171
    59b2:	7a 79       	andi	r23, 0x9A	; 154
    59b4:	78 77       	andi	r23, 0x78	; 120
    59b6:	76 75       	andi	r23, 0x56	; 86
    59b8:	75 74       	andi	r23, 0x45	; 69
    59ba:	73 73       	andi	r23, 0x33	; 51
    59bc:	73 73       	andi	r23, 0x33	; 51
    59be:	73 73       	andi	r23, 0x33	; 51
    59c0:	74 75       	andi	r23, 0x54	; 84
    59c2:	76 77       	andi	r23, 0x76	; 118
    59c4:	79 7a       	andi	r23, 0xA9	; 169
    59c6:	7b 7d       	andi	r23, 0xDB	; 219
    59c8:	7e 7f       	andi	r23, 0xFE	; 254
    59ca:	80 81       	ld	r24, Z
    59cc:	81 81       	ldd	r24, Z+1	; 0x01
    59ce:	81 81       	ldd	r24, Z+1	; 0x01
    59d0:	81 81       	ldd	r24, Z+1	; 0x01
    59d2:	80 80       	ld	r8, Z
    59d4:	7f 7e       	andi	r23, 0xEF	; 239
    59d6:	7e 7d       	andi	r23, 0xDE	; 222
    59d8:	7c 7c       	andi	r23, 0xCC	; 204
    59da:	7b 7b       	andi	r23, 0xBB	; 187
    59dc:	7a 7a       	andi	r23, 0xAA	; 170
    59de:	79 79       	andi	r23, 0x99	; 153
    59e0:	78 78       	andi	r23, 0x88	; 136
    59e2:	77 77       	andi	r23, 0x77	; 119
    59e4:	76 76       	andi	r23, 0x66	; 102
    59e6:	76 76       	andi	r23, 0x66	; 102
    59e8:	76 76       	andi	r23, 0x66	; 102
    59ea:	76 77       	andi	r23, 0x76	; 118
    59ec:	78 79       	andi	r23, 0x98	; 152
    59ee:	7b 7d       	andi	r23, 0xDB	; 219
    59f0:	7f 81       	ldd	r23, Y+7	; 0x07
    59f2:	83 86       	std	Z+11, r8	; 0x0b
    59f4:	88 8b       	std	Y+16, r24	; 0x10
    59f6:	8e 90       	ld	r8, -X
    59f8:	92 95       	swap	r25
    59fa:	96 98       	cbi	0x12, 6	; 18
    59fc:	99 9b       	sbis	0x13, 1	; 19
    59fe:	9b 9c       	mul	r9, r11
    5a00:	9c 9c       	mul	r9, r12
    5a02:	9b 9b       	sbis	0x13, 3	; 19
    5a04:	9a 99       	sbic	0x13, 2	; 19
    5a06:	97 96       	adiw	r26, 0x27	; 39
    5a08:	94 93       	xch	Z, r25
    5a0a:	91 8f       	std	Z+25, r25	; 0x19
    5a0c:	8d 8c       	ldd	r8, Y+29	; 0x1d
    5a0e:	8a 88       	ldd	r8, Y+18	; 0x12
    5a10:	87 86       	std	Z+15, r8	; 0x0f
    5a12:	84 83       	std	Z+4, r24	; 0x04
    5a14:	82 81       	ldd	r24, Z+2	; 0x02
    5a16:	81 80       	ldd	r8, Z+1	; 0x01
    5a18:	80 80       	ld	r8, Z
    5a1a:	80 80       	ld	r8, Z
    5a1c:	80 81       	ld	r24, Z
    5a1e:	81 82       	std	Z+1, r8	; 0x01
    5a20:	83 83       	std	Z+3, r24	; 0x03
    5a22:	84 85       	ldd	r24, Z+12	; 0x0c
    5a24:	86 86       	std	Z+14, r8	; 0x0e
    5a26:	87 88       	ldd	r8, Z+23	; 0x17
    5a28:	88 88       	ldd	r8, Y+16	; 0x10
    5a2a:	89 89       	ldd	r24, Y+17	; 0x11
    5a2c:	89 88       	ldd	r8, Y+17	; 0x11
    5a2e:	88 87       	std	Y+8, r24	; 0x08
    5a30:	87 86       	std	Z+15, r8	; 0x0f
    5a32:	85 84       	ldd	r8, Z+13	; 0x0d
    5a34:	82 81       	ldd	r24, Z+2	; 0x02
    5a36:	7f 7e       	andi	r23, 0xEF	; 239
    5a38:	7c 7a       	andi	r23, 0xAC	; 172
    5a3a:	79 77       	andi	r23, 0x79	; 121
    5a3c:	76 74       	andi	r23, 0x46	; 70
    5a3e:	73 72       	andi	r23, 0x23	; 35
    5a40:	71 70       	andi	r23, 0x01	; 1
    5a42:	6f 6f       	ori	r22, 0xFF	; 255
    5a44:	6f 6f       	ori	r22, 0xFF	; 255
    5a46:	6f 6f       	ori	r22, 0xFF	; 255
    5a48:	6f 70       	andi	r22, 0x0F	; 15
    5a4a:	70 71       	andi	r23, 0x10	; 16
    5a4c:	72 73       	andi	r23, 0x32	; 50
    5a4e:	74 75       	andi	r23, 0x54	; 84
    5a50:	77 78       	andi	r23, 0x87	; 135
    5a52:	7a 7b       	andi	r23, 0xBA	; 186
    5a54:	7d 7f       	andi	r23, 0xFD	; 253
    5a56:	80 82       	st	Z, r8
    5a58:	84 85       	ldd	r24, Z+12	; 0x0c
    5a5a:	86 87       	std	Z+14, r24	; 0x0e
    5a5c:	88 89       	ldd	r24, Y+16	; 0x10
    5a5e:	89 89       	ldd	r24, Y+17	; 0x11
    5a60:	88 88       	ldd	r8, Y+16	; 0x10
    5a62:	87 85       	ldd	r24, Z+15	; 0x0f
    5a64:	84 82       	std	Z+4, r8	; 0x04
    5a66:	80 7f       	andi	r24, 0xF0	; 240
    5a68:	7d 7b       	andi	r23, 0xBD	; 189
    5a6a:	79 77       	andi	r23, 0x79	; 121
    5a6c:	76 74       	andi	r23, 0x46	; 70
    5a6e:	72 71       	andi	r23, 0x12	; 18
    5a70:	70 6e       	ori	r23, 0xE0	; 224
    5a72:	6d 6c       	ori	r22, 0xCD	; 205
    5a74:	6b 6a       	ori	r22, 0xAB	; 171
    5a76:	69 68       	ori	r22, 0x89	; 137
    5a78:	67 67       	ori	r22, 0x77	; 119
    5a7a:	66 66       	ori	r22, 0x66	; 102
    5a7c:	67 67       	ori	r22, 0x77	; 119
    5a7e:	68 69       	ori	r22, 0x98	; 152
    5a80:	6b 6d       	ori	r22, 0xDB	; 219
    5a82:	6f 72       	andi	r22, 0x2F	; 47
    5a84:	75 78       	andi	r23, 0x85	; 133
    5a86:	7b 7e       	andi	r23, 0xEB	; 235
    5a88:	81 83       	std	Z+1, r24	; 0x01
    5a8a:	86 88       	ldd	r8, Z+22	; 0x16
    5a8c:	89 8b       	std	Y+17, r24	; 0x11
    5a8e:	8b 8c       	ldd	r8, Y+27	; 0x1b
    5a90:	8c 8b       	std	Y+20, r24	; 0x14
    5a92:	8a 89       	ldd	r24, Y+18	; 0x12
    5a94:	88 87       	std	Y+8, r24	; 0x08
    5a96:	86 84       	ldd	r8, Z+14	; 0x0e
    5a98:	83 82       	std	Z+3, r8	; 0x03
    5a9a:	81 80       	ldd	r8, Z+1	; 0x01
    5a9c:	80 80       	ld	r8, Z
    5a9e:	7f 7f       	andi	r23, 0xFF	; 255
    5aa0:	7f 7f       	andi	r23, 0xFF	; 255
    5aa2:	80 80       	ld	r8, Z
    5aa4:	80 80       	ld	r8, Z
    5aa6:	80 80       	ld	r8, Z
    5aa8:	80 80       	ld	r8, Z
    5aaa:	80 81       	ld	r24, Z
    5aac:	81 81       	ldd	r24, Z+1	; 0x01
    5aae:	82 83       	std	Z+2, r24	; 0x02
    5ab0:	84 85       	ldd	r24, Z+12	; 0x0c
    5ab2:	87 88       	ldd	r8, Z+23	; 0x17
    5ab4:	8a 8c       	ldd	r8, Y+26	; 0x1a
    5ab6:	8e 8f       	std	Y+30, r24	; 0x1e
    5ab8:	91 93       	st	Z+, r25
    5aba:	94 95       	.word	0x9594	; ????
    5abc:	96 97       	sbiw	r26, 0x26	; 38
    5abe:	97 97       	sbiw	r26, 0x27	; 39
    5ac0:	96 96       	adiw	r26, 0x26	; 38
    5ac2:	95 93       	las	Z, r25
    5ac4:	92 90       	ld	r9, -Z
    5ac6:	8f 8d       	ldd	r24, Y+31	; 0x1f
    5ac8:	8b 8a       	std	Y+19, r8	; 0x13
    5aca:	88 87       	std	Y+8, r24	; 0x08
    5acc:	86 85       	ldd	r24, Z+14	; 0x0e
    5ace:	84 83       	std	Z+4, r24	; 0x04
    5ad0:	82 81       	ldd	r24, Z+2	; 0x02
    5ad2:	81 80       	ldd	r8, Z+1	; 0x01
    5ad4:	7f 7e       	andi	r23, 0xEF	; 239
    5ad6:	7d 7c       	andi	r23, 0xCD	; 205
    5ad8:	7b 7a       	andi	r23, 0xAB	; 171
    5ada:	79 78       	andi	r23, 0x89	; 137
    5adc:	77 77       	andi	r23, 0x77	; 119
    5ade:	76 76       	andi	r23, 0x66	; 102
    5ae0:	76 76       	andi	r23, 0x66	; 102
    5ae2:	77 78       	andi	r23, 0x87	; 135
    5ae4:	79 7a       	andi	r23, 0xA9	; 169
    5ae6:	7b 7d       	andi	r23, 0xDB	; 219
    5ae8:	7e 80       	ldd	r7, Y+6	; 0x06
    5aea:	81 82       	std	Z+1, r8	; 0x01
    5aec:	83 83       	std	Z+3, r24	; 0x03
    5aee:	84 84       	ldd	r8, Z+12	; 0x0c
    5af0:	84 83       	std	Z+4, r24	; 0x04
    5af2:	83 82       	std	Z+3, r8	; 0x03
    5af4:	81 80       	ldd	r8, Z+1	; 0x01
    5af6:	7f 7e       	andi	r23, 0xEF	; 239
    5af8:	7d 7d       	andi	r23, 0xDD	; 221
    5afa:	7c 7b       	andi	r23, 0xBC	; 188
    5afc:	7a 79       	andi	r23, 0x9A	; 154
    5afe:	79 78       	andi	r23, 0x89	; 137
    5b00:	77 76       	andi	r23, 0x67	; 103
    5b02:	76 75       	andi	r23, 0x56	; 86
    5b04:	74 73       	andi	r23, 0x34	; 52
    5b06:	73 72       	andi	r23, 0x23	; 35
    5b08:	71 71       	andi	r23, 0x11	; 17
    5b0a:	71 70       	andi	r23, 0x01	; 1
    5b0c:	71 71       	andi	r23, 0x11	; 17
    5b0e:	71 72       	andi	r23, 0x21	; 33
    5b10:	73 74       	andi	r23, 0x43	; 67
    5b12:	75 76       	andi	r23, 0x65	; 101
    5b14:	77 78       	andi	r23, 0x87	; 135
    5b16:	78 79       	andi	r23, 0x98	; 152
    5b18:	7a 7b       	andi	r23, 0xBA	; 186
    5b1a:	7b 7b       	andi	r23, 0xBB	; 187
    5b1c:	7c 7c       	andi	r23, 0xCC	; 204
    5b1e:	7c 7d       	andi	r23, 0xDC	; 220
    5b20:	7d 7e       	andi	r23, 0xED	; 237
    5b22:	7f 80       	ldd	r7, Y+7	; 0x07
    5b24:	81 83       	std	Z+1, r24	; 0x01
    5b26:	85 87       	std	Z+13, r24	; 0x0d
    5b28:	89 8b       	std	Y+17, r24	; 0x11
    5b2a:	8d 8f       	std	Y+29, r24	; 0x1d
    5b2c:	91 93       	st	Z+, r25
    5b2e:	95 96       	adiw	r26, 0x25	; 37
    5b30:	97 97       	sbiw	r26, 0x27	; 39
    5b32:	97 96       	adiw	r26, 0x27	; 39
    5b34:	95 94       	asr	r9
    5b36:	92 90       	ld	r9, -Z
    5b38:	8e 8b       	std	Y+22, r24	; 0x16
    5b3a:	89 86       	std	Y+9, r8	; 0x09
    5b3c:	84 81       	ldd	r24, Z+4	; 0x04
    5b3e:	7f 7d       	andi	r23, 0xDF	; 223
    5b40:	7c 7a       	andi	r23, 0xAC	; 172
    5b42:	79 78       	andi	r23, 0x89	; 137
    5b44:	78 77       	andi	r23, 0x78	; 120
    5b46:	77 77       	andi	r23, 0x77	; 119
    5b48:	77 76       	andi	r23, 0x67	; 103
    5b4a:	76 76       	andi	r23, 0x66	; 102
    5b4c:	75 74       	andi	r23, 0x45	; 69
    5b4e:	72 70       	andi	r23, 0x02	; 2
    5b50:	6e 6c       	ori	r22, 0xCE	; 206
    5b52:	69 66       	ori	r22, 0x69	; 105
    5b54:	63 60       	ori	r22, 0x03	; 3
    5b56:	5d 5a       	subi	r21, 0xAD	; 173
    5b58:	58 56       	subi	r21, 0x68	; 104
    5b5a:	55 54       	subi	r21, 0x45	; 69
    5b5c:	54 54       	subi	r21, 0x44	; 68
    5b5e:	56 58       	subi	r21, 0x86	; 134
    5b60:	5b 5e       	subi	r21, 0xEB	; 235
    5b62:	62 67       	ori	r22, 0x72	; 114
    5b64:	6c 71       	andi	r22, 0x1C	; 28
    5b66:	76 7b       	andi	r23, 0xB6	; 182
    5b68:	80 85       	ldd	r24, Z+8	; 0x08
    5b6a:	89 8d       	ldd	r24, Y+25	; 0x19
    5b6c:	90 93 96 97 	sts	0x9796, r25
    5b70:	99 9a       	sbi	0x13, 1	; 19
    5b72:	9c 9d       	mul	r25, r12
    5b74:	9e 9f       	mul	r25, r30
    5b76:	a0 a2       	std	Z+32, r10	; 0x20
    5b78:	a3 a5       	ldd	r26, Z+43	; 0x2b
    5b7a:	a8 aa       	std	Y+48, r10	; 0x30
    5b7c:	ac af       	std	Y+60, r26	; 0x3c
    5b7e:	b1 b3       	in	r27, 0x11	; 17
    5b80:	b5 b6       	in	r11, 0x35	; 53
    5b82:	b7 b7       	in	r27, 0x37	; 55
    5b84:	b6 b4       	in	r11, 0x26	; 38
    5b86:	b2 af       	std	Z+58, r27	; 0x3a
    5b88:	ab a6       	std	Y+43, r10	; 0x2b
    5b8a:	a1 9b       	sbis	0x14, 1	; 20
    5b8c:	95 8e       	std	Z+29, r9	; 0x1d
    5b8e:	87 80       	ldd	r8, Z+7	; 0x07
    5b90:	7a 73       	andi	r23, 0x3A	; 58
    5b92:	6d 68       	ori	r22, 0x8D	; 141
    5b94:	63 5f       	subi	r22, 0xF3	; 243
    5b96:	5c 59       	subi	r21, 0x9C	; 156
    5b98:	58 58       	subi	r21, 0x88	; 136
    5b9a:	58 59       	subi	r21, 0x98	; 152
    5b9c:	5c 5f       	subi	r21, 0xFC	; 252
    5b9e:	62 66       	ori	r22, 0x62	; 98
    5ba0:	6b 70       	andi	r22, 0x0B	; 11
    5ba2:	75 7a       	andi	r23, 0xA5	; 165
    5ba4:	7f 84       	ldd	r7, Y+15	; 0x0f
    5ba6:	89 8c       	ldd	r8, Y+25	; 0x19
    5ba8:	90 92 94 96 	sts	0x9694, r9
    5bac:	96 96       	adiw	r26, 0x26	; 38
    5bae:	95 94       	asr	r9
    5bb0:	93 91       	.word	0x9193	; ????
    5bb2:	8e 8c       	ldd	r8, Y+30	; 0x1e
    5bb4:	8a 87       	std	Y+10, r24	; 0x0a
    5bb6:	85 83       	std	Z+5, r24	; 0x05
    5bb8:	81 80       	ldd	r8, Z+1	; 0x01
    5bba:	7e 7d       	andi	r23, 0xDE	; 222
    5bbc:	7c 7a       	andi	r23, 0xAC	; 172
    5bbe:	79 78       	andi	r23, 0x89	; 137
    5bc0:	77 75       	andi	r23, 0x57	; 87
    5bc2:	74 72       	andi	r23, 0x24	; 36
    5bc4:	70 6e       	ori	r23, 0xE0	; 224
    5bc6:	6c 6a       	ori	r22, 0xAC	; 172
    5bc8:	68 66       	ori	r22, 0x68	; 104
    5bca:	64 63       	ori	r22, 0x34	; 52
    5bcc:	62 62       	ori	r22, 0x22	; 34
    5bce:	63 65       	ori	r22, 0x53	; 83
    5bd0:	67 6a       	ori	r22, 0xA7	; 167
    5bd2:	6d 71       	andi	r22, 0x1D	; 29
    5bd4:	76 7b       	andi	r23, 0xB6	; 182
    5bd6:	81 86       	std	Z+9, r8	; 0x09
    5bd8:	8b 90       	.word	0x908b	; ????
    5bda:	94 98       	cbi	0x12, 4	; 18
    5bdc:	9b 9d       	mul	r25, r11
    5bde:	9e 9e       	mul	r9, r30
    5be0:	9d 9b       	sbis	0x13, 5	; 19
    5be2:	99 95       	.word	0x9599	; ????
    5be4:	91 8d       	ldd	r25, Z+25	; 0x19
    5be6:	88 83       	st	Y, r24
    5be8:	7e 7a       	andi	r23, 0xAE	; 174
    5bea:	75 71       	andi	r23, 0x15	; 21
    5bec:	6e 6b       	ori	r22, 0xBE	; 190
    5bee:	69 67       	ori	r22, 0x79	; 121
    5bf0:	65 64       	ori	r22, 0x45	; 69
    5bf2:	64 63       	ori	r22, 0x34	; 52
    5bf4:	63 63       	ori	r22, 0x33	; 51
    5bf6:	63 62       	ori	r22, 0x23	; 35
    5bf8:	62 61       	ori	r22, 0x12	; 18
    5bfa:	60 5f       	subi	r22, 0xF0	; 240
    5bfc:	5e 5d       	subi	r21, 0xDE	; 222
    5bfe:	5c 5b       	subi	r21, 0xBC	; 188
    5c00:	5a 5a       	subi	r21, 0xAA	; 170
    5c02:	5a 5a       	subi	r21, 0xAA	; 170
    5c04:	5c 5d       	subi	r21, 0xDC	; 220
    5c06:	60 63       	ori	r22, 0x30	; 48
    5c08:	67 6b       	ori	r22, 0xB7	; 183
    5c0a:	6f 74       	andi	r22, 0x4F	; 79
    5c0c:	79 7f       	andi	r23, 0xF9	; 249
    5c0e:	84 89       	ldd	r24, Z+20	; 0x14
    5c10:	8e 92       	st	-X, r8
    5c12:	97 9a       	sbi	0x12, 7	; 18
    5c14:	9d a0       	ldd	r9, Y+37	; 0x25
    5c16:	a1 a2       	std	Z+33, r10	; 0x21
    5c18:	a3 a3       	std	Z+35, r26	; 0x23
    5c1a:	a2 a1       	ldd	r26, Z+34	; 0x22
    5c1c:	a0 9e       	mul	r10, r16
    5c1e:	9c 99       	sbic	0x13, 4	; 19
    5c20:	97 94       	ror	r9
    5c22:	91 8f       	std	Z+25, r25	; 0x19
    5c24:	8c 8a       	std	Y+20, r8	; 0x14
    5c26:	87 85       	ldd	r24, Z+15	; 0x0f
    5c28:	83 82       	std	Z+3, r8	; 0x03
    5c2a:	80 7f       	andi	r24, 0xF0	; 240
    5c2c:	7e 7e       	andi	r23, 0xEE	; 238
    5c2e:	7d 7d       	andi	r23, 0xDD	; 221
    5c30:	7d 7d       	andi	r23, 0xDD	; 221
    5c32:	7e 7e       	andi	r23, 0xEE	; 238
    5c34:	7f 7f       	andi	r23, 0xFF	; 255
    5c36:	80 81       	ld	r24, Z
    5c38:	82 83       	std	Z+2, r24	; 0x02
    5c3a:	84 85       	ldd	r24, Z+12	; 0x0c
    5c3c:	86 88       	ldd	r8, Z+22	; 0x16
    5c3e:	89 8b       	std	Y+17, r24	; 0x11
    5c40:	8d 8f       	std	Y+29, r24	; 0x1d
    5c42:	91 93       	st	Z+, r25
    5c44:	96 98       	cbi	0x12, 6	; 18
    5c46:	9a 9c       	mul	r9, r10
    5c48:	9d 9f       	mul	r25, r29
    5c4a:	a0 a0       	ldd	r10, Z+32	; 0x20
    5c4c:	a0 a0       	ldd	r10, Z+32	; 0x20
    5c4e:	9f 9e       	mul	r9, r31
    5c50:	9d 9a       	sbi	0x13, 5	; 19
    5c52:	98 95       	break
    5c54:	92 8f       	std	Z+26, r25	; 0x1a
    5c56:	8b 87       	std	Y+11, r24	; 0x0b
    5c58:	84 80       	ldd	r8, Z+4	; 0x04
    5c5a:	7c 79       	andi	r23, 0x9C	; 156
    5c5c:	75 72       	andi	r23, 0x25	; 37
    5c5e:	6f 6d       	ori	r22, 0xDF	; 223
    5c60:	6a 68       	ori	r22, 0x8A	; 138
    5c62:	66 65       	ori	r22, 0x56	; 86
    5c64:	64 63       	ori	r22, 0x34	; 52
    5c66:	63 63       	ori	r22, 0x33	; 51
    5c68:	64 64       	ori	r22, 0x44	; 68
    5c6a:	65 67       	ori	r22, 0x75	; 117
    5c6c:	69 6a       	ori	r22, 0xA9	; 169
    5c6e:	6d 6f       	ori	r22, 0xFD	; 253
    5c70:	72 74       	andi	r23, 0x42	; 66
    5c72:	77 7a       	andi	r23, 0xA7	; 167
    5c74:	7d 7f       	andi	r23, 0xFD	; 253
    5c76:	82 85       	ldd	r24, Z+10	; 0x0a
    5c78:	88 8a       	std	Y+16, r8	; 0x10
    5c7a:	8d 8f       	std	Y+29, r24	; 0x1d
    5c7c:	92 94       	swap	r9
    5c7e:	95 97       	sbiw	r26, 0x25	; 37
    5c80:	98 99       	sbic	0x13, 0	; 19
    5c82:	9a 9a       	sbi	0x13, 2	; 19
    5c84:	9a 9a       	sbi	0x13, 2	; 19
    5c86:	99 98       	cbi	0x13, 1	; 19
    5c88:	96 95       	lsr	r25
    5c8a:	92 90       	ld	r9, -Z
    5c8c:	8d 8a       	std	Y+21, r8	; 0x15
    5c8e:	87 83       	std	Z+7, r24	; 0x07
    5c90:	80 7d       	andi	r24, 0xD0	; 208
    5c92:	7a 77       	andi	r23, 0x7A	; 122
    5c94:	74 71       	andi	r23, 0x14	; 20
    5c96:	6f 6d       	ori	r22, 0xDF	; 223
    5c98:	6b 6a       	ori	r22, 0xAB	; 171
    5c9a:	69 68       	ori	r22, 0x89	; 137
    5c9c:	67 66       	ori	r22, 0x67	; 103
    5c9e:	66 66       	ori	r22, 0x66	; 102
    5ca0:	66 66       	ori	r22, 0x66	; 102
    5ca2:	66 66       	ori	r22, 0x66	; 102
    5ca4:	66 66       	ori	r22, 0x66	; 102
    5ca6:	66 67       	ori	r22, 0x76	; 118
    5ca8:	67 68       	ori	r22, 0x87	; 135
    5caa:	69 6a       	ori	r22, 0xA9	; 169
    5cac:	6c 6d       	ori	r22, 0xDC	; 220
    5cae:	6f 71       	andi	r22, 0x1F	; 31
    5cb0:	73 75       	andi	r23, 0x53	; 83
    5cb2:	78 7a       	andi	r23, 0xA8	; 168
    5cb4:	7c 7f       	andi	r23, 0xFC	; 252
    5cb6:	80 82       	st	Z, r8
    5cb8:	84 85       	ldd	r24, Z+12	; 0x0c
    5cba:	85 86       	std	Z+13, r8	; 0x0d
    5cbc:	86 85       	ldd	r24, Z+14	; 0x0e
    5cbe:	85 84       	ldd	r8, Z+13	; 0x0d
    5cc0:	83 82       	std	Z+3, r8	; 0x03
    5cc2:	80 7f       	andi	r24, 0xF0	; 240
    5cc4:	7e 7d       	andi	r23, 0xDE	; 222
    5cc6:	7d 7c       	andi	r23, 0xCD	; 205
    5cc8:	7c 7c       	andi	r23, 0xCC	; 204
    5cca:	7c 7d       	andi	r23, 0xDC	; 220
    5ccc:	7d 7e       	andi	r23, 0xED	; 237
    5cce:	7e 7f       	andi	r23, 0xFE	; 254
    5cd0:	7f 80       	ldd	r7, Y+7	; 0x07
    5cd2:	80 80       	ld	r8, Z
    5cd4:	80 80       	ld	r8, Z
    5cd6:	7f 7f       	andi	r23, 0xFF	; 255
    5cd8:	7e 7e       	andi	r23, 0xEE	; 238
    5cda:	7d 7d       	andi	r23, 0xDD	; 221
    5cdc:	7d 7d       	andi	r23, 0xDD	; 221
    5cde:	7d 7e       	andi	r23, 0xED	; 237
    5ce0:	80 81       	ld	r24, Z
    5ce2:	83 85       	ldd	r24, Z+11	; 0x0b
    5ce4:	88 8a       	std	Y+16, r8	; 0x10
    5ce6:	8d 90       	ld	r8, X+
    5ce8:	92 94       	swap	r9
    5cea:	97 98       	cbi	0x12, 7	; 18
    5cec:	9a 9b       	sbis	0x13, 2	; 19
    5cee:	9b 9b       	sbis	0x13, 3	; 19
    5cf0:	9b 9a       	sbi	0x13, 3	; 19
    5cf2:	9a 98       	cbi	0x13, 2	; 19
    5cf4:	97 96       	adiw	r26, 0x27	; 39
    5cf6:	94 93       	xch	Z, r25
    5cf8:	91 8f       	std	Z+25, r25	; 0x19
    5cfa:	8e 8c       	ldd	r8, Y+30	; 0x1e
    5cfc:	8b 8a       	std	Y+19, r8	; 0x13
    5cfe:	88 87       	std	Y+8, r24	; 0x08
    5d00:	85 84       	ldd	r8, Z+13	; 0x0d
    5d02:	82 81       	ldd	r24, Z+2	; 0x02
    5d04:	7f 7e       	andi	r23, 0xEF	; 239
    5d06:	7c 7a       	andi	r23, 0xAC	; 172
    5d08:	78 76       	andi	r23, 0x68	; 104
    5d0a:	74 73       	andi	r23, 0x34	; 52
    5d0c:	71 70       	andi	r23, 0x01	; 1
    5d0e:	6f 6e       	ori	r22, 0xEF	; 239
    5d10:	6e 6e       	ori	r22, 0xEE	; 238
    5d12:	6e 6e       	ori	r22, 0xEE	; 238
    5d14:	6f 70       	andi	r22, 0x0F	; 15
    5d16:	72 73       	andi	r23, 0x32	; 50
    5d18:	75 77       	andi	r23, 0x75	; 117
    5d1a:	79 7b       	andi	r23, 0xB9	; 185
    5d1c:	7d 7f       	andi	r23, 0xFD	; 253
    5d1e:	81 83       	std	Z+1, r24	; 0x01
    5d20:	85 87       	std	Z+13, r24	; 0x0d
    5d22:	88 89       	ldd	r24, Y+16	; 0x10
    5d24:	8b 8c       	ldd	r8, Y+27	; 0x1b
    5d26:	8c 8d       	ldd	r24, Y+28	; 0x1c
    5d28:	8d 8e       	std	Y+29, r8	; 0x1d
    5d2a:	8e 8e       	std	Y+30, r8	; 0x1e
    5d2c:	8e 8d       	ldd	r24, Y+30	; 0x1e
    5d2e:	8d 8c       	ldd	r8, Y+29	; 0x1d
    5d30:	8b 8a       	std	Y+19, r8	; 0x13
    5d32:	8a 89       	ldd	r24, Y+18	; 0x12
    5d34:	87 86       	std	Z+15, r8	; 0x0f
    5d36:	85 84       	ldd	r8, Z+13	; 0x0d
    5d38:	82 81       	ldd	r24, Z+2	; 0x02
    5d3a:	7f 7e       	andi	r23, 0xEF	; 239
    5d3c:	7c 7a       	andi	r23, 0xAC	; 172
    5d3e:	78 76       	andi	r23, 0x68	; 104
    5d40:	74 72       	andi	r23, 0x24	; 36
    5d42:	70 6e       	ori	r23, 0xE0	; 224
    5d44:	6c 6a       	ori	r22, 0xAC	; 172
    5d46:	68 66       	ori	r22, 0x68	; 104
    5d48:	64 63       	ori	r22, 0x34	; 52
    5d4a:	62 61       	ori	r22, 0x12	; 18
    5d4c:	61 61       	ori	r22, 0x11	; 17
    5d4e:	61 62       	ori	r22, 0x21	; 33
    5d50:	64 65       	ori	r22, 0x54	; 84
    5d52:	68 6a       	ori	r22, 0xA8	; 168
    5d54:	6d 70       	andi	r22, 0x0D	; 13
    5d56:	73 77       	andi	r23, 0x73	; 115
    5d58:	7a 7d       	andi	r23, 0xDA	; 218
    5d5a:	80 83       	st	Z, r24
    5d5c:	86 88       	ldd	r8, Z+22	; 0x16
    5d5e:	8a 8b       	std	Y+18, r24	; 0x12
    5d60:	8c 8d       	ldd	r24, Y+28	; 0x1c
    5d62:	8d 8d       	ldd	r24, Y+29	; 0x1d
    5d64:	8c 8c       	ldd	r8, Y+28	; 0x1c
    5d66:	8a 89       	ldd	r24, Y+18	; 0x12
    5d68:	88 86       	std	Y+8, r8	; 0x08
    5d6a:	85 83       	std	Z+5, r24	; 0x05
    5d6c:	81 80       	ldd	r8, Z+1	; 0x01
    5d6e:	7e 7c       	andi	r23, 0xCE	; 206
    5d70:	7b 7a       	andi	r23, 0xAB	; 171
    5d72:	78 77       	andi	r23, 0x78	; 120
    5d74:	76 75       	andi	r23, 0x56	; 86
    5d76:	74 74       	andi	r23, 0x44	; 68
    5d78:	73 73       	andi	r23, 0x33	; 51
    5d7a:	72 72       	andi	r23, 0x22	; 34
    5d7c:	72 72       	andi	r23, 0x22	; 34
    5d7e:	72 73       	andi	r23, 0x32	; 50
    5d80:	73 74       	andi	r23, 0x43	; 67
    5d82:	75 77       	andi	r23, 0x75	; 117
    5d84:	78 7a       	andi	r23, 0xA8	; 168
    5d86:	7c 7e       	andi	r23, 0xEC	; 236
    5d88:	80 82       	st	Z, r8
    5d8a:	84 87       	std	Z+12, r24	; 0x0c
    5d8c:	89 8c       	ldd	r8, Y+25	; 0x19
    5d8e:	8e 91       	ld	r24, -X
    5d90:	93 96       	adiw	r26, 0x23	; 35
    5d92:	98 99       	sbic	0x13, 0	; 19
    5d94:	9b 9c       	mul	r9, r11
    5d96:	9e 9e       	mul	r9, r30
    5d98:	9f 9f       	mul	r25, r31
    5d9a:	9f 9e       	mul	r9, r31
    5d9c:	9d 9c       	mul	r9, r13
    5d9e:	9b 99       	sbic	0x13, 3	; 19
    5da0:	97 95       	ror	r25
    5da2:	93 90       	.word	0x9093	; ????
    5da4:	8d 8b       	std	Y+21, r24	; 0x15
    5da6:	88 85       	ldd	r24, Y+8	; 0x08
    5da8:	83 80       	ldd	r8, Z+3	; 0x03
    5daa:	7e 7c       	andi	r23, 0xCE	; 206
    5dac:	7a 78       	andi	r23, 0x8A	; 138
    5dae:	76 75       	andi	r23, 0x56	; 86
    5db0:	74 73       	andi	r23, 0x34	; 52
    5db2:	72 72       	andi	r23, 0x22	; 34
    5db4:	72 72       	andi	r23, 0x22	; 34
    5db6:	72 72       	andi	r23, 0x22	; 34
    5db8:	73 74       	andi	r23, 0x43	; 67
    5dba:	75 77       	andi	r23, 0x75	; 117
    5dbc:	78 7a       	andi	r23, 0xA8	; 168
    5dbe:	7b 7d       	andi	r23, 0xDB	; 219
    5dc0:	7f 81       	ldd	r23, Y+7	; 0x07
    5dc2:	84 86       	std	Z+12, r8	; 0x0c
    5dc4:	88 8a       	std	Y+16, r8	; 0x10
    5dc6:	8c 8e       	std	Y+28, r8	; 0x1c
    5dc8:	8f 91       	pop	r24
    5dca:	92 93       	st	-Z, r25
    5dcc:	93 93       	.word	0x9393	; ????
    5dce:	93 93       	.word	0x9393	; ????
    5dd0:	92 91       	ld	r25, -Z
    5dd2:	90 8e       	std	Z+24, r9	; 0x18
    5dd4:	8c 8a       	std	Y+20, r8	; 0x14
    5dd6:	88 85       	ldd	r24, Y+8	; 0x08
    5dd8:	82 7f       	andi	r24, 0xF2	; 242
    5dda:	7c 79       	andi	r23, 0x9C	; 156
    5ddc:	76 73       	andi	r23, 0x36	; 54
    5dde:	70 6e       	ori	r23, 0xE0	; 224
    5de0:	6b 68       	ori	r22, 0x8B	; 139
    5de2:	66 64       	ori	r22, 0x46	; 70
    5de4:	63 62       	ori	r22, 0x23	; 35
    5de6:	61 61       	ori	r22, 0x11	; 17
    5de8:	61 61       	ori	r22, 0x11	; 17
    5dea:	62 63       	ori	r22, 0x32	; 50
    5dec:	65 67       	ori	r22, 0x75	; 117
    5dee:	69 6b       	ori	r22, 0xB9	; 185
    5df0:	6e 71       	andi	r22, 0x1E	; 30
    5df2:	73 76       	andi	r23, 0x63	; 99
    5df4:	79 7b       	andi	r23, 0xB9	; 185
    5df6:	7e 80       	ldd	r7, Y+6	; 0x06
    5df8:	82 84       	ldd	r8, Z+10	; 0x0a
    5dfa:	86 87       	std	Z+14, r24	; 0x0e
    5dfc:	88 89       	ldd	r24, Y+16	; 0x10
    5dfe:	89 8a       	std	Y+17, r8	; 0x11
    5e00:	8a 8a       	std	Y+18, r8	; 0x12
    5e02:	89 89       	ldd	r24, Y+17	; 0x11
    5e04:	88 88       	ldd	r8, Y+16	; 0x10
    5e06:	87 86       	std	Z+15, r8	; 0x0f
    5e08:	85 83       	std	Z+5, r24	; 0x05
    5e0a:	82 80       	ldd	r8, Z+2	; 0x02
    5e0c:	7e 7c       	andi	r23, 0xCE	; 206
    5e0e:	7a 78       	andi	r23, 0x8A	; 138
    5e10:	75 73       	andi	r23, 0x35	; 53
    5e12:	70 6e       	ori	r23, 0xE0	; 224
    5e14:	6b 68       	ori	r22, 0x8B	; 139
    5e16:	66 64       	ori	r22, 0x46	; 70
    5e18:	62 61       	ori	r22, 0x12	; 18
    5e1a:	60 5f       	subi	r22, 0xF0	; 240
    5e1c:	5f 5f       	subi	r21, 0xFF	; 255
    5e1e:	5f 60       	ori	r21, 0x0F	; 15
    5e20:	62 64       	ori	r22, 0x42	; 66
    5e22:	66 68       	ori	r22, 0x86	; 134
    5e24:	6b 6e       	ori	r22, 0xEB	; 235
    5e26:	72 75       	andi	r23, 0x52	; 82
    5e28:	79 7d       	andi	r23, 0xD9	; 217
    5e2a:	81 84       	ldd	r8, Z+9	; 0x09
    5e2c:	88 8c       	ldd	r8, Y+24	; 0x18
    5e2e:	8f 93       	push	r24
    5e30:	96 99       	sbic	0x12, 6	; 18
    5e32:	9b 9d       	mul	r25, r11
    5e34:	9f a0       	ldd	r9, Y+39	; 0x27
    5e36:	a2 a2       	std	Z+34, r10	; 0x22
    5e38:	a2 a2       	std	Z+34, r10	; 0x22
    5e3a:	a2 a1       	ldd	r26, Z+34	; 0x22
    5e3c:	a0 9e       	mul	r10, r16
    5e3e:	9c 9b       	sbis	0x13, 4	; 19
    5e40:	98 96       	adiw	r26, 0x28	; 40
    5e42:	94 92       	xch	Z, r9
    5e44:	90 8e       	std	Z+24, r9	; 0x18
    5e46:	8c 8a       	std	Y+20, r8	; 0x14
    5e48:	88 86       	std	Y+8, r8	; 0x08
    5e4a:	85 84       	ldd	r8, Z+13	; 0x0d
    5e4c:	82 81       	ldd	r24, Z+2	; 0x02
    5e4e:	80 7f       	andi	r24, 0xF0	; 240
    5e50:	7e 7d       	andi	r23, 0xDE	; 222
    5e52:	7c 7b       	andi	r23, 0xBC	; 188
    5e54:	7b 7a       	andi	r23, 0xAB	; 171
    5e56:	79 79       	andi	r23, 0x99	; 153
    5e58:	79 79       	andi	r23, 0x99	; 153
    5e5a:	79 7a       	andi	r23, 0xA9	; 169
    5e5c:	7a 7c       	andi	r23, 0xCA	; 202
    5e5e:	7d 7f       	andi	r23, 0xFD	; 253
    5e60:	80 82       	st	Z, r8
    5e62:	84 86       	std	Z+12, r8	; 0x0c
    5e64:	88 8a       	std	Y+16, r8	; 0x10
    5e66:	8c 8d       	ldd	r24, Y+28	; 0x1c
    5e68:	8e 8f       	std	Y+30, r24	; 0x1e
    5e6a:	8f 8f       	std	Y+31, r24	; 0x1f
    5e6c:	8f 8e       	std	Y+31, r8	; 0x1f
    5e6e:	8d 8b       	std	Y+21, r24	; 0x15
    5e70:	8a 88       	ldd	r8, Y+18	; 0x12
    5e72:	86 84       	ldd	r8, Z+14	; 0x0e
    5e74:	82 80       	ldd	r8, Z+2	; 0x02
    5e76:	7f 7d       	andi	r23, 0xDF	; 223
    5e78:	7c 7b       	andi	r23, 0xBC	; 188
    5e7a:	7b 7a       	andi	r23, 0xAB	; 171
    5e7c:	7a 7a       	andi	r23, 0xAA	; 170
    5e7e:	7a 7a       	andi	r23, 0xAA	; 170
    5e80:	7a 7a       	andi	r23, 0xAA	; 170
    5e82:	79 79       	andi	r23, 0x99	; 153
    5e84:	79 78       	andi	r23, 0x89	; 137
    5e86:	77 77       	andi	r23, 0x77	; 119
    5e88:	76 75       	andi	r23, 0x56	; 86
    5e8a:	74 73       	andi	r23, 0x34	; 52
    5e8c:	73 72       	andi	r23, 0x23	; 35
    5e8e:	72 72       	andi	r23, 0x22	; 34
    5e90:	73 73       	andi	r23, 0x33	; 51
    5e92:	74 75       	andi	r23, 0x54	; 84
    5e94:	76 78       	andi	r23, 0x86	; 134
    5e96:	79 7b       	andi	r23, 0xB9	; 185
    5e98:	7c 7e       	andi	r23, 0xEC	; 236
    5e9a:	7f 80       	ldd	r7, Y+7	; 0x07
    5e9c:	81 82       	std	Z+1, r8	; 0x01
    5e9e:	82 83       	std	Z+2, r24	; 0x02
    5ea0:	83 82       	std	Z+3, r8	; 0x03
    5ea2:	82 81       	ldd	r24, Z+2	; 0x02
    5ea4:	81 80       	ldd	r8, Z+1	; 0x01
    5ea6:	7f 7e       	andi	r23, 0xEF	; 239
    5ea8:	7d 7c       	andi	r23, 0xCD	; 205
    5eaa:	7b 7a       	andi	r23, 0xAB	; 171
    5eac:	79 78       	andi	r23, 0x89	; 137
    5eae:	77 76       	andi	r23, 0x67	; 103
    5eb0:	75 74       	andi	r23, 0x45	; 69
    5eb2:	73 73       	andi	r23, 0x33	; 51
    5eb4:	72 71       	andi	r23, 0x12	; 18
    5eb6:	70 6f       	ori	r23, 0xF0	; 240
    5eb8:	6e 6d       	ori	r22, 0xDE	; 222
    5eba:	6c 6c       	ori	r22, 0xCC	; 204
    5ebc:	6b 6b       	ori	r22, 0xBB	; 187
    5ebe:	6a 6a       	ori	r22, 0xAA	; 170
    5ec0:	6a 6a       	ori	r22, 0xAA	; 170
    5ec2:	6a 6a       	ori	r22, 0xAA	; 170
    5ec4:	6b 6c       	ori	r22, 0xCB	; 203
    5ec6:	6d 6e       	ori	r22, 0xED	; 237
    5ec8:	6f 70       	andi	r22, 0x0F	; 15
    5eca:	72 74       	andi	r23, 0x42	; 66
    5ecc:	76 78       	andi	r23, 0x86	; 134
    5ece:	7a 7c       	andi	r23, 0xCA	; 202
    5ed0:	7e 81       	ldd	r23, Y+6	; 0x06
    5ed2:	83 85       	ldd	r24, Z+11	; 0x0b
    5ed4:	87 89       	ldd	r24, Z+23	; 0x17
    5ed6:	8b 8d       	ldd	r24, Y+27	; 0x1b
    5ed8:	8e 90       	ld	r8, -X
    5eda:	91 91       	ld	r25, Z+
    5edc:	92 92       	st	-Z, r9
    5ede:	92 92       	st	-Z, r9
    5ee0:	91 91       	ld	r25, Z+
    5ee2:	90 8f       	std	Z+24, r25	; 0x18
    5ee4:	8e 8d       	ldd	r24, Y+30	; 0x1e
    5ee6:	8c 8b       	std	Y+20, r24	; 0x14
    5ee8:	8a 89       	ldd	r24, Y+18	; 0x12
    5eea:	87 86       	std	Z+15, r8	; 0x0f
    5eec:	85 84       	ldd	r8, Z+13	; 0x0d
    5eee:	83 81       	ldd	r24, Z+3	; 0x03
    5ef0:	80 7f       	andi	r24, 0xF0	; 240
    5ef2:	7d 7c       	andi	r23, 0xCD	; 205
    5ef4:	7b 79       	andi	r23, 0x9B	; 155
    5ef6:	78 77       	andi	r23, 0x78	; 120
    5ef8:	76 76       	andi	r23, 0x66	; 102
    5efa:	76 76       	andi	r23, 0x66	; 102
    5efc:	76 77       	andi	r23, 0x76	; 118
    5efe:	78 7a       	andi	r23, 0xA8	; 168
    5f00:	7c 7f       	andi	r23, 0xFC	; 252
    5f02:	81 84       	ldd	r8, Z+9	; 0x09
    5f04:	87 8a       	std	Z+23, r8	; 0x17
    5f06:	8d 91       	ld	r24, X+
    5f08:	93 96       	adiw	r26, 0x23	; 35
    5f0a:	99 9b       	sbis	0x13, 1	; 19
    5f0c:	9c 9d       	mul	r25, r12
    5f0e:	9e 9e       	mul	r9, r30
    5f10:	9e 9e       	mul	r9, r30
    5f12:	9d 9c       	mul	r9, r13
    5f14:	9b 9a       	sbi	0x13, 3	; 19
    5f16:	98 97       	sbiw	r26, 0x28	; 40
    5f18:	95 94       	asr	r9
    5f1a:	93 92       	.word	0x9293	; ????
    5f1c:	90 8f       	std	Z+24, r25	; 0x18
    5f1e:	8e 8d       	ldd	r24, Y+30	; 0x1e
    5f20:	8c 8b       	std	Y+20, r24	; 0x14
    5f22:	89 88       	ldd	r8, Y+17	; 0x11
    5f24:	86 84       	ldd	r8, Z+14	; 0x0e
    5f26:	82 80       	ldd	r8, Z+2	; 0x02
    5f28:	7e 7c       	andi	r23, 0xCE	; 206
    5f2a:	79 77       	andi	r23, 0x79	; 121
    5f2c:	74 72       	andi	r23, 0x24	; 36
    5f2e:	70 6f       	ori	r23, 0xF0	; 240
    5f30:	6d 6c       	ori	r22, 0xCD	; 205
    5f32:	6b 6b       	ori	r22, 0xBB	; 187
    5f34:	6b 6c       	ori	r22, 0xCB	; 203
    5f36:	6d 6e       	ori	r22, 0xED	; 237
    5f38:	70 71       	andi	r23, 0x10	; 16
    5f3a:	73 76       	andi	r23, 0x63	; 99
    5f3c:	78 7a       	andi	r23, 0xA8	; 168
    5f3e:	7c 7e       	andi	r23, 0xEC	; 236
    5f40:	80 81       	ld	r24, Z
    5f42:	83 84       	ldd	r8, Z+11	; 0x0b
    5f44:	85 86       	std	Z+13, r8	; 0x0d
    5f46:	86 86       	std	Z+14, r8	; 0x0e
    5f48:	86 86       	std	Z+14, r8	; 0x0e
    5f4a:	86 86       	std	Z+14, r8	; 0x0e
    5f4c:	86 85       	ldd	r24, Z+14	; 0x0e
    5f4e:	85 84       	ldd	r8, Z+13	; 0x0d
    5f50:	84 83       	std	Z+4, r24	; 0x04
    5f52:	82 82       	std	Z+2, r8	; 0x02
    5f54:	81 80       	ldd	r8, Z+1	; 0x01
    5f56:	7f 7f       	andi	r23, 0xFF	; 255
    5f58:	7e 7d       	andi	r23, 0xDE	; 222
    5f5a:	7b 7a       	andi	r23, 0xAB	; 171
    5f5c:	79 78       	andi	r23, 0x89	; 137
    5f5e:	76 75       	andi	r23, 0x56	; 86
    5f60:	74 72       	andi	r23, 0x24	; 36
    5f62:	71 70       	andi	r23, 0x01	; 1
    5f64:	6f 6e       	ori	r22, 0xEF	; 239
    5f66:	6e 6e       	ori	r22, 0xEE	; 238
    5f68:	6e 6e       	ori	r22, 0xEE	; 238
    5f6a:	6f 70       	andi	r22, 0x0F	; 15
    5f6c:	71 73       	andi	r23, 0x31	; 49
    5f6e:	74 76       	andi	r23, 0x64	; 100
    5f70:	78 7a       	andi	r23, 0xA8	; 168
    5f72:	7c 7e       	andi	r23, 0xEC	; 236
    5f74:	80 81       	ld	r24, Z
    5f76:	83 84       	ldd	r8, Z+11	; 0x0b
    5f78:	85 85       	ldd	r24, Z+13	; 0x0d
    5f7a:	86 86       	std	Z+14, r8	; 0x0e
    5f7c:	86 86       	std	Z+14, r8	; 0x0e
    5f7e:	86 86       	std	Z+14, r8	; 0x0e
    5f80:	86 86       	std	Z+14, r8	; 0x0e
    5f82:	86 86       	std	Z+14, r8	; 0x0e
    5f84:	86 86       	std	Z+14, r8	; 0x0e
    5f86:	87 88       	ldd	r8, Z+23	; 0x17
    5f88:	89 8a       	std	Y+17, r8	; 0x11
    5f8a:	8b 8c       	ldd	r8, Y+27	; 0x1b
    5f8c:	8e 8f       	std	Y+30, r24	; 0x1e
    5f8e:	90 91 92 92 	lds	r25, 0x9292
    5f92:	93 92       	.word	0x9293	; ????
    5f94:	92 91       	ld	r25, -Z
    5f96:	90 8e       	std	Z+24, r9	; 0x18
    5f98:	8c 8a       	std	Y+20, r8	; 0x14
    5f9a:	87 85       	ldd	r24, Z+15	; 0x0f
    5f9c:	82 7f       	andi	r24, 0xF2	; 242
    5f9e:	7d 7b       	andi	r23, 0xBD	; 189
    5fa0:	78 77       	andi	r23, 0x78	; 120
    5fa2:	75 74       	andi	r23, 0x45	; 69
    5fa4:	73 72       	andi	r23, 0x23	; 35
    5fa6:	72 72       	andi	r23, 0x22	; 34
    5fa8:	73 73       	andi	r23, 0x33	; 51
    5faa:	74 75       	andi	r23, 0x54	; 84
    5fac:	75 76       	andi	r23, 0x65	; 101
    5fae:	77 77       	andi	r23, 0x77	; 119
    5fb0:	78 78       	andi	r23, 0x88	; 136
    5fb2:	78 78       	andi	r23, 0x88	; 136
    5fb4:	77 77       	andi	r23, 0x77	; 119
    5fb6:	76 76       	andi	r23, 0x66	; 102
    5fb8:	75 74       	andi	r23, 0x45	; 69
    5fba:	73 72       	andi	r23, 0x23	; 35
    5fbc:	72 71       	andi	r23, 0x12	; 18
    5fbe:	71 71       	andi	r23, 0x11	; 17
    5fc0:	71 71       	andi	r23, 0x11	; 17
    5fc2:	71 71       	andi	r23, 0x11	; 17
    5fc4:	71 72       	andi	r23, 0x21	; 33
    5fc6:	72 73       	andi	r23, 0x32	; 50
    5fc8:	74 74       	andi	r23, 0x44	; 68
    5fca:	75 75       	andi	r23, 0x55	; 85
    5fcc:	76 77       	andi	r23, 0x76	; 118
    5fce:	78 79       	andi	r23, 0x98	; 152
    5fd0:	7a 7b       	andi	r23, 0xBA	; 186
    5fd2:	7d 7f       	andi	r23, 0xFD	; 253
    5fd4:	81 83       	std	Z+1, r24	; 0x01
    5fd6:	86 89       	ldd	r24, Z+22	; 0x16
    5fd8:	8d 90       	ld	r8, X+
    5fda:	94 98       	cbi	0x12, 4	; 18
    5fdc:	9d a1       	ldd	r25, Y+37	; 0x25
    5fde:	a5 aa       	std	Z+53, r10	; 0x35
    5fe0:	ae b1       	in	r26, 0x0e	; 14
    5fe2:	b5 b7       	in	r27, 0x35	; 53
    5fe4:	ba bb       	out	0x1a, r27	; 26
    5fe6:	bc bd       	out	0x2c, r27	; 44
    5fe8:	bc bb       	out	0x1c, r27	; 28
    5fea:	ba b7       	in	r27, 0x3a	; 58
    5fec:	b4 b1       	in	r27, 0x04	; 4
    5fee:	ad a9       	ldd	r26, Y+53	; 0x35
    5ff0:	a4 a0       	ldd	r10, Z+36	; 0x24
    5ff2:	9b 96       	adiw	r26, 0x2b	; 43
    5ff4:	92 8d       	ldd	r25, Z+26	; 0x1a
    5ff6:	89 85       	ldd	r24, Y+9	; 0x09
    5ff8:	82 7e       	andi	r24, 0xE2	; 226
    5ffa:	7b 78       	andi	r23, 0x8B	; 139
    5ffc:	76 74       	andi	r23, 0x46	; 70
    5ffe:	72 70       	andi	r23, 0x02	; 2
    6000:	6f 6e       	ori	r22, 0xEF	; 239
    6002:	6c 6c       	ori	r22, 0xCC	; 204
    6004:	6b 6a       	ori	r22, 0xAB	; 171
    6006:	69 69       	ori	r22, 0x99	; 153
    6008:	69 69       	ori	r22, 0x99	; 153
    600a:	69 69       	ori	r22, 0x99	; 153
    600c:	69 6a       	ori	r22, 0xA9	; 169
    600e:	6b 6c       	ori	r22, 0xCB	; 203
    6010:	6d 6f       	ori	r22, 0xFD	; 253
    6012:	71 73       	andi	r23, 0x31	; 49
    6014:	75 77       	andi	r23, 0x75	; 117
    6016:	79 7b       	andi	r23, 0xB9	; 185
    6018:	7d 7f       	andi	r23, 0xFD	; 253
    601a:	80 82       	st	Z, r8
    601c:	83 84       	ldd	r8, Z+11	; 0x0b
    601e:	85 86       	std	Z+13, r8	; 0x0d
    6020:	86 86       	std	Z+14, r8	; 0x0e
    6022:	86 86       	std	Z+14, r8	; 0x0e
    6024:	85 85       	ldd	r24, Z+13	; 0x0d
    6026:	84 83       	std	Z+4, r24	; 0x04
    6028:	82 82       	std	Z+2, r8	; 0x02
    602a:	81 80       	ldd	r8, Z+1	; 0x01
    602c:	7f 7f       	andi	r23, 0xFF	; 255
    602e:	7e 7d       	andi	r23, 0xDE	; 222
    6030:	7d 7c       	andi	r23, 0xCD	; 205
    6032:	7b 7a       	andi	r23, 0xAB	; 171
    6034:	79 78       	andi	r23, 0x89	; 137
    6036:	77 75       	andi	r23, 0x57	; 87
    6038:	74 72       	andi	r23, 0x24	; 36
    603a:	70 6e       	ori	r23, 0xE0	; 224
    603c:	6c 69       	ori	r22, 0x9C	; 156
    603e:	67 65       	ori	r22, 0x57	; 87
    6040:	63 61       	ori	r22, 0x13	; 19
    6042:	5f 5d       	subi	r21, 0xDF	; 223
    6044:	5c 5b       	subi	r21, 0xBC	; 188
    6046:	5b 5a       	subi	r21, 0xAB	; 171
    6048:	5b 5c       	subi	r21, 0xCB	; 203
    604a:	5d 5e       	subi	r21, 0xED	; 237
    604c:	60 63       	ori	r22, 0x30	; 48
    604e:	65 68       	ori	r22, 0x85	; 133
    6050:	6b 6d       	ori	r22, 0xDB	; 219
    6052:	70 72       	andi	r23, 0x20	; 32
    6054:	75 77       	andi	r23, 0x75	; 117
    6056:	78 7a       	andi	r23, 0xA8	; 168
    6058:	7b 7b       	andi	r23, 0xBB	; 187
    605a:	7c 7c       	andi	r23, 0xCC	; 204
    605c:	7b 7b       	andi	r23, 0xBB	; 187
    605e:	7b 7a       	andi	r23, 0xAB	; 171
    6060:	79 79       	andi	r23, 0x99	; 153
    6062:	78 78       	andi	r23, 0x88	; 136
    6064:	78 77       	andi	r23, 0x78	; 120
    6066:	77 78       	andi	r23, 0x87	; 135
    6068:	78 78       	andi	r23, 0x88	; 136
    606a:	79 79       	andi	r23, 0x99	; 153
    606c:	79 7a       	andi	r23, 0xA9	; 169
    606e:	7a 7a       	andi	r23, 0xAA	; 170
    6070:	7a 7a       	andi	r23, 0xAA	; 170
    6072:	7a 7b       	andi	r23, 0xBA	; 186
    6074:	7b 7b       	andi	r23, 0xBB	; 187
    6076:	7b 7c       	andi	r23, 0xCB	; 203
    6078:	7d 7e       	andi	r23, 0xED	; 237
    607a:	7f 81       	ldd	r23, Y+7	; 0x07
    607c:	83 85       	ldd	r24, Z+11	; 0x0b
    607e:	87 8a       	std	Z+23, r8	; 0x17
    6080:	8d 90       	ld	r8, X+
    6082:	93 97       	sbiw	r26, 0x23	; 35
    6084:	9b 9e       	mul	r9, r27
    6086:	a2 a6       	std	Z+42, r10	; 0x2a
    6088:	aa ae       	std	Y+58, r10	; 0x3a
    608a:	b2 b5       	in	r27, 0x22	; 34
    608c:	b9 bc       	out	0x29, r11	; 41
    608e:	bf c1       	rjmp	.+894    	; 0x640e <__stack+0x5faf>
    6090:	c3 c5       	rjmp	.+2950   	; 0x6c18 <__stack+0x67b9>
    6092:	c6 c7       	rjmp	.+3980   	; 0x7020 <__stack+0x6bc1>
    6094:	c7 c6       	rjmp	.+3470   	; 0x6e24 <__stack+0x69c5>
    6096:	c5 c3       	rjmp	.+1930   	; 0x6822 <__stack+0x63c3>
    6098:	c1 be       	out	0x31, r12	; 49
    609a:	ba b6       	in	r11, 0x3a	; 58
    609c:	b1 ac       	ldd	r11, Z+57	; 0x39
    609e:	a7 a2       	std	Z+39, r10	; 0x27
    60a0:	9c 96       	adiw	r26, 0x2c	; 44
    60a2:	90 8a       	std	Z+16, r9	; 0x10
    60a4:	84 7d       	andi	r24, 0xD4	; 212
    60a6:	77 71       	andi	r23, 0x17	; 23
    60a8:	6c 66       	ori	r22, 0x6C	; 108
    60aa:	60 5b       	subi	r22, 0xB0	; 176
    60ac:	56 51       	subi	r21, 0x16	; 22
    60ae:	4d 49       	sbci	r20, 0x9D	; 157
    60b0:	46 44       	sbci	r20, 0x46	; 70
    60b2:	42 40       	sbci	r20, 0x02	; 2
    60b4:	40 40       	sbci	r20, 0x00	; 0
    60b6:	41 43       	sbci	r20, 0x31	; 49
    60b8:	45 48       	sbci	r20, 0x85	; 133
    60ba:	4b 4f       	sbci	r20, 0xFB	; 251
    60bc:	54 58       	subi	r21, 0x84	; 132
    60be:	5d 61       	ori	r21, 0x1D	; 29
    60c0:	66 6a       	ori	r22, 0xA6	; 166
    60c2:	6e 71       	andi	r22, 0x1E	; 30
    60c4:	75 78       	andi	r23, 0x85	; 133
    60c6:	7a 7c       	andi	r23, 0xCA	; 202
    60c8:	7e 80       	ldd	r7, Y+6	; 0x06
    60ca:	81 83       	std	Z+1, r24	; 0x01
    60cc:	84 85       	ldd	r24, Z+12	; 0x0c
    60ce:	86 87       	std	Z+14, r24	; 0x0e
    60d0:	88 89       	ldd	r24, Y+16	; 0x10
    60d2:	8a 8b       	std	Y+18, r24	; 0x12
    60d4:	8b 8c       	ldd	r8, Y+27	; 0x1b
    60d6:	8c 8c       	ldd	r8, Y+28	; 0x1c
    60d8:	8c 8c       	ldd	r8, Y+28	; 0x1c
    60da:	8b 8a       	std	Y+19, r8	; 0x13
    60dc:	89 87       	std	Y+9, r24	; 0x09
    60de:	86 84       	ldd	r8, Z+14	; 0x0e
    60e0:	82 80       	ldd	r8, Z+2	; 0x02
    60e2:	7e 7c       	andi	r23, 0xCE	; 206
    60e4:	7a 77       	andi	r23, 0x7A	; 122
    60e6:	75 72       	andi	r23, 0x25	; 37
    60e8:	6f 6d       	ori	r22, 0xDF	; 223
    60ea:	6a 67       	ori	r22, 0x7A	; 122
    60ec:	64 61       	ori	r22, 0x14	; 20
    60ee:	5e 5b       	subi	r21, 0xBE	; 190
    60f0:	59 57       	subi	r21, 0x79	; 121
    60f2:	56 55       	subi	r21, 0x56	; 86
    60f4:	54 55       	subi	r21, 0x54	; 84
    60f6:	56 59       	subi	r21, 0x96	; 150
    60f8:	5c 5f       	subi	r21, 0xFC	; 252
    60fa:	64 69       	ori	r22, 0x94	; 148
    60fc:	6f 76       	andi	r22, 0x6F	; 111
    60fe:	7d 84       	ldd	r7, Y+13	; 0x0d
    6100:	8b 93       	.word	0x938b	; ????
    6102:	9a a1       	ldd	r25, Y+34	; 0x22
    6104:	a8 ae       	std	Y+56, r10	; 0x38
    6106:	b4 ba       	out	0x14, r11	; 20
    6108:	bf c3       	rjmp	.+1918   	; 0x6888 <__stack+0x6429>
    610a:	c7 cb       	rjmp	.-2162   	; 0x589a <__stack+0x543b>
    610c:	cd cf       	rjmp	.-102    	; 0x60a8 <__stack+0x5c49>
    610e:	d0 d1       	rcall	.+928    	; 0x64b0 <__stack+0x6051>
    6110:	d1 cf       	rjmp	.-94     	; 0x60b4 <__stack+0x5c55>
    6112:	cd cb       	rjmp	.-2150   	; 0x58ae <__stack+0x544f>
    6114:	c7 c3       	rjmp	.+1934   	; 0x68a4 <__stack+0x6445>
    6116:	be b8       	out	0x0e, r11	; 14
    6118:	b3 ac       	ldd	r11, Z+59	; 0x3b
    611a:	a6 9f       	mul	r26, r22
    611c:	99 93       	st	Y+, r25
    611e:	8e 89       	ldd	r24, Y+22	; 0x16
    6120:	85 82       	std	Z+5, r8	; 0x05
    6122:	80 7f       	andi	r24, 0xF0	; 240
    6124:	7f 7f       	andi	r23, 0xFF	; 255
    6126:	81 83       	std	Z+1, r24	; 0x01
    6128:	86 89       	ldd	r24, Z+22	; 0x16
    612a:	8d 90       	ld	r8, X+
    612c:	93 97       	sbiw	r26, 0x23	; 35
    612e:	99 9c       	mul	r9, r9
    6130:	9e 9f       	mul	r25, r30
    6132:	9f 9f       	mul	r25, r31
    6134:	9e 9c       	mul	r9, r14
    6136:	9a 96       	adiw	r26, 0x2a	; 42
    6138:	93 8e       	std	Z+27, r9	; 0x1b
    613a:	89 83       	std	Y+1, r24	; 0x01
    613c:	7d 76       	andi	r23, 0x6D	; 109
    613e:	70 68       	ori	r23, 0x80	; 128
    6140:	61 5a       	subi	r22, 0xA1	; 161
    6142:	53 4c       	sbci	r21, 0xC3	; 195
    6144:	45 40       	sbci	r20, 0x05	; 5
    6146:	3b 36       	cpi	r19, 0x6B	; 107
    6148:	33 30       	cpi	r19, 0x03	; 3
    614a:	2f 2f       	mov	r18, r31
    614c:	2f 31       	cpi	r18, 0x1F	; 31
    614e:	34 37       	cpi	r19, 0x74	; 116
    6150:	3b 3f       	cpi	r19, 0xFB	; 251
    6152:	44 48       	sbci	r20, 0x84	; 132
    6154:	4d 51       	subi	r20, 0x1D	; 29
    6156:	55 58       	subi	r21, 0x85	; 133
    6158:	5b 5d       	subi	r21, 0xDB	; 219
    615a:	5f 60       	ori	r21, 0x0F	; 15
    615c:	60 60       	ori	r22, 0x00	; 0
    615e:	60 60       	ori	r22, 0x00	; 0
    6160:	60 60       	ori	r22, 0x00	; 0
    6162:	61 61       	ori	r22, 0x11	; 17
    6164:	62 64       	ori	r22, 0x42	; 66
    6166:	66 68       	ori	r22, 0x86	; 134
    6168:	6b 6e       	ori	r22, 0xEB	; 235
    616a:	72 76       	andi	r23, 0x62	; 98
    616c:	7b 7f       	andi	r23, 0xFB	; 251
    616e:	84 89       	ldd	r24, Z+20	; 0x14
    6170:	8e 92       	st	-X, r8
    6172:	97 9b       	sbis	0x12, 7	; 18
    6174:	9f a3       	std	Y+39, r25	; 0x27
    6176:	a6 a9       	ldd	r26, Z+54	; 0x36
    6178:	ab ac       	ldd	r10, Y+59	; 0x3b
    617a:	ad ad       	ldd	r26, Y+61	; 0x3d
    617c:	ad ab       	std	Y+53, r26	; 0x35
    617e:	a9 a6       	std	Y+41, r10	; 0x29
    6180:	a2 9e       	mul	r10, r18
    6182:	99 94       	.word	0x9499	; ????
    6184:	8e 88       	ldd	r8, Y+22	; 0x16
    6186:	82 7d       	andi	r24, 0xD2	; 210
    6188:	78 73       	andi	r23, 0x38	; 56
    618a:	6f 6b       	ori	r22, 0xBF	; 191
    618c:	69 67       	ori	r22, 0x79	; 121
    618e:	67 67       	ori	r22, 0x77	; 119
    6190:	68 6a       	ori	r22, 0xA8	; 168
    6192:	6c 6f       	ori	r22, 0xFC	; 252
    6194:	73 78       	andi	r23, 0x83	; 131
    6196:	7c 81       	ldd	r23, Y+4	; 0x04
    6198:	86 8b       	std	Z+22, r24	; 0x16
    619a:	90 95       	com	r25
    619c:	9a 9e       	mul	r9, r26
    619e:	a2 a5       	ldd	r26, Z+42	; 0x2a
    61a0:	a8 aa       	std	Y+48, r10	; 0x30
    61a2:	ac ad       	ldd	r26, Y+60	; 0x3c
    61a4:	ad ac       	ldd	r10, Y+61	; 0x3d
    61a6:	ab a8       	ldd	r10, Y+51	; 0x33
    61a8:	a5 a1       	ldd	r26, Z+37	; 0x25
    61aa:	9c 97       	sbiw	r26, 0x2c	; 44
    61ac:	91 8b       	std	Z+17, r25	; 0x11
    61ae:	84 7e       	andi	r24, 0xE4	; 228
    61b0:	77 71       	andi	r23, 0x17	; 23
    61b2:	6b 65       	ori	r22, 0x5B	; 91
    61b4:	61 5d       	subi	r22, 0xD1	; 209
    61b6:	5a 59       	subi	r21, 0x9A	; 154
    61b8:	58 58       	subi	r21, 0x88	; 136
    61ba:	59 5b       	subi	r21, 0xB9	; 185
    61bc:	5e 61       	ori	r21, 0x1E	; 30
    61be:	65 69       	ori	r22, 0x95	; 149
    61c0:	6d 71       	andi	r22, 0x1D	; 29
    61c2:	75 78       	andi	r23, 0x85	; 133
    61c4:	7b 7e       	andi	r23, 0xEB	; 235
    61c6:	80 82       	st	Z, r8
    61c8:	83 84       	ldd	r8, Z+11	; 0x0b
    61ca:	84 84       	ldd	r8, Z+12	; 0x0c
    61cc:	84 83       	std	Z+4, r24	; 0x04
    61ce:	82 82       	std	Z+2, r8	; 0x02
    61d0:	81 81       	ldd	r24, Z+1	; 0x01
    61d2:	81 81       	ldd	r24, Z+1	; 0x01
    61d4:	82 83       	std	Z+2, r24	; 0x02
    61d6:	85 87       	std	Z+13, r24	; 0x0d
    61d8:	89 8d       	ldd	r24, Y+25	; 0x19
    61da:	90 94       	com	r9
    61dc:	98 9c       	mul	r9, r8
    61de:	a0 a4       	ldd	r10, Z+40	; 0x28
    61e0:	a8 ac       	ldd	r10, Y+56	; 0x38
    61e2:	af b1       	in	r26, 0x0f	; 15
    61e4:	b3 b4       	in	r11, 0x23	; 35
    61e6:	b4 b4       	in	r11, 0x24	; 36
    61e8:	b2 af       	std	Z+58, r27	; 0x3a
    61ea:	ac a7       	std	Y+44, r26	; 0x2c
    61ec:	a2 9d       	mul	r26, r2
    61ee:	97 90       	elpm	r9, Z+
    61f0:	8a 83       	std	Y+2, r24	; 0x02
    61f2:	7d 77       	andi	r23, 0x7D	; 125
    61f4:	71 6c       	ori	r23, 0xC1	; 193
    61f6:	68 64       	ori	r22, 0x48	; 72
    61f8:	61 5e       	subi	r22, 0xE1	; 225
    61fa:	5d 5c       	subi	r21, 0xCD	; 205
    61fc:	5c 5c       	subi	r21, 0xCC	; 204
    61fe:	5d 5f       	subi	r21, 0xFD	; 253
    6200:	61 64       	ori	r22, 0x41	; 65
    6202:	67 6a       	ori	r22, 0xA7	; 167
    6204:	6d 70       	andi	r22, 0x0D	; 13
    6206:	74 77       	andi	r23, 0x74	; 116
    6208:	7a 7d       	andi	r23, 0xDA	; 218
    620a:	80 82       	st	Z, r8
    620c:	84 86       	std	Z+12, r8	; 0x0c
    620e:	87 87       	std	Z+15, r24	; 0x0f
    6210:	87 86       	std	Z+15, r8	; 0x0f
    6212:	85 83       	std	Z+5, r24	; 0x05
    6214:	81 7e       	andi	r24, 0xE1	; 225
    6216:	7a 76       	andi	r23, 0x6A	; 106
    6218:	72 6d       	ori	r23, 0xD2	; 210
    621a:	69 64       	ori	r22, 0x49	; 73
    621c:	5f 5a       	subi	r21, 0xAF	; 175
    621e:	56 52       	subi	r21, 0x26	; 38
    6220:	4f 4c       	sbci	r20, 0xCF	; 207
    6222:	4a 48       	sbci	r20, 0x8A	; 138
    6224:	47 47       	sbci	r20, 0x77	; 119
    6226:	48 49       	sbci	r20, 0x98	; 152
    6228:	4b 4e       	sbci	r20, 0xEB	; 235
    622a:	51 54       	subi	r21, 0x41	; 65
    622c:	58 5c       	subi	r21, 0xC8	; 200
    622e:	60 64       	ori	r22, 0x40	; 64
    6230:	68 6c       	ori	r22, 0xC8	; 200
    6232:	6f 72       	andi	r22, 0x2F	; 47
    6234:	75 78       	andi	r23, 0x85	; 133
    6236:	7a 7b       	andi	r23, 0xBA	; 186
    6238:	7c 7d       	andi	r23, 0xDC	; 220
    623a:	7e 7f       	andi	r23, 0xFE	; 254
    623c:	7f 80       	ldd	r7, Y+7	; 0x07
    623e:	81 83       	std	Z+1, r24	; 0x01
    6240:	85 87       	std	Z+13, r24	; 0x0d
    6242:	8a 8d       	ldd	r24, Y+26	; 0x1a
    6244:	91 95       	neg	r25
    6246:	9a 9f       	mul	r25, r26
    6248:	a5 aa       	std	Z+53, r10	; 0x35
    624a:	af b4       	in	r10, 0x2f	; 47
    624c:	b8 bc       	out	0x28, r11	; 40
    624e:	bf c1       	rjmp	.+894    	; 0x65ce <__stack+0x616f>
    6250:	c3 c3       	rjmp	.+1926   	; 0x69d8 <__stack+0x6579>
    6252:	c2 c0       	rjmp	.+388    	; 0x63d8 <__stack+0x5f79>
    6254:	bd b9       	out	0x0d, r27	; 13
    6256:	b4 ae       	std	Z+60, r11	; 0x3c
    6258:	a7 a1       	ldd	r26, Z+39	; 0x27
    625a:	9a 92       	st	-Y, r9
    625c:	8b 84       	ldd	r8, Y+11	; 0x0b
    625e:	7d 77       	andi	r23, 0x7D	; 125
    6260:	72 6d       	ori	r23, 0xD2	; 210
    6262:	69 66       	ori	r22, 0x69	; 105
    6264:	64 63       	ori	r22, 0x34	; 52
    6266:	63 63       	ori	r22, 0x33	; 51
    6268:	65 67       	ori	r22, 0x75	; 117
    626a:	6b 6e       	ori	r22, 0xEB	; 235
    626c:	73 78       	andi	r23, 0x83	; 131
    626e:	7d 83       	std	Y+5, r23	; 0x05
    6270:	88 8e       	std	Y+24, r8	; 0x18
    6272:	93 99       	sbic	0x12, 3	; 18
    6274:	9d a2       	std	Y+37, r9	; 0x25
    6276:	a5 a9       	ldd	r26, Z+53	; 0x35
    6278:	ab ad       	ldd	r26, Y+59	; 0x3b
    627a:	ae ae       	std	Y+62, r10	; 0x3e
    627c:	ad ac       	ldd	r10, Y+61	; 0x3d
    627e:	a9 a7       	std	Y+41, r26	; 0x29
    6280:	a3 9f       	mul	r26, r19
    6282:	9b 96       	adiw	r26, 0x2b	; 43
    6284:	92 8c       	ldd	r9, Z+26	; 0x1a
    6286:	87 82       	std	Z+7, r8	; 0x07
    6288:	7d 78       	andi	r23, 0x8D	; 141
    628a:	73 6e       	ori	r23, 0xE3	; 227
    628c:	6a 66       	ori	r22, 0x6A	; 106
    628e:	63 60       	ori	r22, 0x03	; 3
    6290:	5e 5d       	subi	r21, 0xDE	; 222
    6292:	5c 5b       	subi	r21, 0xBC	; 188
    6294:	5b 5c       	subi	r21, 0xCB	; 203
    6296:	5e 5f       	subi	r21, 0xFE	; 254
    6298:	62 64       	ori	r22, 0x42	; 66
    629a:	66 69       	ori	r22, 0x96	; 150
    629c:	6b 6d       	ori	r22, 0xDB	; 219
    629e:	6f 70       	andi	r22, 0x0F	; 15
    62a0:	71 71       	andi	r23, 0x11	; 17
    62a2:	70 6f       	ori	r23, 0xF0	; 240
    62a4:	6e 6c       	ori	r22, 0xCE	; 206
    62a6:	6a 67       	ori	r22, 0x7A	; 122
    62a8:	65 63       	ori	r22, 0x35	; 53
    62aa:	61 60       	ori	r22, 0x01	; 1
    62ac:	5f 5f       	subi	r21, 0xFF	; 255
    62ae:	60 62       	ori	r22, 0x20	; 32
    62b0:	64 68       	ori	r22, 0x84	; 132
    62b2:	6c 71       	andi	r22, 0x1C	; 28
    62b4:	77 7c       	andi	r23, 0xC7	; 199
    62b6:	83 89       	ldd	r24, Z+19	; 0x13
    62b8:	8f 95 9b a0 	call	0x634136	; 0x634136 <__data_load_end+0x62ca8a>
    62bc:	a4 a8       	ldd	r10, Z+52	; 0x34
    62be:	aa ac       	ldd	r10, Y+58	; 0x3a
    62c0:	ad ad       	ldd	r26, Y+61	; 0x3d
    62c2:	ac aa       	std	Y+52, r10	; 0x34
    62c4:	a7 a3       	std	Z+39, r26	; 0x27
    62c6:	9f 9a       	sbi	0x13, 7	; 19
    62c8:	95 8f       	std	Z+29, r25	; 0x1d
    62ca:	89 83       	std	Y+1, r24	; 0x01
    62cc:	7c 76       	andi	r23, 0x6C	; 108
    62ce:	71 6c       	ori	r23, 0xC1	; 193
    62d0:	67 63       	ori	r22, 0x37	; 55
    62d2:	61 5f       	subi	r22, 0xF1	; 241
    62d4:	5e 5e       	subi	r21, 0xEE	; 238
    62d6:	5f 61       	ori	r21, 0x1F	; 31
    62d8:	64 68       	ori	r22, 0x84	; 132
    62da:	6d 72       	andi	r22, 0x2D	; 45
    62dc:	77 7c       	andi	r23, 0xC7	; 199
    62de:	82 87       	std	Z+10, r24	; 0x0a
    62e0:	8c 91       	ld	r24, X
    62e2:	95 98       	cbi	0x12, 5	; 18
    62e4:	9b 9d       	mul	r25, r11
    62e6:	9e 9e       	mul	r9, r30
    62e8:	9d 9c       	mul	r9, r13
    62ea:	9b 99       	sbic	0x13, 3	; 19
    62ec:	96 93       	lac	Z, r25
    62ee:	90 8c       	ldd	r9, Z+24	; 0x18
    62f0:	88 84       	ldd	r8, Y+8	; 0x08
    62f2:	80 7b       	andi	r24, 0xB0	; 176
    62f4:	77 72       	andi	r23, 0x27	; 39
    62f6:	6e 6a       	ori	r22, 0xAE	; 174
    62f8:	66 63       	ori	r22, 0x36	; 54
    62fa:	60 5d       	subi	r22, 0xD0	; 208
    62fc:	5b 5a       	subi	r21, 0xAB	; 171
    62fe:	5a 5b       	subi	r21, 0xBA	; 186
    6300:	5c 5e       	subi	r21, 0xEC	; 236
    6302:	61 64       	ori	r22, 0x41	; 65
    6304:	68 6d       	ori	r22, 0xD8	; 216
    6306:	71 76       	andi	r23, 0x61	; 97
    6308:	7a 7e       	andi	r23, 0xEA	; 234
    630a:	81 84       	ldd	r8, Z+9	; 0x09
    630c:	86 87       	std	Z+14, r24	; 0x0e
    630e:	88 87       	std	Y+8, r24	; 0x08
    6310:	87 85       	ldd	r24, Z+15	; 0x0f
    6312:	83 81       	ldd	r24, Z+3	; 0x03
    6314:	7f 7d       	andi	r23, 0xDF	; 223
    6316:	7b 7a       	andi	r23, 0xAB	; 171
    6318:	79 78       	andi	r23, 0x89	; 137
    631a:	79 7a       	andi	r23, 0xA9	; 169
    631c:	7b 7e       	andi	r23, 0xEB	; 235
    631e:	81 84       	ldd	r8, Z+9	; 0x09
    6320:	88 8c       	ldd	r8, Y+24	; 0x18
    6322:	91 95       	neg	r25
    6324:	9a 9e       	mul	r9, r26
    6326:	a2 a6       	std	Z+42, r10	; 0x2a
    6328:	aa ad       	ldd	r26, Y+58	; 0x3a
    632a:	af b1       	in	r26, 0x0f	; 15
    632c:	b2 b2       	in	r11, 0x12	; 18
    632e:	b2 b0       	in	r11, 0x02	; 2
    6330:	ae ab       	std	Y+54, r26	; 0x36
    6332:	a7 a2       	std	Z+39, r10	; 0x27
    6334:	9d 96       	adiw	r26, 0x2d	; 45
    6336:	8f 88       	ldd	r8, Y+23	; 0x17
    6338:	80 79       	andi	r24, 0x90	; 144
    633a:	71 6a       	ori	r23, 0xA1	; 161
    633c:	63 5d       	subi	r22, 0xD3	; 211
    633e:	58 54       	subi	r21, 0x48	; 72
    6340:	52 50       	subi	r21, 0x02	; 2
    6342:	50 51       	subi	r21, 0x10	; 16
    6344:	54 57       	subi	r21, 0x74	; 116
    6346:	5b 60       	ori	r21, 0x0B	; 11
    6348:	66 6c       	ori	r22, 0xC6	; 198
    634a:	72 78       	andi	r23, 0x82	; 130
    634c:	7d 83       	std	Y+5, r23	; 0x05
    634e:	87 8c       	ldd	r8, Z+31	; 0x1f
    6350:	8f 92       	push	r8
    6352:	95 96       	adiw	r26, 0x25	; 37
    6354:	98 98       	cbi	0x13, 0	; 19
    6356:	98 97       	sbiw	r26, 0x28	; 40
    6358:	96 95       	lsr	r25
    635a:	93 91       	.word	0x9193	; ????
    635c:	8e 8b       	std	Y+22, r24	; 0x16
    635e:	88 84       	ldd	r8, Y+8	; 0x08
    6360:	7f 7b       	andi	r23, 0xBF	; 191
    6362:	76 71       	andi	r23, 0x16	; 22
    6364:	6c 67       	ori	r22, 0x7C	; 124
    6366:	62 5d       	subi	r22, 0xD2	; 210
    6368:	59 56       	subi	r21, 0x69	; 105
    636a:	53 50       	subi	r21, 0x03	; 3
    636c:	4f 4e       	sbci	r20, 0xEF	; 239
    636e:	4f 4f       	sbci	r20, 0xFF	; 255
    6370:	51 53       	subi	r21, 0x31	; 49
    6372:	56 59       	subi	r21, 0x96	; 150
    6374:	5c 5f       	subi	r21, 0xFC	; 252
    6376:	62 65       	ori	r22, 0x52	; 82
    6378:	67 69       	ori	r22, 0x97	; 151
    637a:	6b 6c       	ori	r22, 0xCB	; 203
    637c:	6d 6e       	ori	r22, 0xED	; 237
    637e:	6e 6f       	ori	r22, 0xFE	; 254
    6380:	6f 6f       	ori	r22, 0xFF	; 255
    6382:	70 71       	andi	r23, 0x10	; 16
    6384:	72 73       	andi	r23, 0x32	; 50
    6386:	75 78       	andi	r23, 0x85	; 133
    6388:	7b 7e       	andi	r23, 0xEB	; 235
    638a:	82 86       	std	Z+10, r8	; 0x0a
    638c:	8a 8e       	std	Y+26, r8	; 0x1a
    638e:	93 97       	sbiw	r26, 0x23	; 35
    6390:	9c a1       	ldd	r25, Y+36	; 0x24
    6392:	a5 aa       	std	Z+53, r10	; 0x35
    6394:	ae b2       	in	r10, 0x1e	; 30
    6396:	b5 b8       	out	0x05, r11	; 5
    6398:	ba bc       	out	0x2a, r11	; 42
    639a:	bc bd       	out	0x2c, r27	; 44
    639c:	bc ba       	out	0x1c, r11	; 28
    639e:	b8 b4       	in	r11, 0x28	; 40
    63a0:	b0 ab       	std	Z+48, r27	; 0x30
    63a2:	a6 9f       	mul	r26, r22
    63a4:	99 92       	st	Y+, r9
    63a6:	8b 85       	ldd	r24, Y+11	; 0x0b
    63a8:	7f 79       	andi	r23, 0x9F	; 159
    63aa:	74 70       	andi	r23, 0x04	; 4
    63ac:	6d 6a       	ori	r22, 0xAD	; 173
    63ae:	69 69       	ori	r22, 0x99	; 153
    63b0:	6a 6b       	ori	r22, 0xBA	; 186
    63b2:	6e 71       	andi	r22, 0x1E	; 30
    63b4:	74 78       	andi	r23, 0x84	; 132
    63b6:	7c 81       	ldd	r23, Y+4	; 0x04
    63b8:	85 89       	ldd	r24, Z+21	; 0x15
    63ba:	8c 90       	ld	r8, X
    63bc:	93 95       	inc	r25
    63be:	97 99       	sbic	0x12, 7	; 18
    63c0:	9a 9a       	sbi	0x13, 2	; 19
    63c2:	9a 99       	sbic	0x13, 2	; 19
    63c4:	98 96       	adiw	r26, 0x28	; 40
    63c6:	94 91       	lpm	r25, Z
    63c8:	8e 8a       	std	Y+22, r8	; 0x16
    63ca:	86 82       	std	Z+6, r8	; 0x06
    63cc:	7d 79       	andi	r23, 0x9D	; 157
    63ce:	74 6f       	ori	r23, 0xF4	; 244
    63d0:	6b 66       	ori	r22, 0x6B	; 107
    63d2:	62 5e       	subi	r22, 0xE2	; 226
    63d4:	5b 59       	subi	r21, 0x9B	; 155
    63d6:	57 56       	subi	r21, 0x67	; 103
    63d8:	56 56       	subi	r21, 0x66	; 102
    63da:	57 58       	subi	r21, 0x87	; 135
    63dc:	5b 5d       	subi	r21, 0xDB	; 219
    63de:	60 63       	ori	r22, 0x30	; 48
    63e0:	66 69       	ori	r22, 0x96	; 150
    63e2:	6d 70       	andi	r22, 0x0D	; 13
    63e4:	72 75       	andi	r23, 0x52	; 82
    63e6:	77 79       	andi	r23, 0x97	; 151
    63e8:	7a 7b       	andi	r23, 0xBA	; 186
    63ea:	7b 7c       	andi	r23, 0xCB	; 203
    63ec:	7c 7b       	andi	r23, 0xBC	; 188
    63ee:	7b 7b       	andi	r23, 0xBB	; 187
    63f0:	7a 7a       	andi	r23, 0xAA	; 170
    63f2:	79 79       	andi	r23, 0x99	; 153
    63f4:	79 79       	andi	r23, 0x99	; 153
    63f6:	7a 7b       	andi	r23, 0xBA	; 186
    63f8:	7d 7f       	andi	r23, 0xFD	; 253
    63fa:	82 85       	ldd	r24, Z+10	; 0x0a
    63fc:	88 8c       	ldd	r8, Y+24	; 0x18
    63fe:	90 94       	com	r9
    6400:	99 9d       	mul	r25, r9
    6402:	a1 a4       	ldd	r10, Z+41	; 0x29
    6404:	a8 aa       	std	Y+48, r10	; 0x30
    6406:	ac ac       	ldd	r10, Y+60	; 0x3c
    6408:	ac ab       	std	Y+52, r26	; 0x34
    640a:	a9 a7       	std	Y+41, r26	; 0x29
    640c:	a3 9e       	mul	r10, r19
    640e:	99 93       	st	Y+, r25
    6410:	8d 87       	std	Y+13, r24	; 0x0d
    6412:	81 7b       	andi	r24, 0xB1	; 177
    6414:	75 6f       	ori	r23, 0xF5	; 245
    6416:	6a 66       	ori	r22, 0x6A	; 106
    6418:	63 60       	ori	r22, 0x03	; 3
    641a:	5e 5d       	subi	r21, 0xDE	; 222
    641c:	5c 5c       	subi	r21, 0xCC	; 204
    641e:	5e 5f       	subi	r21, 0xFE	; 254
    6420:	62 65       	ori	r22, 0x52	; 82
    6422:	68 6c       	ori	r22, 0xC8	; 200
    6424:	71 75       	andi	r23, 0x51	; 81
    6426:	7a 7f       	andi	r23, 0xFA	; 250
    6428:	84 89       	ldd	r24, Z+20	; 0x14
    642a:	8e 92       	st	-X, r8
    642c:	96 9a       	sbi	0x12, 6	; 18
    642e:	9d 9f       	mul	r25, r29
    6430:	a1 a2       	std	Z+33, r10	; 0x21
    6432:	a2 a1       	ldd	r26, Z+34	; 0x22
    6434:	a0 9d       	mul	r26, r0
    6436:	9a 97       	sbiw	r26, 0x2a	; 42
    6438:	93 8e       	std	Z+27, r9	; 0x1b
    643a:	89 84       	ldd	r8, Y+9	; 0x09
    643c:	7e 79       	andi	r23, 0x9E	; 158
    643e:	74 6f       	ori	r23, 0xF4	; 244
    6440:	6b 67       	ori	r22, 0x7B	; 123
    6442:	64 61       	ori	r22, 0x14	; 20
    6444:	5f 5d       	subi	r21, 0xDF	; 223
    6446:	5c 5b       	subi	r21, 0xBC	; 188
    6448:	5b 5c       	subi	r21, 0xCB	; 203
    644a:	5c 5d       	subi	r21, 0xDC	; 220
    644c:	5f 60       	ori	r21, 0x0F	; 15
    644e:	62 64       	ori	r22, 0x42	; 66
    6450:	65 67       	ori	r22, 0x75	; 117
    6452:	69 6a       	ori	r22, 0xA9	; 169
    6454:	6c 6d       	ori	r22, 0xDC	; 220
    6456:	6e 6f       	ori	r22, 0xFE	; 254
    6458:	6f 70       	andi	r22, 0x0F	; 15
    645a:	70 71       	andi	r23, 0x10	; 16
    645c:	71 71       	andi	r23, 0x11	; 17
    645e:	72 73       	andi	r23, 0x32	; 50
    6460:	74 75       	andi	r23, 0x54	; 84
    6462:	77 79       	andi	r23, 0x97	; 151
    6464:	7c 7f       	andi	r23, 0xFC	; 252
    6466:	83 88       	ldd	r8, Z+19	; 0x13
    6468:	8d 92       	st	X+, r8
    646a:	97 9d       	mul	r25, r7
    646c:	a2 a8       	ldd	r10, Z+50	; 0x32
    646e:	ad b1       	in	r26, 0x0d	; 13
    6470:	b6 b9       	out	0x06, r27	; 6
    6472:	bb bd       	out	0x2b, r27	; 43
    6474:	be bd       	out	0x2e, r27	; 46
    6476:	bc ba       	out	0x1c, r11	; 28
    6478:	b7 b3       	in	r27, 0x17	; 23
    647a:	ae a9       	ldd	r26, Y+54	; 0x36
    647c:	a3 9d       	mul	r26, r3
    647e:	97 90       	elpm	r9, Z+
    6480:	8a 84       	ldd	r8, Y+10	; 0x0a
    6482:	7e 79       	andi	r23, 0x9E	; 158
    6484:	75 71       	andi	r23, 0x15	; 21
    6486:	6d 6b       	ori	r22, 0xBD	; 189
    6488:	69 68       	ori	r22, 0x89	; 137
    648a:	68 68       	ori	r22, 0x88	; 136
    648c:	69 6b       	ori	r22, 0xB9	; 185
    648e:	6d 70       	andi	r22, 0x0D	; 13
    6490:	73 76       	andi	r23, 0x63	; 99
    6492:	7a 7e       	andi	r23, 0xEA	; 234
    6494:	82 85       	ldd	r24, Z+10	; 0x0a
    6496:	89 8c       	ldd	r8, Y+25	; 0x19
    6498:	8f 91       	pop	r24
    649a:	93 94       	inc	r9
    649c:	95 95       	asr	r25
    649e:	95 94       	asr	r9
    64a0:	92 90       	ld	r9, -Z
    64a2:	8d 8a       	std	Y+21, r8	; 0x15
    64a4:	86 82       	std	Z+6, r8	; 0x06
    64a6:	7d 79       	andi	r23, 0x9D	; 157
    64a8:	74 6f       	ori	r23, 0xF4	; 244
    64aa:	6a 66       	ori	r22, 0x6A	; 106
    64ac:	61 5d       	subi	r22, 0xD1	; 209
    64ae:	59 56       	subi	r21, 0x69	; 105
    64b0:	54 52       	subi	r21, 0x24	; 36
    64b2:	50 4f       	sbci	r21, 0xF0	; 240
    64b4:	4f 50       	subi	r20, 0x0F	; 15
    64b6:	51 53       	subi	r21, 0x31	; 49
    64b8:	55 58       	subi	r21, 0x85	; 133
    64ba:	5b 5e       	subi	r21, 0xEB	; 235
    64bc:	61 64       	ori	r22, 0x41	; 65
    64be:	67 6a       	ori	r22, 0xA7	; 167
    64c0:	6d 6f       	ori	r22, 0xFD	; 253
    64c2:	71 72       	andi	r23, 0x21	; 33
    64c4:	73 74       	andi	r23, 0x43	; 67
    64c6:	74 74       	andi	r23, 0x44	; 68
    64c8:	74 74       	andi	r23, 0x44	; 68
    64ca:	74 74       	andi	r23, 0x44	; 68
    64cc:	74 75       	andi	r23, 0x54	; 84
    64ce:	76 78       	andi	r23, 0x86	; 134
    64d0:	7a 7c       	andi	r23, 0xCA	; 202
    64d2:	7f 83       	std	Y+7, r23	; 0x07
    64d4:	86 8a       	std	Z+22, r8	; 0x16
    64d6:	8f 93       	push	r24
    64d8:	98 9c       	mul	r9, r8
    64da:	a0 a4       	ldd	r10, Z+40	; 0x28
    64dc:	a7 aa       	std	Z+55, r10	; 0x37
    64de:	ac ae       	std	Y+60, r10	; 0x3c
    64e0:	af af       	std	Y+63, r26	; 0x3f
    64e2:	af ae       	std	Y+63, r10	; 0x3f
    64e4:	ac a9       	ldd	r26, Y+52	; 0x34
    64e6:	a6 a2       	std	Z+38, r10	; 0x26
    64e8:	9e 99       	sbic	0x13, 6	; 19
    64ea:	94 8e       	std	Z+28, r9	; 0x1c
    64ec:	89 83       	std	Y+1, r24	; 0x01
    64ee:	7e 79       	andi	r23, 0x9E	; 158
    64f0:	74 70       	andi	r23, 0x04	; 4
    64f2:	6d 6a       	ori	r22, 0xAD	; 173
    64f4:	68 67       	ori	r22, 0x78	; 120
    64f6:	67 68       	ori	r22, 0x87	; 135
    64f8:	69 6c       	ori	r22, 0xC9	; 201
    64fa:	6f 72       	andi	r22, 0x2F	; 47
    64fc:	76 7a       	andi	r23, 0xA6	; 166
    64fe:	7f 84       	ldd	r7, Y+15	; 0x0f
    6500:	88 8d       	ldd	r24, Y+24	; 0x18
    6502:	91 95       	neg	r25
    6504:	98 9c       	mul	r9, r8
    6506:	9e a0       	ldd	r9, Y+38	; 0x26
    6508:	a2 a3       	std	Z+34, r26	; 0x22
    650a:	a3 a3       	std	Z+35, r26	; 0x23
    650c:	a2 a1       	ldd	r26, Z+34	; 0x22
    650e:	9f 9c       	mul	r9, r15
    6510:	99 96       	adiw	r26, 0x29	; 41
    6512:	92 8e       	std	Z+26, r9	; 0x1a
    6514:	89 84       	ldd	r8, Y+9	; 0x09
    6516:	7f 7a       	andi	r23, 0xAF	; 175
    6518:	75 70       	andi	r23, 0x05	; 5
    651a:	6b 66       	ori	r22, 0x6B	; 107
    651c:	62 5f       	subi	r22, 0xF2	; 242
    651e:	5c 5a       	subi	r21, 0xAC	; 172
    6520:	58 57       	subi	r21, 0x78	; 120
    6522:	57 58       	subi	r21, 0x87	; 135
    6524:	59 5a       	subi	r21, 0xA9	; 169
    6526:	5c 5e       	subi	r21, 0xEC	; 236
    6528:	60 62       	ori	r22, 0x20	; 32
    652a:	64 66       	ori	r22, 0x64	; 100
    652c:	68 69       	ori	r22, 0x98	; 152
    652e:	6a 6b       	ori	r22, 0xBA	; 186
    6530:	6b 6b       	ori	r22, 0xBB	; 187
    6532:	6b 6b       	ori	r22, 0xBB	; 187
    6534:	6b 6b       	ori	r22, 0xBB	; 187
    6536:	6b 6c       	ori	r22, 0xCB	; 203
    6538:	6c 6e       	ori	r22, 0xEC	; 236
    653a:	6f 72       	andi	r22, 0x2F	; 47
    653c:	74 77       	andi	r23, 0x74	; 116
    653e:	7a 7e       	andi	r23, 0xEA	; 234
    6540:	82 86       	std	Z+10, r8	; 0x0a
    6542:	8a 8f       	std	Y+26, r24	; 0x1a
    6544:	93 97       	sbiw	r26, 0x23	; 35
    6546:	9b 9f       	mul	r25, r27
    6548:	a3 a6       	std	Z+43, r10	; 0x2b
    654a:	a9 ac       	ldd	r10, Y+57	; 0x39
    654c:	ae af       	std	Y+62, r26	; 0x3e
    654e:	b0 b1       	in	r27, 0x00	; 0
    6550:	b1 b0       	in	r11, 0x01	; 1
    6552:	ae ac       	ldd	r10, Y+62	; 0x3e
    6554:	a8 a5       	ldd	r26, Y+40	; 0x28
    6556:	a0 9c       	mul	r10, r0
    6558:	96 91       	elpm	r25, Z
    655a:	8c 86       	std	Y+12, r8	; 0x0c
    655c:	81 7c       	andi	r24, 0xC1	; 193
    655e:	78 74       	andi	r23, 0x48	; 72
    6560:	71 6f       	ori	r23, 0xF1	; 241
    6562:	6e 6d       	ori	r22, 0xDE	; 222
    6564:	6e 6f       	ori	r22, 0xFE	; 254
    6566:	70 72       	andi	r23, 0x20	; 32
    6568:	75 78       	andi	r23, 0x85	; 133
    656a:	7b 7e       	andi	r23, 0xEB	; 235
    656c:	81 84       	ldd	r8, Z+9	; 0x09
    656e:	87 89       	ldd	r24, Z+23	; 0x17
    6570:	8b 8d       	ldd	r24, Y+27	; 0x1b
    6572:	8e 8f       	std	Y+30, r24	; 0x1e
    6574:	90 90 90 90 	lds	r9, 0x9090
    6578:	90 8f       	std	Z+24, r25	; 0x18
    657a:	8d 8c       	ldd	r8, Y+29	; 0x1d
    657c:	8a 87       	std	Y+10, r24	; 0x0a
    657e:	84 81       	ldd	r24, Z+4	; 0x04
    6580:	7d 79       	andi	r23, 0x9D	; 157
    6582:	74 6f       	ori	r23, 0xF4	; 244
    6584:	6a 65       	ori	r22, 0x5A	; 90
    6586:	60 5c       	subi	r22, 0xC0	; 192
    6588:	57 53       	subi	r21, 0x37	; 55
    658a:	50 4e       	sbci	r21, 0xE0	; 224
    658c:	4d 4c       	sbci	r20, 0xCD	; 205
    658e:	4c 4d       	sbci	r20, 0xDC	; 220
    6590:	4f 52       	subi	r20, 0x2F	; 47
    6592:	55 59       	subi	r21, 0x95	; 149
    6594:	5c 60       	ori	r21, 0x0C	; 12
    6596:	64 68       	ori	r22, 0x84	; 132
    6598:	6c 6f       	ori	r22, 0xFC	; 252
    659a:	71 73       	andi	r23, 0x31	; 49
    659c:	75 76       	andi	r23, 0x65	; 101
    659e:	76 77       	andi	r23, 0x76	; 118
    65a0:	77 77       	andi	r23, 0x77	; 119
    65a2:	77 77       	andi	r23, 0x77	; 119
    65a4:	77 77       	andi	r23, 0x77	; 119
    65a6:	78 7a       	andi	r23, 0xA8	; 168
    65a8:	7b 7e       	andi	r23, 0xEB	; 235
    65aa:	80 83       	st	Z, r24
    65ac:	87 8a       	std	Z+23, r8	; 0x17
    65ae:	8e 92       	st	-X, r8
    65b0:	96 9a       	sbi	0x12, 6	; 18
    65b2:	9d a0       	ldd	r9, Y+37	; 0x25
    65b4:	a3 a6       	std	Z+43, r10	; 0x2b
    65b6:	a8 a9       	ldd	r26, Y+48	; 0x30
    65b8:	aa ab       	std	Y+50, r26	; 0x32
    65ba:	aa aa       	std	Y+50, r10	; 0x32
    65bc:	a9 a7       	std	Y+41, r26	; 0x29
    65be:	a4 a2       	std	Z+36, r10	; 0x24
    65c0:	9f 9b       	sbis	0x13, 7	; 19
    65c2:	97 93       	lat	Z, r25
    65c4:	8e 8a       	std	Y+22, r8	; 0x16
    65c6:	85 81       	ldd	r24, Z+5	; 0x05
    65c8:	7c 78       	andi	r23, 0x8C	; 140
    65ca:	74 71       	andi	r23, 0x14	; 20
    65cc:	6e 6b       	ori	r22, 0xBE	; 190
    65ce:	69 68       	ori	r22, 0x89	; 137
    65d0:	67 68       	ori	r22, 0x87	; 135
    65d2:	68 6a       	ori	r22, 0xA8	; 168
    65d4:	6c 6f       	ori	r22, 0xFC	; 252
    65d6:	72 75       	andi	r23, 0x52	; 82
    65d8:	79 7d       	andi	r23, 0xD9	; 217
    65da:	81 86       	std	Z+9, r8	; 0x09
    65dc:	8a 8e       	std	Y+26, r8	; 0x1a
    65de:	91 95       	neg	r25
    65e0:	97 9a       	sbi	0x12, 7	; 18
    65e2:	9c 9d       	mul	r25, r12
    65e4:	9d 9d       	mul	r25, r13
    65e6:	9d 9b       	sbis	0x13, 5	; 19
    65e8:	99 97       	sbiw	r26, 0x29	; 41
    65ea:	94 91       	lpm	r25, Z
    65ec:	8d 89       	ldd	r24, Y+21	; 0x15
    65ee:	84 7f       	andi	r24, 0xF4	; 244
    65f0:	7b 76       	andi	r23, 0x6B	; 107
    65f2:	71 6d       	ori	r23, 0xD1	; 209
    65f4:	69 65       	ori	r22, 0x59	; 89
    65f6:	61 5e       	subi	r22, 0xE1	; 225
    65f8:	5b 59       	subi	r21, 0x9B	; 155
    65fa:	58 57       	subi	r21, 0x78	; 120
    65fc:	57 57       	subi	r21, 0x77	; 119
    65fe:	58 59       	subi	r21, 0x98	; 152
    6600:	5a 5d       	subi	r21, 0xDA	; 218
    6602:	5f 61       	ori	r21, 0x1F	; 31
    6604:	64 67       	ori	r22, 0x74	; 116
    6606:	69 6c       	ori	r22, 0xC9	; 201
    6608:	6e 70       	andi	r22, 0x0E	; 14
    660a:	72 74       	andi	r23, 0x42	; 66
    660c:	75 76       	andi	r23, 0x65	; 101
    660e:	77 77       	andi	r23, 0x77	; 119
    6610:	78 79       	andi	r23, 0x98	; 152
    6612:	79 7a       	andi	r23, 0xA9	; 169
    6614:	7b 7c       	andi	r23, 0xCB	; 203
    6616:	7e 80       	ldd	r7, Y+6	; 0x06
    6618:	82 85       	ldd	r24, Z+10	; 0x0a
    661a:	88 8b       	std	Y+16, r24	; 0x10
    661c:	8f 93       	push	r24
    661e:	97 9c       	mul	r9, r7
    6620:	a0 a3       	std	Z+32, r26	; 0x20
    6622:	a7 aa       	std	Z+55, r10	; 0x37
    6624:	ac ae       	std	Y+60, r10	; 0x3c
    6626:	af b0       	in	r10, 0x0f	; 15
    6628:	b0 af       	std	Z+56, r27	; 0x38
    662a:	ad aa       	std	Y+53, r10	; 0x35
    662c:	a7 a4       	ldd	r10, Z+47	; 0x2f
    662e:	a0 9c       	mul	r10, r0
    6630:	98 93       	.word	0x9398	; ????
    6632:	8f 8b       	std	Y+23, r24	; 0x17
    6634:	87 83       	std	Z+7, r24	; 0x07
    6636:	80 7d       	andi	r24, 0xD0	; 208
    6638:	7b 79       	andi	r23, 0x9B	; 155
    663a:	77 76       	andi	r23, 0x67	; 103
    663c:	75 75       	andi	r23, 0x55	; 85
    663e:	75 76       	andi	r23, 0x65	; 101
    6640:	77 78       	andi	r23, 0x87	; 135
    6642:	79 7b       	andi	r23, 0xB9	; 185
    6644:	7c 7e       	andi	r23, 0xEC	; 236
    6646:	80 82       	st	Z, r8
    6648:	84 86       	std	Z+12, r8	; 0x0c
    664a:	89 8b       	std	Y+17, r24	; 0x11
    664c:	8c 8e       	std	Y+28, r8	; 0x1c
    664e:	8f 90       	pop	r8
    6650:	91 91       	ld	r25, Z+
    6652:	91 90       	ld	r9, Z+
    6654:	8f 8d       	ldd	r24, Y+31	; 0x1f
    6656:	8a 87       	std	Y+10, r24	; 0x0a
    6658:	84 80       	ldd	r8, Z+4	; 0x04
    665a:	7c 77       	andi	r23, 0x7C	; 124
    665c:	73 6e       	ori	r23, 0xE3	; 227
    665e:	69 65       	ori	r22, 0x59	; 89
    6660:	61 5d       	subi	r22, 0xD1	; 209
    6662:	5a 57       	subi	r21, 0x7A	; 122
    6664:	55 54       	subi	r21, 0x45	; 69
    6666:	53 53       	subi	r21, 0x33	; 51
    6668:	54 56       	subi	r21, 0x64	; 100
    666a:	57 5a       	subi	r21, 0xA7	; 167
    666c:	5d 60       	ori	r21, 0x0D	; 13
    666e:	63 66       	ori	r22, 0x63	; 99
    6670:	69 6c       	ori	r22, 0xC9	; 201
    6672:	6e 70       	andi	r22, 0x0E	; 14
    6674:	72 74       	andi	r23, 0x42	; 66
    6676:	75 76       	andi	r23, 0x65	; 101
    6678:	76 76       	andi	r23, 0x66	; 102
    667a:	76 76       	andi	r23, 0x66	; 102
    667c:	75 75       	andi	r23, 0x55	; 85
    667e:	75 75       	andi	r23, 0x55	; 85
    6680:	76 76       	andi	r23, 0x66	; 102
    6682:	78 79       	andi	r23, 0x98	; 152
    6684:	7b 7d       	andi	r23, 0xDB	; 219
    6686:	80 82       	st	Z, r8
    6688:	85 88       	ldd	r8, Z+21	; 0x15
    668a:	8c 8f       	std	Y+28, r24	; 0x1c
    668c:	92 95       	swap	r25
    668e:	98 9a       	sbi	0x13, 0	; 19
    6690:	9c 9d       	mul	r25, r12
    6692:	9e 9f       	mul	r25, r30
    6694:	9f 9f       	mul	r25, r31
    6696:	9e 9c       	mul	r9, r14
    6698:	9a 98       	cbi	0x13, 2	; 19
    669a:	95 92       	las	Z, r9
    669c:	8f 8b       	std	Y+23, r24	; 0x17
    669e:	88 84       	ldd	r8, Y+8	; 0x08
    66a0:	81 7e       	andi	r24, 0xE1	; 225
    66a2:	7b 78       	andi	r23, 0x8B	; 139
    66a4:	76 74       	andi	r23, 0x46	; 70
    66a6:	72 71       	andi	r23, 0x12	; 18
    66a8:	71 71       	andi	r23, 0x11	; 17
    66aa:	71 72       	andi	r23, 0x21	; 33
    66ac:	74 75       	andi	r23, 0x54	; 84
    66ae:	78 7a       	andi	r23, 0xA8	; 168
    66b0:	7d 7f       	andi	r23, 0xFD	; 253
    66b2:	82 85       	ldd	r24, Z+10	; 0x0a
    66b4:	88 8a       	std	Y+16, r8	; 0x10
    66b6:	8d 8f       	std	Y+29, r24	; 0x1d
    66b8:	91 93       	st	Z+, r25
    66ba:	94 95       	.word	0x9594	; ????
    66bc:	96 97       	sbiw	r26, 0x26	; 38
    66be:	97 97       	sbiw	r26, 0x27	; 39
    66c0:	97 96       	adiw	r26, 0x27	; 39
    66c2:	95 94       	asr	r9
    66c4:	92 90       	ld	r9, -Z
    66c6:	8e 8b       	std	Y+22, r24	; 0x16
    66c8:	88 85       	ldd	r24, Y+8	; 0x08
    66ca:	82 7f       	andi	r24, 0xF2	; 242
    66cc:	7b 78       	andi	r23, 0x8B	; 139
    66ce:	75 71       	andi	r23, 0x15	; 21
    66d0:	6f 6c       	ori	r22, 0xCF	; 207
    66d2:	6a 68       	ori	r22, 0x8A	; 138
    66d4:	66 66       	ori	r22, 0x66	; 102
    66d6:	65 65       	ori	r22, 0x55	; 85
    66d8:	65 66       	ori	r22, 0x65	; 101
    66da:	66 67       	ori	r22, 0x76	; 118
    66dc:	68 6a       	ori	r22, 0xA8	; 168
    66de:	6b 6c       	ori	r22, 0xCB	; 203
    66e0:	6d 6d       	ori	r22, 0xDD	; 221
    66e2:	6e 6e       	ori	r22, 0xEE	; 238
    66e4:	6e 6e       	ori	r22, 0xEE	; 238
    66e6:	6e 6e       	ori	r22, 0xEE	; 238
    66e8:	6e 6e       	ori	r22, 0xEE	; 238
    66ea:	6e 6f       	ori	r22, 0xFE	; 254
    66ec:	70 71       	andi	r23, 0x10	; 16
    66ee:	73 75       	andi	r23, 0x53	; 83
    66f0:	77 7a       	andi	r23, 0xA7	; 167
    66f2:	7d 80       	ldd	r7, Y+5	; 0x05
    66f4:	84 88       	ldd	r8, Z+20	; 0x14
    66f6:	8c 90       	ld	r8, X
    66f8:	94 98       	cbi	0x12, 4	; 18
    66fa:	9c 9f       	mul	r25, r28
    66fc:	a2 a5       	ldd	r26, Z+42	; 0x2a
    66fe:	a7 a9       	ldd	r26, Z+55	; 0x37
    6700:	aa ab       	std	Y+50, r26	; 0x32
    6702:	ab ab       	std	Y+51, r26	; 0x33
    6704:	aa a9       	ldd	r26, Y+50	; 0x32
    6706:	a7 a4       	ldd	r10, Z+47	; 0x2f
    6708:	a1 9e       	mul	r10, r17
    670a:	9a 97       	sbiw	r26, 0x2a	; 42
    670c:	92 8e       	std	Z+26, r9	; 0x1a
    670e:	8a 86       	std	Y+10, r8	; 0x0a
    6710:	82 7f       	andi	r24, 0xF2	; 242
    6712:	7c 79       	andi	r23, 0x9C	; 156
    6714:	77 75       	andi	r23, 0x57	; 87
    6716:	74 73       	andi	r23, 0x34	; 52
    6718:	72 73       	andi	r23, 0x32	; 50
    671a:	73 74       	andi	r23, 0x43	; 67
    671c:	75 77       	andi	r23, 0x75	; 117
    671e:	78 7a       	andi	r23, 0xA8	; 168
    6720:	7b 7d       	andi	r23, 0xDB	; 219
    6722:	7e 7f       	andi	r23, 0xFE	; 254
    6724:	80 81       	ld	r24, Z
    6726:	82 83       	std	Z+2, r24	; 0x02
    6728:	83 84       	ldd	r8, Z+11	; 0x0b
    672a:	84 84       	ldd	r8, Z+12	; 0x0c
    672c:	84 84       	ldd	r8, Z+12	; 0x0c
    672e:	83 82       	std	Z+3, r8	; 0x03
    6730:	81 80       	ldd	r8, Z+1	; 0x01
    6732:	7e 7c       	andi	r23, 0xCE	; 206
    6734:	7a 77       	andi	r23, 0x7A	; 122
    6736:	74 70       	andi	r23, 0x04	; 4
    6738:	6d 69       	ori	r22, 0x9D	; 157
    673a:	66 62       	ori	r22, 0x26	; 38
    673c:	5f 5c       	subi	r21, 0xCF	; 207
    673e:	59 57       	subi	r21, 0x79	; 121
    6740:	56 55       	subi	r21, 0x56	; 86
    6742:	55 56       	subi	r21, 0x65	; 101
    6744:	57 59       	subi	r21, 0x97	; 151
    6746:	5b 5e       	subi	r21, 0xEB	; 235
    6748:	61 64       	ori	r22, 0x41	; 65
    674a:	68 6b       	ori	r22, 0xB8	; 184
    674c:	6e 71       	andi	r22, 0x1E	; 30
    674e:	73 75       	andi	r23, 0x53	; 83
    6750:	77 78       	andi	r23, 0x87	; 135
    6752:	79 7a       	andi	r23, 0xA9	; 169
    6754:	7b 7c       	andi	r23, 0xCB	; 203
    6756:	7c 7d       	andi	r23, 0xDC	; 220
    6758:	7e 7f       	andi	r23, 0xFE	; 254
    675a:	81 83       	std	Z+1, r24	; 0x01
    675c:	85 87       	std	Z+13, r24	; 0x0d
    675e:	8a 8d       	ldd	r24, Y+26	; 0x1a
    6760:	90 93 96 99 	sts	0x9996, r25
    6764:	9c 9e       	mul	r9, r28
    6766:	a0 a2       	std	Z+32, r10	; 0x20
    6768:	a4 a5       	ldd	r26, Z+44	; 0x2c
    676a:	a6 a6       	std	Z+46, r10	; 0x2e
    676c:	a5 a5       	ldd	r26, Z+45	; 0x2d
    676e:	a3 a2       	std	Z+35, r10	; 0x23
    6770:	a0 9e       	mul	r10, r16
    6772:	9b 99       	sbic	0x13, 3	; 19
    6774:	96 93       	lac	Z, r25
    6776:	8f 8c       	ldd	r8, Y+31	; 0x1f
    6778:	89 86       	std	Y+9, r8	; 0x09
    677a:	83 80       	ldd	r8, Z+3	; 0x03
    677c:	7d 7b       	andi	r23, 0xBD	; 189
    677e:	78 76       	andi	r23, 0x68	; 104
    6780:	75 74       	andi	r23, 0x45	; 69
    6782:	73 72       	andi	r23, 0x23	; 35
    6784:	72 72       	andi	r23, 0x22	; 34
    6786:	73 74       	andi	r23, 0x43	; 67
    6788:	75 77       	andi	r23, 0x75	; 117
    678a:	78 7a       	andi	r23, 0xA8	; 168
    678c:	7c 7f       	andi	r23, 0xFC	; 252
    678e:	81 84       	ldd	r8, Z+9	; 0x09
    6790:	86 89       	ldd	r24, Z+22	; 0x16
    6792:	8b 8e       	std	Y+27, r8	; 0x1b
    6794:	90 92 94 95 	sts	0x9594, r9
    6798:	97 97       	sbiw	r26, 0x27	; 39
    679a:	98 97       	sbiw	r26, 0x28	; 40
    679c:	97 95       	ror	r25
    679e:	94 91       	lpm	r25, Z
    67a0:	8e 8b       	std	Y+22, r24	; 0x16
    67a2:	88 84       	ldd	r8, Y+8	; 0x08
    67a4:	7f 7b       	andi	r23, 0xBF	; 191
    67a6:	77 72       	andi	r23, 0x27	; 39
    67a8:	6e 6a       	ori	r22, 0xAE	; 174
    67aa:	67 64       	ori	r22, 0x47	; 71
    67ac:	61 5f       	subi	r22, 0xF1	; 241
    67ae:	5d 5b       	subi	r21, 0xBD	; 189
    67b0:	5b 5a       	subi	r21, 0xAB	; 171
    67b2:	5a 5a       	subi	r21, 0xAA	; 170
    67b4:	5b 5c       	subi	r21, 0xCB	; 203
    67b6:	5d 5e       	subi	r21, 0xED	; 237
    67b8:	5f 60       	ori	r21, 0x0F	; 15
    67ba:	61 63       	ori	r22, 0x31	; 49
    67bc:	64 65       	ori	r22, 0x54	; 84
    67be:	67 68       	ori	r22, 0x87	; 135
    67c0:	69 6b       	ori	r22, 0xB9	; 185
    67c2:	6c 6e       	ori	r22, 0xEC	; 236
    67c4:	70 71       	andi	r23, 0x10	; 16
    67c6:	73 75       	andi	r23, 0x53	; 83
    67c8:	78 7a       	andi	r23, 0xA8	; 168
    67ca:	7c 7f       	andi	r23, 0xFC	; 252
    67cc:	82 85       	ldd	r24, Z+10	; 0x0a
    67ce:	87 8a       	std	Z+23, r8	; 0x17
    67d0:	8d 90       	ld	r8, X+
    67d2:	93 95       	inc	r25
    67d4:	98 9a       	sbi	0x13, 0	; 19
    67d6:	9c 9e       	mul	r9, r28
    67d8:	9f a0       	ldd	r9, Y+39	; 0x27
    67da:	a0 a0       	ldd	r10, Z+32	; 0x20
    67dc:	a0 9f       	mul	r26, r16
    67de:	9e 9c       	mul	r9, r14
    67e0:	9a 98       	cbi	0x13, 2	; 19
    67e2:	95 93       	las	Z, r25
    67e4:	90 8d       	ldd	r25, Z+24	; 0x18
    67e6:	8a 87       	std	Y+10, r24	; 0x0a
    67e8:	85 82       	std	Z+5, r8	; 0x05
    67ea:	80 7e       	andi	r24, 0xE0	; 224
    67ec:	7d 7c       	andi	r23, 0xCD	; 205
    67ee:	7b 7b       	andi	r23, 0xBB	; 187
    67f0:	7b 7b       	andi	r23, 0xBB	; 187
    67f2:	7b 7c       	andi	r23, 0xCB	; 203
    67f4:	7d 7e       	andi	r23, 0xED	; 237
    67f6:	7f 80       	ldd	r7, Y+7	; 0x07
    67f8:	82 83       	std	Z+2, r24	; 0x02
    67fa:	85 87       	std	Z+13, r24	; 0x0d
    67fc:	88 8a       	std	Y+16, r8	; 0x10
    67fe:	8c 8d       	ldd	r24, Y+28	; 0x1c
    6800:	8f 91       	pop	r24
    6802:	92 93       	st	-Z, r25
    6804:	94 95       	.word	0x9594	; ????
    6806:	95 95       	asr	r25
    6808:	94 93       	xch	Z, r25
    680a:	92 90       	ld	r9, -Z
    680c:	8d 8a       	std	Y+21, r8	; 0x15
    680e:	87 83       	std	Z+7, r24	; 0x07
    6810:	7f 7a       	andi	r23, 0xAF	; 175
    6812:	76 72       	andi	r23, 0x26	; 38
    6814:	6d 69       	ori	r22, 0x9D	; 157
    6816:	65 62       	ori	r22, 0x25	; 37
    6818:	5f 5c       	subi	r21, 0xCF	; 207
    681a:	5a 59       	subi	r21, 0x9A	; 154
    681c:	58 58       	subi	r21, 0x88	; 136
    681e:	58 59       	subi	r21, 0x98	; 152
    6820:	5a 5c       	subi	r21, 0xCA	; 202
    6822:	5e 60       	ori	r21, 0x0E	; 14
    6824:	62 64       	ori	r22, 0x42	; 66
    6826:	67 69       	ori	r22, 0x97	; 151
    6828:	6c 6e       	ori	r22, 0xEC	; 236
    682a:	70 73       	andi	r23, 0x30	; 48
    682c:	75 77       	andi	r23, 0x75	; 117
    682e:	79 7a       	andi	r23, 0xA9	; 169
    6830:	7c 7e       	andi	r23, 0xEC	; 236
    6832:	80 81       	ld	r24, Z
    6834:	83 85       	ldd	r24, Z+11	; 0x0b
    6836:	87 89       	ldd	r24, Z+23	; 0x17
    6838:	8b 8d       	ldd	r24, Y+27	; 0x1b
    683a:	8f 91       	pop	r24
    683c:	93 95       	inc	r25
    683e:	97 98       	cbi	0x12, 7	; 18
    6840:	99 9a       	sbi	0x13, 1	; 19
    6842:	9a 9a       	sbi	0x13, 2	; 19
    6844:	9a 99       	sbic	0x13, 2	; 19
    6846:	98 96       	adiw	r26, 0x28	; 40
    6848:	94 92       	xch	Z, r9
    684a:	90 8e       	std	Z+24, r9	; 0x18
    684c:	8b 89       	ldd	r24, Y+19	; 0x13
    684e:	87 84       	ldd	r8, Z+15	; 0x0f
    6850:	82 80       	ldd	r8, Z+2	; 0x02
    6852:	7e 7d       	andi	r23, 0xDE	; 222
    6854:	7b 7a       	andi	r23, 0xAB	; 171
    6856:	79 78       	andi	r23, 0x89	; 137
    6858:	78 78       	andi	r23, 0x88	; 136
    685a:	77 77       	andi	r23, 0x77	; 119
    685c:	77 77       	andi	r23, 0x77	; 119
    685e:	78 78       	andi	r23, 0x88	; 136
    6860:	79 7a       	andi	r23, 0xA9	; 169
    6862:	7b 7c       	andi	r23, 0xCB	; 203
    6864:	7e 80       	ldd	r7, Y+6	; 0x06
    6866:	82 84       	ldd	r8, Z+10	; 0x0a
    6868:	86 88       	ldd	r8, Z+22	; 0x16
    686a:	8b 8d       	ldd	r24, Y+27	; 0x1b
    686c:	8f 91       	pop	r24
    686e:	93 95       	inc	r25
    6870:	96 97       	sbiw	r26, 0x26	; 38
    6872:	97 97       	sbiw	r26, 0x27	; 39
    6874:	97 96       	adiw	r26, 0x27	; 39
    6876:	94 92       	xch	Z, r9
    6878:	90 8d       	ldd	r25, Z+24	; 0x18
    687a:	8a 87       	std	Y+10, r24	; 0x0a
    687c:	83 80       	ldd	r8, Z+3	; 0x03
    687e:	7c 78       	andi	r23, 0x8C	; 140
    6880:	74 70       	andi	r23, 0x04	; 4
    6882:	6c 68       	ori	r22, 0x8C	; 140
    6884:	65 62       	ori	r22, 0x25	; 37
    6886:	5f 5c       	subi	r21, 0xCF	; 207
    6888:	5b 59       	subi	r21, 0x9B	; 155
    688a:	58 58       	subi	r21, 0x88	; 136
    688c:	58 59       	subi	r21, 0x98	; 152
    688e:	5a 5b       	subi	r21, 0xBA	; 186
    6890:	5d 5f       	subi	r21, 0xFD	; 253
    6892:	62 64       	ori	r22, 0x42	; 66
    6894:	67 6a       	ori	r22, 0xA7	; 167
    6896:	6c 6f       	ori	r22, 0xFC	; 252
    6898:	71 73       	andi	r23, 0x31	; 49
    689a:	75 77       	andi	r23, 0x75	; 117
    689c:	78 7a       	andi	r23, 0xA8	; 168
    689e:	7b 7c       	andi	r23, 0xCB	; 203
    68a0:	7d 7e       	andi	r23, 0xED	; 237
    68a2:	7f 81       	ldd	r23, Y+7	; 0x07
    68a4:	82 84       	ldd	r8, Z+10	; 0x0a
    68a6:	86 88       	ldd	r8, Z+22	; 0x16
    68a8:	8a 8d       	ldd	r24, Y+26	; 0x1a
    68aa:	8f 92       	push	r8
    68ac:	94 96       	adiw	r26, 0x24	; 36
    68ae:	98 9a       	sbi	0x13, 0	; 19
    68b0:	9c 9d       	mul	r25, r12
    68b2:	9e 9f       	mul	r25, r30
    68b4:	9f 9f       	mul	r25, r31
    68b6:	9e 9d       	mul	r25, r14
    68b8:	9c 9b       	sbis	0x13, 4	; 19
    68ba:	9a 99       	sbic	0x13, 2	; 19
    68bc:	98 96       	adiw	r26, 0x28	; 40
    68be:	95 94       	asr	r9
    68c0:	93 92       	.word	0x9293	; ????
    68c2:	91 90       	ld	r9, Z+
    68c4:	8f 8e       	std	Y+31, r8	; 0x1f
    68c6:	8d 8c       	ldd	r8, Y+29	; 0x1d
    68c8:	8b 8a       	std	Y+19, r8	; 0x13
    68ca:	89 88       	ldd	r8, Y+17	; 0x11
    68cc:	87 86       	std	Z+15, r8	; 0x0f
    68ce:	85 84       	ldd	r8, Z+13	; 0x0d
    68d0:	83 82       	std	Z+3, r8	; 0x03
    68d2:	82 81       	ldd	r24, Z+2	; 0x02
    68d4:	81 81       	ldd	r24, Z+1	; 0x01
    68d6:	81 81       	ldd	r24, Z+1	; 0x01
    68d8:	81 82       	std	Z+1, r8	; 0x01
    68da:	82 83       	std	Z+2, r24	; 0x02
    68dc:	84 84       	ldd	r8, Z+12	; 0x0c
    68de:	85 85       	ldd	r24, Z+13	; 0x0d
    68e0:	85 85       	ldd	r24, Z+13	; 0x0d
    68e2:	84 83       	std	Z+4, r24	; 0x04
    68e4:	82 81       	ldd	r24, Z+2	; 0x02
    68e6:	7f 7d       	andi	r23, 0xDF	; 223
    68e8:	7a 77       	andi	r23, 0x7A	; 122
    68ea:	74 71       	andi	r23, 0x14	; 20
    68ec:	6e 6b       	ori	r22, 0xBE	; 190
    68ee:	68 65       	ori	r22, 0x58	; 88
    68f0:	62 60       	ori	r22, 0x02	; 2
    68f2:	5e 5d       	subi	r21, 0xDE	; 222
    68f4:	5b 5b       	subi	r21, 0xBB	; 187
    68f6:	5a 5b       	subi	r21, 0xBA	; 186
    68f8:	5b 5c       	subi	r21, 0xCB	; 203
    68fa:	5d 5e       	subi	r21, 0xED	; 237
    68fc:	5f 61       	ori	r21, 0x1F	; 31
    68fe:	62 63       	ori	r22, 0x32	; 50
    6900:	64 66       	ori	r22, 0x64	; 100
    6902:	67 68       	ori	r22, 0x87	; 135
    6904:	69 6a       	ori	r22, 0xA9	; 169
    6906:	6b 6c       	ori	r22, 0xCB	; 203
    6908:	6e 6f       	ori	r22, 0xFE	; 254
    690a:	71 73       	andi	r23, 0x31	; 49
    690c:	75 78       	andi	r23, 0x85	; 133
    690e:	7b 7e       	andi	r23, 0xEB	; 235
    6910:	81 84       	ldd	r8, Z+9	; 0x09
    6912:	88 8b       	std	Y+16, r24	; 0x10
    6914:	8e 91       	ld	r24, -X
    6916:	93 95       	inc	r25
    6918:	97 99       	sbic	0x12, 7	; 18
    691a:	9a 9a       	sbi	0x13, 2	; 19
    691c:	9b 9a       	sbi	0x13, 3	; 19
    691e:	9a 99       	sbic	0x13, 2	; 19
    6920:	98 97       	sbiw	r26, 0x28	; 40
    6922:	96 95       	lsr	r25
    6924:	93 92       	.word	0x9293	; ????
    6926:	90 8f       	std	Z+24, r25	; 0x18
    6928:	8d 8b       	std	Y+21, r24	; 0x15
    692a:	8a 88       	ldd	r8, Y+18	; 0x12
    692c:	87 85       	ldd	r24, Z+15	; 0x0f
    692e:	84 82       	std	Z+4, r8	; 0x04
    6930:	81 80       	ldd	r8, Z+1	; 0x01
    6932:	7f 7e       	andi	r23, 0xEF	; 239
    6934:	7d 7c       	andi	r23, 0xCD	; 205
    6936:	7c 7b       	andi	r23, 0xBC	; 188
    6938:	7b 7c       	andi	r23, 0xCB	; 203
    693a:	7c 7d       	andi	r23, 0xDC	; 220
    693c:	7d 7e       	andi	r23, 0xED	; 237
    693e:	80 81       	ld	r24, Z
    6940:	83 85       	ldd	r24, Z+11	; 0x0b
    6942:	86 89       	ldd	r24, Z+22	; 0x16
    6944:	8b 8d       	ldd	r24, Y+27	; 0x1b
    6946:	8f 92       	push	r8
    6948:	94 96       	adiw	r26, 0x24	; 36
    694a:	98 9a       	sbi	0x13, 0	; 19
    694c:	9c 9d       	mul	r25, r12
    694e:	9e 9e       	mul	r9, r30
    6950:	9e 9d       	mul	r25, r14
    6952:	9c 9a       	sbi	0x13, 4	; 19
    6954:	97 94       	ror	r9
    6956:	90 8c       	ldd	r9, Z+24	; 0x18
    6958:	87 82       	std	Z+7, r8	; 0x07
    695a:	7d 78       	andi	r23, 0x8D	; 141
    695c:	73 6e       	ori	r23, 0xE3	; 227
    695e:	69 65       	ori	r22, 0x59	; 89
    6960:	61 5e       	subi	r22, 0xE1	; 225
    6962:	5b 59       	subi	r21, 0x9B	; 155
    6964:	57 55       	subi	r21, 0x57	; 87
    6966:	54 54       	subi	r21, 0x44	; 68
    6968:	54 54       	subi	r21, 0x44	; 68
    696a:	54 54       	subi	r21, 0x44	; 68
    696c:	54 55       	subi	r21, 0x54	; 84
    696e:	55 56       	subi	r21, 0x65	; 101
    6970:	57 58       	subi	r21, 0x87	; 135
    6972:	59 5a       	subi	r21, 0xA9	; 169
    6974:	5c 5e       	subi	r21, 0xEC	; 236
    6976:	60 63       	ori	r22, 0x30	; 48
    6978:	66 6a       	ori	r22, 0xA6	; 166
    697a:	6d 71       	andi	r22, 0x1D	; 29
    697c:	75 7a       	andi	r23, 0xA5	; 165
    697e:	7e 82       	std	Y+6, r7	; 0x06
    6980:	86 8a       	std	Z+22, r8	; 0x16
    6982:	8e 91       	ld	r24, -X
    6984:	94 97       	sbiw	r26, 0x24	; 36
    6986:	99 9b       	sbis	0x13, 1	; 19
    6988:	9d 9e       	mul	r9, r29
    698a:	9f 9f       	mul	r25, r31
    698c:	a0 a0       	ldd	r10, Z+32	; 0x20
    698e:	9f 9f       	mul	r25, r31
    6990:	9e 9d       	mul	r25, r14
    6992:	9c 9b       	sbis	0x13, 4	; 19
    6994:	9a 98       	cbi	0x13, 2	; 19
    6996:	96 94       	lsr	r9
    6998:	93 91       	.word	0x9193	; ????
    699a:	8f 8d       	ldd	r24, Y+31	; 0x1f
    699c:	8c 8a       	std	Y+20, r8	; 0x14
    699e:	89 88       	ldd	r8, Y+17	; 0x11
    69a0:	87 87       	std	Z+15, r24	; 0x0f
    69a2:	86 86       	std	Z+14, r8	; 0x0e
    69a4:	86 86       	std	Z+14, r8	; 0x0e
    69a6:	87 87       	std	Z+15, r24	; 0x0f
    69a8:	88 88       	ldd	r8, Y+16	; 0x10
    69aa:	88 88       	ldd	r8, Y+16	; 0x10
    69ac:	89 89       	ldd	r24, Y+17	; 0x11
    69ae:	89 89       	ldd	r24, Y+17	; 0x11
    69b0:	89 89       	ldd	r24, Y+17	; 0x11
    69b2:	89 89       	ldd	r24, Y+17	; 0x11
    69b4:	89 89       	ldd	r24, Y+17	; 0x11
    69b6:	89 89       	ldd	r24, Y+17	; 0x11
    69b8:	89 89       	ldd	r24, Y+17	; 0x11
    69ba:	89 89       	ldd	r24, Y+17	; 0x11
    69bc:	88 87       	std	Y+8, r24	; 0x08
    69be:	85 83       	std	Z+5, r24	; 0x05
    69c0:	81 7e       	andi	r24, 0xE1	; 225
    69c2:	7b 77       	andi	r23, 0x7B	; 123
    69c4:	73 6f       	ori	r23, 0xF3	; 243
    69c6:	6b 66       	ori	r22, 0x6B	; 107
    69c8:	62 5e       	subi	r22, 0xE2	; 226
    69ca:	5b 58       	subi	r21, 0x8B	; 139
    69cc:	55 54       	subi	r21, 0x45	; 69
    69ce:	52 52       	subi	r21, 0x22	; 34
    69d0:	52 53       	subi	r21, 0x32	; 50
    69d2:	55 56       	subi	r21, 0x65	; 101
    69d4:	59 5b       	subi	r21, 0xB9	; 185
    69d6:	5e 61       	ori	r21, 0x1E	; 30
    69d8:	64 67       	ori	r22, 0x74	; 116
    69da:	6a 6c       	ori	r22, 0xCA	; 202
    69dc:	6f 72       	andi	r22, 0x2F	; 47
    69de:	74 76       	andi	r23, 0x64	; 100
    69e0:	79 7b       	andi	r23, 0xB9	; 185
    69e2:	7e 80       	ldd	r7, Y+6	; 0x06
    69e4:	83 85       	ldd	r24, Z+11	; 0x0b
    69e6:	88 8b       	std	Y+16, r24	; 0x10
    69e8:	8d 90       	ld	r8, X+
    69ea:	92 95       	swap	r25
    69ec:	97 99       	sbic	0x12, 7	; 18
    69ee:	9a 9c       	mul	r9, r10
    69f0:	9d 9d       	mul	r25, r13
    69f2:	9d 9d       	mul	r25, r13
    69f4:	9d 9c       	mul	r9, r13
    69f6:	9b 9a       	sbi	0x13, 3	; 19
    69f8:	98 97       	sbiw	r26, 0x28	; 40
    69fa:	95 93       	las	Z, r25
    69fc:	91 8f       	std	Z+25, r25	; 0x19
    69fe:	8e 8c       	ldd	r8, Y+30	; 0x1e
    6a00:	8a 88       	ldd	r8, Y+18	; 0x12
    6a02:	87 85       	ldd	r24, Z+15	; 0x0f
    6a04:	84 83       	std	Z+4, r24	; 0x04
    6a06:	82 81       	ldd	r24, Z+2	; 0x02
    6a08:	80 7f       	andi	r24, 0xF0	; 240
    6a0a:	7f 7e       	andi	r23, 0xEF	; 239
    6a0c:	7e 7e       	andi	r23, 0xEE	; 238
    6a0e:	7e 7f       	andi	r23, 0xFE	; 254
    6a10:	7f 7f       	andi	r23, 0xFF	; 255
    6a12:	80 81       	ld	r24, Z
    6a14:	82 82       	std	Z+2, r8	; 0x02
    6a16:	83 84       	ldd	r8, Z+11	; 0x0b
    6a18:	85 86       	std	Z+13, r8	; 0x0d
    6a1a:	87 89       	ldd	r24, Z+23	; 0x17
    6a1c:	8a 8b       	std	Y+18, r24	; 0x12
    6a1e:	8c 8d       	ldd	r24, Y+28	; 0x1c
    6a20:	8e 8f       	std	Y+30, r24	; 0x1e
    6a22:	90 91 92 92 	lds	r25, 0x9292
    6a26:	92 92       	st	-Z, r9
    6a28:	91 91       	ld	r25, Z+
    6a2a:	8f 8e       	std	Y+31, r8	; 0x1f
    6a2c:	8c 89       	ldd	r24, Y+20	; 0x14
    6a2e:	87 83       	std	Z+7, r24	; 0x07
    6a30:	80 7d       	andi	r24, 0xD0	; 208
    6a32:	79 75       	andi	r23, 0x59	; 89
    6a34:	71 6e       	ori	r23, 0xE1	; 225
    6a36:	6b 68       	ori	r22, 0x8B	; 139
    6a38:	65 63       	ori	r22, 0x35	; 53
    6a3a:	61 5f       	subi	r22, 0xF1	; 241
    6a3c:	5e 5e       	subi	r21, 0xEE	; 238
    6a3e:	5e 5e       	subi	r21, 0xEE	; 238
    6a40:	5e 5f       	subi	r21, 0xFE	; 254
    6a42:	60 62       	ori	r22, 0x20	; 32
    6a44:	63 65       	ori	r22, 0x53	; 83
    6a46:	66 68       	ori	r22, 0x86	; 134
    6a48:	69 6b       	ori	r22, 0xB9	; 185
    6a4a:	6c 6d       	ori	r22, 0xDC	; 220
    6a4c:	6f 70       	andi	r22, 0x0F	; 15
    6a4e:	71 72       	andi	r23, 0x21	; 33
    6a50:	73 75       	andi	r23, 0x53	; 83
    6a52:	76 77       	andi	r23, 0x76	; 118
    6a54:	79 7b       	andi	r23, 0xB9	; 185
    6a56:	7d 7e       	andi	r23, 0xED	; 237
    6a58:	80 82       	st	Z, r8
    6a5a:	85 87       	std	Z+13, r24	; 0x0d
    6a5c:	89 8a       	std	Y+17, r8	; 0x11
    6a5e:	8c 8e       	std	Y+28, r8	; 0x1c
    6a60:	8f 90       	pop	r8
    6a62:	91 91       	ld	r25, Z+
    6a64:	91 91       	ld	r25, Z+
    6a66:	91 91       	ld	r25, Z+
    6a68:	90 8f       	std	Z+24, r25	; 0x18
    6a6a:	8e 8d       	ldd	r24, Y+30	; 0x1e
    6a6c:	8c 8b       	std	Y+20, r24	; 0x14
    6a6e:	8b 8a       	std	Y+19, r8	; 0x13
    6a70:	89 88       	ldd	r8, Y+17	; 0x11
    6a72:	88 88       	ldd	r8, Y+16	; 0x10
    6a74:	87 87       	std	Z+15, r24	; 0x0f
    6a76:	87 87       	std	Z+15, r24	; 0x0f
    6a78:	87 87       	std	Z+15, r24	; 0x0f
    6a7a:	87 87       	std	Z+15, r24	; 0x0f
    6a7c:	87 87       	std	Z+15, r24	; 0x0f
    6a7e:	87 87       	std	Z+15, r24	; 0x0f
    6a80:	87 88       	ldd	r8, Z+23	; 0x17
    6a82:	88 88       	ldd	r8, Y+16	; 0x10
    6a84:	89 89       	ldd	r24, Y+17	; 0x11
    6a86:	8a 8b       	std	Y+18, r24	; 0x12
    6a88:	8c 8d       	ldd	r24, Y+28	; 0x1c
    6a8a:	8e 8f       	std	Y+30, r24	; 0x1e
    6a8c:	90 91 92 92 	lds	r25, 0x9292
    6a90:	93 93       	.word	0x9393	; ????
    6a92:	93 92       	.word	0x9293	; ????
    6a94:	92 91       	ld	r25, -Z
    6a96:	8f 8e       	std	Y+31, r8	; 0x1f
    6a98:	8c 89       	ldd	r24, Y+20	; 0x14
    6a9a:	87 84       	ldd	r8, Z+15	; 0x0f
    6a9c:	81 7e       	andi	r24, 0xE1	; 225
    6a9e:	7a 77       	andi	r23, 0x7A	; 122
    6aa0:	74 71       	andi	r23, 0x14	; 20
    6aa2:	6e 6b       	ori	r22, 0xBE	; 190
    6aa4:	68 66       	ori	r22, 0x68	; 104
    6aa6:	64 62       	ori	r22, 0x24	; 36
    6aa8:	61 5f       	subi	r22, 0xF1	; 241
    6aaa:	5f 5e       	subi	r21, 0xEF	; 239
    6aac:	5e 5e       	subi	r21, 0xEE	; 238
    6aae:	5f 5f       	subi	r21, 0xFF	; 255
    6ab0:	60 61       	ori	r22, 0x10	; 16
    6ab2:	62 63       	ori	r22, 0x32	; 50
    6ab4:	64 65       	ori	r22, 0x54	; 84
    6ab6:	67 68       	ori	r22, 0x87	; 135
    6ab8:	69 6b       	ori	r22, 0xB9	; 185
    6aba:	6c 6e       	ori	r22, 0xEC	; 236
    6abc:	6f 71       	andi	r22, 0x1F	; 31
    6abe:	73 75       	andi	r23, 0x53	; 83
    6ac0:	77 79       	andi	r23, 0x97	; 151
    6ac2:	7c 7e       	andi	r23, 0xEC	; 236
    6ac4:	81 83       	std	Z+1, r24	; 0x01
    6ac6:	86 88       	ldd	r8, Z+22	; 0x16
    6ac8:	8a 8c       	ldd	r8, Y+26	; 0x1a
    6aca:	8e 90       	ld	r8, -X
    6acc:	91 92       	st	Z+, r9
    6ace:	92 92       	st	-Z, r9
    6ad0:	92 92       	st	-Z, r9
    6ad2:	91 90       	ld	r9, Z+
    6ad4:	8e 8d       	ldd	r24, Y+30	; 0x1e
    6ad6:	8b 89       	ldd	r24, Y+19	; 0x13
    6ad8:	88 86       	std	Y+8, r8	; 0x08
    6ada:	84 83       	std	Z+4, r24	; 0x04
    6adc:	82 80       	ldd	r8, Z+2	; 0x02
    6ade:	7f 7e       	andi	r23, 0xEF	; 239
    6ae0:	7e 7d       	andi	r23, 0xDE	; 222
    6ae2:	7d 7c       	andi	r23, 0xCD	; 205
    6ae4:	7c 7c       	andi	r23, 0xCC	; 204
    6ae6:	7c 7d       	andi	r23, 0xDC	; 220
    6ae8:	7d 7e       	andi	r23, 0xED	; 237
    6aea:	7e 7f       	andi	r23, 0xFE	; 254
    6aec:	80 81       	ld	r24, Z
    6aee:	82 84       	ldd	r8, Z+10	; 0x0a
    6af0:	85 87       	std	Z+13, r24	; 0x0d
    6af2:	88 8a       	std	Y+16, r8	; 0x10
    6af4:	8c 8e       	std	Y+28, r8	; 0x1c
    6af6:	90 91 93 95 	lds	r25, 0x9593
    6afa:	96 97       	sbiw	r26, 0x26	; 38
    6afc:	98 99       	sbic	0x13, 0	; 19
    6afe:	99 99       	sbic	0x13, 1	; 19
    6b00:	99 98       	cbi	0x13, 1	; 19
    6b02:	97 95       	ror	r25
    6b04:	93 91       	.word	0x9193	; ????
    6b06:	8e 8b       	std	Y+22, r24	; 0x16
    6b08:	87 84       	ldd	r8, Z+15	; 0x0f
    6b0a:	80 7c       	andi	r24, 0xC0	; 192
    6b0c:	78 74       	andi	r23, 0x48	; 72
    6b0e:	70 6c       	ori	r23, 0xC0	; 192
    6b10:	69 65       	ori	r22, 0x59	; 89
    6b12:	63 61       	ori	r22, 0x13	; 19
    6b14:	5f 5e       	subi	r21, 0xEF	; 239
    6b16:	5d 5d       	subi	r21, 0xDD	; 221
    6b18:	5d 5d       	subi	r21, 0xDD	; 221
    6b1a:	5e 5f       	subi	r21, 0xFE	; 254
    6b1c:	61 62       	ori	r22, 0x21	; 33
    6b1e:	64 66       	ori	r22, 0x64	; 100
    6b20:	68 69       	ori	r22, 0x98	; 152
    6b22:	6b 6d       	ori	r22, 0xDB	; 219
    6b24:	6e 70       	andi	r22, 0x0E	; 14
    6b26:	72 73       	andi	r23, 0x32	; 50
    6b28:	75 77       	andi	r23, 0x75	; 117
    6b2a:	79 7a       	andi	r23, 0xA9	; 169
    6b2c:	7d 7f       	andi	r23, 0xFD	; 253
    6b2e:	81 83       	std	Z+1, r24	; 0x01
    6b30:	85 88       	ldd	r8, Z+21	; 0x15
    6b32:	8a 8c       	ldd	r8, Y+26	; 0x1a
    6b34:	8e 8f       	std	Y+30, r24	; 0x1e
    6b36:	91 92       	st	Z+, r9
    6b38:	93 93       	.word	0x9393	; ????
    6b3a:	93 93       	.word	0x9393	; ????
    6b3c:	93 92       	.word	0x9293	; ????
    6b3e:	92 91       	ld	r25, -Z
    6b40:	90 8f       	std	Z+24, r25	; 0x18
    6b42:	8e 8c       	ldd	r8, Y+30	; 0x1e
    6b44:	8b 8a       	std	Y+19, r8	; 0x13
    6b46:	89 88       	ldd	r8, Y+17	; 0x11
    6b48:	87 86       	std	Z+15, r8	; 0x0f
    6b4a:	86 85       	ldd	r24, Z+14	; 0x0e
    6b4c:	85 84       	ldd	r8, Z+13	; 0x0d
    6b4e:	84 84       	ldd	r8, Z+12	; 0x0c
    6b50:	84 84       	ldd	r8, Z+12	; 0x0c
    6b52:	84 84       	ldd	r8, Z+12	; 0x0c
    6b54:	85 85       	ldd	r24, Z+13	; 0x0d
    6b56:	86 87       	std	Z+14, r24	; 0x0e
    6b58:	88 88       	ldd	r8, Y+16	; 0x10
    6b5a:	89 8a       	std	Y+17, r8	; 0x11
    6b5c:	8b 8b       	std	Y+19, r24	; 0x13
    6b5e:	8c 8c       	ldd	r8, Y+28	; 0x1c
    6b60:	8c 8c       	ldd	r8, Y+28	; 0x1c
    6b62:	8c 8c       	ldd	r8, Y+28	; 0x1c
    6b64:	8c 8c       	ldd	r8, Y+28	; 0x1c
    6b66:	8c 8c       	ldd	r8, Y+28	; 0x1c
    6b68:	8c 8c       	ldd	r8, Y+28	; 0x1c
    6b6a:	8c 8b       	std	Y+20, r24	; 0x14
    6b6c:	8b 8b       	std	Y+19, r24	; 0x13
    6b6e:	8a 89       	ldd	r24, Y+18	; 0x12
    6b70:	88 87       	std	Y+8, r24	; 0x08
    6b72:	85 83       	std	Z+5, r24	; 0x05
    6b74:	81 7e       	andi	r24, 0xE1	; 225
    6b76:	7b 77       	andi	r23, 0x7B	; 123
    6b78:	73 70       	andi	r23, 0x03	; 3
    6b7a:	6c 68       	ori	r22, 0x8C	; 140
    6b7c:	65 62       	ori	r22, 0x25	; 37
    6b7e:	5f 5d       	subi	r21, 0xDF	; 223
    6b80:	5b 5a       	subi	r21, 0xAB	; 171
    6b82:	59 59       	subi	r21, 0x99	; 153
    6b84:	5a 5b       	subi	r21, 0xBA	; 186
    6b86:	5d 5e       	subi	r21, 0xED	; 237
    6b88:	60 63       	ori	r22, 0x30	; 48
    6b8a:	65 67       	ori	r22, 0x75	; 117
    6b8c:	69 6b       	ori	r22, 0xB9	; 185
    6b8e:	6d 6e       	ori	r22, 0xED	; 237
    6b90:	70 71       	andi	r23, 0x10	; 16
    6b92:	73 74       	andi	r23, 0x43	; 67
    6b94:	75 77       	andi	r23, 0x75	; 117
    6b96:	78 7a       	andi	r23, 0xA8	; 168
    6b98:	7c 7e       	andi	r23, 0xEC	; 236
    6b9a:	80 82       	st	Z, r8
    6b9c:	84 87       	std	Z+12, r24	; 0x0c
    6b9e:	89 8b       	std	Y+17, r24	; 0x11
    6ba0:	8d 8f       	std	Y+29, r24	; 0x1d
    6ba2:	90 91 92 92 	lds	r25, 0x9292
    6ba6:	92 92       	st	-Z, r9
    6ba8:	91 91       	ld	r25, Z+
    6baa:	90 8f       	std	Z+24, r25	; 0x18
    6bac:	8d 8c       	ldd	r8, Y+29	; 0x1d
    6bae:	8b 89       	ldd	r24, Y+19	; 0x13
    6bb0:	88 87       	std	Y+8, r24	; 0x08
    6bb2:	86 84       	ldd	r8, Z+14	; 0x0e
    6bb4:	83 82       	std	Z+3, r8	; 0x03
    6bb6:	81 80       	ldd	r8, Z+1	; 0x01
    6bb8:	7f 7e       	andi	r23, 0xEF	; 239
    6bba:	7d 7d       	andi	r23, 0xDD	; 221
    6bbc:	7c 7c       	andi	r23, 0xCC	; 204
    6bbe:	7b 7c       	andi	r23, 0xCB	; 203
    6bc0:	7c 7c       	andi	r23, 0xCC	; 204
    6bc2:	7d 7e       	andi	r23, 0xED	; 237
    6bc4:	7f 81       	ldd	r23, Y+7	; 0x07
    6bc6:	82 84       	ldd	r8, Z+10	; 0x0a
    6bc8:	85 87       	std	Z+13, r24	; 0x0d
    6bca:	88 8a       	std	Y+16, r8	; 0x10
    6bcc:	8b 8d       	ldd	r24, Y+27	; 0x1b
    6bce:	8e 8f       	std	Y+30, r24	; 0x1e
    6bd0:	90 91 92 93 	lds	r25, 0x9392
    6bd4:	93 94       	inc	r9
    6bd6:	95 95       	asr	r25
    6bd8:	96 96       	adiw	r26, 0x26	; 38
    6bda:	97 97       	sbiw	r26, 0x27	; 39
    6bdc:	96 95       	lsr	r25
    6bde:	94 93       	xch	Z, r25
    6be0:	91 8e       	std	Z+25, r9	; 0x19
    6be2:	8b 88       	ldd	r8, Y+19	; 0x13
    6be4:	84 80       	ldd	r8, Z+4	; 0x04
    6be6:	7b 77       	andi	r23, 0x7B	; 123
    6be8:	72 6e       	ori	r23, 0xE2	; 226
    6bea:	6a 66       	ori	r22, 0x6A	; 106
    6bec:	63 61       	ori	r22, 0x13	; 19
    6bee:	5e 5d       	subi	r21, 0xDE	; 222
    6bf0:	5c 5b       	subi	r21, 0xBC	; 188
    6bf2:	5c 5c       	subi	r21, 0xCC	; 204
    6bf4:	5d 5e       	subi	r21, 0xED	; 237
    6bf6:	60 61       	ori	r22, 0x10	; 16
    6bf8:	63 65       	ori	r22, 0x53	; 83
    6bfa:	67 68       	ori	r22, 0x87	; 135
    6bfc:	6a 6b       	ori	r22, 0xBA	; 186
    6bfe:	6d 6e       	ori	r22, 0xED	; 237
    6c00:	70 71       	andi	r23, 0x10	; 16
    6c02:	73 74       	andi	r23, 0x43	; 67
    6c04:	76 78       	andi	r23, 0x86	; 134
    6c06:	7a 7c       	andi	r23, 0xCA	; 202
    6c08:	7e 80       	ldd	r7, Y+6	; 0x06
    6c0a:	82 85       	ldd	r24, Z+10	; 0x0a
    6c0c:	87 89       	ldd	r24, Z+23	; 0x17
    6c0e:	8b 8d       	ldd	r24, Y+27	; 0x1b
    6c10:	8f 90       	pop	r8
    6c12:	91 92       	st	Z+, r9
    6c14:	92 92       	st	-Z, r9
    6c16:	92 91       	ld	r25, -Z
    6c18:	91 90       	ld	r9, Z+
    6c1a:	8f 8e       	std	Y+31, r8	; 0x1f
    6c1c:	8c 8b       	std	Y+20, r24	; 0x14
    6c1e:	8a 89       	ldd	r24, Y+18	; 0x12
    6c20:	88 87       	std	Y+8, r24	; 0x08
    6c22:	86 86       	std	Z+14, r8	; 0x0e
    6c24:	85 85       	ldd	r24, Z+13	; 0x0d
    6c26:	84 84       	ldd	r8, Z+12	; 0x0c
    6c28:	84 84       	ldd	r8, Z+12	; 0x0c
    6c2a:	84 85       	ldd	r24, Z+12	; 0x0c
    6c2c:	85 86       	std	Z+13, r8	; 0x0d
    6c2e:	86 87       	std	Z+14, r24	; 0x0e
    6c30:	87 88       	ldd	r8, Z+23	; 0x17
    6c32:	89 8a       	std	Y+17, r8	; 0x11
    6c34:	8b 8b       	std	Y+19, r24	; 0x13
    6c36:	8c 8d       	ldd	r24, Y+28	; 0x1c
    6c38:	8e 8e       	std	Y+30, r8	; 0x1e
    6c3a:	8f 90       	pop	r8
    6c3c:	90 90 91 91 	lds	r9, 0x9191
    6c40:	91 91       	ld	r25, Z+
    6c42:	90 90 8f 8e 	lds	r9, 0x8E8F
    6c46:	8d 8c       	ldd	r8, Y+29	; 0x1d
    6c48:	8a 88       	ldd	r8, Y+18	; 0x12
    6c4a:	86 84       	ldd	r8, Z+14	; 0x0e
    6c4c:	81 7e       	andi	r24, 0xE1	; 225
    6c4e:	7c 78       	andi	r23, 0x8C	; 140
    6c50:	75 72       	andi	r23, 0x25	; 37
    6c52:	6f 6c       	ori	r22, 0xCF	; 207
    6c54:	69 66       	ori	r22, 0x69	; 105
    6c56:	63 61       	ori	r22, 0x13	; 19
    6c58:	5f 5d       	subi	r21, 0xDF	; 223
    6c5a:	5c 5c       	subi	r21, 0xCC	; 204
    6c5c:	5c 5c       	subi	r21, 0xCC	; 204
    6c5e:	5d 5e       	subi	r21, 0xED	; 237
    6c60:	60 62       	ori	r22, 0x20	; 32
    6c62:	64 67       	ori	r22, 0x74	; 116
    6c64:	69 6c       	ori	r22, 0xC9	; 201
    6c66:	6f 71       	andi	r22, 0x1F	; 31
    6c68:	74 76       	andi	r23, 0x64	; 100
    6c6a:	78 7a       	andi	r23, 0xA8	; 168
    6c6c:	7c 7e       	andi	r23, 0xEC	; 236
    6c6e:	7f 80       	ldd	r7, Y+7	; 0x07
    6c70:	82 83       	std	Z+2, r24	; 0x02
    6c72:	84 85       	ldd	r24, Z+12	; 0x0c
    6c74:	86 87       	std	Z+14, r24	; 0x0e
    6c76:	88 8a       	std	Y+16, r8	; 0x10
    6c78:	8b 8c       	ldd	r8, Y+27	; 0x1b
    6c7a:	8d 8e       	std	Y+29, r8	; 0x1d
    6c7c:	8f 90       	pop	r8
    6c7e:	91 91       	ld	r25, Z+
    6c80:	91 91       	ld	r25, Z+
    6c82:	91 90       	ld	r9, Z+
    6c84:	8f 8e       	std	Y+31, r8	; 0x1f
    6c86:	8c 8a       	std	Y+20, r8	; 0x14
    6c88:	88 86       	std	Y+8, r8	; 0x08
    6c8a:	84 82       	std	Z+4, r8	; 0x04
    6c8c:	80 7f       	andi	r24, 0xF0	; 240
    6c8e:	7d 7b       	andi	r23, 0xBD	; 189
    6c90:	7a 79       	andi	r23, 0x9A	; 154
    6c92:	78 78       	andi	r23, 0x88	; 136
    6c94:	78 77       	andi	r23, 0x78	; 120
    6c96:	78 78       	andi	r23, 0x88	; 136
    6c98:	78 79       	andi	r23, 0x98	; 152
    6c9a:	7a 7a       	andi	r23, 0xAA	; 170
    6c9c:	7b 7c       	andi	r23, 0xCB	; 203
    6c9e:	7d 7d       	andi	r23, 0xDD	; 221
    6ca0:	7e 7f       	andi	r23, 0xFE	; 254
    6ca2:	80 81       	ld	r24, Z
    6ca4:	82 83       	std	Z+2, r24	; 0x02
    6ca6:	84 85       	ldd	r24, Z+12	; 0x0c
    6ca8:	86 87       	std	Z+14, r24	; 0x0e
    6caa:	89 8a       	std	Y+17, r8	; 0x11
    6cac:	8b 8d       	ldd	r24, Y+27	; 0x1b
    6cae:	8e 8f       	std	Y+30, r24	; 0x1e
    6cb0:	90 91 91 92 	lds	r25, 0x9291
    6cb4:	92 91       	ld	r25, -Z
    6cb6:	91 90       	ld	r9, Z+
    6cb8:	8e 8d       	ldd	r24, Y+30	; 0x1e
    6cba:	8b 89       	ldd	r24, Y+19	; 0x13
    6cbc:	87 84       	ldd	r8, Z+15	; 0x0f
    6cbe:	82 7f       	andi	r24, 0xF2	; 242
    6cc0:	7d 7a       	andi	r23, 0xAD	; 173
    6cc2:	78 76       	andi	r23, 0x68	; 104
    6cc4:	74 72       	andi	r23, 0x24	; 36
    6cc6:	70 6f       	ori	r23, 0xF0	; 240
    6cc8:	6e 6c       	ori	r22, 0xCE	; 206
    6cca:	6c 6b       	ori	r22, 0xBC	; 188
    6ccc:	6a 6a       	ori	r22, 0xAA	; 170
    6cce:	69 69       	ori	r22, 0x99	; 153
    6cd0:	69 69       	ori	r22, 0x99	; 153
    6cd2:	69 69       	ori	r22, 0x99	; 153
    6cd4:	6a 6a       	ori	r22, 0xAA	; 170
    6cd6:	6b 6b       	ori	r22, 0xBB	; 187
    6cd8:	6c 6d       	ori	r22, 0xDC	; 220
    6cda:	6e 6f       	ori	r22, 0xFE	; 254
    6cdc:	70 71       	andi	r23, 0x10	; 16
    6cde:	73 74       	andi	r23, 0x43	; 67
    6ce0:	76 77       	andi	r23, 0x76	; 118
    6ce2:	79 7b       	andi	r23, 0xB9	; 185
    6ce4:	7d 7f       	andi	r23, 0xFD	; 253
    6ce6:	81 83       	std	Z+1, r24	; 0x01
    6ce8:	85 87       	std	Z+13, r24	; 0x0d
    6cea:	89 8b       	std	Y+17, r24	; 0x11
    6cec:	8d 8f       	std	Y+29, r24	; 0x1d
    6cee:	91 92       	st	Z+, r9
    6cf0:	93 94       	inc	r9
    6cf2:	94 94       	.word	0x9494	; ????
    6cf4:	93 92       	.word	0x9293	; ????
    6cf6:	91 90       	ld	r9, Z+
    6cf8:	8e 8c       	ldd	r8, Y+30	; 0x1e
    6cfa:	8a 88       	ldd	r8, Y+18	; 0x12
    6cfc:	86 84       	ldd	r8, Z+14	; 0x0e
    6cfe:	82 80       	ldd	r8, Z+2	; 0x02
    6d00:	7f 7f       	andi	r23, 0xFF	; 255
    6d02:	7e 7e       	andi	r23, 0xEE	; 238
    6d04:	7f 7f       	andi	r23, 0xFF	; 255
    6d06:	80 82       	st	Z, r8
    6d08:	83 85       	ldd	r24, Z+11	; 0x0b
    6d0a:	87 89       	ldd	r24, Z+23	; 0x17
    6d0c:	8a 8c       	ldd	r8, Y+26	; 0x1a
    6d0e:	8e 8f       	std	Y+30, r24	; 0x1e
    6d10:	91 92       	st	Z+, r9
    6d12:	93 94       	inc	r9
    6d14:	95 96       	adiw	r26, 0x25	; 37
    6d16:	97 98       	cbi	0x12, 7	; 18
    6d18:	98 99       	sbic	0x13, 0	; 19
    6d1a:	99 9a       	sbi	0x13, 1	; 19
    6d1c:	9a 9a       	sbi	0x13, 2	; 19
    6d1e:	9a 9a       	sbi	0x13, 2	; 19
    6d20:	99 98       	cbi	0x13, 1	; 19
    6d22:	97 95       	ror	r25
    6d24:	93 90       	.word	0x9093	; ????
    6d26:	8d 89       	ldd	r24, Y+21	; 0x15
    6d28:	85 81       	ldd	r24, Z+5	; 0x05
    6d2a:	7c 78       	andi	r23, 0x8C	; 140
    6d2c:	73 6e       	ori	r23, 0xE3	; 227
    6d2e:	69 65       	ori	r22, 0x59	; 89
    6d30:	61 5d       	subi	r22, 0xD1	; 209
    6d32:	5a 57       	subi	r21, 0x7A	; 122
    6d34:	55 54       	subi	r21, 0x45	; 69
    6d36:	53 53       	subi	r21, 0x33	; 51
    6d38:	53 54       	subi	r21, 0x43	; 67
    6d3a:	55 56       	subi	r21, 0x65	; 101
    6d3c:	58 5a       	subi	r21, 0xA8	; 168
    6d3e:	5c 5f       	subi	r21, 0xFC	; 252
    6d40:	61 63       	ori	r22, 0x31	; 49
    6d42:	65 67       	ori	r22, 0x75	; 117
    6d44:	69 6b       	ori	r22, 0xB9	; 185
    6d46:	6d 6f       	ori	r22, 0xFD	; 253
    6d48:	71 73       	andi	r23, 0x31	; 49
    6d4a:	76 78       	andi	r23, 0x86	; 134
    6d4c:	7a 7c       	andi	r23, 0xCA	; 202
    6d4e:	7f 81       	ldd	r23, Y+7	; 0x07
    6d50:	83 86       	std	Z+11, r8	; 0x0b
    6d52:	88 8a       	std	Y+16, r8	; 0x10
    6d54:	8c 8d       	ldd	r24, Y+28	; 0x1c
    6d56:	8e 8f       	std	Y+30, r24	; 0x1e
    6d58:	8f 8f       	std	Y+31, r24	; 0x1f
    6d5a:	8f 8e       	std	Y+31, r8	; 0x1f
    6d5c:	8e 8c       	ldd	r8, Y+30	; 0x1e
    6d5e:	8b 8a       	std	Y+19, r8	; 0x13
    6d60:	88 87       	std	Y+8, r24	; 0x08
    6d62:	85 84       	ldd	r8, Z+13	; 0x0d
    6d64:	82 81       	ldd	r24, Z+2	; 0x02
    6d66:	80 7f       	andi	r24, 0xF0	; 240
    6d68:	7e 7d       	andi	r23, 0xDE	; 222
    6d6a:	7c 7c       	andi	r23, 0xCC	; 204
    6d6c:	7b 7b       	andi	r23, 0xBB	; 187
    6d6e:	7b 7b       	andi	r23, 0xBB	; 187
    6d70:	7b 7c       	andi	r23, 0xCB	; 203
    6d72:	7c 7d       	andi	r23, 0xDC	; 220
    6d74:	7f 80       	ldd	r7, Y+7	; 0x07
    6d76:	82 84       	ldd	r8, Z+10	; 0x0a
    6d78:	86 88       	ldd	r8, Z+22	; 0x16
    6d7a:	8a 8c       	ldd	r8, Y+26	; 0x1a
    6d7c:	8f 90       	pop	r8
    6d7e:	92 93       	st	-Z, r25
    6d80:	94 95       	.word	0x9594	; ????
    6d82:	96 96       	adiw	r26, 0x26	; 38
    6d84:	96 95       	lsr	r25
    6d86:	95 94       	asr	r9
    6d88:	93 92       	.word	0x9293	; ????
    6d8a:	92 91       	ld	r25, -Z
    6d8c:	90 90 8f 8e 	lds	r9, 0x8E8F
    6d90:	8e 8d       	ldd	r24, Y+30	; 0x1e
    6d92:	8c 8b       	std	Y+20, r24	; 0x14
    6d94:	89 87       	std	Y+9, r24	; 0x09
    6d96:	85 83       	std	Z+5, r24	; 0x05
    6d98:	80 7d       	andi	r24, 0xD0	; 208
    6d9a:	7a 76       	andi	r23, 0x6A	; 106
    6d9c:	73 70       	andi	r23, 0x03	; 3
    6d9e:	6d 6b       	ori	r22, 0xBD	; 189
    6da0:	69 67       	ori	r22, 0x79	; 121
    6da2:	66 66       	ori	r22, 0x66	; 102
    6da4:	66 66       	ori	r22, 0x66	; 102
    6da6:	68 69       	ori	r22, 0x98	; 152
    6da8:	6b 6d       	ori	r22, 0xDB	; 219
    6daa:	6f 71       	andi	r22, 0x1F	; 31
    6dac:	73 74       	andi	r23, 0x43	; 67
    6dae:	76 77       	andi	r23, 0x76	; 118
    6db0:	78 78       	andi	r23, 0x88	; 136
    6db2:	79 79       	andi	r23, 0x99	; 153
    6db4:	79 79       	andi	r23, 0x99	; 153
    6db6:	79 79       	andi	r23, 0x99	; 153
    6db8:	79 7a       	andi	r23, 0xA9	; 169
    6dba:	7a 7b       	andi	r23, 0xBA	; 186
    6dbc:	7c 7e       	andi	r23, 0xEC	; 236
    6dbe:	7f 81       	ldd	r23, Y+7	; 0x07
    6dc0:	82 84       	ldd	r8, Z+10	; 0x0a
    6dc2:	86 87       	std	Z+14, r24	; 0x0e
    6dc4:	89 8a       	std	Y+17, r8	; 0x11
    6dc6:	8b 8b       	std	Y+19, r24	; 0x13
    6dc8:	8c 8c       	ldd	r8, Y+28	; 0x1c
    6dca:	8c 8b       	std	Y+20, r24	; 0x14
    6dcc:	8b 8a       	std	Y+19, r8	; 0x13
    6dce:	8a 89       	ldd	r24, Y+18	; 0x12
    6dd0:	88 88       	ldd	r8, Y+16	; 0x10
    6dd2:	87 87       	std	Z+15, r24	; 0x0f
    6dd4:	86 86       	std	Z+14, r8	; 0x0e
    6dd6:	86 86       	std	Z+14, r8	; 0x0e
    6dd8:	86 86       	std	Z+14, r8	; 0x0e
    6dda:	86 86       	std	Z+14, r8	; 0x0e
    6ddc:	87 87       	std	Z+15, r24	; 0x0f
    6dde:	87 87       	std	Z+15, r24	; 0x0f
    6de0:	88 88       	ldd	r8, Y+16	; 0x10
    6de2:	88 88       	ldd	r8, Y+16	; 0x10
    6de4:	88 88       	ldd	r8, Y+16	; 0x10
    6de6:	88 88       	ldd	r8, Y+16	; 0x10
    6de8:	88 88       	ldd	r8, Y+16	; 0x10
    6dea:	88 88       	ldd	r8, Y+16	; 0x10
    6dec:	88 88       	ldd	r8, Y+16	; 0x10
    6dee:	88 88       	ldd	r8, Y+16	; 0x10
    6df0:	88 88       	ldd	r8, Y+16	; 0x10
    6df2:	88 89       	ldd	r24, Y+16	; 0x10
    6df4:	89 89       	ldd	r24, Y+17	; 0x11
    6df6:	8a 8a       	std	Y+18, r8	; 0x12
    6df8:	8a 8b       	std	Y+18, r24	; 0x12
    6dfa:	8b 8a       	std	Y+19, r8	; 0x13
    6dfc:	8a 89       	ldd	r24, Y+18	; 0x12
    6dfe:	88 87       	std	Y+8, r24	; 0x08
    6e00:	85 83       	std	Z+5, r24	; 0x05
    6e02:	81 7f       	andi	r24, 0xF1	; 241
    6e04:	7c 79       	andi	r23, 0x9C	; 156
    6e06:	76 73       	andi	r23, 0x36	; 54
    6e08:	70 6c       	ori	r23, 0xC0	; 192
    6e0a:	6a 67       	ori	r22, 0x7A	; 122
    6e0c:	65 62       	ori	r22, 0x25	; 37
    6e0e:	61 5f       	subi	r22, 0xF1	; 241
    6e10:	5e 5e       	subi	r21, 0xEE	; 238
    6e12:	5e 5e       	subi	r21, 0xEE	; 238
    6e14:	5e 5f       	subi	r21, 0xFE	; 254
    6e16:	60 62       	ori	r22, 0x20	; 32
    6e18:	63 65       	ori	r22, 0x53	; 83
    6e1a:	66 68       	ori	r22, 0x86	; 134
    6e1c:	6a 6c       	ori	r22, 0xCA	; 202
    6e1e:	6e 6f       	ori	r22, 0xFE	; 254
    6e20:	71 73       	andi	r23, 0x31	; 49
    6e22:	75 76       	andi	r23, 0x65	; 101
    6e24:	78 7a       	andi	r23, 0xA8	; 168
    6e26:	7c 7e       	andi	r23, 0xEC	; 236
    6e28:	80 81       	ld	r24, Z
    6e2a:	83 85       	ldd	r24, Z+11	; 0x0b
    6e2c:	87 89       	ldd	r24, Z+23	; 0x17
    6e2e:	8a 8b       	std	Y+18, r24	; 0x12
    6e30:	8d 8e       	std	Y+29, r8	; 0x1d
    6e32:	8e 8f       	std	Y+30, r24	; 0x1e
    6e34:	8f 8f       	std	Y+31, r24	; 0x1f
    6e36:	8e 8e       	std	Y+30, r8	; 0x1e
    6e38:	8d 8b       	std	Y+21, r24	; 0x15
    6e3a:	8a 88       	ldd	r8, Y+18	; 0x12
    6e3c:	86 85       	ldd	r24, Z+14	; 0x0e
    6e3e:	83 81       	ldd	r24, Z+3	; 0x03
    6e40:	7f 7e       	andi	r23, 0xEF	; 239
    6e42:	7c 7b       	andi	r23, 0xBC	; 188
    6e44:	7a 7a       	andi	r23, 0xAA	; 170
    6e46:	7a 7a       	andi	r23, 0xAA	; 170
    6e48:	7a 7a       	andi	r23, 0xAA	; 170
    6e4a:	7b 7c       	andi	r23, 0xCB	; 203
    6e4c:	7d 7f       	andi	r23, 0xFD	; 253
    6e4e:	80 81       	ld	r24, Z
    6e50:	83 84       	ldd	r8, Z+11	; 0x0b
    6e52:	85 87       	std	Z+13, r24	; 0x0d
    6e54:	88 89       	ldd	r24, Y+16	; 0x10
    6e56:	8a 8a       	std	Y+18, r8	; 0x12
    6e58:	8b 8c       	ldd	r8, Y+27	; 0x1b
    6e5a:	8d 8e       	std	Y+29, r8	; 0x1d
    6e5c:	8f 8f       	std	Y+31, r24	; 0x1f
    6e5e:	90 91 92 93 	lds	r25, 0x9392
    6e62:	94 95       	.word	0x9594	; ????
    6e64:	96 97       	sbiw	r26, 0x26	; 38
    6e66:	97 97       	sbiw	r26, 0x27	; 39
    6e68:	97 96       	adiw	r26, 0x27	; 39
    6e6a:	95 93       	las	Z, r25
    6e6c:	92 8f       	std	Z+26, r25	; 0x1a
    6e6e:	8d 8a       	std	Y+21, r8	; 0x15
    6e70:	86 83       	std	Z+6, r24	; 0x06
    6e72:	7f 7c       	andi	r23, 0xCF	; 207
    6e74:	78 75       	andi	r23, 0x58	; 88
    6e76:	72 6f       	ori	r23, 0xF2	; 242
    6e78:	6d 6b       	ori	r22, 0xBD	; 189
    6e7a:	69 68       	ori	r22, 0x89	; 137
    6e7c:	68 67       	ori	r22, 0x78	; 120
    6e7e:	67 67       	ori	r22, 0x77	; 119
    6e80:	68 68       	ori	r22, 0x88	; 136
    6e82:	69 6a       	ori	r22, 0xA9	; 169
    6e84:	6b 6c       	ori	r22, 0xCB	; 203
    6e86:	6c 6d       	ori	r22, 0xDC	; 220
    6e88:	6e 6f       	ori	r22, 0xFE	; 254
    6e8a:	70 71       	andi	r23, 0x10	; 16
    6e8c:	72 73       	andi	r23, 0x32	; 50
    6e8e:	74 75       	andi	r23, 0x54	; 84
    6e90:	76 77       	andi	r23, 0x76	; 118
    6e92:	78 79       	andi	r23, 0x98	; 152
    6e94:	7b 7c       	andi	r23, 0xCB	; 203
    6e96:	7d 7f       	andi	r23, 0xFD	; 253
    6e98:	80 81       	ld	r24, Z
    6e9a:	82 83       	std	Z+2, r24	; 0x02
    6e9c:	84 84       	ldd	r8, Z+12	; 0x0c
    6e9e:	85 86       	std	Z+13, r8	; 0x0d
    6ea0:	86 86       	std	Z+14, r8	; 0x0e
    6ea2:	86 86       	std	Z+14, r8	; 0x0e
    6ea4:	86 86       	std	Z+14, r8	; 0x0e
    6ea6:	86 86       	std	Z+14, r8	; 0x0e
    6ea8:	85 85       	ldd	r24, Z+13	; 0x0d
    6eaa:	84 84       	ldd	r8, Z+12	; 0x0c
    6eac:	83 83       	std	Z+3, r24	; 0x03
    6eae:	82 82       	std	Z+2, r8	; 0x02
    6eb0:	82 82       	std	Z+2, r8	; 0x02
    6eb2:	83 83       	std	Z+3, r24	; 0x03
    6eb4:	84 85       	ldd	r24, Z+12	; 0x0c
    6eb6:	87 88       	ldd	r8, Z+23	; 0x17
    6eb8:	89 8b       	std	Y+17, r24	; 0x11
    6eba:	8d 8e       	std	Y+29, r8	; 0x1d
    6ebc:	90 91 92 93 	lds	r25, 0x9392
    6ec0:	93 93       	.word	0x9393	; ????
    6ec2:	93 93       	.word	0x9393	; ????
    6ec4:	92 92       	st	-Z, r9
    6ec6:	91 90       	ld	r9, Z+
    6ec8:	8f 8f       	std	Y+31, r24	; 0x1f
    6eca:	8e 8e       	std	Y+30, r8	; 0x1e
    6ecc:	8d 8d       	ldd	r24, Y+29	; 0x1d
    6ece:	8d 8d       	ldd	r24, Y+29	; 0x1d
    6ed0:	8d 8e       	std	Y+29, r8	; 0x1d
    6ed2:	8d 8d       	ldd	r24, Y+29	; 0x1d
    6ed4:	8d 8c       	ldd	r8, Y+29	; 0x1d
    6ed6:	8b 8a       	std	Y+19, r8	; 0x13
    6ed8:	88 86       	std	Y+8, r8	; 0x08
    6eda:	84 81       	ldd	r24, Z+4	; 0x04
    6edc:	7e 7b       	andi	r23, 0xBE	; 190
    6ede:	78 75       	andi	r23, 0x58	; 88
    6ee0:	73 70       	andi	r23, 0x03	; 3
    6ee2:	6e 6c       	ori	r22, 0xCE	; 206
    6ee4:	6a 69       	ori	r22, 0x9A	; 154
    6ee6:	68 68       	ori	r22, 0x88	; 136
    6ee8:	67 67       	ori	r22, 0x77	; 119
    6eea:	68 68       	ori	r22, 0x88	; 136
    6eec:	69 69       	ori	r22, 0x99	; 153
    6eee:	6a 6b       	ori	r22, 0xBA	; 186
    6ef0:	6b 6c       	ori	r22, 0xCB	; 203
    6ef2:	6d 6d       	ori	r22, 0xDD	; 221
    6ef4:	6e 6e       	ori	r22, 0xEE	; 238
    6ef6:	6f 70       	andi	r22, 0x0F	; 15
    6ef8:	70 71       	andi	r23, 0x10	; 16
    6efa:	72 73       	andi	r23, 0x32	; 50
    6efc:	74 75       	andi	r23, 0x54	; 84
    6efe:	77 78       	andi	r23, 0x87	; 135
    6f00:	7a 7b       	andi	r23, 0xBA	; 186
    6f02:	7d 7e       	andi	r23, 0xED	; 237
    6f04:	80 81       	ld	r24, Z
    6f06:	82 83       	std	Z+2, r24	; 0x02
    6f08:	84 85       	ldd	r24, Z+12	; 0x0c
    6f0a:	86 86       	std	Z+14, r8	; 0x0e
    6f0c:	87 87       	std	Z+15, r24	; 0x0f
    6f0e:	86 86       	std	Z+14, r8	; 0x0e
    6f10:	86 85       	ldd	r24, Z+14	; 0x0e
    6f12:	84 83       	std	Z+4, r24	; 0x04
    6f14:	82 80       	ldd	r8, Z+2	; 0x02
    6f16:	7f 7e       	andi	r23, 0xEF	; 239
    6f18:	7c 7b       	andi	r23, 0xBC	; 188
    6f1a:	7a 79       	andi	r23, 0x9A	; 154
    6f1c:	78 77       	andi	r23, 0x78	; 120
    6f1e:	76 76       	andi	r23, 0x66	; 102
    6f20:	76 76       	andi	r23, 0x66	; 102
    6f22:	76 77       	andi	r23, 0x76	; 118
    6f24:	77 78       	andi	r23, 0x87	; 135
    6f26:	79 7a       	andi	r23, 0xA9	; 169
    6f28:	7c 7d       	andi	r23, 0xDC	; 220
    6f2a:	7e 7f       	andi	r23, 0xFE	; 254
    6f2c:	81 82       	std	Z+1, r8	; 0x01
    6f2e:	83 84       	ldd	r8, Z+11	; 0x0b
    6f30:	85 86       	std	Z+13, r8	; 0x0d
    6f32:	87 88       	ldd	r8, Z+23	; 0x17
    6f34:	89 8a       	std	Y+17, r8	; 0x11
    6f36:	8b 8c       	ldd	r8, Y+27	; 0x1b
    6f38:	8d 8e       	std	Y+29, r8	; 0x1d
    6f3a:	8f 90       	pop	r8
    6f3c:	91 92       	st	Z+, r9
    6f3e:	93 94       	inc	r9
    6f40:	94 94       	.word	0x9494	; ????
    6f42:	94 94       	.word	0x9494	; ????
    6f44:	93 92       	.word	0x9293	; ????
    6f46:	91 8f       	std	Z+25, r25	; 0x19
    6f48:	8d 8b       	std	Y+21, r24	; 0x15
    6f4a:	88 85       	ldd	r24, Y+8	; 0x08
    6f4c:	82 7f       	andi	r24, 0xF2	; 242
    6f4e:	7c 79       	andi	r23, 0x9C	; 156
    6f50:	77 74       	andi	r23, 0x47	; 71
    6f52:	72 70       	andi	r23, 0x02	; 2
    6f54:	6f 6d       	ori	r22, 0xDF	; 223
    6f56:	6d 6c       	ori	r22, 0xCD	; 205
    6f58:	6c 6c       	ori	r22, 0xCC	; 204
    6f5a:	6c 6d       	ori	r22, 0xDC	; 220
    6f5c:	6d 6e       	ori	r22, 0xED	; 237
    6f5e:	6f 70       	andi	r22, 0x0F	; 15
    6f60:	70 71       	andi	r23, 0x10	; 16
    6f62:	71 72       	andi	r23, 0x21	; 33
    6f64:	73 73       	andi	r23, 0x33	; 51
    6f66:	74 74       	andi	r23, 0x44	; 68
    6f68:	75 76       	andi	r23, 0x65	; 101
    6f6a:	77 78       	andi	r23, 0x87	; 135
    6f6c:	79 7b       	andi	r23, 0xB9	; 185
    6f6e:	7c 7e       	andi	r23, 0xEC	; 236
    6f70:	80 82       	st	Z, r8
    6f72:	84 85       	ldd	r24, Z+12	; 0x0c
    6f74:	87 88       	ldd	r8, Z+23	; 0x17
    6f76:	8a 8a       	std	Y+18, r8	; 0x12
    6f78:	8b 8b       	std	Y+19, r24	; 0x13
    6f7a:	8b 8b       	std	Y+19, r24	; 0x13
    6f7c:	8a 89       	ldd	r24, Y+18	; 0x12
    6f7e:	88 87       	std	Y+8, r24	; 0x08
    6f80:	85 84       	ldd	r8, Z+13	; 0x0d
    6f82:	83 81       	ldd	r24, Z+3	; 0x03
    6f84:	80 80       	ld	r8, Z
    6f86:	7f 7e       	andi	r23, 0xEF	; 239
    6f88:	7e 7e       	andi	r23, 0xEE	; 238
    6f8a:	7f 7f       	andi	r23, 0xFF	; 255
    6f8c:	80 80       	ld	r8, Z
    6f8e:	81 82       	std	Z+1, r8	; 0x01
    6f90:	83 85       	ldd	r24, Z+11	; 0x0b
    6f92:	86 87       	std	Z+14, r24	; 0x0e
    6f94:	88 89       	ldd	r24, Y+16	; 0x10
    6f96:	8a 8b       	std	Y+18, r24	; 0x12
    6f98:	8c 8d       	ldd	r24, Y+28	; 0x1c
    6f9a:	8e 8f       	std	Y+30, r24	; 0x1e
    6f9c:	8f 90       	pop	r8
    6f9e:	91 91       	ld	r25, Z+
    6fa0:	92 92       	st	-Z, r9
    6fa2:	93 93       	.word	0x9393	; ????
    6fa4:	93 94       	inc	r9
    6fa6:	94 94       	.word	0x9494	; ????
    6fa8:	93 93       	.word	0x9393	; ????
    6faa:	93 92       	.word	0x9293	; ????
    6fac:	91 90       	ld	r9, Z+
    6fae:	8f 8e       	std	Y+31, r8	; 0x1f
    6fb0:	8c 8a       	std	Y+20, r8	; 0x14
    6fb2:	88 85       	ldd	r24, Y+8	; 0x08
    6fb4:	82 80       	ldd	r8, Z+2	; 0x02
    6fb6:	7d 79       	andi	r23, 0x9D	; 157
    6fb8:	76 73       	andi	r23, 0x36	; 54
    6fba:	70 6d       	ori	r23, 0xD0	; 208
    6fbc:	6b 68       	ori	r22, 0x8B	; 139
    6fbe:	66 64       	ori	r22, 0x46	; 70
    6fc0:	63 62       	ori	r22, 0x23	; 35
    6fc2:	61 61       	ori	r22, 0x11	; 17
    6fc4:	61 61       	ori	r22, 0x11	; 17
    6fc6:	61 62       	ori	r22, 0x21	; 33
    6fc8:	63 65       	ori	r22, 0x53	; 83
    6fca:	66 67       	ori	r22, 0x76	; 118
    6fcc:	69 6a       	ori	r22, 0xA9	; 169
    6fce:	6b 6c       	ori	r22, 0xCB	; 203
    6fd0:	6e 6f       	ori	r22, 0xFE	; 254
    6fd2:	70 71       	andi	r23, 0x10	; 16
    6fd4:	72 73       	andi	r23, 0x32	; 50
    6fd6:	74 76       	andi	r23, 0x64	; 100
    6fd8:	77 78       	andi	r23, 0x87	; 135
    6fda:	7a 7b       	andi	r23, 0xBA	; 186
    6fdc:	7d 7f       	andi	r23, 0xFD	; 253
    6fde:	80 82       	st	Z, r8
    6fe0:	84 85       	ldd	r24, Z+12	; 0x0c
    6fe2:	87 88       	ldd	r8, Z+23	; 0x17
    6fe4:	89 89       	ldd	r24, Y+17	; 0x11
    6fe6:	8a 8a       	std	Y+18, r8	; 0x12
    6fe8:	8a 89       	ldd	r24, Y+18	; 0x12
    6fea:	88 87       	std	Y+8, r24	; 0x08
    6fec:	86 85       	ldd	r24, Z+14	; 0x0e
    6fee:	83 82       	std	Z+3, r8	; 0x03
    6ff0:	80 7f       	andi	r24, 0xF0	; 240
    6ff2:	7d 7c       	andi	r23, 0xCD	; 205
    6ff4:	7b 7b       	andi	r23, 0xBB	; 187
    6ff6:	7a 7a       	andi	r23, 0xAA	; 170
    6ff8:	7a 7b       	andi	r23, 0xBA	; 186
    6ffa:	7b 7c       	andi	r23, 0xCB	; 203
    6ffc:	7d 7e       	andi	r23, 0xED	; 237
    6ffe:	7f 80       	ldd	r7, Y+7	; 0x07
    7000:	81 82       	std	Z+1, r8	; 0x01
    7002:	83 84       	ldd	r8, Z+11	; 0x0b
    7004:	84 85       	ldd	r24, Z+12	; 0x0c
    7006:	85 85       	ldd	r24, Z+13	; 0x0d
    7008:	85 85       	ldd	r24, Z+13	; 0x0d
    700a:	85 85       	ldd	r24, Z+13	; 0x0d
    700c:	85 85       	ldd	r24, Z+13	; 0x0d
    700e:	85 85       	ldd	r24, Z+13	; 0x0d
    7010:	86 87       	std	Z+14, r24	; 0x0e
    7012:	87 88       	ldd	r8, Z+23	; 0x17
    7014:	89 8a       	std	Y+17, r8	; 0x11
    7016:	8b 8c       	ldd	r8, Y+27	; 0x1b
    7018:	8d 8e       	std	Y+29, r8	; 0x1d
    701a:	8e 8e       	std	Y+30, r8	; 0x1e
    701c:	8e 8d       	ldd	r24, Y+30	; 0x1e
    701e:	8d 8b       	std	Y+21, r24	; 0x15
    7020:	8a 88       	ldd	r8, Y+18	; 0x12
    7022:	86 84       	ldd	r8, Z+14	; 0x0e
    7024:	81 7f       	andi	r24, 0xF1	; 241
    7026:	7c 7a       	andi	r23, 0xAC	; 172
    7028:	78 76       	andi	r23, 0x68	; 104
    702a:	74 72       	andi	r23, 0x24	; 36
    702c:	71 70       	andi	r23, 0x01	; 1
    702e:	6f 6f       	ori	r22, 0xFF	; 255
    7030:	6f 6f       	ori	r22, 0xFF	; 255
    7032:	6f 70       	andi	r22, 0x0F	; 15
    7034:	70 71       	andi	r23, 0x10	; 16
    7036:	72 73       	andi	r23, 0x32	; 50
    7038:	74 75       	andi	r23, 0x54	; 84
    703a:	75 76       	andi	r23, 0x65	; 101
    703c:	77 77       	andi	r23, 0x77	; 119
    703e:	78 79       	andi	r23, 0x98	; 152
    7040:	79 7a       	andi	r23, 0xA9	; 169
    7042:	7b 7b       	andi	r23, 0xBB	; 187
    7044:	7c 7d       	andi	r23, 0xDC	; 220
    7046:	7f 80       	ldd	r7, Y+7	; 0x07
    7048:	81 83       	std	Z+1, r24	; 0x01
    704a:	84 86       	std	Z+12, r8	; 0x0c
    704c:	88 89       	ldd	r24, Y+16	; 0x10
    704e:	8b 8c       	ldd	r8, Y+27	; 0x1b
    7050:	8d 8e       	std	Y+29, r8	; 0x1d
    7052:	8f 8f       	std	Y+31, r24	; 0x1f
    7054:	8f 8e       	std	Y+31, r8	; 0x1f
    7056:	8e 8d       	ldd	r24, Y+30	; 0x1e
    7058:	8c 8a       	std	Y+20, r8	; 0x14
    705a:	88 87       	std	Y+8, r24	; 0x08
    705c:	85 83       	std	Z+5, r24	; 0x05
    705e:	81 7f       	andi	r24, 0xF1	; 241
    7060:	7e 7d       	andi	r23, 0xDE	; 222
    7062:	7c 7b       	andi	r23, 0xBC	; 188
    7064:	7b 7b       	andi	r23, 0xBB	; 187
    7066:	7c 7d       	andi	r23, 0xDC	; 220
    7068:	7e 7f       	andi	r23, 0xFE	; 254
    706a:	81 83       	std	Z+1, r24	; 0x01
    706c:	84 86       	std	Z+12, r8	; 0x0c
    706e:	88 89       	ldd	r24, Y+16	; 0x10
    7070:	8b 8c       	ldd	r8, Y+27	; 0x1b
    7072:	8d 8d       	ldd	r24, Y+29	; 0x1d
    7074:	8e 8e       	std	Y+30, r8	; 0x1e
    7076:	8e 8e       	std	Y+30, r8	; 0x1e
    7078:	8e 8e       	std	Y+30, r8	; 0x1e
    707a:	8e 8e       	std	Y+30, r8	; 0x1e
    707c:	8e 8e       	std	Y+30, r8	; 0x1e
    707e:	8e 8f       	std	Y+30, r24	; 0x1e
    7080:	8f 90       	pop	r8
    7082:	91 92       	st	Z+, r9
    7084:	93 93       	.word	0x9393	; ????
    7086:	93 93       	.word	0x9393	; ????
    7088:	93 92       	.word	0x9293	; ????
    708a:	91 8f       	std	Z+25, r25	; 0x19
    708c:	8d 8a       	std	Y+21, r8	; 0x15
    708e:	87 83       	std	Z+7, r24	; 0x07
    7090:	7f 7b       	andi	r23, 0xBF	; 191
    7092:	77 73       	andi	r23, 0x37	; 55
    7094:	70 6c       	ori	r23, 0xC0	; 192
    7096:	69 67       	ori	r22, 0x79	; 121
    7098:	64 63       	ori	r22, 0x34	; 52
    709a:	62 61       	ori	r22, 0x12	; 18
    709c:	61 61       	ori	r22, 0x11	; 17
    709e:	62 63       	ori	r22, 0x32	; 50
    70a0:	64 66       	ori	r22, 0x64	; 100
    70a2:	67 69       	ori	r22, 0x97	; 151
    70a4:	6a 6b       	ori	r22, 0xBA	; 186
    70a6:	6c 6d       	ori	r22, 0xDC	; 220
    70a8:	6e 6f       	ori	r22, 0xFE	; 254
    70aa:	70 70       	andi	r23, 0x00	; 0
    70ac:	71 72       	andi	r23, 0x21	; 33
    70ae:	72 73       	andi	r23, 0x32	; 50
    70b0:	74 75       	andi	r23, 0x54	; 84
    70b2:	77 78       	andi	r23, 0x87	; 135
    70b4:	7a 7c       	andi	r23, 0xCA	; 202
    70b6:	7d 7f       	andi	r23, 0xFD	; 253
    70b8:	81 82       	std	Z+1, r8	; 0x01
    70ba:	84 85       	ldd	r24, Z+12	; 0x0c
    70bc:	86 87       	std	Z+14, r24	; 0x0e
    70be:	87 87       	std	Z+15, r24	; 0x0f
    70c0:	87 87       	std	Z+15, r24	; 0x0f
    70c2:	86 85       	ldd	r24, Z+14	; 0x0e
    70c4:	84 82       	std	Z+4, r8	; 0x04
    70c6:	81 7f       	andi	r24, 0xF1	; 241
    70c8:	7e 7c       	andi	r23, 0xCE	; 206
    70ca:	7b 79       	andi	r23, 0x9B	; 155
    70cc:	79 78       	andi	r23, 0x89	; 137
    70ce:	77 77       	andi	r23, 0x77	; 119
    70d0:	78 78       	andi	r23, 0x88	; 136
    70d2:	79 7b       	andi	r23, 0xB9	; 185
    70d4:	7c 7e       	andi	r23, 0xEC	; 236
    70d6:	81 83       	std	Z+1, r24	; 0x01
    70d8:	85 87       	std	Z+13, r24	; 0x0d
    70da:	8a 8c       	ldd	r8, Y+26	; 0x1a
    70dc:	8d 8f       	std	Y+29, r24	; 0x1d
    70de:	90 91 92 92 	lds	r25, 0x9292
    70e2:	92 91       	ld	r25, -Z
    70e4:	91 90       	ld	r9, Z+
    70e6:	90 8f       	std	Z+24, r25	; 0x18
    70e8:	8f 8e       	std	Y+31, r8	; 0x1f
    70ea:	8e 8e       	std	Y+30, r8	; 0x1e
    70ec:	8e 8f       	std	Y+30, r24	; 0x1e
    70ee:	8f 90       	pop	r8
    70f0:	91 91       	ld	r25, Z+
    70f2:	92 92       	st	-Z, r9
    70f4:	92 92       	st	-Z, r9
    70f6:	92 91       	ld	r25, -Z
    70f8:	8f 8e       	std	Y+31, r8	; 0x1f
    70fa:	8b 89       	ldd	r24, Y+19	; 0x13
    70fc:	86 83       	std	Z+6, r24	; 0x06
    70fe:	80 7d       	andi	r24, 0xD0	; 208
    7100:	79 77       	andi	r23, 0x79	; 121
    7102:	74 72       	andi	r23, 0x24	; 36
    7104:	70 6f       	ori	r23, 0xF0	; 240
    7106:	6e 6d       	ori	r22, 0xDE	; 222
    7108:	6d 6e       	ori	r22, 0xED	; 237
    710a:	6e 6f       	ori	r22, 0xFE	; 254
    710c:	70 71       	andi	r23, 0x10	; 16
    710e:	72 73       	andi	r23, 0x32	; 50
    7110:	73 74       	andi	r23, 0x43	; 67
    7112:	74 75       	andi	r23, 0x54	; 84
    7114:	75 75       	andi	r23, 0x55	; 85
    7116:	74 74       	andi	r23, 0x44	; 68
    7118:	74 73       	andi	r23, 0x34	; 52
    711a:	73 73       	andi	r23, 0x33	; 51
    711c:	73 73       	andi	r23, 0x33	; 51
    711e:	74 75       	andi	r23, 0x54	; 84
    7120:	76 77       	andi	r23, 0x76	; 118
    7122:	78 7a       	andi	r23, 0xA8	; 168
    7124:	7c 7d       	andi	r23, 0xDC	; 220
    7126:	7f 81       	ldd	r23, Y+7	; 0x07
    7128:	82 84       	ldd	r8, Z+10	; 0x0a
    712a:	85 86       	std	Z+13, r8	; 0x0d
    712c:	87 87       	std	Z+15, r24	; 0x0f
    712e:	87 86       	std	Z+15, r8	; 0x0f
    7130:	86 85       	ldd	r24, Z+14	; 0x0e
    7132:	84 82       	std	Z+4, r8	; 0x04
    7134:	81 80       	ldd	r8, Z+1	; 0x01
    7136:	7e 7d       	andi	r23, 0xDE	; 222
    7138:	7c 7b       	andi	r23, 0xBC	; 188
    713a:	7b 7a       	andi	r23, 0xAB	; 171
    713c:	7a 7b       	andi	r23, 0xBA	; 186
    713e:	7b 7c       	andi	r23, 0xCB	; 203
    7140:	7e 7f       	andi	r23, 0xFE	; 254
    7142:	80 82       	st	Z, r8
    7144:	84 85       	ldd	r24, Z+12	; 0x0c
    7146:	87 88       	ldd	r8, Z+23	; 0x17
    7148:	8a 8b       	std	Y+18, r24	; 0x12
    714a:	8b 8c       	ldd	r8, Y+27	; 0x1b
    714c:	8c 8c       	ldd	r8, Y+28	; 0x1c
    714e:	8c 8c       	ldd	r8, Y+28	; 0x1c
    7150:	8c 8c       	ldd	r8, Y+28	; 0x1c
    7152:	8c 8c       	ldd	r8, Y+28	; 0x1c
    7154:	8c 8c       	ldd	r8, Y+28	; 0x1c
    7156:	8d 8d       	ldd	r24, Y+29	; 0x1d
    7158:	8e 8f       	std	Y+30, r24	; 0x1e
    715a:	90 91 92 93 	lds	r25, 0x9392
    715e:	93 94       	inc	r9
    7160:	94 94       	.word	0x9494	; ????
    7162:	93 92       	.word	0x9293	; ????
    7164:	91 8f       	std	Z+25, r25	; 0x19
    7166:	8d 8a       	std	Y+21, r8	; 0x15
    7168:	87 84       	ldd	r8, Z+15	; 0x0f
    716a:	81 7e       	andi	r24, 0xE1	; 225
    716c:	7b 78       	andi	r23, 0x8B	; 139
    716e:	75 72       	andi	r23, 0x25	; 37
    7170:	70 6e       	ori	r23, 0xE0	; 224
    7172:	6c 6a       	ori	r22, 0xAC	; 172
    7174:	69 69       	ori	r22, 0x99	; 153
    7176:	68 68       	ori	r22, 0x88	; 136
    7178:	68 69       	ori	r22, 0x98	; 152
    717a:	69 6a       	ori	r22, 0xA9	; 169
    717c:	6b 6b       	ori	r22, 0xBB	; 187
    717e:	6c 6d       	ori	r22, 0xDC	; 220
    7180:	6d 6e       	ori	r22, 0xED	; 237
    7182:	6e 6f       	ori	r22, 0xFE	; 254
    7184:	6f 70       	andi	r22, 0x0F	; 15
    7186:	70 71       	andi	r23, 0x10	; 16
    7188:	71 72       	andi	r23, 0x21	; 33
    718a:	73 74       	andi	r23, 0x43	; 67
    718c:	75 77       	andi	r23, 0x75	; 117
    718e:	78 7a       	andi	r23, 0xA8	; 168
    7190:	7c 7e       	andi	r23, 0xEC	; 236
    7192:	7f 81       	ldd	r23, Y+7	; 0x07
    7194:	83 84       	ldd	r8, Z+11	; 0x0b
    7196:	86 87       	std	Z+14, r24	; 0x0e
    7198:	87 88       	ldd	r8, Z+23	; 0x17
    719a:	88 87       	std	Y+8, r24	; 0x08
    719c:	87 86       	std	Z+15, r8	; 0x0f
    719e:	85 83       	std	Z+5, r24	; 0x05
    71a0:	82 80       	ldd	r8, Z+2	; 0x02
    71a2:	7f 7d       	andi	r23, 0xDF	; 223
    71a4:	7c 7b       	andi	r23, 0xBC	; 188
    71a6:	7a 79       	andi	r23, 0x9A	; 154
    71a8:	79 78       	andi	r23, 0x89	; 137
    71aa:	79 79       	andi	r23, 0x99	; 153
    71ac:	7a 7b       	andi	r23, 0xBA	; 186
    71ae:	7c 7d       	andi	r23, 0xDC	; 220
    71b0:	7f 80       	ldd	r7, Y+7	; 0x07
    71b2:	81 83       	std	Z+1, r24	; 0x01
    71b4:	84 86       	std	Z+12, r8	; 0x0c
    71b6:	87 88       	ldd	r8, Z+23	; 0x17
    71b8:	89 89       	ldd	r24, Y+17	; 0x11
    71ba:	8a 8a       	std	Y+18, r8	; 0x12
    71bc:	8b 8b       	std	Y+19, r24	; 0x13
    71be:	8b 8c       	ldd	r8, Y+27	; 0x1b
    71c0:	8c 8c       	ldd	r8, Y+28	; 0x1c
    71c2:	8c 8d       	ldd	r24, Y+28	; 0x1c
    71c4:	8d 8e       	std	Y+29, r8	; 0x1d
    71c6:	8e 8f       	std	Y+30, r24	; 0x1e
    71c8:	90 90 91 91 	lds	r9, 0x9191
    71cc:	91 92       	st	Z+, r9
    71ce:	91 91       	ld	r25, Z+
    71d0:	90 8f       	std	Z+24, r25	; 0x18
    71d2:	8d 8c       	ldd	r8, Y+29	; 0x1d
    71d4:	89 87       	std	Y+9, r24	; 0x09
    71d6:	84 81       	ldd	r24, Z+4	; 0x04
    71d8:	7e 7b       	andi	r23, 0xBE	; 190
    71da:	78 75       	andi	r23, 0x58	; 88
    71dc:	73 70       	andi	r23, 0x03	; 3
    71de:	6e 6c       	ori	r22, 0xCE	; 206
    71e0:	6b 6a       	ori	r22, 0xAB	; 171
    71e2:	6a 6a       	ori	r22, 0xAA	; 170
    71e4:	6a 6b       	ori	r22, 0xBA	; 186
    71e6:	6c 6d       	ori	r22, 0xDC	; 220
    71e8:	6e 6f       	ori	r22, 0xFE	; 254
    71ea:	71 72       	andi	r23, 0x21	; 33
    71ec:	73 73       	andi	r23, 0x33	; 51
    71ee:	74 74       	andi	r23, 0x44	; 68
    71f0:	75 75       	andi	r23, 0x55	; 85
    71f2:	75 75       	andi	r23, 0x55	; 85
    71f4:	75 75       	andi	r23, 0x55	; 85
    71f6:	75 76       	andi	r23, 0x65	; 101
    71f8:	76 77       	andi	r23, 0x76	; 118
    71fa:	78 7a       	andi	r23, 0xA8	; 168
    71fc:	7b 7d       	andi	r23, 0xDB	; 219
    71fe:	7e 80       	ldd	r7, Y+6	; 0x06
    7200:	81 83       	std	Z+1, r24	; 0x01
    7202:	84 85       	ldd	r24, Z+12	; 0x0c
    7204:	86 86       	std	Z+14, r8	; 0x0e
    7206:	86 86       	std	Z+14, r8	; 0x0e
    7208:	85 85       	ldd	r24, Z+13	; 0x0d
    720a:	84 83       	std	Z+4, r24	; 0x04
    720c:	82 80       	ldd	r8, Z+2	; 0x02
    720e:	7f 7e       	andi	r23, 0xEF	; 239
    7210:	7d 7d       	andi	r23, 0xDD	; 221
    7212:	7c 7c       	andi	r23, 0xCC	; 204
    7214:	7c 7c       	andi	r23, 0xCC	; 204
    7216:	7d 7e       	andi	r23, 0xED	; 237
    7218:	7f 80       	ldd	r7, Y+7	; 0x07
    721a:	82 83       	std	Z+2, r24	; 0x02
    721c:	85 87       	std	Z+13, r24	; 0x0d
    721e:	88 8a       	std	Y+16, r8	; 0x10
    7220:	8c 8d       	ldd	r24, Y+28	; 0x1c
    7222:	8e 90       	ld	r8, -X
    7224:	90 91 92 92 	lds	r25, 0x9292
    7228:	92 92       	st	-Z, r9
    722a:	91 91       	ld	r25, Z+
    722c:	90 90 8f 8f 	lds	r9, 0x8F8F
    7230:	8e 8e       	std	Y+30, r8	; 0x1e
    7232:	8d 8d       	ldd	r24, Y+29	; 0x1d
    7234:	8d 8d       	ldd	r24, Y+29	; 0x1d
    7236:	8d 8d       	ldd	r24, Y+29	; 0x1d
    7238:	8d 8d       	ldd	r24, Y+29	; 0x1d
    723a:	8d 8d       	ldd	r24, Y+29	; 0x1d
    723c:	8c 8b       	std	Y+20, r24	; 0x14
    723e:	8a 89       	ldd	r24, Y+18	; 0x12
    7240:	87 85       	ldd	r24, Z+15	; 0x0f
    7242:	82 80       	ldd	r8, Z+2	; 0x02
    7244:	7d 7a       	andi	r23, 0xAD	; 173
    7246:	77 75       	andi	r23, 0x57	; 87
    7248:	72 70       	andi	r23, 0x02	; 2
    724a:	6e 6c       	ori	r22, 0xCE	; 206
    724c:	6b 6b       	ori	r22, 0xBB	; 187
    724e:	6a 6a       	ori	r22, 0xAA	; 170
    7250:	6b 6c       	ori	r22, 0xCB	; 203
    7252:	6d 6e       	ori	r22, 0xED	; 237
    7254:	6f 70       	andi	r22, 0x0F	; 15
    7256:	71 72       	andi	r23, 0x21	; 33
    7258:	73 73       	andi	r23, 0x33	; 51
    725a:	74 74       	andi	r23, 0x44	; 68
    725c:	74 73       	andi	r23, 0x34	; 52
    725e:	73 73       	andi	r23, 0x33	; 51
    7260:	72 72       	andi	r23, 0x22	; 34
    7262:	72 72       	andi	r23, 0x22	; 34
    7264:	73 73       	andi	r23, 0x33	; 51
    7266:	74 75       	andi	r23, 0x54	; 84
    7268:	77 78       	andi	r23, 0x87	; 135
    726a:	7a 7b       	andi	r23, 0xBA	; 186
    726c:	7d 7f       	andi	r23, 0xFD	; 253
    726e:	80 81       	ld	r24, Z
    7270:	82 83       	std	Z+2, r24	; 0x02
    7272:	84 84       	ldd	r8, Z+12	; 0x0c
    7274:	84 83       	std	Z+4, r24	; 0x04
    7276:	83 82       	std	Z+3, r8	; 0x03
    7278:	81 80       	ldd	r8, Z+1	; 0x01
    727a:	7f 7e       	andi	r23, 0xEF	; 239
    727c:	7d 7c       	andi	r23, 0xCD	; 205
    727e:	7b 7a       	andi	r23, 0xAB	; 171
    7280:	79 78       	andi	r23, 0x89	; 137
    7282:	77 77       	andi	r23, 0x77	; 119
    7284:	77 77       	andi	r23, 0x77	; 119
    7286:	77 78       	andi	r23, 0x87	; 135
    7288:	78 79       	andi	r23, 0x98	; 152
    728a:	7a 7b       	andi	r23, 0xBA	; 186
    728c:	7c 7e       	andi	r23, 0xEC	; 236
    728e:	7f 80       	ldd	r7, Y+7	; 0x07
    7290:	81 82       	std	Z+1, r8	; 0x01
    7292:	83 84       	ldd	r8, Z+11	; 0x0b
    7294:	84 85       	ldd	r24, Z+12	; 0x0c
    7296:	85 85       	ldd	r24, Z+13	; 0x0d
    7298:	85 86       	std	Z+13, r8	; 0x0d
    729a:	86 86       	std	Z+14, r8	; 0x0e
    729c:	87 87       	std	Z+15, r24	; 0x0f
    729e:	88 89       	ldd	r24, Y+16	; 0x10
    72a0:	8b 8c       	ldd	r8, Y+27	; 0x1b
    72a2:	8e 8f       	std	Y+30, r24	; 0x1e
    72a4:	91 93       	st	Z+, r25
    72a6:	94 95       	.word	0x9594	; ????
    72a8:	96 96       	adiw	r26, 0x26	; 38
    72aa:	96 95       	lsr	r25
    72ac:	94 92       	xch	Z, r9
    72ae:	90 8e       	std	Z+24, r9	; 0x18
    72b0:	8b 88       	ldd	r8, Y+19	; 0x13
    72b2:	84 81       	ldd	r24, Z+4	; 0x04
    72b4:	7e 7b       	andi	r23, 0xBE	; 190
    72b6:	78 76       	andi	r23, 0x68	; 104
    72b8:	74 73       	andi	r23, 0x34	; 52
    72ba:	72 72       	andi	r23, 0x22	; 34
    72bc:	72 72       	andi	r23, 0x22	; 34
    72be:	72 73       	andi	r23, 0x32	; 50
    72c0:	74 75       	andi	r23, 0x54	; 84
    72c2:	75 76       	andi	r23, 0x65	; 101
    72c4:	77 77       	andi	r23, 0x77	; 119
    72c6:	77 77       	andi	r23, 0x77	; 119
    72c8:	77 77       	andi	r23, 0x77	; 119
    72ca:	76 76       	andi	r23, 0x66	; 102
    72cc:	76 76       	andi	r23, 0x66	; 102
    72ce:	76 76       	andi	r23, 0x66	; 102
    72d0:	76 77       	andi	r23, 0x76	; 118
    72d2:	78 79       	andi	r23, 0x98	; 152
    72d4:	7a 7b       	andi	r23, 0xBA	; 186
    72d6:	7c 7d       	andi	r23, 0xDC	; 220
    72d8:	7e 80       	ldd	r7, Y+6	; 0x06
    72da:	80 81       	ld	r24, Z
    72dc:	82 82       	std	Z+2, r8	; 0x02
    72de:	82 82       	std	Z+2, r8	; 0x02
    72e0:	82 82       	std	Z+2, r8	; 0x02
    72e2:	81 80       	ldd	r8, Z+1	; 0x01
    72e4:	7f 7e       	andi	r23, 0xEF	; 239
    72e6:	7e 7d       	andi	r23, 0xDE	; 222
    72e8:	7c 7b       	andi	r23, 0xBC	; 188
    72ea:	7a 7a       	andi	r23, 0xAA	; 170
    72ec:	79 79       	andi	r23, 0x99	; 153
    72ee:	79 79       	andi	r23, 0x99	; 153
    72f0:	7a 7a       	andi	r23, 0xAA	; 170
    72f2:	7b 7c       	andi	r23, 0xCB	; 203
    72f4:	7e 7f       	andi	r23, 0xFE	; 254
    72f6:	81 83       	std	Z+1, r24	; 0x01
    72f8:	85 86       	std	Z+13, r8	; 0x0d
    72fa:	88 8a       	std	Y+16, r8	; 0x10
    72fc:	8c 8e       	std	Y+28, r8	; 0x1c
    72fe:	8f 90       	pop	r8
    7300:	91 92       	st	Z+, r9
    7302:	93 93       	.word	0x9393	; ????
    7304:	94 94       	.word	0x9494	; ????
    7306:	94 94       	.word	0x9494	; ????
    7308:	94 94       	.word	0x9494	; ????
    730a:	95 95       	asr	r25
    730c:	96 96       	adiw	r26, 0x26	; 38
    730e:	97 97       	sbiw	r26, 0x27	; 39
    7310:	98 98       	cbi	0x13, 0	; 19
    7312:	99 99       	sbic	0x13, 1	; 19
    7314:	98 98       	cbi	0x13, 0	; 19
    7316:	97 95       	ror	r25
    7318:	93 91       	.word	0x9193	; ????
    731a:	8e 8b       	std	Y+22, r24	; 0x16
    731c:	87 84       	ldd	r8, Z+15	; 0x0f
    731e:	80 7d       	andi	r24, 0xD0	; 208
    7320:	79 76       	andi	r23, 0x69	; 105
    7322:	72 70       	andi	r23, 0x02	; 2
    7324:	6d 6b       	ori	r22, 0xBD	; 189
    7326:	6a 68       	ori	r22, 0x8A	; 138
    7328:	68 67       	ori	r22, 0x78	; 120
    732a:	68 68       	ori	r22, 0x88	; 136
    732c:	68 69       	ori	r22, 0x98	; 152
    732e:	6a 6b       	ori	r22, 0xBA	; 186
    7330:	6c 6d       	ori	r22, 0xDC	; 220
    7332:	6e 6f       	ori	r22, 0xFE	; 254
    7334:	6f 70       	andi	r22, 0x0F	; 15
    7336:	71 71       	andi	r23, 0x11	; 17
    7338:	72 72       	andi	r23, 0x22	; 34
    733a:	73 73       	andi	r23, 0x33	; 51
    733c:	73 74       	andi	r23, 0x43	; 67
    733e:	75 75       	andi	r23, 0x55	; 85
    7340:	76 77       	andi	r23, 0x76	; 118
    7342:	78 79       	andi	r23, 0x98	; 152
    7344:	7a 7a       	andi	r23, 0xAA	; 170
    7346:	7b 7c       	andi	r23, 0xCB	; 203
    7348:	7d 7e       	andi	r23, 0xED	; 237
    734a:	7e 7f       	andi	r23, 0xFE	; 254
    734c:	7f 7f       	andi	r23, 0xFF	; 255
    734e:	7f 7e       	andi	r23, 0xEF	; 239
    7350:	7e 7d       	andi	r23, 0xDE	; 222
    7352:	7c 7b       	andi	r23, 0xBC	; 188
    7354:	7a 78       	andi	r23, 0x8A	; 138
    7356:	77 76       	andi	r23, 0x67	; 103
    7358:	75 74       	andi	r23, 0x45	; 69
    735a:	74 73       	andi	r23, 0x34	; 52
    735c:	73 74       	andi	r23, 0x43	; 67
    735e:	74 75       	andi	r23, 0x54	; 84
    7360:	76 78       	andi	r23, 0x86	; 134
    7362:	79 7b       	andi	r23, 0xB9	; 185
    7364:	7d 7f       	andi	r23, 0xFD	; 253
    7366:	80 82       	st	Z, r8
    7368:	84 85       	ldd	r24, Z+12	; 0x0c
    736a:	86 87       	std	Z+14, r24	; 0x0e
    736c:	88 89       	ldd	r24, Y+16	; 0x10
    736e:	89 89       	ldd	r24, Y+17	; 0x11
    7370:	8a 8a       	std	Y+18, r8	; 0x12
    7372:	8a 8a       	std	Y+18, r8	; 0x12
    7374:	8a 8b       	std	Y+18, r24	; 0x12
    7376:	8b 8c       	ldd	r8, Y+27	; 0x1b
    7378:	8c 8d       	ldd	r24, Y+28	; 0x1c
    737a:	8e 8f       	std	Y+30, r24	; 0x1e
    737c:	8f 90       	pop	r8
    737e:	91 91       	ld	r25, Z+
    7380:	92 92       	st	-Z, r9
    7382:	92 91       	ld	r25, -Z
    7384:	90 8f       	std	Z+24, r25	; 0x18
    7386:	8e 8c       	ldd	r8, Y+30	; 0x1e
    7388:	8a 88       	ldd	r8, Y+18	; 0x12
    738a:	86 84       	ldd	r8, Z+14	; 0x0e
    738c:	82 7f       	andi	r24, 0xF2	; 242
    738e:	7d 7b       	andi	r23, 0xBD	; 189
    7390:	79 77       	andi	r23, 0x79	; 121
    7392:	76 75       	andi	r23, 0x56	; 86
    7394:	74 73       	andi	r23, 0x34	; 52
    7396:	73 72       	andi	r23, 0x23	; 35
    7398:	73 73       	andi	r23, 0x33	; 51
    739a:	73 74       	andi	r23, 0x43	; 67
    739c:	75 76       	andi	r23, 0x65	; 101
    739e:	77 78       	andi	r23, 0x87	; 135
    73a0:	79 79       	andi	r23, 0x99	; 153
    73a2:	7a 7b       	andi	r23, 0xBA	; 186
    73a4:	7c 7d       	andi	r23, 0xDC	; 220
    73a6:	7d 7e       	andi	r23, 0xED	; 237
    73a8:	7e 7f       	andi	r23, 0xFE	; 254
    73aa:	7f 80       	ldd	r7, Y+7	; 0x07
    73ac:	80 81       	ld	r24, Z
    73ae:	81 82       	std	Z+1, r8	; 0x01
    73b0:	82 83       	std	Z+2, r24	; 0x02
    73b2:	83 84       	ldd	r8, Z+11	; 0x0b
    73b4:	85 85       	ldd	r24, Z+13	; 0x0d
    73b6:	85 85       	ldd	r24, Z+13	; 0x0d
    73b8:	85 85       	ldd	r24, Z+13	; 0x0d
    73ba:	85 85       	ldd	r24, Z+13	; 0x0d
    73bc:	84 83       	std	Z+4, r24	; 0x04
    73be:	82 81       	ldd	r24, Z+2	; 0x02
    73c0:	80 7f       	andi	r24, 0xF0	; 240
    73c2:	7e 7d       	andi	r23, 0xDE	; 222
    73c4:	7c 7c       	andi	r23, 0xCC	; 204
    73c6:	7b 7b       	andi	r23, 0xBB	; 187
    73c8:	7a 7b       	andi	r23, 0xBA	; 186
    73ca:	7b 7b       	andi	r23, 0xBB	; 187
    73cc:	7c 7d       	andi	r23, 0xDC	; 220
    73ce:	7f 80       	ldd	r7, Y+7	; 0x07
    73d0:	81 83       	std	Z+1, r24	; 0x01
    73d2:	84 86       	std	Z+12, r8	; 0x0c
    73d4:	87 89       	ldd	r24, Z+23	; 0x17
    73d6:	8a 8b       	std	Y+18, r24	; 0x12
    73d8:	8c 8d       	ldd	r24, Y+28	; 0x1c
    73da:	8e 8e       	std	Y+30, r8	; 0x1e
    73dc:	8f 8f       	std	Y+31, r24	; 0x1f
    73de:	8f 8f       	std	Y+31, r24	; 0x1f
    73e0:	8f 8f       	std	Y+31, r24	; 0x1f
    73e2:	8f 8e       	std	Y+31, r8	; 0x1f
    73e4:	8e 8d       	ldd	r24, Y+30	; 0x1e
    73e6:	8d 8d       	ldd	r24, Y+29	; 0x1d
    73e8:	8c 8c       	ldd	r8, Y+28	; 0x1c
    73ea:	8b 8b       	std	Y+19, r24	; 0x13
    73ec:	8a 8a       	std	Y+18, r8	; 0x12
    73ee:	89 88       	ldd	r8, Y+17	; 0x11
    73f0:	87 86       	std	Z+15, r8	; 0x0f
    73f2:	85 83       	std	Z+5, r24	; 0x05
    73f4:	81 7f       	andi	r24, 0xF1	; 241
    73f6:	7d 7b       	andi	r23, 0xBD	; 189
    73f8:	79 76       	andi	r23, 0x69	; 105
    73fa:	74 72       	andi	r23, 0x24	; 36
    73fc:	70 6e       	ori	r23, 0xE0	; 224
    73fe:	6d 6b       	ori	r22, 0xBD	; 189
    7400:	6b 6a       	ori	r22, 0xAB	; 171
    7402:	6a 6a       	ori	r22, 0xAA	; 170
    7404:	6b 6b       	ori	r22, 0xBB	; 187
    7406:	6c 6d       	ori	r22, 0xDC	; 220
    7408:	6f 70       	andi	r22, 0x0F	; 15
    740a:	71 72       	andi	r23, 0x21	; 33
    740c:	73 74       	andi	r23, 0x43	; 67
    740e:	74 75       	andi	r23, 0x54	; 84
    7410:	75 75       	andi	r23, 0x55	; 85
    7412:	75 75       	andi	r23, 0x55	; 85
    7414:	75 75       	andi	r23, 0x55	; 85
    7416:	76 76       	andi	r23, 0x66	; 102
    7418:	76 77       	andi	r23, 0x76	; 118
    741a:	78 78       	andi	r23, 0x88	; 136
    741c:	79 7a       	andi	r23, 0xA9	; 169
    741e:	7c 7d       	andi	r23, 0xDC	; 220
    7420:	7e 7f       	andi	r23, 0xFE	; 254
    7422:	80 80       	ld	r8, Z
    7424:	81 81       	ldd	r24, Z+1	; 0x01
    7426:	82 82       	std	Z+2, r8	; 0x02
    7428:	82 81       	ldd	r24, Z+2	; 0x02
    742a:	81 80       	ldd	r8, Z+1	; 0x01
    742c:	80 7f       	andi	r24, 0xF0	; 240
    742e:	7f 7e       	andi	r23, 0xEF	; 239
    7430:	7e 7d       	andi	r23, 0xDE	; 222
    7432:	7d 7d       	andi	r23, 0xDD	; 221
    7434:	7d 7c       	andi	r23, 0xCD	; 205
    7436:	7c 7c       	andi	r23, 0xCC	; 204
    7438:	7c 7c       	andi	r23, 0xCC	; 204
    743a:	7c 7c       	andi	r23, 0xCC	; 204
    743c:	7d 7d       	andi	r23, 0xDD	; 221
    743e:	7d 7e       	andi	r23, 0xED	; 237
    7440:	7e 7e       	andi	r23, 0xEE	; 238
    7442:	7f 80       	ldd	r7, Y+7	; 0x07
    7444:	80 81       	ld	r24, Z
    7446:	81 82       	std	Z+1, r8	; 0x01
    7448:	82 83       	std	Z+2, r24	; 0x02
    744a:	83 83       	std	Z+3, r24	; 0x03
    744c:	83 84       	ldd	r8, Z+11	; 0x0b
    744e:	84 84       	ldd	r8, Z+12	; 0x0c
    7450:	84 84       	ldd	r8, Z+12	; 0x0c
    7452:	85 85       	ldd	r24, Z+13	; 0x0d
    7454:	86 86       	std	Z+14, r8	; 0x0e
    7456:	87 88       	ldd	r8, Z+23	; 0x17
    7458:	89 89       	ldd	r24, Y+17	; 0x11
    745a:	8a 8b       	std	Y+18, r24	; 0x12
    745c:	8b 8b       	std	Y+19, r24	; 0x13
    745e:	8b 8b       	std	Y+19, r24	; 0x13
    7460:	8a 89       	ldd	r24, Y+18	; 0x12
    7462:	88 86       	std	Y+8, r8	; 0x08
    7464:	84 82       	std	Z+4, r8	; 0x04
    7466:	80 7e       	andi	r24, 0xE0	; 224
    7468:	7c 7a       	andi	r23, 0xAC	; 172
    746a:	79 78       	andi	r23, 0x89	; 137
    746c:	77 76       	andi	r23, 0x67	; 103
    746e:	76 76       	andi	r23, 0x66	; 102
    7470:	76 77       	andi	r23, 0x76	; 118
    7472:	78 79       	andi	r23, 0x98	; 152
    7474:	7a 7c       	andi	r23, 0xCA	; 202
    7476:	7d 7e       	andi	r23, 0xED	; 237
    7478:	7f 7f       	andi	r23, 0xFF	; 255
    747a:	80 81       	ld	r24, Z
    747c:	81 81       	ldd	r24, Z+1	; 0x01
    747e:	81 82       	std	Z+1, r8	; 0x01
    7480:	82 82       	std	Z+2, r8	; 0x02
    7482:	83 83       	std	Z+3, r24	; 0x03
    7484:	84 84       	ldd	r8, Z+12	; 0x0c
    7486:	85 86       	std	Z+13, r8	; 0x0d
    7488:	87 88       	ldd	r8, Z+23	; 0x17
    748a:	88 89       	ldd	r24, Y+16	; 0x10
    748c:	89 89       	ldd	r24, Y+17	; 0x11
    748e:	89 89       	ldd	r24, Y+17	; 0x11
    7490:	89 88       	ldd	r8, Y+17	; 0x11
    7492:	87 86       	std	Z+15, r8	; 0x0f
    7494:	85 84       	ldd	r8, Z+13	; 0x0d
    7496:	82 81       	ldd	r24, Z+2	; 0x02
    7498:	80 7e       	andi	r24, 0xE0	; 224
    749a:	7d 7c       	andi	r23, 0xCD	; 205
    749c:	7b 7a       	andi	r23, 0xAB	; 171
    749e:	79 79       	andi	r23, 0x99	; 153
    74a0:	78 77       	andi	r23, 0x78	; 120
    74a2:	76 76       	andi	r23, 0x66	; 102
    74a4:	75 75       	andi	r23, 0x55	; 85
    74a6:	74 74       	andi	r23, 0x44	; 68
    74a8:	74 74       	andi	r23, 0x44	; 68
    74aa:	74 75       	andi	r23, 0x54	; 84
    74ac:	76 77       	andi	r23, 0x76	; 118
    74ae:	78 79       	andi	r23, 0x98	; 152
    74b0:	7b 7d       	andi	r23, 0xDB	; 219
    74b2:	7f 81       	ldd	r23, Y+7	; 0x07
    74b4:	82 84       	ldd	r8, Z+10	; 0x0a
    74b6:	86 88       	ldd	r8, Z+22	; 0x16
    74b8:	8a 8b       	std	Y+18, r24	; 0x12
    74ba:	8d 8e       	std	Y+29, r8	; 0x1d
    74bc:	8f 91       	pop	r24
    74be:	92 93       	st	-Z, r25
    74c0:	94 95       	.word	0x9594	; ????
    74c2:	96 97       	sbiw	r26, 0x26	; 38
    74c4:	97 98       	cbi	0x12, 7	; 18
    74c6:	98 98       	cbi	0x13, 0	; 19
    74c8:	98 97       	sbiw	r26, 0x28	; 40
    74ca:	96 95       	lsr	r25
    74cc:	93 90       	.word	0x9093	; ????
    74ce:	8e 8b       	std	Y+22, r24	; 0x16
    74d0:	87 84       	ldd	r8, Z+15	; 0x0f
    74d2:	81 7d       	andi	r24, 0xD1	; 209
    74d4:	7a 76       	andi	r23, 0x6A	; 106
    74d6:	73 71       	andi	r23, 0x13	; 19
    74d8:	6e 6d       	ori	r22, 0xDE	; 222
    74da:	6b 6a       	ori	r22, 0xAB	; 171
    74dc:	69 69       	ori	r22, 0x99	; 153
    74de:	68 69       	ori	r22, 0x98	; 152
    74e0:	69 69       	ori	r22, 0x99	; 153
    74e2:	6a 6a       	ori	r22, 0xAA	; 170
    74e4:	6b 6c       	ori	r22, 0xCB	; 203
    74e6:	6d 6d       	ori	r22, 0xDD	; 221
    74e8:	6e 6f       	ori	r22, 0xFE	; 254
    74ea:	70 71       	andi	r23, 0x10	; 16
    74ec:	72 73       	andi	r23, 0x32	; 50
    74ee:	74 75       	andi	r23, 0x54	; 84
    74f0:	76 77       	andi	r23, 0x76	; 118
    74f2:	78 79       	andi	r23, 0x98	; 152
    74f4:	7a 7b       	andi	r23, 0xBA	; 186
    74f6:	7c 7d       	andi	r23, 0xDC	; 220
    74f8:	7d 7e       	andi	r23, 0xED	; 237
    74fa:	7e 7d       	andi	r23, 0xDE	; 222
    74fc:	7d 7d       	andi	r23, 0xDD	; 221
    74fe:	7c 7c       	andi	r23, 0xCC	; 204
    7500:	7b 7a       	andi	r23, 0xAB	; 171
    7502:	79 79       	andi	r23, 0x99	; 153
    7504:	78 77       	andi	r23, 0x78	; 120
    7506:	76 76       	andi	r23, 0x66	; 102
    7508:	75 75       	andi	r23, 0x55	; 85
    750a:	75 75       	andi	r23, 0x55	; 85
    750c:	75 75       	andi	r23, 0x55	; 85
    750e:	75 76       	andi	r23, 0x65	; 101
    7510:	77 78       	andi	r23, 0x87	; 135
    7512:	79 7b       	andi	r23, 0xB9	; 185
    7514:	7d 7e       	andi	r23, 0xED	; 237
    7516:	81 83       	std	Z+1, r24	; 0x01
    7518:	85 87       	std	Z+13, r24	; 0x0d
    751a:	89 8b       	std	Y+17, r24	; 0x11
    751c:	8d 8f       	std	Y+29, r24	; 0x1d
    751e:	90 92 92 93 	sts	0x9392, r9
    7522:	93 93       	.word	0x9393	; ????
    7524:	93 93       	.word	0x9393	; ????
    7526:	93 92       	.word	0x9293	; ????
    7528:	92 91       	ld	r25, -Z
    752a:	91 90       	ld	r9, Z+
    752c:	90 90 90 90 	lds	r9, 0x9090
    7530:	8f 8f       	std	Y+31, r24	; 0x1f
    7532:	8f 8e       	std	Y+31, r8	; 0x1f
    7534:	8d 8d       	ldd	r24, Y+29	; 0x1d
    7536:	8b 8a       	std	Y+19, r8	; 0x13
    7538:	88 87       	std	Y+8, r24	; 0x08
    753a:	85 83       	std	Z+5, r24	; 0x05
    753c:	81 7f       	andi	r24, 0xF1	; 241
    753e:	7d 7b       	andi	r23, 0xBD	; 189
    7540:	79 78       	andi	r23, 0x89	; 137
    7542:	77 76       	andi	r23, 0x67	; 103
    7544:	75 74       	andi	r23, 0x45	; 69
    7546:	74 74       	andi	r23, 0x44	; 68
    7548:	74 74       	andi	r23, 0x44	; 68
    754a:	74 75       	andi	r23, 0x54	; 84
    754c:	75 75       	andi	r23, 0x55	; 85
    754e:	76 76       	andi	r23, 0x66	; 102
    7550:	76 77       	andi	r23, 0x76	; 118
    7552:	77 78       	andi	r23, 0x87	; 135
    7554:	78 79       	andi	r23, 0x98	; 152
    7556:	7a 7b       	andi	r23, 0xBA	; 186
    7558:	7c 7d       	andi	r23, 0xDC	; 220
    755a:	7e 7f       	andi	r23, 0xFE	; 254
    755c:	80 82       	st	Z, r8
    755e:	83 84       	ldd	r8, Z+11	; 0x0b
    7560:	84 85       	ldd	r24, Z+12	; 0x0c
    7562:	86 86       	std	Z+14, r8	; 0x0e
    7564:	86 87       	std	Z+14, r24	; 0x0e
    7566:	87 86       	std	Z+15, r8	; 0x0f
    7568:	86 86       	std	Z+14, r8	; 0x0e
    756a:	86 85       	ldd	r24, Z+14	; 0x0e
    756c:	85 85       	ldd	r24, Z+13	; 0x0d
    756e:	84 84       	ldd	r8, Z+12	; 0x0c
    7570:	83 83       	std	Z+3, r24	; 0x03
    7572:	82 82       	std	Z+2, r8	; 0x02
    7574:	81 80       	ldd	r8, Z+1	; 0x01
    7576:	7f 7e       	andi	r23, 0xEF	; 239
    7578:	7d 7c       	andi	r23, 0xCD	; 205
    757a:	7b 7a       	andi	r23, 0xAB	; 171
    757c:	79 79       	andi	r23, 0x99	; 153
    757e:	78 78       	andi	r23, 0x88	; 136
    7580:	78 78       	andi	r23, 0x88	; 136
    7582:	79 79       	andi	r23, 0x99	; 153

00007584 <__ctors_end>:
    7584:	11 24       	eor	r1, r1
    7586:	1f be       	out	0x3f, r1	; 63
    7588:	cf e5       	ldi	r28, 0x5F	; 95
    758a:	d4 e0       	ldi	r29, 0x04	; 4
    758c:	de bf       	out	0x3e, r29	; 62
    758e:	cd bf       	out	0x3d, r28	; 61

00007590 <__do_copy_data>:
    7590:	10 e0       	ldi	r17, 0x00	; 0
    7592:	a0 e6       	ldi	r26, 0x60	; 96
    7594:	b0 e0       	ldi	r27, 0x00	; 0
    7596:	e8 ea       	ldi	r30, 0xA8	; 168
    7598:	f6 e7       	ldi	r31, 0x76	; 118
    759a:	02 c0       	rjmp	.+4      	; 0x75a0 <__do_copy_data+0x10>
    759c:	05 90       	lpm	r0, Z+
    759e:	0d 92       	st	X+, r0
    75a0:	a4 36       	cpi	r26, 0x64	; 100
    75a2:	b1 07       	cpc	r27, r17
    75a4:	d9 f7       	brne	.-10     	; 0x759c <__do_copy_data+0xc>

000075a6 <__do_clear_bss>:
    75a6:	20 e0       	ldi	r18, 0x00	; 0
    75a8:	a4 e6       	ldi	r26, 0x64	; 100
    75aa:	b0 e0       	ldi	r27, 0x00	; 0
    75ac:	01 c0       	rjmp	.+2      	; 0x75b0 <.do_clear_bss_start>

000075ae <.do_clear_bss_loop>:
    75ae:	1d 92       	st	X+, r1

000075b0 <.do_clear_bss_start>:
    75b0:	a8 36       	cpi	r26, 0x68	; 104
    75b2:	b2 07       	cpc	r27, r18
    75b4:	e1 f7       	brne	.-8      	; 0x75ae <.do_clear_bss_loop>
    75b6:	0e 94 f8 3a 	call	0x75f0	; 0x75f0 <main>
    75ba:	0c 94 52 3b 	jmp	0x76a4	; 0x76a4 <_exit>

000075be <__bad_interrupt>:
    75be:	0c 94 00 00 	jmp	0	; 0x0 <__vectors>

000075c2 <pwm_init>:

/* initialise the PWM */
void pwm_init(void)
{
    /* use OC1A pin as output */
    DDRD = _BV(PD5);
    75c2:	80 e2       	ldi	r24, 0x20	; 32
    75c4:	81 bb       	out	0x11, r24	; 17
    /* 
    * clear OC1A on compare match 
    * set OC1A at BOTTOM, non-inverting mode
    * Fast PWM, 8bit
    */
    TCCR1A = (1<<COM1A1)|(1<<WGM10);
    75c6:	81 e8       	ldi	r24, 0x81	; 129
    75c8:	8f bd       	out	0x2f, r24	; 47
    /* 
    * Fast PWM, 8bit
    * Prescaler: clk/1 = 8MHz
    * PWM frequency = 8MHz / (255 + 1) = 31.25kHz
    */
    TCCR1B = (1<<WGM12) | (1<<CS10);
    75ca:	89 e0       	ldi	r24, 0x09	; 9
    75cc:	8e bd       	out	0x2e, r24	; 46
    
    /* set initial duty cycle to zero */
    OCR1A = 0;
    75ce:	1b bc       	out	0x2b, r1	; 43
    75d0:	1a bc       	out	0x2a, r1	; 42
    
    /* Setup Timer0 */
  
    TCCR0|=(1<<CS00);
    75d2:	83 b7       	in	r24, 0x33	; 51
    75d4:	81 60       	ori	r24, 0x01	; 1
    75d6:	83 bf       	out	0x33, r24	; 51
    TCNT0=0;
    75d8:	12 be       	out	0x32, r1	; 50
    TIMSK|=(1<<TOIE0);
    75da:	89 b7       	in	r24, 0x39	; 57
    75dc:	81 60       	ori	r24, 0x01	; 1
    75de:	89 bf       	out	0x39, r24	; 57
    sample_count = 4;
    75e0:	84 e0       	ldi	r24, 0x04	; 4
    75e2:	90 e0       	ldi	r25, 0x00	; 0
    75e4:	90 93 65 00 	sts	0x0065, r25
    75e8:	80 93 64 00 	sts	0x0064, r24
    sei(); //Enable interrupts
    75ec:	78 94       	sei
    75ee:	08 95       	ret

000075f0 <main>:
   */
	129, 129, 129, 128, 128, 128, 127, 127, 127, 127, 127, 127, 127, 128, 129, 130, 131, 132, 134, 136, 137, 139, 140, 142, 143, 144, 145, 145, 145, 145, 145, 144, 143, 142, 141, 139, 138, 136, 135, 134, 132, 131, 129, 128, 127, 126, 124, 123, 122, 121, 121, 120, 119, 118, 118, 117, 117, 117, 117, 117, 116, 116, 116, 117, 117, 117, 117, 116, 116, 116, 116, 116, 116, 116, 116, 116, 116, 116, 116, 117, 117, 118, 119, 120, 121, 122, 123, 124, 125, 126, 128, 129, 130, 131, 132, 133, 134, 134, 135, 136, 136, 137, 137, 137, 138, 137, 137, 137, 136, 136, 135, 134, 133, 131, 130, 129, 127, 126, 124, 123, 121, 120, 119, 118, 117, 117, 116, 116, 115, 115, 115, 115, 115, 115, 115, 115, 116, 116, 116, 117, 117, 117, 118, 118, 119, 119, 120, 121, 121, 122, 122, 123, 124, 125, 125, 126, 127, 127, 128, 129, 130, 130, 131, 132, 133, 134, 134, 135, 136, 137, 137, 138, 138, 139, 139, 139, 139, 140, 140, 139, 139, 139, 139, 139, 138, 138, 138, 137, 137, 136, 136, 135, 135, 134, 134, 133, 133, 132, 132, 131, 131, 130, 130, 129, 128, 128, 128, 127, 127, 126, 126, 126, 126, 126, 125, 125, 125, 125, 125, 125, 125, 125, 125, 125, 125, 125, 125, 125, 125, 125, 125, 125, 124, 124, 124, 124, 124, 124, 124, 125, 125, 125, 125, 125, 126, 126, 126, 126, 127, 127, 127, 127, 128, 128, 128, 128, 128, 128, 128, 128, 128, 128, 128, 128, 127, 127, 127, 126, 126, 125, 125, 124, 124, 124, 123, 123, 123, 122, 122, 122, 122, 122, 122, 122, 122, 122, 122, 122, 122, 122, 121, 121, 121, 120, 120, 120, 120, 119, 119, 119, 119, 120, 120, 120, 120, 121, 121, 121, 122, 122, 122, 122, 121, 121, 121, 121, 120, 120, 120, 120, 120, 120, 121, 122, 123, 124, 126, 128, 131, 133, 136, 139, 142, 145, 147, 150, 152, 154, 156, 157, 158, 158, 158, 158, 157, 156, 154, 153, 151, 149, 147, 145, 142, 140, 137, 135, 132, 130, 128, 125, 123, 121, 119, 117, 115, 113, 112, 110, 109, 108, 107, 107, 107, 107, 107, 108, 109, 110, 112, 113, 115, 117, 118, 119, 121, 122, 122, 123, 123, 123, 123, 122, 121, 120, 119, 117, 116, 115, 114, 113, 112, 112, 112, 113, 114, 115, 117, 119, 122, 125, 129, 132, 137, 141, 146, 150, 155, 159, 164, 168, 171, 174, 177, 179, 180, 180, 179, 178, 176, 173, 169, 165, 161, 156, 151, 146, 140, 136, 131, 127, 123, 120, 117, 115, 114, 112, 112, 111, 111, 111, 112, 112, 112, 112, 112, 111, 111, 110, 109, 108, 107, 105, 104, 102, 101, 99, 98, 96, 95, 94, 93, 92, 92, 91, 91, 91, 92, 92, 93, 95, 97, 99, 102, 106, 110, 114, 119, 124, 129, 135, 140, 146, 151, 156, 161, 165, 169, 171, 173, 175, 175, 175, 174, 172, 169, 166, 162, 158, 154, 149, 145, 140, 136, 131, 128, 124, 121, 118, 116, 114, 113, 112, 111, 111, 111, 111, 111, 111, 111, 112, 112, 112, 112, 112, 111, 111, 110, 109, 108, 106, 105, 104, 103, 101, 100, 99, 98, 98, 97, 97, 98, 99, 100, 101, 104, 106, 109, 112, 116, 120, 125, 129, 134, 139, 144, 149, 154, 158, 163, 167, 170, 173, 175, 177, 178, 178, 178, 177, 175, 173, 171, 168, 165, 162, 158, 155, 151, 147, 144, 141, 138, 135, 132, 130, 128, 126, 125, 123, 122, 121, 121, 120, 120, 119, 119, 119, 119, 118, 118, 118, 117, 116, 116, 115, 114, 113, 111, 110, 108, 107, 105, 103, 102, 100, 99, 98, 97, 97, 97, 97, 98, 99, 101, 104, 107, 110, 114, 118, 123, 127, 132, 136, 141, 145, 149, 152, 155, 157, 159, 160, 161, 161, 160, 159, 157, 155, 153, 150, 147, 144, 141, 138, 135, 133, 130, 128, 126, 124, 122, 121, 119, 118, 117, 116, 116, 115, 114, 114, 113, 112, 112, 111, 110, 110, 109, 108, 107, 106, 105, 104, 103, 102, 101, 101, 100, 100, 100, 100, 100, 101, 102, 103, 105, 107, 110, 113, 116, 120, 124, 128, 133, 137, 141, 146, 150, 154, 157, 160, 163, 164, 166, 167, 167, 166, 165, 164, 162, 160, 157, 154, 151, 148, 145, 142, 140, 137, 135, 133, 131, 129, 128, 127, 127, 126, 126, 126, 126, 126, 126, 126, 126, 126, 126, 126, 125, 125, 125, 124, 123, 122, 121, 120, 118, 117, 115, 114, 113, 112, 111, 110, 109, 109, 109, 110, 111, 112, 114, 116, 119, 122, 125, 129, 133, 137, 140, 144, 148, 151, 153, 155, 157, 158, 158, 158, 157, 155, 153, 151, 148, 144, 141, 137, 134, 130, 127, 124, 122, 120, 118, 116, 116, 115, 115, 115, 115, 116, 117, 117, 118, 119, 120, 120, 121, 121, 121, 121, 120, 120, 119, 118, 117, 116, 115, 114, 112, 111, 109, 108, 107, 105, 104, 103, 103, 102, 102, 102, 103, 104, 106, 108, 110, 113, 117, 120, 124, 128, 133, 137, 141, 145, 149, 152, 154, 157, 158, 159, 159, 158, 157, 155, 153, 150, 147, 143, 140, 136, 133, 130, 127, 124, 122, 120, 119, 118, 118, 118, 118, 119, 120, 122, 123, 125, 126, 128, 129, 130, 131, 132, 132, 132, 132, 131, 131, 130, 128, 127, 126, 124, 122, 121, 119, 118, 116, 115, 114, 114, 113, 113, 114, 114, 116, 117, 119, 121, 124, 127, 130, 133, 137, 140, 144, 147, 150, 153, 156, 158, 159, 160, 161, 160, 160, 158, 157, 155, 152, 149, 146, 143, 140, 136, 133, 130, 127, 125, 123, 121, 119, 118, 117, 116, 116, 116, 116, 116, 116, 116, 116, 117, 117, 117, 117, 117, 117, 117, 117, 116, 116, 115, 114, 113, 112, 111, 110, 109, 108, 106, 106, 105, 104, 104, 104, 104, 105, 107, 108, 110, 113, 116, 119, 123, 127, 131, 135, 139, 143, 146, 149, 152, 155, 156, 157, 158, 158, 157, 156, 154, 152, 149, 146, 142, 139, 136, 132, 129, 126, 124, 121, 119, 118, 117, 116, 115, 115, 115, 115, 115, 115, 116, 116, 116, 117, 117, 117, 117, 117, 117, 116, 116, 116, 115, 115, 114, 114, 113, 113, 112, 112, 112, 112, 112, 113, 113, 114, 115, 117, 119, 121, 123, 126, 129, 132, 136, 139, 143, 146, 150, 153, 156, 159, 162, 164, 165, 166, 167, 167, 166, 165, 163, 161, 158, 155, 152, 149, 146, 142, 139, 136, 133, 131, 128, 126, 125, 123, 122, 121, 121, 120, 120, 120, 119, 119, 119, 119, 118, 118, 117, 116, 115, 114, 113, 112, 111, 109, 108, 107, 105, 104, 103, 102, 102, 101, 101, 101, 102, 103, 104, 105, 107, 109, 112, 115, 118, 121, 125, 128, 132, 136, 139, 143, 146, 149, 151, 153, 155, 156, 157, 157, 156, 155, 154, 152, 150, 148, 145, 143, 140, 137, 135, 132, 130, 128, 126, 125, 123, 122, 122, 121, 121, 120, 120, 120, 120, 120, 120, 120, 120, 119, 119, 118, 117, 116, 115, 114, 113, 112, 111, 110, 108, 107, 106, 105, 105, 104, 104, 103, 104, 104, 105, 106, 107, 109, 112, 114, 117, 120, 124, 127, 131, 135, 138, 142, 146, 149, 152, 155, 157, 159, 160, 161, 161, 161, 161, 160, 158, 156, 154, 152, 150, 147, 145, 142, 140, 138, 136, 134, 132, 131, 129, 128, 128, 127, 126, 126, 125, 125, 124, 124, 123, 123, 122, 122, 121, 120, 119, 118, 117, 116, 115, 113, 112, 111, 110, 109, 108, 107, 107, 106, 106, 106, 107, 108, 109, 110, 112, 114, 116, 119, 122, 125, 128, 132, 135, 138, 142, 145, 148, 150, 152, 154, 155, 156, 157, 156, 156, 154, 153, 151, 149, 146, 144, 141, 138, 135, 133, 130, 128, 125, 123, 122, 120, 119, 118, 117, 117, 116, 116, 116, 115, 115, 115, 115, 115, 115, 114, 114, 114, 113, 113, 112, 111, 111, 110, 109, 109, 108, 108, 107, 107, 106, 106, 107, 107, 108, 109, 110, 112, 114, 116, 118, 121, 124, 127, 131, 134, 137, 141, 144, 147, 149, 151, 153, 155, 156, 156, 156, 156, 155, 154, 152, 150, 148, 146, 144, 141, 139, 136, 134, 132, 130, 128, 127, 126, 125, 124, 123, 123, 123, 122, 122, 122, 122, 122, 122, 121, 121, 121, 120, 120, 119, 119, 118, 117, 117, 116, 115, 115, 114, 114, 113, 113, 113, 113, 113, 113, 114, 114, 115, 116, 118, 120, 121, 124, 126, 129, 131, 134, 137, 140, 142, 145, 148, 150, 152, 154, 155, 156, 156, 156, 156, 155, 154, 152, 150, 148, 146, 143, 141, 138, 136, 133, 131, 129, 127, 125, 124, 122, 121, 120, 119, 119, 118, 118, 118, 117, 117, 117, 116, 116, 116, 116, 115, 115, 114, 114, 113, 112, 112, 111, 110, 109, 109, 108, 107, 107, 107, 107, 107, 107, 108, 109, 110, 112, 114, 116, 118, 121, 124, 127, 130, 133, 137, 140, 143, 145, 148, 150, 151, 153, 153, 154, 154, 153, 152, 151, 149, 147, 145, 143, 141, 138, 136, 134, 132, 130, 128, 126, 125, 123, 122, 121, 120, 120, 119, 119, 119, 118, 118, 118, 118, 118, 118, 118, 118, 118, 117, 117, 117, 116, 116, 116, 115, 115, 114, 114, 113, 113, 113, 113, 113, 113, 114, 115, 116, 117, 119, 121, 123, 126, 128, 131, 134, 137, 140, 143, 146, 149, 152, 154, 155, 157, 158, 158, 159, 158, 157, 156, 155, 153, 151, 148, 146, 143, 140, 138, 135, 132, 130, 128, 126, 124, 122, 121, 120, 119, 118, 118, 118, 118, 118, 118, 118, 118, 118, 118, 118, 118, 118, 118, 118, 118, 117, 117, 116, 115, 115, 114, 113, 112, 112, 111, 111, 111, 111, 111, 112, 113, 114, 116, 117, 120, 122, 125, 128, 131, 133, 136, 139, 142, 144, 146, 148, 150, 151, 151, 152, 151, 151, 149, 148, 146, 144, 142, 139, 137, 134, 132, 129, 127, 124, 122, 120, 119, 117, 116, 115, 114, 114, 114, 113, 114, 114, 114, 115, 115, 116, 116, 117, 117, 118, 118, 118, 118, 118, 117, 117, 117, 116, 116, 115, 115, 114, 114, 114, 114, 114, 114, 115, 116, 117, 119, 121, 123, 126, 128, 131, 134, 137, 140, 143, 146, 149, 151, 153, 155, 156, 157, 158, 158, 157, 156, 155, 154, 152, 150, 148, 145, 143, 140, 138, 135, 133, 131, 128, 127, 125, 124, 122, 121, 121, 120, 120, 119, 119, 119, 119, 119, 119, 120, 120, 120, 120, 119, 119, 119, 119, 118, 118, 117, 117, 116, 116, 115, 115, 114, 114, 114, 115, 115, 116, 117, 118, 119, 121, 123, 125, 128, 130, 133, 135, 138, 140, 143, 145, 147, 149, 150, 151, 152, 152, 152, 152, 151, 150, 149, 147, 145, 143, 140, 138, 135, 132, 130, 128, 125, 123, 121, 119, 118, 116, 115, 114, 113, 113, 112, 112, 112, 112, 112, 112, 112, 112, 112, 112, 113, 113, 112, 112, 112, 112, 112, 112, 111, 111, 111, 111, 111, 111, 111, 112, 113, 114, 115, 116, 118, 120, 122, 124, 127, 130, 132, 135, 138, 141, 144, 146, 148, 150, 152, 153, 154, 155, 155, 155, 155, 154, 152, 151, 149, 147, 145, 142, 140, 138, 135, 133, 131, 129, 127, 125, 124, 123, 122, 121, 120, 120, 119, 119, 119, 119, 119, 119, 119, 118, 118, 118, 118, 118, 118, 118, 117, 117, 117, 116, 116, 116, 116, 116, 116, 116, 116, 116, 117, 118, 119, 120, 121, 123, 125, 127, 129, 131, 133, 136, 138, 141, 143, 145, 147, 149, 151, 152, 153, 154, 154, 154, 154, 153, 152, 150, 148, 146, 144, 142, 139, 137, 134, 132, 129, 127, 125, 123, 122, 120, 119, 118, 117, 116, 115, 115, 115, 114, 114, 114, 114, 114, 114, 114, 114, 114, 113, 113, 113, 113, 112, 112, 112, 111, 111, 111, 111, 111, 111, 111, 111, 112, 113, 114, 115, 117, 119, 121, 123, 125, 128, 130, 133, 136, 138, 141, 143, 146, 148, 149, 150, 151, 152, 152, 152, 152, 151, 149, 148, 146, 144, 142, 140, 138, 135, 133, 131, 129, 127, 126, 124, 123, 121, 120, 120, 119, 118, 118, 118, 118, 117, 117, 117, 117, 117, 117, 117, 117, 117, 117, 117, 117, 117, 116, 116, 116, 116, 116, 116, 116, 116, 117, 117, 118, 118, 119, 120, 121, 123, 125, 126, 128, 130, 133, 135, 137, 140, 142, 144, 146, 148, 150, 151, 153, 153, 154, 154, 154, 153, 152, 151, 149, 147, 145, 143, 141, 139, 136, 134, 131, 129, 127, 125, 123, 122, 120, 119, 118, 118, 117, 117, 116, 116, 116, 116, 116, 116, 116, 116, 116, 116, 116, 116, 115, 115, 115, 114, 114, 114, 113, 113, 113, 113, 113, 113, 113, 113, 114, 115, 116, 117, 119, 120, 122, 124, 126, 129, 131, 134, 136, 138, 141, 143, 145, 147, 148, 149, 150, 150, 150, 150, 149, 148, 147, 145, 143, 141, 139, 137, 134, 132, 130, 127, 125, 123, 122, 120, 119, 118, 117, 116, 116, 115, 115, 115, 115, 116, 116, 116, 116, 117, 117, 117, 117, 117, 117, 117, 117, 117, 116, 116, 116, 116, 116, 116, 116, 116, 116, 117, 117, 118, 119, 121, 122, 124, 126, 128, 130, 132, 134, 137, 139, 142, 144, 146, 148, 150, 151, 153, 153, 154, 154, 154, 153, 152, 151, 149, 147, 145, 143, 141, 138, 136, 133, 131, 129, 126, 124, 123, 121, 120, 119, 118, 117, 117, 117, 117, 117, 117, 117, 117, 117, 118, 118, 118, 118, 118, 118, 118, 118, 118, 118, 118, 117, 117, 117, 117, 117, 117, 117, 117, 118, 118, 119, 120, 121, 122, 124, 125, 127, 129, 131, 133, 135, 137, 139, 141, 143, 145, 146, 147, 148, 149, 149, 149, 149, 148, 147, 145, 143, 141, 139, 137, 134, 132, 129, 127, 125, 123, 121, 119, 118, 117, 116, 115, 114, 114, 114, 114, 114, 115, 115, 115, 115, 116, 116, 116, 117, 117, 117, 117, 117, 117, 117, 116, 116, 116, 116, 116, 116, 116, 117, 117, 117, 118, 119, 120, 121, 122, 124, 125, 127, 129, 131, 133, 136, 138, 140, 142, 144, 146, 148, 149, 150, 151, 152, 152, 151, 151, 150, 149, 147, 145, 144, 141, 139, 137, 134, 132, 130, 128, 126, 124, 123, 122, 121, 120, 119, 119, 118, 118, 118, 118, 118, 118, 118, 118, 118, 119, 119, 119, 119, 119, 119, 118, 118, 118, 118, 118, 118, 118, 118, 119, 119, 119, 120, 120, 121, 122, 123, 124, 125, 127, 128, 130, 132, 133, 135, 137, 140, 142, 143, 145, 147, 148, 149, 150, 151, 151, 151, 150, 149, 148, 147, 145, 143, 140, 138, 135, 133, 130, 128, 125, 123, 121, 120, 118, 117, 116, 115, 114, 114, 114, 114, 114, 114, 114, 114, 114, 114, 114, 114, 114, 114, 114, 114, 114, 114, 114, 114, 114, 114, 115, 115, 115, 116, 116, 117, 118, 119, 120, 121, 122, 123, 125, 127, 128, 130, 132, 134, 136, 138, 140, 142, 144, 145, 147, 148, 149, 150, 150, 150, 149, 149, 148, 146, 145, 143, 141, 139, 137, 134, 132, 130, 128, 126, 124, 122, 121, 120, 119, 118, 118, 117, 117, 117, 117, 117, 117, 117, 117, 117, 118, 118, 118, 118, 118, 118, 118, 118, 118, 118, 118, 118, 118, 118, 119, 119, 120, 120, 121, 121, 122, 123, 124, 125, 127, 128, 130, 131, 133, 135, 137, 139, 141, 143, 144, 146, 148, 149, 150, 151, 152, 152, 152, 151, 150, 149, 148, 146, 144, 142, 139, 137, 134, 132, 129, 127, 125, 123, 121, 120, 119, 117, 117, 116, 115, 115, 115, 115, 115, 115, 115, 115, 115, 115, 115, 115, 115, 114, 114, 114, 114, 114, 114, 114, 114, 115, 115, 115, 116, 116, 117, 118, 119, 120, 121, 122, 123, 125, 126, 128, 129, 131, 133, 135, 137, 139, 141, 142, 144, 146, 147, 148, 149, 149, 149, 149, 149, 148, 147, 145, 143, 142, 139, 137, 135, 133, 130, 128, 126, 124, 122, 121, 119, 118, 117, 117, 116, 116, 115, 115, 115, 115, 115, 115, 116, 116, 116, 116, 116, 116, 116, 116, 116, 116, 116, 116, 116, 116, 116, 116, 116, 117, 117, 118, 119, 120, 121, 122, 123, 125, 126, 128, 130, 131, 133, 136, 138, 140, 142, 144, 146, 147, 149, 150, 151, 152, 152, 152, 152, 151, 150, 149, 147, 146, 144, 141, 139, 137, 135, 132, 130, 128, 126, 125, 123, 122, 121, 120, 120, 119, 119, 118, 118, 118, 118, 118, 118, 118, 118, 117, 117, 117, 117, 116, 116, 116, 115, 115, 115, 115, 115, 115, 115, 115, 116, 116, 117, 118, 119, 120, 121, 123, 124, 126, 128, 130, 132, 133, 136, 137, 139, 141, 143, 145, 146, 147, 148, 149, 149, 149, 149, 148, 147, 146, 145, 143, 141, 139, 137, 135, 133, 130, 128, 126, 124, 123, 121, 120, 119, 118, 117, 117, 116, 116, 116, 116, 116, 116, 116, 116, 116, 116, 116, 116, 116, 116, 115, 115, 115, 115, 115, 115, 114, 115, 115, 115, 115, 116, 116, 117, 118, 119, 120, 122, 123, 125, 127, 129, 131, 133, 135, 137, 139, 141, 143, 145, 146, 148, 149, 150, 150, 151, 150, 150, 149, 148, 147, 145, 143, 141, 139, 137, 135, 133, 130, 128, 126, 125, 123, 122, 121, 120, 119, 118, 118, 118, 118, 118, 118, 118, 118, 119, 119, 119, 119, 119, 119, 119, 119, 118, 118, 118, 118, 118, 117, 117, 117, 117, 118, 118, 118, 119, 120, 121, 122, 123, 124, 126, 127, 129, 131, 133, 135, 136, 138, 140, 142, 144, 145, 147, 148, 149, 149, 149, 149, 149, 148, 147, 146, 145, 143, 141, 139, 137, 135, 132, 130, 128, 126, 124, 122, 121, 120, 118, 118, 117, 116, 116, 116, 116, 116, 116, 116, 117, 117, 117, 117, 117, 118, 118, 118, 117, 117, 117, 117, 117, 117, 116, 116, 116, 116, 116, 117, 117, 117, 118, 119, 120, 121, 122, 123, 125, 126, 128, 130, 132, 134, 136, 138, 140, 141, 143, 144, 146, 147, 147, 148, 148, 148, 147, 146, 145, 143, 142, 140, 138, 136, 134, 132, 129, 127, 126, 124, 122, 121, 120, 119, 118, 118, 118, 118, 118, 118, 118, 119, 119, 119, 120, 120, 120, 120, 121, 121, 121, 121, 121, 121, 120, 120, 120, 120, 120, 120, 120, 120, 120, 120, 120, 121, 121, 122, 123, 124, 125, 127, 128, 130, 132, 133, 135, 137, 139, 141, 142, 144, 146, 147, 148, 148, 149, 149, 149, 148, 147, 146, 144, 143, 141, 139, 136, 134, 132, 130, 128, 126, 124, 123, 121, 120, 120, 119, 119, 118, 118, 118, 118, 119, 119, 119, 120, 120, 120, 120, 120, 120, 120, 120, 120, 120, 120, 119, 119, 119, 118, 118, 118, 118, 117, 117, 118, 118, 118, 119, 120, 121, 122, 123, 125, 126, 128, 130, 132, 134, 136, 138, 140, 142, 144, 145, 146, 147, 148, 148, 148, 147, 146, 145, 144, 142, 140, 138, 136, 133, 131, 129, 126, 124, 123, 121, 119, 118, 117, 117, 116, 116, 116, 116, 116, 117, 117, 118, 118, 119, 119, 120, 120, 120, 121, 121, 121, 121, 121, 121, 121, 121, 121, 121, 120, 120, 120, 120, 120, 120, 121, 121, 122, 123, 123, 125, 126, 127, 129, 131, 133, 134, 136, 138, 140, 142, 144, 145, 147, 148, 148, 149, 149, 149, 148, 147, 146, 144, 142, 140, 138, 136, 134, 131, 129, 127, 125, 123, 121, 120, 118, 117, 117, 116, 116, 116, 117, 117, 117, 118, 119, 120, 120, 121, 121, 122, 122, 123, 123, 123, 123, 123, 123, 122, 122, 122, 121, 121, 121, 120, 120, 120, 120, 120, 121, 121, 122, 123, 124, 125, 127, 128, 130, 132, 134, 136, 138, 139, 141, 143, 144, 145, 146, 147, 147, 147, 146, 146, 145, 143, 142, 140, 138, 136, 134, 132, 129, 127, 125, 123, 121, 120, 119, 118, 117, 116, 116, 115, 115, 115, 116, 116, 116, 117, 117, 118, 118, 119, 119, 119, 119, 120, 120, 120, 120, 120, 120, 119, 119, 119, 119, 119, 119, 119, 119, 120, 120, 121, 121, 122, 123, 125, 126, 127, 129, 131, 133, 134, 136, 138, 140, 142, 143, 145, 146, 147, 147, 148, 148, 147, 147, 146, 145, 143, 142, 140, 138, 136, 134, 131, 129, 127, 126, 124, 122, 121, 120, 119, 118, 118, 118, 117, 117, 118, 118, 118, 118, 119, 119, 120, 120, 120, 120, 121, 121, 121, 121, 121, 121, 121, 121, 121, 121, 121, 121, 121, 121, 121, 122, 122, 123, 124, 125, 126, 127, 128, 130, 131, 133, 135, 136, 138, 140, 141, 143, 144, 145, 146, 147, 147, 147, 147, 146, 146, 145, 143, 142, 140, 138, 136, 134, 132, 129, 127, 125, 124, 122, 121, 119, 118, 118, 117, 116, 116, 116, 116, 116, 116, 117, 117, 117, 117, 117, 118, 118, 118, 118, 118, 118, 118, 118, 118, 118, 118, 118, 118, 118, 119, 119, 119, 120, 120, 121, 122, 123, 124, 125, 126, 128, 129, 131, 133, 134, 136, 138, 139, 141, 142, 144, 145, 146, 146, 146, 146, 146, 146, 145, 144, 142, 141, 139, 137, 135, 133, 131, 129, 127, 126, 124, 123, 121, 120, 120, 119, 119, 118, 118, 118, 118, 118, 119, 119, 119, 119, 119, 119, 120, 120, 120, 119, 119, 119, 119, 119, 119, 119, 119, 119, 119, 119, 120, 120, 120, 121, 122, 122, 123, 124, 125, 127, 128, 129, 131, 133, 134, 136, 138, 140, 141, 143, 144, 146, 147, 147, 148, 148, 148, 148, 147, 146, 144, 143, 141, 139, 137, 135, 133, 131, 129, 127, 125, 124, 122, 121, 120, 120, 119, 119, 119, 119, 119, 119, 119, 120, 120, 120, 120, 120, 120, 120, 120, 120, 120, 119, 119, 119, 118, 118, 118, 117, 117, 117, 117, 117, 117, 118, 118, 119, 120, 121, 122, 123, 124, 126, 128, 129, 131, 133, 135, 137, 139, 140, 142, 143, 145, 145, 146, 146, 146, 146, 145, 145, 143, 142, 140, 138, 136, 134, 132, 130, 128, 126, 124, 122, 121, 120, 119, 118, 118, 118, 118, 118, 118, 118, 119, 119, 120, 120, 120, 120, 121, 121, 121, 121, 120, 120, 120, 120, 119, 119, 119, 118, 118, 118, 118, 118, 119, 119, 120, 120, 121, 122, 123, 125, 126, 127, 129, 131, 133, 134, 136, 138, 140, 141, 143, 144, 145, 146, 147, 147, 147, 147, 147, 146, 145, 143, 142, 140, 138, 136, 134, 132, 130, 128, 126, 125, 123, 122, 121, 120, 120, 119, 119, 119, 119, 120, 120, 120, 120, 121, 121, 121, 121, 121, 121, 121, 121, 121, 121, 120, 120, 120, 120, 119, 119, 119, 119, 119, 120, 120, 120, 121, 122, 122, 123, 124, 125, 126, 128, 129, 131, 132, 133, 135, 137, 138, 139, 141, 142, 143, 143, 144, 144, 144, 144, 143, 142, 141, 140, 138, 137, 135, 133, 131, 129, 127, 126, 124, 123, 121, 120, 119, 119, 118, 118, 118, 118, 118, 118, 118, 119, 119, 119, 120, 120, 120, 120, 120, 120, 120, 120, 119, 119, 119, 119, 119, 119, 119, 119, 119, 119, 119, 120, 120, 121, 122, 123, 124, 125, 126, 127, 129, 130, 131, 133, 135, 136, 138, 139, 140, 142, 143, 143, 144, 145, 145, 145, 144, 144, 143, 142, 141, 139, 137, 136, 134, 132, 131, 129, 127, 126, 124, 123, 122, 121, 121, 120, 120, 120, 120, 120, 120, 120, 120, 120, 121, 121, 121, 121, 121, 121, 121, 121, 121, 121, 121, 121, 121, 121, 121, 121, 122, 122, 122, 122, 123, 123, 124, 125, 126, 127, 128, 129, 130, 131, 132, 134, 135, 136, 137, 139, 140, 141, 142, 142, 143, 143, 143, 143, 143, 142, 142, 141, 139, 138, 137, 135, 133, 132, 130, 128, 126, 125, 123, 122, 121, 120, 119, 118, 118, 117, 117, 117, 117, 117, 118, 118, 118, 118, 119, 119, 119, 119, 119, 120, 120, 120, 120, 120, 120, 120, 120, 120, 120, 120, 121, 121, 121, 122, 122, 123, 124, 125, 125, 126, 128, 129, 130, 131, 133, 134, 135, 136, 138, 139, 140, 141, 141, 142, 142, 142, 142, 142, 141, 141, 140, 139, 137, 136, 135, 133, 131, 130, 128, 127, 125, 124, 123, 122, 121, 120, 120, 119, 119, 119, 119, 119, 119, 119, 120, 120, 120, 121, 121, 121, 121, 121, 122, 122, 122, 122, 122, 122, 122, 122, 122, 122, 122, 122, 123, 123, 123, 124, 125, 125, 126, 127, 128, 129, 130, 132, 133, 134, 136, 137, 138, 139, 140, 141, 142, 143, 143, 144, 144, 143, 143, 142, 142, 141, 139, 138, 137, 135, 133, 132, 130, 128, 127, 125, 124, 122, 121, 120, 119, 119, 118, 118, 118, 118, 118, 118, 118, 118, 119, 119, 119, 120, 120, 120, 120, 121, 121, 121, 121, 121, 121, 121, 121, 121, 121, 121, 121, 121, 122, 122, 123, 123, 124, 125, 126, 127, 128, 129, 130, 131, 133, 134, 136, 137, 138, 139, 140, 141, 142, 142, 142, 142, 142, 142, 141, 140, 139, 138, 136, 135, 133, 131, 129, 128, 126, 124, 123, 122, 120, 119, 119, 118, 117, 117, 117, 117, 117, 118, 118, 118, 119, 119, 120, 120, 121, 121, 121, 122, 122, 122, 122, 122, 122, 122, 122, 122, 122, 122, 123, 123, 123, 123, 124, 124, 125, 126, 127, 127, 128, 130, 131, 132, 133, 134, 136, 137, 138, 139, 140, 141, 142, 143, 143, 143, 143, 143, 143, 142, 141, 140, 139, 137, 136, 134, 132, 131, 129, 127, 126, 124, 123, 121, 120, 120, 119, 118, 118, 118, 118, 118, 118, 119, 119, 120, 120, 120, 121, 121, 121, 122, 122, 122, 122, 122, 122, 122, 122, 122, 122, 122, 122, 122, 122, 122, 123, 123, 123, 124, 125, 125, 126, 127, 128, 129, 130, 132, 133, 134, 135, 137, 138, 139, 140, 141, 141, 142, 142, 142, 142, 141, 141, 140, 139, 137, 136, 134, 133, 131, 129, 127, 126, 124, 123, 121, 120, 119, 118, 118, 117, 117, 117, 117, 117, 118, 118, 118, 119, 119, 120, 120, 120, 121, 121, 121, 122, 122, 122, 122, 122, 122, 123, 123, 123, 123, 123, 123, 123, 124, 124, 124, 125, 125, 126, 127, 128, 129, 130, 131, 132, 133, 134, 135, 137, 138, 139, 140, 141, 141, 142, 142, 142, 142, 141, 141, 140, 139, 138, 136, 135, 133, 132, 130, 128, 127, 125, 124, 123, 122, 121, 120, 119, 119, 119, 119, 119, 119, 119, 120, 120, 120, 121, 121, 122, 122, 122, 123, 123, 123, 123, 124, 124, 124, 124, 124, 124, 124, 124, 124, 124, 125, 125, 125, 125, 126, 126, 127, 127, 128, 129, 130, 131, 132, 133, 134, 136, 137, 138, 139, 140, 140, 141, 141, 141, 141, 141, 140, 139, 138, 137, 136, 134, 133, 131, 130, 128, 126, 125, 124, 122, 121, 120, 120, 119, 119, 118, 118, 118, 118, 119, 119, 119, 120, 120, 120, 121, 121, 121, 122, 122, 122, 122, 123, 123, 123, 123, 123, 123, 123, 123, 123, 123, 123, 123, 123, 124, 124, 125, 125, 126, 126, 127, 128, 129, 130, 132, 133, 134, 135, 136, 137, 138, 139, 140, 140, 140, 140, 140, 139, 139, 138, 137, 135, 134, 133, 131, 130, 128, 127, 125, 124, 123, 122, 121, 121, 120, 120, 120, 120, 120, 120, 121, 121, 121, 122, 122, 122, 123, 123, 123, 124, 124, 124, 124, 125, 125, 125, 125, 125, 125, 125, 125, 125, 125, 125, 125, 125, 125, 126, 126, 127, 127, 128, 129, 130, 131, 132, 133, 134, 135, 136, 137, 138, 139, 140, 140, 141, 141, 141, 140, 140, 139, 138, 137, 136, 134, 133, 132, 130, 129, 127, 126, 124, 123, 122, 121, 121, 120, 120, 120, 119, 119, 119, 120, 120, 120, 121, 121, 121, 122, 122, 122, 123, 123, 123, 123, 123, 124, 124, 124, 124, 124, 124, 124, 124, 124, 124, 124, 125, 125, 125, 125, 126, 126, 127, 128, 129, 129, 130, 131, 132, 133, 134, 135, 136, 137, 138, 138, 138, 139, 139, 138, 138, 137, 136, 135, 134, 133, 132, 130, 129, 127, 126, 125, 123, 122, 121, 120, 120, 119, 119, 119, 119, 119, 119, 119, 119, 120, 120, 121, 121, 122, 122, 123, 123, 123, 124, 124, 124, 124, 125, 125, 125, 125, 125, 125, 125, 125, 125, 126, 126, 126, 126, 127, 127, 128, 128, 129, 130, 131, 131, 132, 133, 134, 135, 136, 137, 137, 138, 138, 139, 139, 139, 139, 139, 138, 138, 137, 136, 135, 134, 133, 131, 130, 128, 127, 126, 124, 123, 122, 121, 121, 120, 120, 120, 119, 120, 120, 120, 120, 121, 121, 122, 122, 123, 123, 124, 124, 124, 125, 125, 125, 125, 125, 125, 125, 125, 125, 125, 125, 125, 125, 125, 125, 125, 125, 126, 126, 127, 128, 128, 129, 130, 131, 131, 132, 133, 134, 135, 135, 136, 137, 137, 138, 138, 138, 138, 137, 137, 136, 135, 134, 133, 132, 131, 130, 128, 127, 126, 125, 123, 123, 122, 121, 121, 120, 120, 120, 120, 120, 121, 121, 121, 122, 122, 123, 123, 123, 123, 123, 124, 123, 123, 123, 123, 123, 123, 123, 122, 122, 122, 122, 123, 123, 123, 123, 124, 125, 125, 126, 127, 128, 129, 130, 131, 132, 133, 134, 135, 136, 136, 137, 138, 139, 139, 140, 140, 140, 140, 139, 139, 138, 137, 136, 135, 134, 132, 131, 129, 128, 126, 125, 124, 123, 122, 121, 120, 120, 120, 120, 120, 120, 120, 121, 121, 121, 122, 122, 123, 123, 123, 124, 124, 124, 124, 124, 124, 124, 124, 124, 124, 124, 124, 124, 124, 124, 125, 125, 126, 126, 127, 127, 128, 129, 129, 130, 131, 132, 133, 133, 134, 135, 136, 136, 137, 137, 138, 138, 138, 138, 138, 138, 138, 137, 136, 135, 134, 133, 132, 130, 129, 127, 126, 125, 123, 122, 121, 120, 120, 119, 119, 119, 119, 119, 119, 120, 120, 120, 121, 121, 122, 122, 122, 123, 123, 123, 123, 123, 123, 123, 123, 123, 123, 123, 123, 123, 124, 124, 124, 124, 125, 125, 126, 126, 127, 128, 128, 129, 130, 130, 131, 132, 133, 134, 135, 135, 136, 137, 138, 138, 139, 139, 139, 139, 139, 138, 138, 137, 136, 135, 133, 132, 131, 129, 128, 127, 125, 124, 123, 122, 121, 121, 120, 120, 120, 120, 120, 120, 120, 120, 121, 121, 121, 122, 122, 123, 123, 123, 123, 124, 124, 124, 124, 124, 125, 125, 125, 125, 125, 126, 126, 126, 126, 127, 127, 127, 128, 128, 129, 129, 130, 130, 131, 132, 132, 133, 134, 134, 135, 136, 137, 137, 138, 138, 138, 138, 138, 138, 137, 137, 136, 135, 134, 133, 131, 130, 128, 127, 126, 124, 123, 122, 121, 120, 120, 119, 119, 119, 119, 119, 119, 120, 120, 121, 121, 122, 122, 123, 123, 123, 124, 124, 124, 124, 124, 125, 125, 125, 125, 125, 125, 125, 125, 125, 126, 126, 126, 126, 126, 127, 127, 127, 128, 128, 129, 129, 130, 131, 131, 132, 133, 134, 135, 135, 136, 137, 137, 138, 138, 138, 138, 137, 137, 136, 135, 134, 133, 132, 130, 129, 128, 126, 125, 124, 123, 122, 121, 120, 120, 119, 119, 119, 119, 119, 120, 120, 121, 121, 122, 122, 123, 123, 123, 124, 124, 124, 125, 125, 125, 125, 125, 125, 126, 126, 126, 126, 126, 126, 127, 127, 127, 128, 128, 129, 129, 130, 131, 131, 132, 133, 134, 134, 135, 136, 136, 137, 137, 138, 138, 138, 138, 138, 138, 138, 137, 137, 136, 135, 134, 133, 132, 131, 130, 129, 128, 127, 126, 125, 124, 123, 122, 122, 121, 120, 120, 120, 119, 119, 119, 119, 119, 119, 120, 120, 120, 120, 121, 121, 122, 122, 123, 123, 123, 124, 124, 125, 125, 125, 125, 126, 126, 126, 127, 127, 128, 128, 129, 129, 130, 130, 131, 132, 132, 133, 134, 134, 135, 135, 136, 136, 137, 137, 137, 137, 137, 136, 136, 135, 135, 134, 133, 132, 131, 130, 129, 128, 126, 125, 124, 123, 121, 120, 119, 118, 118, 117, 117, 117, 117, 117, 117, 117, 118, 118, 119, 120, 120, 121, 122, 122, 123, 123, 124, 124, 125, 125, 125, 126, 126, 126, 126, 126, 127, 127, 127, 127, 127, 127, 128, 128, 128, 128, 129, 129, 129, 130, 131, 131, 132, 133, 133, 134, 135, 136, 136, 137, 137, 138, 138, 138, 138, 137, 137, 136, 136, 135, 134, 133, 132, 131, 130, 130, 129, 128, 128, 127, 127, 126, 126, 126, 125, 125, 125, 124, 124, 123, 123, 122, 121, 120, 120, 119, 118, 117, 116, 116, 115, 115, 114, 114, 114, 114, 114, 114, 114, 115, 115, 115, 116, 116, 117, 117, 118, 118, 119, 120, 121, 122, 123, 125, 126, 128, 129, 131, 132, 134, 136, 137, 138, 139, 140, 141, 142, 142, 142, 141, 141, 140, 140, 139, 138, 137, 136, 136, 135, 135, 134, 134, 134, 135, 135, 136, 136, 137, 137, 138, 138, 139, 139, 139, 139, 139, 139, 138, 138, 137, 136, 136, 135, 134, 133, 133, 132, 131, 131, 130, 129, 129, 128, 128, 127, 126, 126, 125, 125, 124, 124, 124, 124, 124, 125, 125, 126, 126, 127, 128, 129, 130, 131, 131, 132, 132, 132, 132, 132, 132, 131, 130, 129, 127, 126, 124, 123, 122, 120, 119, 118, 118, 117, 117, 117, 117, 117, 118, 118, 119, 120, 121, 122, 122, 123, 124, 125, 125, 126, 126, 126, 127, 127, 127, 127, 127, 127, 127, 127, 127, 127, 127, 127, 126, 126, 125, 125, 124, 123, 123, 122, 121, 121, 120, 120, 120, 120, 120, 120, 121, 121, 122, 123, 123, 124, 125, 126, 127, 127, 128, 128, 128, 128, 128, 127, 127, 126, 125, 125, 124, 123, 122, 121, 121, 120, 120, 119, 119, 119, 119, 119, 120, 120, 120, 121, 122, 122, 123, 124, 125, 126, 127, 128, 129, 131, 132, 133, 134, 135, 136, 137, 138, 138, 139, 140, 140, 140, 141, 141, 141, 141, 141, 141, 141, 141, 141, 142, 142, 142, 142, 142, 143, 143, 143, 143, 143, 143, 143, 142, 142, 141, 141, 140, 139, 138, 136, 135, 134, 133, 131, 130, 129, 128, 126, 125, 124, 124, 123, 122, 121, 121, 120, 120, 120, 119, 119, 119, 119, 119, 119, 119, 119, 119, 120, 120, 121, 121, 122, 122, 123, 123, 124, 124, 125, 125, 125, 126, 126, 126, 127, 127, 127, 127, 127, 128, 128, 129, 129, 130, 130, 131, 132, 132, 133, 133, 134, 134, 134, 135, 134, 134, 134, 134, 133, 132, 131, 130, 129, 128, 127, 126, 124, 123, 121, 120, 119, 117, 116, 115, 114, 113, 112, 111, 110, 110, 109, 109, 109, 109, 109, 110, 111, 111, 112, 114, 115, 116, 117, 119, 120, 121, 122, 123, 124, 125, 126, 127, 127, 128, 128, 129, 129, 129, 130, 130, 131, 131, 132, 132, 133, 134, 134, 135, 136, 137, 137, 138, 139, 139, 140, 140, 140, 141, 141, 141, 141, 141, 140, 140, 140, 139, 138, 138, 137, 136, 135, 134, 133, 132, 131, 130, 129, 128, 127, 126, 125, 125, 124, 123, 123, 123, 123, 123, 123, 124, 124, 125, 125, 126, 126, 127, 128, 128, 128, 129, 129, 129, 129, 129, 129, 129, 129, 129, 129, 129, 129, 130, 130, 130, 130, 131, 131, 131, 131, 131, 131, 131, 130, 130, 130, 129, 129, 128, 128, 127, 127, 127, 127, 127, 127, 127, 127, 127, 127, 127, 126, 126, 125, 125, 124, 123, 123, 122, 121, 120, 119, 119, 118, 118, 118, 118, 117, 117, 117, 117, 117, 116, 115, 115, 114, 113, 112, 111, 111, 110, 110, 110, 110, 111, 112, 114, 116, 118, 121, 124, 127, 130, 133, 136, 139, 142, 144, 146, 148, 150, 151, 152, 152, 152, 152, 152, 152, 152, 151, 150, 149, 148, 147, 145, 144, 142, 140, 137, 135, 132, 130, 127, 124, 121, 118, 116, 113, 110, 107, 105, 103, 100, 98, 96, 94, 92, 90, 88, 87, 86, 85, 85, 85, 86, 87, 89, 92, 95, 99, 104, 108, 114, 119, 125, 130, 135, 140, 144, 148, 152, 154, 156, 158, 159, 160, 160, 161, 161, 162, 162, 163, 164, 165, 167, 168, 170, 172, 174, 175, 176, 177, 178, 177, 176, 175, 173, 170, 166, 162, 158, 153, 148, 142, 137, 132, 128, 123, 119, 116, 113, 111, 109, 108, 108, 108, 109, 111, 113, 115, 118, 121, 124, 126, 129, 132, 134, 136, 137, 138, 138, 138, 137, 135, 133, 131, 129, 126, 124, 121, 119, 117, 116, 114, 114, 113, 113, 114, 114, 115, 116, 116, 117, 118, 118, 118, 117, 117, 116, 115, 114, 113, 112, 111, 110, 111, 111, 112, 114, 116, 119, 123, 126, 130, 134, 138, 142, 146, 149, 152, 154, 155, 156, 155, 154, 152, 150, 146, 143, 138, 134, 129, 125, 120, 116, 112, 108, 105, 102, 100, 98, 96, 95, 94, 94, 93, 93, 93, 93, 93, 93, 93, 93, 92, 92, 92, 91, 91, 91, 91, 92, 92, 94, 95, 97, 100, 103, 106, 110, 115, 119, 124, 129, 134, 138, 143, 147, 151, 154, 157, 159, 160, 161, 161, 161, 160, 159, 157, 155, 153, 151, 149, 147, 145, 143, 142, 141, 139, 138, 138, 137, 136, 136, 135, 135, 134, 133, 133, 132, 131, 130, 130, 129, 129, 129, 129, 129, 130, 131, 132, 134, 136, 138, 141, 143, 146, 149, 151, 154, 156, 158, 159, 160, 161, 161, 160, 159, 157, 155, 153, 150, 147, 144, 141, 138, 135, 132, 129, 127, 124, 122, 120, 118, 116, 115, 113, 112, 111, 110, 109, 108, 107, 106, 106, 106, 106, 106, 106, 107, 108, 110, 112, 114, 116, 118, 121, 124, 127, 129, 132, 135, 137, 139, 141, 142, 143, 143, 144, 143, 143, 142, 141, 140, 138, 137, 135, 133, 132, 130, 128, 127, 125, 123, 121, 119, 117, 115, 113, 111, 109, 107, 104, 102, 100, 98, 96, 95, 94, 93, 92, 92, 93, 94, 95, 97, 99, 101, 104, 107, 111, 114, 117, 120, 123, 126, 128, 131, 133, 134, 135, 136, 136, 137, 136, 136, 136, 135, 135, 134, 133, 133, 133, 132, 132, 132, 131, 131, 131, 131, 131, 131, 130, 130, 129, 128, 127, 127, 126, 125, 124, 123, 122, 121, 121, 120, 121, 121, 122, 123, 125, 126, 129, 131, 134, 137, 140, 143, 146, 149, 152, 154, 157, 159, 160, 161, 162, 162, 163, 162, 161, 160, 159, 158, 156, 154, 153, 151, 149, 147, 145, 143, 141, 139, 137, 135, 133, 131, 129, 126, 124, 122, 119, 117, 114, 112, 110, 108, 106, 104, 103, 102, 102, 102, 103, 104, 106, 108, 110, 113, 116, 119, 123, 126, 130, 133, 136, 139, 142, 144, 145, 147, 147, 147, 147, 147, 146, 144, 143, 141, 139, 137, 135, 134, 132, 130, 128, 127, 125, 124, 122, 121, 120, 118, 117, 115, 114, 112, 110, 108, 106, 105, 103, 101, 100, 98, 97, 96, 96, 96, 96, 97, 98, 100, 102, 104, 107, 110, 113, 116, 119, 122, 124, 127, 129, 131, 132, 134, 134, 135, 135, 134, 133, 132, 131, 130, 128, 127, 125, 124, 122, 121, 119, 118, 117, 116, 115, 115, 114, 114, 114, 114, 114, 114, 114, 115, 115, 116, 117, 118, 119, 120, 122, 124, 126, 128, 131, 133, 136, 139, 142, 144, 147, 150, 152, 155, 157, 159, 160, 161, 162, 163, 163, 163, 162, 161, 160, 158, 157, 155, 153, 150, 148, 146, 144, 141, 139, 137, 135, 133, 131, 129, 127, 125, 124, 122, 121, 119, 118, 117, 116, 116, 115, 115, 115, 115, 116, 117, 118, 119, 120, 122, 124, 126, 128, 130, 132, 134, 136, 138, 140, 142, 143, 144, 145, 145, 146, 146, 145, 145, 144, 143, 142, 141, 140, 138, 137, 135, 133, 131, 129, 127, 125, 123, 121, 119, 117, 114, 112, 110, 108, 106, 104, 102, 101, 100, 99, 99, 99, 99, 100, 101, 102, 104, 106, 109, 111, 114, 117, 120, 123, 125, 128, 130, 132, 134, 135, 136, 137, 137, 137, 137, 137, 136, 135, 134, 133, 132, 131, 130, 129, 128, 127, 126, 125, 124, 123, 122, 121, 120, 119, 117, 116, 115, 113, 112, 110, 109, 108, 107, 107, 106, 106, 107, 107, 108, 110, 112, 114, 116, 119, 122, 125, 128, 131, 134, 137, 139, 142, 144, 145, 147, 148, 149, 149, 149, 149, 148, 148, 147, 147, 146, 145, 144, 144, 143, 143, 142, 141, 141, 140, 139, 139, 138, 136, 135, 134, 132, 131, 129, 127, 126, 124, 122, 121, 120, 119, 119, 119, 119, 120, 121, 122, 124, 126, 129, 131, 134, 137, 139, 142, 144, 147, 148, 150, 151, 152, 152, 152, 152, 151, 150, 149, 147, 145, 144, 142, 140, 138, 137, 135, 133, 132, 130, 129, 127, 126, 125, 123, 121, 120, 118, 117, 115, 113, 112, 110, 109, 107, 106, 106, 105, 105, 105, 106, 107, 108, 110, 112, 114, 116, 119, 121, 124, 126, 128, 131, 132, 134, 135, 136, 137, 137, 137, 137, 136, 136, 135, 134, 133, 131, 130, 129, 128, 126, 125, 124, 123, 122, 121, 120, 118, 117, 116, 114, 113, 111, 110, 108, 106, 105, 104, 103, 102, 101, 101, 101, 101, 102, 103, 105, 107, 109, 111, 114, 117, 120, 123, 126, 129, 131, 134, 136, 138, 140, 141, 142, 143, 143, 143, 143, 142, 142, 141, 140, 140, 139, 138, 137, 137, 136, 135, 135, 134, 133, 133, 132, 132, 131, 130, 129, 128, 127, 126, 125, 124, 124, 123, 123, 122, 122, 123, 123, 124, 126, 127, 129, 131, 133, 135, 138, 140, 142, 144, 146, 148, 150, 151, 152, 152, 152, 152, 152, 151, 150, 149, 148, 147, 145, 144, 142, 141, 139, 138, 137, 135, 134, 133, 132, 130, 129, 127, 126, 124, 123, 121, 119, 117, 116, 114, 113, 111, 110, 110, 109, 109, 109, 110, 111, 113, 114, 117, 119, 121, 124, 127, 130, 132, 135, 137, 139, 140, 141, 142, 142, 142, 142, 141, 140, 138, 137, 135, 133, 131, 129, 127, 126, 124, 122, 121, 120, 118, 117, 116, 115, 114, 113, 111, 110, 109, 107, 106, 105, 103, 102, 101, 100, 100, 99, 99, 100, 101, 102, 103, 105, 108, 110, 113, 116, 119, 123, 126, 129, 132, 135, 137, 139, 141, 142, 143, 144, 144, 144, 143, 143, 142, 141, 139, 138, 137, 136, 135, 134, 133, 132, 131, 130, 129, 129, 128, 127, 126, 124, 123, 122, 120, 119, 117, 116, 115, 114, 113, 112, 112, 112, 113, 114, 115, 117, 119, 122, 125, 128, 131, 135, 138, 142, 145, 148, 150, 152, 154, 156, 156, 157, 157, 156, 155, 154, 153, 151, 150, 148, 146, 145, 143, 141, 140, 139, 137, 136, 135, 134, 133, 132, 130, 129, 128, 126, 124, 123, 121, 119, 118, 116, 115, 114, 113, 112, 112, 112, 113, 114, 115, 117, 119, 122, 124, 127, 130, 132, 135, 137, 139, 141, 143, 144, 144, 145, 145, 144, 143, 142, 141, 140, 138, 136, 135, 133, 131, 130, 128, 127, 126, 124, 123, 122, 120, 119, 118, 116, 115, 113, 111, 109, 108, 106, 104, 103, 102, 101, 100, 100, 100, 100, 101, 103, 104, 106, 109, 112, 115, 118, 121, 124, 127, 130, 132, 135, 137, 138, 139, 140, 140, 140, 140, 139, 138, 137, 136, 134, 133, 131, 130, 129, 128, 126, 125, 124, 124, 123, 122, 121, 120, 120, 119, 118, 117, 116, 115, 114, 113, 112, 111, 110, 110, 110, 110, 111, 112, 113, 115, 117, 120, 122, 125, 128, 132, 135, 138, 141, 144, 146, 148, 150, 152, 153, 154, 154, 154, 154, 153, 152, 151, 150, 149, 148, 146, 145, 143, 142, 141, 139, 138, 137, 135, 134, 133, 131, 130, 128, 126, 125, 123, 121, 119, 118, 117, 115, 115, 114, 114, 114, 114, 115, 117, 118, 120, 122, 125, 128, 130, 133, 136, 139, 141, 143, 145, 147, 148, 149, 149, 149, 149, 148, 147, 146, 145, 143, 141, 140, 138, 136, 135, 133, 131, 130, 128, 127, 126, 124, 123, 122, 120, 119, 117, 116, 114, 112, 111, 109, 108, 107, 106, 105, 104, 104, 104, 104, 105, 106, 108, 110, 112, 114, 116, 119, 121, 124, 126, 128, 130, 132, 133, 134, 135, 136, 136, 136, 135, 135, 134, 133, 132, 131, 130, 129, 128, 127, 126, 125, 124, 124, 123, 122, 121, 120, 119, 119, 118, 116, 115, 114, 113, 112, 111, 111, 110, 110, 109, 110, 110, 111, 112, 114, 115, 117, 120, 122, 125, 128, 131, 134, 136, 139, 141, 143, 144, 146, 147, 147, 147, 147, 147, 146, 145, 144, 143, 141, 140, 139, 137, 136, 135, 134, 133, 132, 131, 130, 130, 129, 128, 127, 126, 125, 124, 123, 122, 121, 120, 119, 119, 118, 118, 118, 118, 119, 119, 121, 122, 124, 126, 128, 130, 133, 135, 138, 140, 143, 145, 147, 148, 149, 150, 151, 151, 151, 150, 150, 149, 147, 146, 145, 143, 141, 140, 138, 136, 135, 133, 131, 130, 128, 126, 125, 123, 122, 120, 118, 116, 114, 113, 111, 109, 108, 106, 105, 104, 104, 104, 104, 104, 105, 107, 108, 110, 112, 115, 118, 120, 123, 126, 128, 130, 133, 134, 136, 137, 138, 139, 139, 139, 139, 138, 137, 136, 135, 134, 133, 132, 131, 130, 129, 128, 127, 127, 126, 125, 124, 123, 122, 121, 120, 119, 118, 117, 115, 114, 113, 112, 111, 110, 109, 109, 109, 109, 110, 110, 112, 113, 115, 117, 119, 122, 124, 126, 129, 131, 133, 135, 137, 139, 140, 141, 141, 142, 142, 142, 141, 141, 140, 140, 139, 138, 137, 137, 136, 135, 134, 133, 133, 132, 131, 130, 129, 128, 127, 125, 124, 123, 121, 120, 119, 118, 117, 117, 116, 116, 117, 117, 118, 120, 121, 123, 125, 128, 130, 133, 135, 138, 140, 142, 144, 146, 147, 148, 149, 149, 149, 149, 148, 147, 146, 144, 143, 141, 140, 138, 137, 135, 134, 132, 131, 130, 129, 128, 127, 125, 124, 123, 122, 121, 120, 119, 118, 117, 116, 115, 114, 113, 113, 112, 112, 112, 113, 113, 114, 115, 117, 118, 120, 122, 124, 126, 128, 130, 132, 134, 135, 137, 138, 138, 139, 139, 139, 139, 139, 138, 137, 137, 136, 135, 134, 133, 132, 130, 129, 128, 127, 126, 125, 123, 122, 121, 119, 118, 116, 114, 113, 111, 109, 108, 107, 106, 105, 104, 104, 104, 105, 106, 107, 109, 111, 113, 116, 118, 121, 124, 127, 130, 132, 135, 137, 139, 140, 141, 142, 143, 143, 143, 143, 142, 141, 141, 140, 139, 138, 137, 136, 135, 134, 133, 132, 132, 131, 130, 129, 128, 128, 127, 126, 124, 123, 122, 121, 120, 118, 117, 117, 116, 115, 115, 115, 116, 116, 117, 118, 120, 122, 123, 125, 127, 129, 131, 133, 135, 136, 138, 139, 140, 141, 141, 141, 141, 141, 141, 141, 140, 140, 139, 139, 138, 138, 137, 137, 137, 136, 136, 135, 135, 134, 133, 132, 131, 129, 128, 126, 125, 123, 122, 120, 119, 117, 116, 116, 115, 115, 115, 115, 116, 117, 119, 121, 122, 124, 126, 129, 131, 133, 134, 136, 137, 138, 139, 139, 139, 139, 139, 138, 137, 136, 135, 134, 132, 131, 130, 129, 127, 126, 125, 124, 123, 123, 122, 121, 120, 119, 118, 117, 116, 115, 113, 112, 111, 110, 109, 109, 108, 108, 108, 108, 109, 110, 111, 112, 114, 116, 118, 121, 123, 126, 128, 131, 133, 135, 137, 138, 140, 141, 142, 142, 142, 142, 142, 142, 141, 140, 140, 139, 138, 137, 136, 135, 134, 134, 133, 132, 131, 130, 129, 127, 126, 125, 123, 122, 120, 118, 117, 115, 114, 113, 112, 111, 110, 110, 110, 111, 111, 113, 114, 116, 118, 121, 123, 126, 129, 132, 134, 137, 139, 141, 142, 144, 145, 146, 146, 146, 146, 146, 145, 145, 144, 143, 142, 141, 140, 139, 138, 137, 136, 135, 134, 133, 132, 131, 130, 129, 128, 126, 125, 124, 122, 121, 119, 118, 117, 116, 115, 115, 115, 115, 115, 116, 117, 118, 119, 121, 123, 125, 127, 129, 131, 133, 135, 137, 138, 139, 140, 141, 141, 141, 141, 141, 140, 139, 138, 137, 136, 135, 134, 133, 132, 131, 130, 130, 129, 128, 127, 126, 125, 124, 123, 122, 121, 119, 118, 117, 116, 114, 113, 113, 112, 111, 111, 111, 112, 113, 114, 115, 116, 118, 120, 122, 124, 126, 129, 131, 132, 134, 135, 136, 137, 138, 138, 138, 137, 137, 136, 134, 133, 132, 131, 129, 128, 126, 125, 124, 123, 122, 121, 121, 120, 120, 119, 119, 118, 118, 117, 117, 116, 116, 115, 115, 114, 114, 114, 114, 114, 115, 116, 117, 118, 119, 121, 123, 125, 128, 130, 132, 135, 137, 139, 141, 143, 145, 146, 147, 148, 148, 148, 148, 147, 146, 145, 144, 143, 142, 140, 139, 138, 136, 135, 134, 133, 132, 130, 129, 128, 127, 126, 125, 123, 122, 121, 119, 118, 117, 116, 115, 114, 114, 113, 113, 113, 114, 115, 116, 117, 119, 121, 123, 125, 128, 130, 132, 134, 136, 138, 140, 141, 142, 143, 144, 144, 144, 143, 143, 142, 141, 140, 139, 138, 137, 136, 135, 134, 133, 132, 131, 130, 129, 129, 128, 127, 126, 125, 124, 123, 122, 120, 119, 118, 117, 116, 115, 114, 113, 113, 113, 113, 113, 114, 115, 116, 117, 118, 120, 121, 123, 125, 126, 127, 128, 129, 130, 131, 131, 131, 131, 131, 131, 130, 130, 129, 129, 128, 128, 127, 127, 126, 126, 126, 125, 125, 125, 125, 124, 124, 123, 123, 122, 122, 121, 120, 120, 119, 119, 119, 118, 118, 118, 119, 120, 120, 121, 123, 124, 126, 128, 130, 132, 133, 135, 137, 139, 140, 141, 142, 143, 143, 143, 143, 143, 142, 141, 140, 139, 138, 137, 136, 134, 133, 132, 131, 130, 129, 128, 127, 126, 125, 125, 124, 123, 122, 121, 120, 119, 119, 118, 117, 117, 116, 116, 116, 116, 117, 117, 118, 119, 120, 122, 123, 125, 127, 129, 131, 133, 135, 137, 139, 140, 142, 143, 144, 144, 145, 145, 145, 145, 144, 143, 143, 142, 141, 140, 138, 137, 136, 135, 134, 132, 131, 130, 129, 127, 126, 125, 123, 122, 120, 119, 118, 116, 115, 114, 113, 112, 112, 112, 111, 112, 112, 113, 114, 115, 116, 118, 119, 121, 123, 125, 127, 128, 130, 132, 133, 134, 135, 135, 136, 136, 136, 135, 135, 134, 134, 133, 132, 131, 130, 129, 128, 128, 127, 126, 125, 124, 124, 123, 122, 122, 121, 120, 120, 119, 118, 117, 117, 116, 116, 116, 115, 115, 115, 116, 116, 117, 118, 119, 120, 121, 123, 124, 126, 128, 129, 131, 133, 134, 135, 136, 137, 138, 138, 138, 138, 138, 138, 137, 137, 136, 136, 135, 134, 133, 133, 132, 131, 131, 130, 129, 129, 128, 127, 127, 126, 125, 125, 124, 123, 122, 122, 121, 121, 121, 120, 120, 121, 121, 122, 123, 124, 125, 126, 128, 129, 131, 133, 134, 136, 138, 139, 140, 141, 142, 143, 143, 143, 143, 143, 142, 141, 140, 139, 138, 137, 136, 134, 133, 132, 131, 130, 129, 128, 127, 126, 125, 124, 124, 123, 122, 121, 120, 119, 118, 118, 117, 116, 116, 115, 115, 115, 115, 116, 116, 117, 118, 119, 121, 122, 124, 126, 127, 129, 131, 132, 134, 135, 136, 137, 138, 138, 138, 138, 138, 138, 137, 137, 136, 135, 134, 133, 132, 131, 130, 129, 129, 128, 127, 126, 125, 124, 123, 122, 121, 120, 119, 117, 116, 115, 114, 114, 113, 112, 112, 112, 112, 112, 113, 114, 115, 116, 117, 119, 121, 123, 125, 127, 129, 131, 132, 134, 135, 136, 137, 138, 138, 138, 138, 138, 138, 137, 137, 136, 135, 135, 134, 133, 132, 132, 131, 131, 130, 130, 129, 128, 128, 127, 126, 126, 125, 124, 123, 122, 121, 121, 120, 119, 119, 119, 119, 119, 119, 120, 121, 122, 123, 124, 126, 127, 129, 131, 132, 134, 135, 137, 138, 139, 139, 140, 140, 140, 140, 139, 139, 138, 138, 137, 136, 135, 134, 133, 132, 132, 131, 130, 129, 129, 128, 127, 126, 126, 125, 124, 123, 122, 121, 120, 119, 119, 118, 117, 117, 117, 117, 117, 118, 118, 119, 121, 122, 124, 125, 127, 129, 131, 133, 134, 136, 137, 138, 139, 140, 140, 140, 140, 140, 139, 138, 137, 136, 135, 134, 133, 132, 131, 130, 129, 128, 127, 126, 125, 124, 124, 123, 122, 121, 120, 119, 118, 117, 116, 115, 115, 114, 113, 113, 113, 112, 113, 113, 114, 115, 116, 117, 119, 120, 122, 124, 126, 128, 130, 132, 133, 135, 136, 137, 138, 138, 139, 139, 139, 139, 138, 138, 137, 136, 135, 134, 134, 133, 132, 131, 130, 130, 129, 128, 127, 127, 126, 125, 124, 123, 122, 121, 119, 118, 117, 117, 116, 115, 115, 114, 114, 115, 115, 116, 117, 118, 120, 122, 124, 126, 128, 130, 132, 134, 135, 137, 138, 140, 140, 141, 141, 142, 141, 141, 141, 140, 139, 138, 137, 136, 135, 134, 134, 133, 132, 131, 130, 130, 129, 128, 127, 127, 126, 125, 124, 123, 122, 122, 121, 120, 119, 118, 118, 117, 117, 117, 117, 118, 118, 119, 120, 122, 123, 125, 126, 128, 130, 131, 133, 134, 135, 136, 137, 137, 138, 138, 138, 137, 137, 136, 136, 135, 134, 133, 133, 132, 131, 131, 130, 129, 129, 129, 128, 128, 127, 126, 126, 125, 124, 124, 123, 122, 121, 120, 119, 119, 118, 118, 117, 117, 118, 118, 119, 120, 121, 122, 123, 125, 127, 128, 130, 131, 133, 134, 135, 136, 137, 137, 137, 137, 137, 136, 136, 135, 134, 133, 132, 131, 130, 129, 128, 127, 126, 125, 124, 124, 123, 122, 122, 121, 120, 120, 119, 118, 118, 117, 116, 116, 115, 115, 115, 115, 115, 115, 116, 117, 118, 119, 121, 122, 124, 126, 128, 130, 132, 134, 136, 138, 139, 140, 141, 142, 143, 143, 143, 142, 142, 141, 141, 140, 139, 138, 137, 136, 135, 134, 133, 132, 131, 130, 129, 129, 128, 127, 126, 125, 124, 123, 122, 121, 119, 118, 117, 117, 116, 115, 115, 115, 115, 115, 116, 116, 117, 119, 120, 122, 123, 125, 127, 129, 131, 132, 134, 135, 136, 137, 138, 139, 139, 139, 139, 139, 138, 138, 137, 136, 136, 135, 134, 134, 133, 133, 132, 131, 131, 130, 130, 129, 129, 128, 127, 126, 125, 124, 123, 123, 122, 121, 120, 119, 119, 118, 118, 118, 118, 119, 119, 120, 121, 122, 124, 125, 127, 128, 129, 131, 132, 133, 133, 134, 134, 134, 134, 134, 134, 133, 132, 131, 131, 130, 129, 128, 127, 126, 126, 125, 124, 124, 124, 123, 123, 122, 122, 122, 121, 121, 121, 120, 120, 119, 119, 119, 118, 118, 118, 118, 118, 119, 120, 120, 121, 123, 124, 125, 127, 128, 130, 132, 133, 134, 136, 137, 137, 138, 139, 139, 139, 138, 138, 137, 137, 136, 135, 134, 133, 132, 131, 130, 129, 128, 128, 127, 127, 126, 125, 125, 124, 124, 123, 122, 122, 121, 120, 120, 119, 118, 118, 117, 117, 117, 117, 117, 118, 119, 120, 121, 122, 124, 125, 127, 129, 131, 133, 134, 136, 138, 139, 140, 141, 141, 142, 142, 142, 141, 141, 141, 140, 139, 138, 137, 137, 136, 135, 134, 133, 132, 131, 130, 129, 128, 128, 126, 125, 124, 123, 122, 121, 120, 119, 118, 117, 116, 115, 115, 115, 115, 115, 116, 117, 118, 119, 120, 122, 124, 126, 128, 129, 131, 133, 134, 135, 136, 137, 138, 138, 138, 138, 138, 137, 137, 136, 135, 134, 134, 133, 132, 131, 131, 130, 129, 129, 128, 128, 127, 127, 126, 125, 124, 124, 123, 122, 121, 120, 119, 118, 117, 116, 116, 115, 115, 115, 116, 116, 117, 118, 119, 121, 122, 124, 125, 127, 128, 130, 131, 132, 133, 134, 135, 135, 135, 135, 135, 134, 134, 133, 133, 132, 131, 131, 130, 130, 129, 129, 128, 128, 128, 127, 127, 127, 126, 126, 125, 125, 124, 124, 123, 122, 121, 121, 120, 120, 119, 119, 119, 119, 120, 120, 121, 122, 124, 125, 127, 128, 130, 132, 133, 135, 136, 137, 138, 139, 140, 140, 140, 140, 140, 139, 138, 138, 137, 136, 135, 134, 133, 132, 131, 130, 129, 129, 128, 127, 126, 126, 125, 124, 123, 122, 122, 121, 120, 119, 118, 117, 117, 116, 116, 116, 116, 117, 117, 118, 119, 120, 122, 123, 125, 127, 128, 130, 132, 134, 135, 137, 138, 139, 140, 140, 141, 141, 141, 141, 140, 140, 139, 138, 137, 136, 135, 134, 133, 132, 131, 130, 130, 129, 128, 127, 126, 125, 124, 123, 122, 121, 119, 118, 117, 116, 116, 115, 114, 114, 114, 114, 114, 114, 115, 116, 117, 118, 119, 121, 122, 124, 126, 127, 129, 130, 131, 133, 134, 134, 135, 135, 135, 136, 135, 135, 135, 135, 134, 134, 133, 133, 132, 131, 131, 130, 130, 129, 129, 128, 128, 127, 126, 125, 124, 124, 123, 122, 121, 120, 119, 118, 118, 117, 117, 117, 117, 118, 119, 119, 121, 122, 123, 125, 126, 128, 130, 131, 133, 134, 136, 137, 137, 138, 138, 138, 138, 138, 138, 137, 136, 135, 134, 134, 133, 132, 131, 130, 129, 129, 128, 128, 127, 127, 126, 126, 125, 124, 124, 123, 123, 122, 121, 121, 120, 120, 119, 119, 119, 119, 119, 120, 120, 121, 122, 123, 124, 126, 127, 129, 130, 132, 133, 135, 136, 137, 138, 138, 139, 139, 139, 139, 138, 138, 137, 137, 136, 135, 134, 134, 133, 132, 131, 130, 130, 129, 128, 128, 127, 126, 125, 124, 123, 122, 121, 120, 119, 118, 117, 116, 115, 114, 113, 113, 113, 113, 114, 114, 115, 116, 118, 119, 121, 123, 125, 127, 129, 131, 132, 134, 135, 136, 137, 138, 138, 139, 139, 138, 138, 137, 137, 136, 135, 134, 133, 132, 131, 130, 129, 129, 128, 127, 126, 126, 125, 124, 123, 122, 122, 121, 120, 119, 118, 117, 117, 116, 116, 116, 115, 116, 116, 116, 117, 118, 119, 121, 122, 123, 125, 127, 128, 130, 131, 132, 134, 135, 135, 136, 137, 137, 137, 137, 137, 136, 136, 136, 135, 135, 134, 134, 133, 132, 132, 131, 131, 130, 130, 129, 129, 128, 127, 126, 126, 125, 124, 123, 122, 121, 120, 120, 119, 119, 119, 119, 119, 120, 120, 121, 122, 123, 125, 126, 127, 129, 130, 132, 133, 134, 135, 136, 137, 137, 137, 137, 137, 137, 136, 136, 135, 134, 134, 133, 132, 131, 130, 130, 129, 128, 128, 127, 127, 126, 126, 125, 125, 124, 124, 123, 122, 122, 121, 121, 120, 120, 120, 120, 120, 120, 120, 121, 121, 122, 123, 124, 125, 127, 128, 129, 130, 132, 133, 134, 134, 135, 135, 136, 136, 136, 136, 135, 135, 134, 134, 133, 133, 132, 131, 131, 130, 129, 129, 128, 127, 127, 126, 126, 125, 124, 123, 122, 121, 120, 119, 118, 117, 117, 116, 115, 115, 114, 114, 114, 115, 115, 116, 117, 118, 120, 121, 123, 125, 127, 128, 130, 132, 133, 134, 136, 137, 137, 138, 138, 138, 138, 138, 137, 137, 136, 136, 135, 134, 134, 133, 132, 132, 131, 130, 130, 129, 128, 128, 127, 126, 125, 125, 124, 123, 122, 121, 120, 119, 119, 118, 118, 117, 117, 117, 118, 118, 119, 120, 121, 122, 123, 125, 126, 128, 129, 131, 132, 133, 134, 135, 136, 136, 136, 137, 137, 136, 136, 136, 135, 135, 135, 134, 134, 133, 133, 132, 132, 132, 131, 131, 130, 130, 129, 129, 128, 127, 126, 125, 124, 123, 122, 121, 121, 120, 119, 119, 119, 119, 119, 119, 120, 121, 122, 123, 125, 126, 128, 129, 131, 132, 134, 135, 136, 137, 137, 138, 138, 138, 138, 137, 137, 136, 136, 135, 134, 133, 133, 132, 131, 130, 130, 129, 129, 128, 128, 127, 126, 126, 125, 124, 124, 123, 122, 121, 120, 119, 119, 118, 117, 117, 117, 117, 117, 117, 118, 119, 120, 121, 122, 124, 125, 127, 128, 130, 131, 133, 134, 135, 135, 136, 136, 136, 136, 136, 136, 136, 135, 134, 134, 133, 132, 132, 131, 130, 130, 129, 128, 128, 127, 126, 125, 125, 124, 123, 122, 121, 120, 119, 118, 117, 116, 115, 115, 114, 114, 114, 115, 115, 116, 117, 118, 119, 121, 123, 125, 126, 128, 130, 132, 133, 135, 136, 137, 138, 139, 139, 139, 140, 139, 139, 139, 138, 138, 137, 136, 136, 135, 135, 134, 133, 133, 132, 131, 131, 130, 129, 128, 127, 126, 125, 124, 123, 122, 121, 120, 119, 118, 118, 117, 117, 117, 117, 117, 118, 118, 119, 120, 122, 123, 124, 126, 127, 128, 130, 131, 132, 133, 134, 135, 135, 136, 136, 136, 136, 136, 136, 135, 135, 135, 135, 134, 134, 134, 133, 133, 133, 132, 132, 131, 130, 130, 129, 128, 127, 126, 125, 124, 123, 122, 121, 120, 119, 119, 118, 118, 118, 118, 119, 119, 120, 121, 122, 124, 125, 126, 127, 129, 130, 131, 132, 133, 133, 134, 134, 134, 134, 134, 134, 133, 133, 132, 132, 131, 130, 130, 129, 129, 128, 127, 127, 126, 126, 125, 125, 124, 123, 123, 122, 122, 121, 121, 120, 120, 119, 119, 119, 119, 119, 119, 119, 120, 121, 121, 122, 123, 124, 126, 127, 128, 129, 131, 132, 133, 134, 135, 136, 136, 137, 137, 137, 137, 137, 137, 137, 137, 136, 136, 135, 134, 134, 133, 132, 132, 131, 130, 129, 129, 128, 127, 126, 125, 124, 123, 122, 122, 121, 120, 119, 119, 118, 118, 118, 118, 118, 118, 119, 119, 120, 121, 122, 123, 125, 126, 128, 129, 131, 132, 133, 135, 136, 137, 138, 138, 139, 139, 139, 139, 139, 138, 138, 137, 136, 136, 135, 134, 133, 132, 131, 130, 130, 129, 128, 127, 126, 126, 125, 124, 123, 122, 122, 121, 120, 119, 119, 118, 118, 118, 118, 118, 118, 118, 119, 120, 121, 122, 123, 125, 126, 128, 129, 131, 132, 133, 134, 135, 136, 136, 137, 137, 137, 137, 136, 136, 135, 135, 134, 134, 133, 132, 132, 131, 131, 130, 129, 129, 128, 128, 127, 126, 125, 124, 123, 122, 121, 120, 119, 119, 118, 118, 117, 117, 118, 118, 119, 120, 121, 122, 124, 126, 127, 129, 131, 133, 134, 136, 137, 138, 138, 139, 139, 139, 138, 137, 136, 135, 134, 132, 130, 128, 127, 125, 123, 121, 119, 118, 116, 115, 113, 112, 111, 111, 110, 109, 109, 108, 108, 108, 108, 108, 108, 108, 108, 108, 109, 110, 111, 112, 113, 115, 116, 118, 121, 123, 125, 128, 130, 133, 135, 138, 140, 142, 144, 146, 147, 148, 149, 150, 150, 151, 151, 151, 151, 151, 150, 150, 150, 149, 149, 149, 148, 148, 147, 146, 146, 145, 144, 143, 141, 140, 138, 137, 135, 133, 131, 129, 127, 125, 123, 122, 120, 119, 118, 118, 117, 117, 117, 118, 118, 119, 120, 121, 123, 124, 125, 127, 128, 129, 130, 131, 132, 132, 132, 133, 132, 132, 131, 131, 130, 129, 128, 127, 127, 126, 125, 124, 123, 123, 122, 122, 121, 121, 120, 120, 120, 119, 119, 118, 118, 117, 117, 116, 116, 116, 116, 116, 116, 116, 116, 117, 118, 118, 119, 120, 122, 123, 124, 125, 126, 127, 128, 128, 129, 129, 129, 129, 129, 128, 128, 127, 126, 126, 125, 124, 124, 123, 123, 122, 122, 122, 122, 121, 121, 121, 121, 120, 120, 120, 119, 119, 118, 118, 117, 116, 116, 115, 115, 114, 114, 114, 114, 114, 115, 116, 117, 118, 119, 121, 123, 125, 127, 129, 131, 133, 135, 137, 139, 141, 142, 144, 145, 146, 146, 147, 147, 147, 147, 147, 146, 146, 145, 145, 144, 143, 143, 142, 142, 141, 140, 140, 139, 138, 138, 137, 136, 135, 134, 133, 132, 131, 130, 129, 129, 128, 128, 127, 127, 127, 127, 128, 128, 129, 130, 131, 132, 133, 133, 134, 135, 136, 136, 137, 137, 137, 136, 136, 135, 134, 133, 132, 131, 130, 129, 128, 127, 126, 125, 124, 123, 123, 122, 122, 121, 121, 121, 120, 120, 120, 120, 119, 119, 119, 118, 118, 117, 117, 117, 117, 117, 117, 117, 118, 118, 119, 120, 120, 121, 123, 124, 125, 126, 127, 128, 129, 130, 131, 131, 132, 132, 132, 132, 132, 132, 131, 131, 130, 129, 129, 128, 127, 126, 126, 125, 124, 123, 123, 122, 121, 120, 120, 119, 118, 117, 116, 115, 115, 114, 113, 112, 112, 111, 111, 111, 111, 111, 111, 112, 113, 114, 115, 116, 118, 120, 122, 123, 125, 127, 129, 131, 133, 134, 136, 137, 138, 139, 140, 141, 141, 142, 142, 142, 142, 142, 142, 142, 141, 141, 140, 140, 140, 139, 138, 138, 137, 136, 135, 134, 133, 132, 131, 130, 129, 128, 127, 126, 125, 125, 124, 124, 123, 123, 124, 124, 125, 125, 126, 127, 128, 130, 131, 132, 133, 133, 134, 135, 135, 135, 135, 135, 134, 134, 133, 132, 131, 131, 130, 130, 129, 129, 128, 128, 128, 128, 128, 128, 128, 128, 128, 128, 127, 127, 127, 126, 125, 125, 124, 124, 123, 123, 123, 122, 122, 122, 123, 123, 124, 124, 125, 126, 127, 127, 128, 129, 129, 130, 130, 130, 131, 131, 131, 131, 131, 131, 131, 131, 131, 131, 131, 131, 131, 131, 131, 131, 131, 131, 131, 130, 130, 129, 129, 128, 127, 126, 124, 123, 121, 119, 117, 115, 113, 112, 110, 108, 107, 105, 104, 104, 103, 104, 104, 105, 107, 110, 112, 116, 119, 124, 128, 133, 138, 144, 149, 154, 159, 163, 167, 171, 174, 177, 178, 179, 180, 179, 178, 176, 174, 171, 168, 164, 161, 157, 152, 148, 143, 139, 134, 130, 125, 121, 116, 111, 107, 102, 97, 92, 88, 83, 79, 74, 71, 67, 64, 62, 61, 60, 61, 62, 64, 67, 71, 76, 82, 88, 95, 102, 109, 116, 123, 130, 136, 142, 147, 151, 155, 158, 161, 162, 163, 164, 164, 164, 163, 163, 162, 162, 161, 161, 161, 161, 160, 160, 160, 159, 159, 157, 156, 154, 152, 149, 146, 143, 140, 136, 133, 130, 127, 124, 122, 121, 120, 120, 121, 122, 124, 127, 129, 133, 136, 139, 142, 145, 147, 149, 150, 151, 151, 150, 149, 147, 145, 142, 139, 136, 133, 129, 126, 123, 119, 116, 114, 111, 108, 106, 104, 102, 100, 98, 97, 96, 95, 94, 94, 94, 95, 96, 97, 99, 102, 105, 108, 112, 117, 121, 126, 131, 136, 141, 145, 149, 153, 157, 159, 162, 163, 164, 164, 164, 163, 161, 159, 156, 153, 150, 146, 142, 137, 133, 129, 124, 120, 115, 111, 107, 103, 100, 97, 94, 92, 90, 88, 87, 86, 86, 86, 87, 88, 89, 91, 93, 95, 98, 101, 104, 107, 110, 114, 117, 120, 123, 125, 128, 130, 132, 133, 134, 135, 136, 136, 136, 136, 135, 135, 134, 134, 133, 132, 131, 130, 130, 129, 128, 127, 126, 126, 125, 124, 123, 123, 122, 122, 122, 122, 123, 124, 125, 126, 128, 130, 133, 136, 139, 142, 145, 148, 152, 154, 157, 159, 161, 162, 163, 163, 163, 163, 162, 160, 159, 157, 154, 152, 150, 148, 145, 143, 141, 139, 136, 134, 132, 130, 128, 126, 123, 121, 119, 117, 115, 113, 111, 110, 109, 108, 108, 108, 109, 110, 112, 114, 116, 119, 122, 125, 128, 131, 133, 136, 138, 140, 142, 143, 144, 145, 145, 145, 144, 143, 142, 141, 139, 138, 136, 134, 132, 131, 129, 127, 125, 123, 121, 119, 117, 115, 113, 111, 110, 108, 107, 106, 105, 104, 104, 104, 105, 106, 108, 109, 112, 114, 116, 119, 121, 124, 126, 129, 131, 132, 133, 134, 135, 135, 135, 134, 133, 132, 131, 129, 128, 126, 125, 123, 122, 120, 119, 118, 117, 115, 114, 113, 112, 111, 110, 109, 108, 107, 107, 107, 107, 108, 108, 110, 111, 113, 115, 118, 121, 124, 128, 131, 134, 137, 141, 143, 146, 148, 150, 151, 152, 152, 152, 152, 151, 150, 149, 148, 147, 145, 143, 142, 140, 139, 137, 136, 135, 134, 132, 131, 130, 129, 128, 127, 126, 125, 125, 124, 124, 124, 124, 125, 125, 127, 128, 130, 132, 134, 136, 138, 141, 143, 145, 147, 149, 150, 151, 152, 152, 151, 151, 150, 148, 146, 144, 141, 139, 136, 133, 131, 128, 125, 123, 120, 118, 116, 114, 112, 110, 109, 107, 106, 105, 105, 104, 104, 104, 104, 105, 106, 107, 108, 110, 113, 115, 118, 121, 124, 128, 131, 134, 138, 141, 143, 146, 148, 149, 150, 151, 151, 150, 149, 148, 146, 144, 141, 138, 135, 132, 128, 125, 122, 119, 115, 112, 109, 107, 104, 102, 100, 98, 96, 95, 94, 93, 93, 93, 93, 94, 95, 97, 99, 101, 104, 107, 110, 113, 116, 120, 123, 126, 129, 132, 134, 137, 138, 140, 141, 142, 142, 142, 142, 142, 141, 140, 139, 138, 137, 136, 135, 134, 133, 132, 131, 129, 128, 127, 126, 125, 124, 123, 122, 122, 121, 121, 121, 122, 122, 124, 125, 127, 129, 132, 134, 137, 140, 143, 146, 149, 151, 154, 156, 157, 158, 159, 159, 159, 158, 157, 156, 154, 153, 150, 148, 146, 144, 141, 139, 137, 135, 132, 130, 128, 126, 123, 121, 119, 117, 115, 113, 111, 109, 108, 106, 106, 105, 105, 106, 107, 109, 111, 113, 116, 119, 122, 126, 129, 133, 136, 139, 142, 144, 146, 147, 148, 148, 148, 147, 146, 145, 143, 141, 139, 136, 134, 131, 129, 126, 124, 122, 120, 117, 116, 114, 112, 110, 109, 108, 107, 106, 105, 105, 105, 105, 105, 106, 107, 108, 110, 112, 114, 116, 118, 120, 123, 125, 127, 129, 130, 131, 132, 133, 133, 133, 132, 132, 131, 129, 128, 126, 125, 123, 122, 120, 119, 117, 116, 115, 114, 113, 112, 111, 111, 110, 110, 110, 110, 110, 110, 111, 111, 112, 114, 115, 117, 119, 121, 124, 127, 130, 133, 136, 139, 142, 144, 147, 149, 151, 153, 154, 155, 156, 156, 156, 155, 154, 153, 152, 151, 150, 148, 147, 145, 143, 141, 140, 138, 136, 134, 132, 130, 128, 126, 124, 122, 120, 118, 117, 116, 115, 114, 114, 115, 115, 117, 118, 120, 123, 125, 128, 131, 134, 137, 140, 143, 145, 147, 148, 149, 149, 149, 149, 148, 147, 145, 143, 141, 139, 137, 135, 133, 131, 129, 127, 125, 124, 122, 121, 120, 118, 117, 116, 115, 114, 114, 113, 113, 112, 112, 112, 112, 113, 114, 115, 116, 118, 120, 122, 124, 126, 128, 130, 132, 134, 135, 136, 136, 137, 136, 136, 135, 133, 132, 130, 128, 125, 123, 121, 119, 117, 115, 113, 112, 110, 109, 108, 108, 107, 107, 107, 106, 106, 106, 107, 107, 107, 108, 108, 109, 110, 111, 113, 114, 116, 118, 121, 123, 126, 128, 131, 134, 136, 138, 140, 142, 144, 145, 146, 146, 146, 146, 146, 145, 144, 143, 142, 140, 139, 137, 135, 134, 132, 130, 129, 127, 125, 124, 122, 121, 120, 119, 118, 117, 116, 116, 116, 116, 117, 118, 120, 121, 123, 126, 128, 131, 134, 137, 140, 142, 145, 147, 149, 151, 153, 153, 154, 154, 154, 153, 152, 150, 149, 147, 145, 142, 140, 138, 136, 133, 131, 129, 127, 125, 123, 122, 120, 118, 117, 116, 114, 113, 113, 112, 112, 112, 113, 113, 114, 116, 118, 120, 122, 125, 127, 130, 132, 135, 137, 139, 141, 142, 143, 143, 143, 143, 142, 141, 139, 138, 136, 133, 131, 129, 126, 124, 122, 120, 118, 116, 115, 113, 112, 111, 109, 108, 108, 107, 106, 106, 105, 105, 105, 105, 106, 107, 108, 109, 111, 112, 115, 117, 120, 122, 125, 128, 131, 133, 136, 138, 140, 141, 142, 143, 143, 143, 143, 142, 141, 139, 138, 136, 134, 133, 131, 129, 127, 125, 123, 122, 120, 119, 118, 116, 115, 114, 113, 113, 112, 112, 112, 112, 112, 113, 114, 115, 117, 118, 121, 123, 126, 128, 131, 134, 137, 139, 142, 144, 146, 147, 149, 149, 150, 150, 150, 149, 148, 147, 145, 144, 142, 140, 138, 136, 135, 133, 131, 129, 128, 126, 125, 123, 122, 121, 120, 119, 118, 118, 117, 117, 117, 117, 118, 119, 120, 122, 123, 125, 128, 130, 132, 135, 137, 140, 142, 144, 145, 147, 148, 148, 148, 148, 148, 147, 145, 144, 142, 141, 139, 137, 135, 133, 131, 129, 127, 126, 124, 122, 121, 119, 118, 117, 115, 114, 113, 112, 111, 110, 109, 109, 109, 109, 109, 110, 111, 113, 114, 116, 118, 120, 122, 124, 126, 128, 130, 131, 133, 134, 134, 134, 134, 134, 134, 133, 132, 131, 129, 128, 127, 125, 124, 122, 121, 120, 119, 118, 117, 116, 115, 114, 114, 113, 112, 112, 112, 111, 111, 111, 112, 112, 113, 114, 116, 117, 119, 122, 124, 127, 129, 132, 135, 137, 140, 142, 144, 145, 147, 147, 148, 148, 148, 147, 146, 145, 144, 142, 141, 139, 137, 135, 134, 132, 130, 129, 127, 126, 125, 123, 122, 121, 120, 119, 118, 117, 116, 116, 116, 116, 116, 117, 118, 119, 121, 122, 124, 127, 129, 132, 134, 137, 139, 141, 143, 144, 146, 147, 147, 147, 147, 147, 146, 145, 144, 142, 141, 139, 138, 136, 135, 133, 132, 131, 129, 128, 127, 126, 125, 124, 123, 122, 121, 120, 120, 119, 119, 118, 118, 119, 119, 120, 121, 122, 123, 125, 126, 128, 130, 132, 133, 135, 136, 137, 138, 139, 139, 139, 138, 138, 137, 135, 134, 133, 131, 129, 128, 126, 124, 123, 121, 119, 118, 116, 115, 113, 112, 111, 109, 108, 107, 106, 105, 104, 104, 104, 104, 104, 105, 106, 107, 109, 111, 114, 116, 119, 121, 124, 127, 130, 132, 134, 136, 138, 139, 140, 141, 141, 142, 141, 141, 140, 139, 138, 137, 135, 134, 133, 131, 130, 128, 127, 126, 124, 123, 122, 121, 120, 119, 118, 117, 117, 116, 116, 116, 116, 117, 118, 119, 121, 122, 124, 126, 129, 131, 134, 136, 138, 141, 143, 144, 146, 147, 147, 148, 148, 147, 146, 146, 144, 143, 142, 140, 139, 137, 136, 134, 133, 131, 130, 129, 128, 127, 126, 126, 125, 124, 123, 123, 122, 122, 122, 122, 122, 122, 122, 123, 124, 124, 126, 127, 128, 130, 131, 133, 135, 136, 138, 139, 140, 141, 142, 142, 142, 142, 141, 141, 140, 138, 137, 135, 134, 132, 130, 128, 127, 125, 123, 122, 120, 118, 117, 116, 114, 113, 112, 112, 111, 110, 110, 110, 110, 110, 110, 111, 112, 113, 114, 116, 118, 120, 122, 124, 126, 128, 130, 132, 133, 135, 136, 137, 138, 138, 138, 138, 137, 137, 136, 134, 133, 132, 130, 129, 127, 125, 124, 122, 121, 120, 118, 117, 116, 115, 114, 114, 113, 113, 112, 112, 113, 113, 113, 114, 115, 116, 118, 119, 121, 123, 125, 127, 129, 131, 133, 135, 137, 138, 139, 140, 141, 141, 141, 141, 141, 140, 139, 138, 137, 136, 135, 134, 133, 132, 131, 130, 129, 128, 127, 127, 126, 125, 125, 124, 124, 123, 123, 123, 123, 123, 123, 123, 124, 124, 125, 126, 127, 129, 130, 132, 133, 135, 136, 138, 140, 141, 142, 143, 144, 144, 145, 145, 144, 144, 143, 142, 141, 140, 139, 137, 136, 134, 132, 131, 129, 128, 126, 125, 123, 122, 121, 120, 119, 118, 117, 116, 115, 115, 115, 115, 115, 115, 116, 117, 118, 119, 121, 122, 124, 126, 128, 130, 132, 133, 135, 136, 137, 138, 138, 138, 138, 138, 137, 136, 135, 134, 132, 131, 129, 128, 126, 125, 123, 121, 120, 119, 117, 116, 115, 114, 113, 112, 111, 111, 110, 110, 110, 110, 110, 111, 112, 113, 115, 116, 118, 120, 122, 124, 127, 129, 131, 133, 134, 136, 137, 138, 139, 140, 140, 140, 139, 139, 138, 138, 137, 136, 135, 133, 132, 131, 130, 129, 128, 127, 126, 125, 124, 123, 122, 121, 120, 120, 119, 118, 118, 117, 117, 117, 118, 118, 119, 120, 121, 123, 124, 126, 128, 130, 132, 134, 136, 138, 139, 140, 141, 142, 143, 143, 143, 143, 142, 142, 141, 140, 139, 138, 137, 136, 135, 134, 132, 131, 130, 129, 128, 127, 126, 124, 123, 122, 121, 121, 120, 119, 119, 119, 119, 120, 120, 121, 123, 124, 126, 127, 129, 131, 133, 135, 136, 138, 139, 140, 141, 141, 142, 141, 141, 140, 139, 138, 137, 135, 133, 132, 130, 128, 127, 125, 124, 122, 121, 119, 118, 117, 116, 115, 114, 113, 112, 111, 111, 110, 110, 110, 110, 111, 112, 113, 114, 115, 117, 119, 121, 123, 125, 127, 129, 131, 133, 134, 136, 137, 137, 138, 138, 138, 138, 137, 137, 136, 135, 135, 134, 133, 132, 131, 130, 129, 128, 128, 127, 126, 125, 124, 123, 122, 121, 120, 119, 118, 117, 117, 117, 116, 117, 117, 118, 118, 120, 121, 122, 124, 126, 128, 129, 131, 133, 134, 135, 136, 137, 138, 138, 138, 138, 138, 137, 136, 135, 135, 134, 133, 132, 131, 130, 129, 128, 127, 126, 125, 124, 124, 123, 122, 121, 121, 120, 120, 120, 119, 119, 120, 120, 121, 122, 123, 125, 126, 128, 130, 132, 134, 136, 138, 140, 142, 143, 144, 145, 145, 145, 145, 144, 144, 143, 141, 140, 139, 137, 135, 134, 132, 131, 129, 128, 127, 125, 124, 123, 122, 121, 120, 119, 118, 117, 116, 116, 115, 115, 115, 115, 115, 116, 116, 117, 118, 120, 121, 123, 124, 126, 128, 129, 130, 132, 133, 133, 134, 134, 134, 134, 134, 133, 132, 132, 131, 130, 129, 128, 127, 127, 126, 126, 125, 124, 124, 123, 123, 122, 122, 121, 120, 120, 119, 118, 118, 117, 117, 117, 117, 117, 118, 118, 120, 121, 122, 124, 125, 127, 129, 130, 132, 133, 134, 135, 136, 136, 136, 136, 136, 135, 135, 134, 133, 133, 132, 131, 130, 130, 129, 128, 128, 127, 126, 126, 125, 124, 124, 123, 123, 122, 122, 121, 121, 121, 121, 121, 121, 122, 123, 123, 125, 126, 128, 129, 131, 133, 134, 136, 137, 139, 140, 141, 142, 142, 142, 142, 142, 142, 141, 140, 139, 138, 137, 136, 134, 133, 132, 131, 130, 129, 128, 127, 126, 125, 124, 123, 122, 121, 120, 119, 118, 118, 117, 117, 117, 117, 117, 117, 118, 119, 120, 121, 123, 124, 126, 127, 129, 130, 132, 133, 134, 134, 135, 135, 135, 135, 135, 134, 134, 133, 132, 132, 131, 131, 130, 130, 129, 129, 128, 128, 127, 127, 126, 125, 124, 124, 123, 122, 121, 120, 120, 119, 119, 119, 119, 119, 120, 120, 121, 122, 124, 125, 126, 128, 129, 130, 131, 132, 133, 134, 134, 134, 134, 134, 134, 134, 133, 133, 132, 131, 131, 130, 129, 129, 128, 127, 127, 126, 125, 124, 124, 123, 122, 121, 120, 119, 118, 117, 117, 116, 116, 116, 117, 117, 118, 119, 120, 122, 124, 125, 127, 129, 131, 133, 135, 137, 138, 139, 140, 141, 141, 141, 141, 141, 140, 140, 139, 138, 137, 136, 135, 134, 133, 132, 132, 131, 130, 129, 128, 127, 126, 125, 124, 123, 122, 121, 120, 120, 119, 119, 119, 119, 119, 120, 120, 121, 123, 124, 125, 127, 128, 130, 132, 133, 134, 135, 136, 137, 137, 137, 137, 137, 137, 136, 136, 135, 135, 134, 133, 132, 132, 131, 130, 129, 129, 128, 127, 126, 125, 124, 124, 123, 122, 121, 120, 119, 119, 119, 118, 118, 119, 119, 120, 120, 122, 123, 124, 125, 127, 128, 129, 130, 131, 132, 133, 134, 134, 134, 134, 134, 134, 133, 133, 132, 132, 131, 130, 129, 129, 128, 127, 126, 125, 124, 123, 122, 121, 120, 119, 118, 117, 116, 116, 115, 114, 114, 114, 114, 115, 116, 117, 118, 119, 121, 123, 125, 127, 129, 130, 132, 134, 135, 136, 137, 137, 138, 138, 138, 138, 137, 137, 136, 135, 135, 134, 133, 132, 132, 131, 130, 130, 129, 128, 128, 127, 126, 125, 124, 124, 123, 122, 121, 121, 120, 120, 120, 121, 121, 122, 123, 124, 125, 126, 128, 129, 131, 132, 133, 134, 135, 136, 137, 137, 137, 137, 137, 137, 136, 135, 135, 134, 134, 133, 132, 132, 131, 131, 130, 130, 129, 129, 128, 127, 127, 126, 125, 124, 123, 123, 122, 121, 121, 120, 120, 120, 120, 120, 121, 122, 123, 124, 125, 126, 128, 129, 130, 131, 133, 133, 134, 135, 135, 135, 135, 135, 135, 135, 134, 133, 133, 132, 131, 131, 130, 129, 128, 127, 127, 126, 125, 124, 123, 122, 121, 120, 119, 118, 118, 117, 116, 116, 116, 116, 116, 117, 118, 119, 120, 122, 123, 125, 126, 128, 129, 131, 132, 133, 134, 134, 134, 135, 134, 134, 134, 133, 132, 132, 131, 130, 129, 128, 127, 126, 126, 125, 124, 123, 123, 122, 121, 121, 120, 119, 119, 119, 118, 118, 118, 118, 118, 119, 120, 121, 122, 123, 124, 126, 127, 129, 131, 132, 134, 135, 136, 137, 138, 139, 139, 139, 139, 139, 138, 137, 136, 136, 135, 134, 133, 132, 131, 130, 129, 128, 127, 126, 126, 125, 124, 124, 123, 123, 122, 122, 121, 121, 121, 121, 121, 121, 121, 121, 122, 123, 124, 125, 126, 127, 128, 130, 131, 132, 133, 135, 136, 136, 137, 138, 138, 138, 138, 138, 137, 137, 136, 135, 134, 133, 132, 131, 130, 129, 128, 128, 127, 126, 125, 124, 123, 122, 121, 121, 120, 119, 119, 118, 118, 117, 117, 118, 118, 118, 119, 120, 121, 122, 124, 125, 126, 128, 129, 131, 132, 133, 134, 135, 136, 136, 136, 136, 136, 135, 135, 134, 133, 132, 131, 130, 129, 128, 127, 126, 125, 124, 123, 122, 121, 120, 119, 119, 118, 117, 117, 116, 116, 116, 116, 116, 116, 117, 118, 119, 120, 121, 122, 124, 125, 127, 129, 130, 131, 133, 134, 135, 136, 136, 137, 137, 137, 136, 136, 136, 135, 134, 134, 133, 132, 131, 130, 130, 129, 128, 127, 127, 126, 125, 125, 124, 123, 123, 122, 122, 122, 121, 121, 121, 121, 122, 122, 123, 123, 124, 125, 127, 128, 129, 131, 132, 133, 134, 135, 136, 137, 137, 138, 138, 138, 137, 137, 136, 136, 135, 134, 133, 132, 131, 130, 129, 128, 127, 126, 125, 124, 123, 122, 121, 121, 120, 120, 119, 119, 119, 118, 119, 119, 119, 120, 121, 122, 123, 125, 126, 128, 129, 131, 133, 134, 136, 137, 138, 139, 139, 140, 140, 140, 139, 139, 138, 137, 136, 135, 134, 133, 132, 130, 129, 128, 127, 126, 125, 124, 123, 122, 121, 120, 119, 119, 118, 117, 117, 116, 116, 116, 116, 117, 117, 118, 119, 120, 121, 122, 124, 125, 127, 128, 129, 130, 131, 132, 133, 133, 133, 133, 133, 133, 132, 131, 131, 130, 129, 129, 128, 127, 127, 126, 126, 125, 125, 125, 124, 124, 123, 123, 123, 122, 122, 121, 121, 121, 121, 121, 121, 121, 122, 122, 123, 124, 125, 127, 128, 130, 131, 133, 134, 135, 137, 137, 138, 139, 139, 139, 139, 138, 137, 137, 136, 135, 133, 132, 131, 130, 129, 128, 127, 126, 125, 125, 124, 123, 122, 122, 121, 120, 120, 119, 119, 119, 118, 118, 119, 119, 120, 120, 121, 122, 124, 125, 127, 129, 131, 132, 134, 136, 137, 138, 139, 140, 141, 141, 141, 140, 140, 139, 138, 137, 136, 134, 133, 132, 131, 129, 128, 127, 126, 125, 125, 124, 123, 122, 122, 121, 121, 120, 119, 119, 119, 119, 119, 119, 119, 119, 120, 121, 122, 123, 124, 125, 126, 127, 129, 130, 131, 132, 133, 133, 133, 134, 134, 133, 133, 133, 132, 131, 131, 130, 129, 128, 128, 127, 126, 126, 125, 124, 124, 123, 122, 122, 121, 121, 120, 120, 119, 119, 119, 119, 119, 119, 119, 120, 121, 122, 123, 124, 126, 127, 129, 130, 132, 133, 134, 135, 136, 137, 137, 137, 137, 137, 137, 136, 136, 135, 134, 133, 132, 131, 130, 129, 128, 127, 127, 126, 125, 124, 123, 122, 121, 121, 120, 119, 118, 118, 117, 117, 117, 117, 118, 118, 119, 120, 122, 123, 125, 127, 129, 130, 132, 134, 136, 137, 138, 139, 140, 141, 141, 141, 141, 140, 139, 139, 138, 137, 136, 135, 134, 133, 132, 131, 130, 129, 128, 128, 127, 126, 125, 125, 124, 123, 123, 122, 121, 121, 120, 120, 120, 119, 120, 120, 120, 121, 122, 123, 124, 125, 127, 128, 129, 130, 131, 132, 133, 133, 134, 134, 134, 134, 133, 133, 133, 132, 131, 131, 130, 130, 129, 129, 128, 128, 127, 127, 126, 126, 125, 125, 124, 123, 123, 122, 121, 121, 120, 120, 119, 119, 119, 120, 120, 121, 122, 123, 124, 125, 126, 127, 129, 130, 131, 132, 133, 133, 134, 134, 134, 134, 134, 134, 134, 133, 133, 132, 131, 131, 130, 129, 129, 128, 127, 126, 125, 124, 124, 123, 122, 121, 120, 119, 118, 118, 117, 117, 117, 117, 117, 118, 119, 119, 121, 122, 123, 124, 126, 127, 129, 130, 132, 133, 134, 135, 136, 137, 137, 137, 138, 138, 137, 137, 137, 137, 136, 136, 135, 135, 134, 133, 133, 132, 131, 131, 130, 129, 128, 128, 127, 126, 125, 124, 124, 123, 123, 122, 122, 122, 122, 122, 123, 123, 124, 125, 126, 126, 127, 128, 129, 130, 130, 131, 131, 131, 132, 132, 132, 132, 131, 131, 131, 131, 131, 131, 130, 130, 130, 130, 129, 129, 129, 128, 128, 127, 126, 126, 125, 124, 124, 123, 122, 122, 122, 121, 121, 121, 122, 122, 123, 123, 124, 125, 126, 127, 128, 129, 130, 131, 131, 132, 132, 132, 132, 132, 132, 132, 131, 131, 130, 130, 129, 129, 128, 127, 127, 126, 126, 125, 125, 124, 124, 123, 123, 122, 122, 121, 121, 120, 120, 120, 119, 119, 120, 120, 120, 121, 122, 123, 124, 125, 126, 127, 129, 130, 131, 132, 133, 134, 135, 135, 136, 136, 136, 136, 135, 135, 134, 133, 132, 132, 131, 130, 129, 128, 127, 127, 126, 125, 125, 124, 124, 123, 123, 122, 122, 121, 121, 121, 121, 121, 121, 121, 122, 122, 123, 123, 124, 125, 126, 127, 128, 130, 131, 132, 133, 134, 135, 135, 136, 136, 136, 136, 136, 136, 136, 135, 135, 134, 134, 133, 132, 132, 131, 130, 129, 129, 128, 127, 126, 125, 125, 124, 123, 123, 122, 122, 122, 122, 122, 122, 122, 123, 123, 124, 125, 126, 127, 128, 129, 130, 131, 132, 133, 133, 134, 134, 134, 134, 134, 134, 133, 132, 132, 131, 130, 129, 128, 127, 126, 125, 125, 124, 123, 122, 121, 120, 120, 119, 118, 118, 117, 117, 116, 116, 116, 116, 117, 117, 118, 119, 120, 121, 122, 124, 126, 127, 129, 131, 132, 134, 135, 136, 137, 138, 139, 139, 139, 139, 138, 138, 137, 136, 136, 135, 134, 132, 131, 130, 129, 128, 127, 126, 126, 125, 124, 123, 122, 121, 120, 120, 119, 118, 118, 117, 117, 117, 117, 118, 118, 119, 120, 121, 122, 123, 125, 126, 128, 129, 131, 132, 133, 134, 135, 136, 136, 136, 136, 136, 136, 136, 135, 135, 134, 133, 133, 132, 131, 130, 130, 129, 128, 128, 127, 126, 125, 125, 124, 123, 122, 122, 121, 121, 120, 120, 120, 120, 121, 121, 122, 123, 124, 126, 127, 129, 130, 131, 133, 134, 135, 136, 137, 137, 137, 137, 137, 137, 136, 136, 135, 134, 133, 132, 131, 130, 129, 128, 127, 127, 126, 125, 124, 123, 122, 121, 120, 120, 119, 118, 118, 118, 117, 117, 117, 118, 118, 119, 119, 120, 122, 123, 124, 126, 127, 128, 130, 131, 132, 133, 134, 135, 135, 135, 135, 135, 135, 135, 134, 134, 133, 132, 132, 131, 130, 129, 129, 128, 127, 126, 126, 125, 124, 123, 123, 122, 121, 121, 120, 119, 119, 119, 119, 119, 119, 120, 120, 121, 122, 123, 125, 126, 127, 129, 130, 131, 132, 133, 134, 135, 135, 135, 135, 135, 135, 135, 135, 134, 134, 133, 132, 132, 131, 130, 129, 129, 128, 127, 126, 126, 125, 124, 123, 122, 122, 121, 120, 120, 120, 119, 119, 120, 120, 121, 122, 123, 124, 125, 126, 128, 130, 131, 133, 134, 135, 136, 137, 138, 138, 139, 139, 138, 138, 137, 137, 136, 135, 134, 133, 132, 131, 130, 129, 128, 127, 126, 125, 124, 124, 123, 122, 122, 121, 120, 120, 120, 119, 119, 119, 119, 119, 120, 121, 121, 122, 123, 125, 126, 127, 129, 130, 131, 133, 134, 135, 135, 136, 136, 136, 136, 136, 135, 135, 134, 133, 132, 131, 130, 129, 128, 128, 127, 126, 125, 125, 124, 123, 123, 122, 122, 121, 121, 120, 120, 120, 120, 119, 119, 120, 120, 120, 121, 121, 122, 123, 124, 125, 127, 128, 129, 130, 132, 133, 133, 134, 135, 135, 135, 135, 135, 134, 134, 133, 132, 131, 131, 130, 129, 128, 127, 126, 125, 125, 124, 123, 123, 122, 122, 121, 121, 121, 121, 121, 121, 121, 121, 121, 122, 122, 123, 124, 125, 126, 127, 128, 129, 131, 132, 133, 134, 135, 136, 137, 137, 138, 138, 138, 137, 137, 136, 135, 134, 133, 132, 131, 130, 129, 128, 127, 126, 125, 124, 123, 123, 122, 122, 121, 121, 121, 120, 120, 120, 120, 120, 120, 121, 121, 122, 122, 123, 124, 125, 126, 128, 129, 130, 131, 132, 134, 134, 135, 136, 137, 137, 137, 137, 137, 137, 136, 135, 135, 134, 133, 132, 132, 131, 130, 129, 128, 127, 126, 126, 125, 124, 123, 123, 122, 122, 121, 121, 120, 120, 120, 120, 120, 120, 121, 121, 122, 123, 124, 125, 126, 127, 128, 129, 130, 131, 132, 133, 133, 134, 134, 134, 134, 134, 134, 133, 133, 132, 131, 131, 130, 129, 128, 127, 127, 126, 125, 124, 124, 123, 122, 122, 121, 120, 120, 120, 119, 119, 119, 119, 119, 119, 120, 120, 121, 122, 123, 124, 126, 127, 128, 129, 131, 132, 133, 134, 135, 136, 136, 137, 137, 137, 137, 137, 136, 136, 135, 134, 134, 133, 132, 131, 130, 129, 129, 128, 127, 126, 125, 125, 124, 123, 122, 122, 121, 121, 121, 120, 120, 120, 120, 121, 121, 122, 123, 124, 125, 126, 127, 128, 130, 131, 132, 133, 134, 135, 135, 136, 136, 136, 136, 136, 136, 136, 135, 135, 134, 133, 133, 132, 131, 130, 129, 129, 128, 127, 126, 125, 124, 124, 123, 122, 121, 121, 120, 120, 120, 120, 120, 120, 120, 121, 121, 122, 123, 124, 125, 126, 127, 128, 130, 130, 131, 132, 133, 133, 133, 134, 134, 134, 133, 133, 133, 132, 132, 131, 131, 130, 130, 129, 128, 128, 127, 126, 126, 125, 124, 123, 123, 122, 121, 121, 120, 120, 119, 119, 119, 119, 120, 120, 121, 121, 122, 123, 124, 126, 127, 128, 129, 130, 131, 132, 132, 133, 133, 133, 133, 133, 132, 132, 132, 131, 130, 130, 129, 129, 128, 127, 127, 126, 126, 126, 125, 125, 125, 124, 124, 123, 123, 123, 122, 122, 122, 122, 122, 122, 122, 123, 123, 124, 125, 125, 127, 128, 129, 130, 131, 132, 133, 134, 135, 135, 135, 136, 136, 136, 135, 135, 134, 134, 133, 132, 132, 131, 131, 130, 130, 129, 129, 128, 128, 128, 128, 127, 127, 127, 126, 126, 125, 125, 125, 124, 124, 124, 124, 124, 124, 124, 125, 125, 126, 127, 128, 129, 130, 131, 132, 133, 134, 135, 135, 136, 136, 136, 136, 136, 135, 134, 134, 133, 132, 131, 130, 130, 129, 128, 127, 126, 126, 125, 124, 124, 123, 123, 122, 122, 121, 121, 121, 120, 120, 120, 120, 120, 121, 121, 122, 123, 124, 125, 126, 127, 128, 129, 131, 132, 132, 133, 134, 134, 135, 135, 134, 134, 134, 133, 132, 131, 130, 129, 128, 127, 126, 125, 124, 124, 123, 122, 122, 121, 121, 120, 120, 120, 120, 120, 120, 120, 120, 120, 120, 121, 122, 122, 123, 124, 125, 126, 127, 128, 130, 131, 132, 133, 134, 134, 135, 135, 136, 136, 136, 135, 135, 134, 134, 133, 132, 132, 131, 130, 129, 128, 127, 127, 126, 125, 125, 124, 124, 123, 123, 122, 122, 121, 121, 121, 120, 120, 120, 120, 121, 121, 122, 122, 123, 124, 125, 126, 127, 129, 130, 131, 133, 134, 135, 136, 136, 137, 137, 138, 138, 138, 138, 137, 137, 136, 136, 135, 135, 134, 133, 132, 131, 131, 130, 129, 128, 127, 126, 126, 125, 124, 123, 122, 122, 121, 121, 120, 120, 120, 120, 121, 121, 122, 123, 124, 125, 126, 127, 129, 130, 131, 132, 133, 134, 135, 135, 135, 135, 135, 135, 134, 133, 132, 132, 131, 130, 129, 128, 127, 126, 125, 124, 123, 123, 122, 122, 121, 121, 120, 120, 120, 120, 119, 119, 119, 120, 120, 120, 121, 121, 122, 123, 124, 125, 126, 127, 128, 130, 131, 132, 133, 134, 134, 135, 135, 136, 136, 136, 135, 135, 134, 134, 133, 132, 131, 130, 130, 129, 128, 127, 126, 126, 125, 124, 124, 123, 123, 122, 122, 121, 121, 120, 120, 120, 119, 119, 119, 119, 120, 120, 121, 121, 122, 123, 124, 125, 126, 127, 128, 129, 130, 131, 132, 133, 133, 134, 134, 134, 135, 135, 135, 134, 134, 134, 133, 133, 133, 132, 132, 131, 130, 130, 129, 128, 128, 127, 126, 125, 125, 124, 124, 123, 123, 122, 122, 122, 123, 123, 123, 124, 125, 126, 127, 128, 129, 130, 131, 131, 132, 133, 133, 133, 134, 134, 133, 133, 133, 132, 131, 131, 130, 129, 129, 128, 127, 127, 126, 125, 125, 124, 124, 123, 123, 122, 122, 121, 121, 121, 120, 120, 120, 120, 121, 121, 122, 122, 123, 124, 125, 126, 127, 129, 130, 131, 132, 133, 134, 134, 135, 135, 135, 135, 135, 134, 134, 133, 132, 132, 131, 130, 130, 129, 129, 128, 128, 127, 127, 127, 127, 126, 126, 126, 125, 125, 124, 124, 123, 123, 122, 121, 121, 121, 121, 121, 121, 121, 121, 122, 123, 124, 125, 126, 127, 128, 129, 130, 131, 132, 132, 133, 133, 133, 133, 133, 133, 132, 132, 131, 131, 130, 130, 129, 129, 128, 128, 127, 127, 126, 126, 125, 125, 124, 124, 124, 123, 123, 122, 122, 122, 122, 122, 123, 123, 124, 125, 126, 127, 128, 129, 130, 131, 132, 133, 134, 135, 136, 136, 136, 136, 136, 136, 135, 135, 134, 133, 132, 131, 130, 129, 128, 128, 127, 126, 125, 124, 124, 123, 122, 122, 121, 121, 121, 121, 121, 121, 121, 121, 122, 122, 123, 124, 124, 125, 127, 128, 129, 130, 131, 132, 133, 134, 135, 135, 136, 136, 136, 136, 136, 136, 135, 134, 134, 133, 132, 131, 131, 130, 129, 128, 128, 127, 127, 126, 125, 125, 124, 124, 123, 122, 122, 121, 121, 120, 120, 120, 119, 119, 120, 120, 120, 121, 122, 123, 124, 125, 126, 127, 128, 130, 131, 132, 133, 133, 134, 134, 135, 135, 135, 135, 134, 134, 133, 133, 132, 132, 131, 130, 130, 129, 128, 128, 127, 126, 126, 125, 124, 123, 122, 122, 121, 120, 120, 119, 119, 119, 119, 119, 119, 120, 121, 122, 123, 124, 125, 127, 128, 130, 131, 133, 134, 135, 136, 136, 137, 137, 137, 137, 136, 136, 135, 134, 133, 132, 132, 131, 130, 129, 128, 128, 127, 126, 126, 125, 125, 124, 124, 123, 123, 122, 122, 122, 121, 121, 121, 122, 122, 122, 123, 124, 124, 125, 127, 128, 129, 130, 131, 132, 133, 134, 135, 136, 136, 136, 136, 136, 136, 136, 135, 135, 134, 133, 133, 132, 131, 130, 130, 129, 128, 128, 127, 126, 126, 125, 124, 123, 123, 122, 121, 121, 120, 119, 119, 119, 119, 119, 119, 119, 120, 120, 121, 122, 123, 124, 125, 127, 128, 129, 130, 131, 131, 132, 133, 133, 133, 133, 133, 133, 133, 133, 133, 132, 132, 132, 131, 131, 130, 130, 129, 128, 128, 127, 126, 125, 125, 124, 123, 122, 122, 121, 121, 120, 120, 120, 120, 120, 121, 122, 122, 123, 124, 125, 126, 127, 129, 130, 130, 131, 132, 132, 133, 133, 133, 133, 133, 132, 132, 132, 131, 131, 130, 130, 129, 129, 128, 128, 127, 127, 126, 126, 125, 125, 125, 124, 124, 123, 123, 123, 123, 123, 123, 123, 123, 123, 124, 124, 125, 126, 127, 128, 129, 130, 131, 131, 132, 133, 133, 134, 134, 134, 134, 134, 133, 133, 133, 132, 132, 131, 131, 131, 130, 130, 130, 129, 129, 129, 128, 128, 127, 127, 126, 126, 125, 125, 124, 123, 123, 122, 122, 122, 122, 122, 122, 122, 123, 124, 124, 125, 126, 127, 128, 129, 130, 131, 131, 132, 132, 133, 133, 133, 133, 133, 133, 132, 132, 132, 131, 131, 130, 130, 129, 128, 128, 127, 126, 126, 125, 124, 124, 123, 122, 121, 121, 120, 120, 120, 119, 119, 119, 120, 120, 121, 122, 122, 123, 124, 126, 127, 128, 129, 130, 131, 132, 132, 133, 133, 133, 133, 133, 133, 133, 132, 132, 132, 132, 132, 131, 131, 131, 131, 131, 131, 132, 132, 131, 131, 131, 131, 130, 130, 129, 129, 128, 127, 126, 125, 125, 124, 123, 123, 122, 122, 122, 122, 122, 122, 122, 122, 122, 122, 122, 122, 122, 121, 121, 121, 120, 120, 119, 119, 119, 118, 118, 118, 118, 118, 118, 118, 118, 118, 118, 119, 119, 120, 120, 120, 121, 121, 122, 123, 123, 124, 125, 126, 126, 127, 129, 130, 131, 132, 134, 135, 136, 138, 139, 140, 141, 143, 144, 145, 145, 146, 147, 148, 148, 148, 149, 149, 149, 149, 149, 148, 148, 147, 146, 145, 144, 143, 141, 139, 137, 135, 133, 131, 128, 126, 124, 121, 119, 117, 115, 114, 112, 111, 111, 110, 110, 110, 111, 112, 113, 114, 116, 117, 119, 120, 122, 124, 125, 127, 128, 129, 130, 131, 131, 132, 132, 132, 132, 131, 131, 131, 130, 129, 129, 128, 127, 126, 126, 125, 124, 124, 123, 122, 122, 121, 121, 120, 120, 120, 120, 120, 120, 121, 121, 122, 123, 124, 126, 127, 129, 130, 132, 133, 135, 136, 137, 138, 138, 139, 139, 138, 138, 137, 136, 135, 134, 133, 131, 129, 128, 126, 125, 123, 121, 120, 118, 117, 116, 115, 114, 113, 112, 111, 111, 110, 110, 110, 110, 110, 111, 111, 112, 113, 114, 115, 117, 118, 120, 122, 123, 125, 127, 128, 130, 131, 133, 134, 135, 136, 137, 138, 138, 138, 139, 139, 139, 139, 139, 139, 139, 138, 138, 138, 137, 137, 136, 136, 135, 134, 134, 133, 132, 132, 131, 130, 130, 129, 129, 129, 129, 129, 129, 129, 129, 130, 130, 131, 131, 132, 132, 133, 133, 133, 134, 134, 134, 134, 133, 133, 132, 132, 131, 131, 130, 129, 129, 128, 127, 127, 126, 126, 126, 125, 125, 124, 124, 124, 123, 123, 123, 123, 122, 122, 122, 122, 121, 121, 121, 122, 122, 122, 123, 123, 124, 125, 126, 126, 127, 128, 129, 130, 131, 131, 132, 132, 133, 133, 133, 133, 133, 133, 133, 132, 132, 132, 131, 131, 130, 130, 129, 129, 128, 127, 127, 126, 125, 124, 123, 122, 122, 121, 120, 119, 118, 118, 117, 117, 117, 117, 117, 117, 117, 118, 119, 119, 120, 121, 121, 122, 123, 123, 124, 124, 124, 124, 124, 124, 124, 124, 124, 124, 124, 124, 124, 124, 124, 124, 124, 124, 124, 124, 124, 124, 124, 124, 124, 124, 124, 124, 123, 123, 123, 124, 124, 124, 125, 126, 127, 128, 129, 130, 131, 133, 134, 136, 137, 138, 139, 140, 141, 141, 142, 142, 141, 141, 141, 140, 139, 138, 137, 136, 135, 134, 133, 132, 131, 131, 130, 129, 128, 128, 127, 126, 126, 125, 125, 125, 124, 124, 124, 124, 124, 125, 125, 126, 126, 127, 128, 128, 129, 130, 131, 132, 133, 133, 134, 134, 135, 135, 135, 135, 134, 134, 134, 133, 133, 132, 131, 131, 130, 129, 129, 128, 127, 127, 126, 126, 125, 124, 124, 123, 122, 122, 121, 121, 120, 120, 120, 119, 119, 120, 120, 120, 121, 122, 123, 124, 125, 126, 127, 128, 129, 130, 131, 132, 133, 133, 134, 134, 134, 134, 134, 134, 133, 133, 132, 132, 131, 130, 130, 129, 128, 127, 126, 125, 124, 122, 121, 120, 119, 118, 117, 116, 115, 114, 114, 113, 113, 113, 114, 114, 115, 116, 117, 118, 120, 121, 123, 124, 126, 127, 129, 130, 131, 132, 133, 134, 134, 134, 134, 134, 134, 134, 133, 132, 132, 131, 130, 130, 129, 128, 128, 127, 127, 126, 126, 125, 125, 125, 124, 124, 124, 124, 124, 125, 125, 126, 126, 127, 128, 128, 129, 131, 132, 133, 134, 135, 136, 137, 138, 138, 139, 139, 140, 140, 140, 139, 139, 138, 138, 137, 136, 136, 135, 134, 133, 133, 132, 131, 131, 130, 129, 129, 128, 127, 127, 126, 125, 125, 124, 123, 123, 122, 122, 121, 121, 121, 121, 121, 121, 121, 122, 123, 123, 124, 125, 126, 127, 128, 129, 130, 131, 131, 132, 132, 133, 133, 133, 133, 133, 133, 132, 132, 131, 131, 130, 130, 129, 129, 128, 127, 126, 126, 125, 124, 123, 123, 122, 121, 121, 121, 120, 120, 120, 120, 120, 121, 121, 122, 122, 123, 124, 124, 125, 126, 127, 127, 128, 129, 129, 129, 129, 129, 129, 129, 129, 129, 128, 128, 128, 127, 127, 126, 126, 126, 125, 125, 125, 124, 124, 124, 124, 124, 123, 123, 123, 123, 123, 123, 123, 124, 124, 124, 125, 125, 126, 127, 128, 128, 129, 130, 131, 132, 132, 133, 133, 133, 133, 134, 133, 133, 133, 133, 133, 132, 132, 132, 132, 131, 131, 131, 131, 131, 131, 131, 131, 130, 130, 130, 130, 129, 129, 129, 129, 128, 128, 128, 128, 127, 127, 127, 127, 127, 128, 128, 128, 128, 129, 129, 129, 130, 130, 130, 131, 131, 131, 131, 131, 131, 131, 131, 130, 130, 129, 128, 128, 127, 126, 125, 124, 123, 122, 122, 121, 121, 121, 121, 122, 123, 124, 125, 127, 129, 131, 133, 135, 137, 140, 142, 144, 145, 147, 148, 149, 150, 151, 151, 151, 151, 151, 150, 149, 148, 147, 145, 143, 141, 139, 136, 133, 130, 126, 122, 118, 114, 110, 106, 102, 98, 94, 91, 88, 85, 83, 81, 80, 80, 80, 80, 82, 83, 86, 88, 92, 95, 99, 103, 107, 112, 116, 121, 125, 129, 133, 137, 141, 144, 147, 150, 152, 154, 156, 157, 157, 157, 157, 156, 155, 153, 151, 148, 145, 142, 138, 135, 132, 128, 126, 123, 121, 120, 119, 119, 119, 120, 122, 124, 127, 129, 132, 135, 138, 141, 144, 146, 148, 150, 151, 152, 153, 153, 154, 154, 154, 154, 154, 154, 153, 152, 151, 150, 148, 146, 143, 140, 136, 132, 127, 122, 118, 113, 108, 104, 100, 96, 94, 92, 91, 91, 92, 93, 96, 99, 103, 107, 111, 116, 120, 125, 129, 133, 137, 140, 143, 146, 148, 150, 152, 153, 155, 155, 156, 156, 156, 156, 155, 153, 151, 149, 146, 143, 139, 135, 130, 126, 121, 116, 112, 108, 104, 101, 99, 97, 96, 96, 97, 99, 101, 103, 106, 110, 113, 116, 119, 122, 125, 127, 129, 130, 130, 131, 131, 131, 130, 130, 129, 128, 128, 127, 126, 125, 124, 122, 121, 119, 117, 114, 111, 108, 105, 102, 98, 95, 93, 91, 89, 88, 88, 89, 91, 94, 98, 102, 107, 112, 118, 123, 129, 134, 139, 143, 147, 149, 152, 153, 154, 155, 155, 154, 153, 153, 152, 151, 150, 149, 148, 146, 145, 144, 142, 140, 138, 135, 133, 130, 127, 124, 121, 119, 117, 115, 114, 113, 114, 115, 116, 119, 122, 125, 128, 132, 136, 140, 143, 146, 149, 151, 152, 153, 153, 153, 153, 152, 151, 149, 148, 147, 145, 144, 143, 141, 140, 139, 137, 136, 134, 132, 129, 127, 124, 121, 118, 115, 112, 109, 107, 106, 105, 104, 105, 106, 108, 110, 113, 117, 121, 124, 128, 132, 136, 139, 142, 144, 146, 147, 147, 148, 148, 147, 146, 145, 144, 143, 142, 141, 140, 139, 138, 136, 135, 133, 131, 129, 126, 124, 121, 118, 115, 111, 109, 106, 103, 101, 100, 99, 99, 99, 101, 102, 104, 107, 110, 113, 116, 119, 122, 124, 127, 129, 130, 131, 132, 132, 132, 132, 132, 131, 130, 129, 128, 127, 126, 125, 124, 122, 121, 119, 117, 115, 113, 111, 108, 106, 104, 101, 100, 98, 97, 96, 97, 97, 98, 100, 103, 106, 109, 113, 117, 121, 125, 129, 133, 137, 140, 143, 145, 147, 148, 149, 150, 151, 151, 151, 150, 150, 150, 149, 148, 148, 147, 146, 144, 143, 141, 140, 138, 136, 133, 131, 129, 127, 125, 123, 121, 120, 120, 119, 120, 120, 122, 123, 125, 127, 130, 132, 134, 137, 139, 141, 142, 144, 145, 145, 146, 146, 146, 145, 145, 144, 143, 142, 141, 141, 140, 139, 137, 136, 135, 134, 132, 130, 128, 126, 124, 121, 119, 117, 115, 113, 111, 110, 109, 109, 109, 110, 111, 112, 115, 117, 120, 123, 126, 129, 132, 135, 138, 140, 142, 144, 145, 146, 147, 147, 147, 147, 147, 146, 146, 145, 144, 143, 142, 141, 140, 138, 136, 134, 131, 129, 126, 123, 120, 117, 114, 111, 108, 106, 104, 103, 102, 102, 102, 102, 103, 105, 107, 109, 111, 114, 116, 119, 121, 123, 125, 127, 128, 129, 130, 131, 131, 132, 132, 132, 131, 131, 130, 129, 128, 126, 124, 123, 120, 118, 116, 113, 110, 108, 106, 103, 102, 100, 99, 99, 99, 100, 101, 103, 106, 109, 112, 116, 120, 124, 128, 132, 136, 140, 144, 147, 150, 152, 154, 156, 157, 158, 159, 159, 159, 159, 158, 157, 156, 154, 153, 151, 148, 146, 143, 140, 137, 133, 130, 127, 123, 120, 117, 115, 113, 112, 111, 110, 110, 111, 113, 114, 117, 119, 122, 125, 128, 131, 134, 137, 140, 142, 144, 145, 147, 148, 148, 148, 148, 148, 147, 146, 145, 143, 142, 140, 138, 136, 133, 131, 128, 125, 122, 120, 117, 114, 111, 109, 107, 106, 105, 104, 104, 105, 106, 108, 110, 113, 116, 119, 122, 126, 130, 133, 136, 139, 142, 144, 146, 148, 149, 150, 150, 150, 150, 150, 149, 148, 147, 146, 144, 142, 140, 138, 135, 132, 129, 126, 123, 119, 115, 112, 109, 106, 103, 100, 99, 97, 97, 96, 97, 98, 100, 102, 104, 107, 110, 113, 116, 119, 122, 124, 127, 129, 131, 132, 133, 134, 135, 136, 136, 136, 137, 136, 136, 136, 135, 134, 133, 131, 129, 127, 125, 122, 120, 117, 115, 112, 110, 108, 106, 105, 105, 105, 106, 107, 109, 111, 114, 117, 121, 124, 128, 131, 134, 137, 140, 143, 145, 147, 148, 149, 150, 151, 151, 152, 152, 152, 151, 151, 150, 150, 148, 147, 145, 143, 141, 138, 135, 131, 128, 125, 121, 118, 115, 113, 111, 109, 108, 107, 108, 108, 110, 112, 114, 117, 119, 122, 126, 129, 132, 135, 137, 140, 142, 144, 145, 147, 148, 148, 149, 149, 149, 149, 149, 148, 147, 146, 145, 143, 141, 138, 136, 133, 129, 126, 123, 119, 116, 113, 110, 108, 106, 105, 104, 104, 104, 105, 106, 108, 111, 114, 117, 120, 123, 127, 130, 133, 136, 138, 140, 142, 143, 145, 145, 146, 146, 146, 145, 145, 144, 143, 141, 139, 137, 135, 132, 130, 126, 123, 119, 116, 112, 108, 105, 101, 98, 96, 94, 93, 92, 92, 93, 95, 97, 100, 103, 107, 111, 115, 119, 123, 127, 131, 134, 137, 139, 141, 143, 144, 145, 146, 146, 146, 146, 145, 144, 143, 142, 141, 139, 137, 134, 132, 129, 126, 122, 119, 116, 112, 109, 106, 104, 102, 101, 100, 100, 101, 103, 105, 108, 111, 115, 119, 123, 127, 131, 135, 139, 142, 145, 147, 149, 151, 152, 153, 154, 154, 154, 154, 154, 153, 153, 152, 151, 149, 147, 145, 143, 140, 137, 134, 130, 127, 123, 120, 117, 114, 111, 109, 108, 107, 107, 108, 109, 110, 112, 115, 118, 121, 124, 127, 130, 133, 135, 138, 140, 142, 143, 145, 146, 147, 147, 148, 148, 148, 147, 147, 146, 145, 144, 142, 141, 138, 136, 133, 130, 127, 124, 121, 118, 115, 112, 109, 107, 105, 104, 103, 103, 104, 105, 106, 108, 110, 113, 116, 119, 122, 125, 128, 131, 133, 135, 137, 139, 140, 141, 142, 142, 142, 142, 142, 142, 141, 140, 139, 137, 136, 134, 132, 129, 127, 124, 121, 117, 114, 111, 108, 105, 102, 100, 98, 97, 97, 97, 98, 99, 102, 104, 107, 110, 114, 118, 121, 125, 128, 131, 133, 135, 137, 138, 139, 140, 141, 141, 141, 141, 141, 140, 140, 139, 139, 138, 136, 135, 133, 131, 129, 126, 123, 120, 118, 115, 112, 110, 108, 107, 106, 106, 106, 107, 109, 112, 115, 118, 121, 125, 129, 132, 136, 139, 141, 144, 146, 148, 149, 150, 151, 151, 151, 151, 151, 151, 151, 150, 149, 148, 147, 146, 144, 141, 139, 136, 133, 130, 126, 123, 119, 116, 113, 111, 109, 107, 107, 106, 107, 108, 109, 111, 114, 117, 120, 123, 126, 129, 132, 135, 137, 140, 142, 144, 145, 147, 148, 149, 149, 150, 150, 150, 150, 149, 148, 147, 145, 143, 141, 139, 136, 133, 130, 126, 123, 119, 116, 113, 110, 107, 105, 104, 102, 102, 102, 102, 103, 105, 107, 109, 112, 114, 117, 120, 123, 126, 129, 132, 134, 136, 137, 139, 140, 141, 141, 141, 141, 141, 140, 139, 138, 137, 136, 134, 132, 129, 127, 124, 121, 118, 115, 112, 108, 106, 103, 101, 99, 98, 97, 97, 98, 99, 101, 103, 106, 109, 112, 116, 119, 123, 126, 129, 132, 134, 136, 138, 140, 141, 142, 143, 143, 144, 144, 144, 144, 144, 143, 142, 141, 140, 139, 137, 134, 132, 129, 126, 123, 120, 118, 115, 113, 110, 109, 108, 107, 107, 108, 109, 111, 113, 115, 118, 121, 124, 126, 129, 132, 134, 137, 139, 141, 142, 144, 145, 146, 147, 148, 148, 149, 149, 149, 148, 148, 147, 146, 145, 143, 141, 139, 136, 134, 131, 128, 126, 123, 121, 118, 117, 115, 114, 113, 113, 114, 114, 115, 117, 118, 120, 122, 124, 127, 129, 131, 133, 135, 136, 138, 139, 141, 142, 142, 143, 143, 144, 144, 143, 143, 142, 141, 140, 139, 137, 135, 133, 130, 127, 125, 122, 119, 116, 113, 110, 108, 106, 104, 103, 103, 103, 104, 105, 106, 108, 111, 114, 116, 119, 122, 125, 128, 131, 133, 135, 137, 139, 140, 141, 142, 142, 142, 143, 142, 142, 142, 141, 140, 138, 137, 135, 132, 130, 127, 124, 121, 117, 114, 111, 108, 106, 103, 102, 101, 100, 100, 101, 102, 104, 106, 108, 111, 114, 117, 121, 124, 126, 129, 132, 134, 136, 138, 139, 140, 141, 142, 143, 143, 144, 144, 144, 144, 143, 142, 141, 140, 138, 136, 133, 131, 128, 126, 123, 120, 118, 115, 113, 112, 111, 110, 110, 111, 112, 113, 115, 117, 119, 122, 125, 127, 130, 133, 136, 138, 140, 142, 144, 145, 147, 148, 149, 149, 150, 150, 150, 149, 149, 148, 147, 146, 144, 142, 140, 137, 135, 132, 129, 126, 123, 120, 117, 115, 112, 111, 109, 108, 108, 108, 109, 110, 111, 113, 115, 118, 121, 123, 126, 129, 131, 134, 136, 138, 140, 141, 142, 143, 144, 145, 145, 146, 146, 146, 146, 146, 145, 144, 143, 142, 140, 138, 135, 132, 129, 126, 123, 119, 116, 113, 110, 108, 106, 105, 105, 105, 105, 106, 108, 110, 113, 115, 118, 120, 123, 125, 127, 129, 131, 132, 133, 134, 135, 135, 136, 136, 136, 136, 136, 136, 136, 135, 135, 134, 133, 131, 129, 127, 125, 123, 120, 117, 115, 112, 110, 108, 106, 105, 105, 105, 106, 107, 109, 111, 113, 116, 118, 121, 124, 126, 129, 131, 133, 135, 136, 138, 139, 140, 141, 142, 142, 143, 143, 143, 143, 143, 143, 142, 141, 140, 138, 136, 134, 132, 129, 127, 124, 121, 119, 116, 114, 112, 111, 110, 109, 109, 110, 111, 112, 113, 115, 117, 120, 122, 124, 127, 129, 131, 133, 135, 137, 138, 140, 141, 142, 143, 144, 144, 145, 145, 145, 145, 145, 144, 143, 142, 141, 139, 137, 135, 133, 130, 128, 125, 122, 120, 118, 116, 114, 113, 112, 112, 112, 113, 114, 116, 118, 120, 122, 125, 127, 130, 132, 134, 136, 138, 139, 140, 141, 142, 143, 143, 143, 143, 143, 143, 143, 142, 141, 140, 139, 138, 136, 134, 131, 128, 125, 122, 119, 116, 113, 110, 108, 105, 104, 102, 102, 102, 102, 103, 105, 107, 109, 112, 115, 118, 120, 123, 126, 128, 131, 133, 135, 136, 138, 139, 140, 141, 142, 143, 143, 143, 143, 143, 142, 141, 140, 138, 136, 134, 131, 129, 126, 122, 119, 116, 113, 111, 108, 107, 105, 104, 104, 104, 104, 105, 107, 108, 110, 113, 115, 117, 120, 122, 124, 127, 129, 131, 133, 135, 136, 138, 139, 141, 142, 142, 143, 143, 143, 143, 143, 142, 141, 139, 137, 135, 133, 131, 128, 125, 123, 120, 118, 115, 113, 112, 111, 110, 110, 110, 110, 111, 113, 115, 117, 119, 121, 124, 127, 129, 132, 134, 136, 138, 140, 142, 144, 145, 146, 147, 148, 149, 149, 150, 149, 149, 149, 148, 146, 145, 143, 141, 138, 136, 133, 130, 127, 123, 120, 118, 115, 113, 111, 110, 109, 109, 109, 110, 111, 112, 114, 116, 118, 121, 123, 126, 128, 130, 132, 134, 136, 138, 139, 140, 141, 142, 143, 144, 144, 144, 144, 143, 142, 141, 139, 137, 135, 132, 129, 126, 123, 120, 117, 114, 112, 109, 108, 106, 105, 105, 105, 106, 107, 109, 111, 113, 115, 117, 120, 122, 125, 127, 129, 131, 133, 134, 136, 137, 138, 140, 140, 141, 142, 142, 142, 142, 141, 141, 139, 138, 136, 134, 131, 129, 126, 123, 120, 117, 114, 111, 109, 107, 106, 105, 104, 104, 104, 105, 107, 108, 110, 113, 115, 118, 120, 123, 126, 128, 131, 133, 135, 137, 139, 140, 142, 143, 144, 144, 145, 145, 145, 144, 144, 143, 142, 141, 139, 137, 135, 133, 130, 128, 125, 123, 120, 118, 116, 114, 113, 112, 111, 111, 111, 112, 113, 115, 117, 119, 122, 124, 127, 129, 132, 134, 136, 138, 140, 142, 143, 144, 145, 146, 147, 147, 147, 148, 147, 147, 147, 146, 145, 143, 142, 139, 137, 135, 132, 129, 126, 123, 120, 117, 115, 113, 111, 110, 109, 109, 109, 110, 111, 112, 113, 115, 116, 118, 119, 121, 122, 123, 124, 125, 126, 126, 127, 127, 128, 128, 129, 129, 130, 130, 130, 131, 130, 130, 129, 128, 127, 125, 123, 121, 119, 117, 115, 113, 111, 109, 108, 108, 107, 108, 108, 109, 111, 113, 115, 118, 120, 123, 126, 129, 132, 134, 137, 139, 141, 144, 145, 147, 149, 151, 152, 153, 154, 155, 156, 156, 156, 156, 155, 154, 153, 151, 149, 146, 143, 140, 136, 133, 129, 125, 122, 119, 116, 114, 112, 110, 109, 108, 108, 109, 110, 111, 112, 114, 116, 118, 120, 122, 124, 126, 128, 130, 131, 133, 134, 135, 136, 137, 138, 138, 138, 139, 138, 138, 138, 137, 136, 135, 133, 132, 130, 128, 126, 124, 122, 120, 118, 117, 115, 114, 114, 114, 114, 114, 115, 117, 118, 120, 122, 125, 127, 129, 131, 133, 135, 136, 138, 139, 140, 141, 141, 142, 142, 142, 142, 142, 141, 141, 140, 139, 138, 136, 134, 132, 130, 127, 124, 121, 118, 115, 112, 110, 107, 105, 103, 102, 102, 101, 102, 102, 103, 105, 107, 109, 111, 114, 116, 119, 121, 123, 126, 128, 130, 131, 133, 135, 136, 137, 139, 140, 140, 141, 142, 142, 142, 142, 142, 141, 140, 139, 137, 135, 133, 131, 129, 127, 125, 123, 121, 120, 118, 118, 117, 117, 117, 118, 119, 120, 122, 123, 125, 127, 129, 132, 134, 136, 138, 139, 141, 142, 143, 144, 145, 146, 146, 147, 147, 147, 146, 146, 145, 144, 143, 141, 139, 137, 135, 133, 131, 128, 125, 123, 120, 118, 116, 114, 112, 110, 109, 109, 109, 109, 110, 111, 112, 114, 115, 117, 120, 122, 124, 126, 128, 130, 132, 133, 135, 136, 137, 139, 140, 141, 141, 142, 142, 143, 143, 143, 142, 141, 140, 139, 137, 135, 132, 130, 127, 124, 121, 119, 116, 114, 112, 110, 109, 108, 108, 108, 109, 110, 111, 113, 115, 117, 119, 121, 123, 124, 126, 128, 130, 131, 132, 134, 135, 136, 137, 138, 138, 139, 139, 139, 139, 139, 138, 137, 135, 134, 132, 129, 127, 125, 122, 120, 117, 115, 113, 111, 110, 109, 108, 108, 108, 109, 109, 110, 112, 113, 115, 117, 119, 121, 123, 125, 126, 128, 130, 132, 134, 135, 137, 138, 139, 140, 141, 141, 142, 141, 141, 140, 139, 138, 137, 135, 133, 131, 129, 127, 125, 123, 121, 120, 119, 118, 117, 117, 116, 117, 117, 118, 119, 120, 122, 123, 125, 127, 129, 131, 132, 134, 136, 137, 138, 140, 141, 141, 142, 142, 143, 143, 142, 142, 141, 140, 139, 138, 136, 135, 133, 131, 129, 127, 125, 122, 120, 119, 117, 116, 115, 114, 113, 113, 113, 114, 115, 116, 117, 119, 120, 122, 123, 125, 126, 128, 129, 130, 131, 132, 133, 133, 134, 135, 135, 136, 136, 136, 137, 137, 137, 136, 136, 135, 134, 133, 132, 130, 129, 127, 125, 123, 121, 120, 119, 118, 117, 116, 117, 117, 118, 119, 120, 122, 123, 125, 127, 129, 130, 131, 133, 133, 134, 134, 134, 134, 134, 133, 132, 131, 130, 129, 128, 126, 125, 123, 122, 121, 119, 118, 117, 116, 116, 116, 116, 116, 117, 118, 119, 121, 122, 124, 127, 129, 131, 134, 136, 137, 139, 140, 141, 142, 142, 142, 141, 141, 140, 139, 137, 136, 135, 134, 133, 131, 130, 129, 128, 127, 125, 124, 122, 120, 118, 115, 113, 110, 107, 103, 100, 97, 95, 92, 91, 89, 88, 88, 89, 90, 93, 95, 99, 102, 106, 111, 115, 120, 124, 128, 132, 136, 139, 141, 143, 145, 147, 148, 149, 149, 150, 151, 152, 153, 154, 155, 157, 158, 160, 161, 163, 163, 164, 164, 164, 163, 161, 159, 156, 153, 150, 147, 143, 140, 137, 134, 132, 130, 129, 129, 129, 130, 131, 132, 134, 136, 138, 139, 140, 141, 142, 141, 141, 139, 137, 135, 133, 130, 127, 124, 120, 117, 114, 112, 109, 107, 105, 103, 101, 100, 99, 98, 98, 97, 97, 97, 97, 98, 99, 100, 102, 104, 106, 109, 112, 115, 118, 121, 125, 128, 131, 134, 137, 140, 142, 144, 146, 147, 149, 149, 150, 150, 150, 150, 150, 149, 148, 147, 145, 144, 141, 139, 136, 133, 130, 126, 122, 118, 114, 109, 105, 101, 97, 93, 90, 87, 85, 83, 82, 82, 82, 83, 85, 87, 89, 92, 96, 99, 103, 107, 111, 115, 119, 122, 125, 128, 131, 133, 135, 137, 138, 138, 139, 139, 139, 138, 137, 136, 135, 134, 133, 131, 130, 129, 127, 126, 124, 123, 122, 120, 119, 118, 117, 117, 116, 116, 116, 117, 117, 119, 120, 122, 125, 128, 131, 135, 139, 143, 148, 152, 156, 160, 163, 167, 169, 171, 173, 174, 174, 174, 173, 171, 169, 166, 163, 159, 156, 152, 148, 144, 140, 137, 133, 129, 126, 123, 120, 117, 114, 112, 110, 108, 106, 104, 103, 102, 101, 101, 101, 102, 103, 104, 106, 109, 112, 115, 118, 122, 126, 130, 134, 138, 141, 145, 148, 151, 153, 154, 155, 156, 156, 155, 154, 153, 151, 148, 145, 142, 139, 136, 133, 129, 126, 122, 119, 116, 114, 111, 109, 107, 105, 104, 103, 103, 102, 103, 103, 104, 105, 107, 109, 111, 113, 115, 118, 120, 123, 125, 128, 130, 132, 134, 135, 136, 137, 137, 137, 136, 136, 135, 133, 131, 130, 127, 125, 123, 120, 118, 115, 113, 111, 109, 107, 105, 103, 102, 101, 100, 99, 99, 99, 100, 101, 102, 104, 106, 108, 111, 113, 117, 120, 124, 127, 131, 134, 137, 140, 143, 145, 147, 149, 150, 150, 150, 150, 149, 148, 147, 145, 143, 142, 140, 138, 136, 134, 133, 131, 130, 129, 128, 127, 127, 126, 126, 126, 125, 125, 125, 125, 125, 125, 125, 125, 126, 126, 127, 128, 129, 130, 132, 134, 135, 137, 139, 141, 143, 145, 147, 148, 149, 149, 150, 149, 149, 148, 146, 145, 143, 141, 139, 137, 135, 133, 131, 129, 127, 126, 125, 124, 123, 122, 121, 120, 119, 118, 117, 116, 115, 114, 113, 113, 112, 112, 111, 111, 112, 112, 114, 115, 117, 119, 121, 124, 126, 129, 131, 134, 136, 138, 139, 140, 140, 140, 140, 139, 138, 136, 134, 132, 130, 128, 126, 123, 121, 119, 117, 116, 115, 113, 113, 112, 111, 111, 111, 111, 111, 111, 111, 111, 112, 112, 113, 114, 115, 117, 118, 120, 121, 123, 125, 127, 130, 132, 134, 135, 137, 138, 140, 141, 141, 141, 141, 141, 141, 140, 139, 138, 137, 136, 134, 133, 132, 131, 130, 129, 128, 128, 127, 126, 126, 125, 124, 124, 124, 123, 123, 123, 123, 123, 124, 124, 125, 126, 128, 129, 131, 133, 135, 137, 139, 141, 143, 145, 146, 147, 148, 148, 148, 148, 147, 147, 145, 144, 143, 141, 140, 138, 137, 135, 134, 133, 132, 131, 130, 129, 129, 128, 127, 127, 126, 125, 124, 124, 123, 122, 122, 121, 121, 120, 120, 120, 121, 122, 122, 123, 125, 126, 128, 129, 131, 132, 134, 135, 136, 137, 137, 137, 137, 137, 136, 135, 134, 132, 131, 130, 128, 126, 125, 123, 122, 121, 119, 118, 117, 116, 115, 114, 113, 112, 111, 110, 109, 109, 108, 108, 107, 107, 108, 108, 108, 109, 110, 112, 113, 115, 116, 118, 120, 122, 124, 125, 127, 128, 130, 131, 132, 132, 133, 133, 133, 132, 132, 131, 131, 130, 129, 128, 127, 126, 125, 124, 124, 123, 122, 121, 121, 120, 120, 119, 119, 118, 118, 118, 117, 117, 117, 118, 118, 119, 120, 121, 122, 124, 126, 128, 130, 133, 135, 138, 140, 142, 144, 146, 148, 149, 150, 151, 152, 152, 152, 151, 151, 150, 149, 148, 146, 145, 143, 142, 140, 139, 137, 135, 134, 132, 130, 128, 127, 125, 123, 122, 120, 119, 118, 118, 117, 117, 117, 118, 119, 120, 122, 124, 126, 128, 130, 132, 134, 136, 138, 140, 141, 142, 143, 143, 143, 143, 142, 142, 141, 139, 138, 137, 135, 134, 133, 131, 130, 129, 127, 126, 124, 123, 122, 120, 119, 118, 116, 115, 114, 113, 112, 111, 111, 111, 111, 112, 113, 114, 116, 117, 119, 121, 123, 125, 127, 129, 130, 132, 133, 133, 133, 133, 133, 132, 131, 129, 128, 126, 125, 123, 122, 121, 119, 118, 117, 116, 115, 114, 113, 113, 112, 111, 110, 109, 108, 108, 107, 106, 106, 106, 106, 106, 107, 108, 109, 111, 113, 115, 118, 121, 124, 127, 130, 134, 137, 139, 142, 144, 146, 148, 149, 150, 150, 150, 150, 150, 149, 148, 147, 146, 144, 143, 141, 140, 138, 137, 135, 133, 132, 130, 128, 127, 125, 124, 122, 121, 120, 120, 119, 119, 120, 120, 121, 122, 124, 126, 128, 130, 133, 135, 137, 139, 141, 143, 144, 145, 146, 146, 146, 146, 145, 144, 143, 142, 141, 140, 138, 137, 135, 134, 132, 131, 129, 128, 126, 125, 123, 122, 120, 119, 117, 116, 115, 113, 113, 112, 112, 112, 112, 113, 114, 115, 117, 119, 121, 123, 126, 128, 131, 133, 135, 137, 139, 140, 141, 142, 142, 142, 141, 140, 139, 138, 137, 135, 133, 132, 130, 128, 126, 125, 123, 121, 120, 118, 116, 115, 113, 111, 110, 108, 107, 106, 105, 104, 104, 104, 104, 104, 105, 106, 108, 110, 112, 114, 117, 119, 122, 124, 127, 129, 131, 133, 135, 136, 137, 138, 138, 138, 138, 138, 138, 137, 136, 135, 134, 133, 132, 131, 129, 128, 127, 126, 125, 124, 123, 122, 121, 121, 120, 120, 119, 119, 119, 119, 120, 120, 121, 122, 123, 124, 125, 127, 128, 130, 132, 133, 135, 137, 138, 140, 141, 143, 144, 145, 145, 146, 146, 146, 146, 145, 145, 144, 143, 142, 141, 139, 138, 136, 134, 132, 130, 129, 127, 125, 123, 122, 121, 119, 119, 118, 118, 118, 118, 119, 120, 122, 124, 126, 128, 131, 134, 137, 140, 143, 146, 149, 152, 154, 156, 158, 159, 160, 160, 160, 159, 158, 157, 155, 153, 151, 148, 145, 142, 139, 135, 132, 128, 124, 120, 115, 111, 107, 102, 98, 94, 90, 87, 84, 81, 79, 77, 76, 76, 76, 77, 79, 81, 84, 87, 91, 95, 100, 105, 110, 114, 119, 124, 128, 132, 136, 140, 143, 146, 148, 150, 151, 152, 153, 153, 152, 151, 150, 148, 145, 142, 139, 136, 132, 128, 125, 121, 117, 114, 111, 109, 107, 106, 106, 106, 108, 110, 112, 115, 119, 123, 127, 132, 136, 141, 145, 149, 153, 156, 159, 161, 163, 165, 166, 166, 166, 166, 165, 164, 163, 161, 159, 157, 154, 151, 148, 144, 140, 136, 132, 127, 122, 118, 113, 109, 105, 102, 99, 97, 96, 96, 96, 97, 99, 101, 104, 107, 111, 115, 120, 124, 128, 132, 136, 140, 143, 147, 149, 152, 154, 155, 157, 158, 159, 160, 160, 160, 159, 158, 157, 155, 152, 149, 146, 142, 138, 133, 128, 124, 119, 114, 110, 106, 103, 100, 98, 97, 96, 97, 97, 99, 101, 104, 106, 110, 113, 116, 119, 122, 125, 127, 129, 131, 133, 134, 135, 136, 137, 137, 137, 137, 137, 136, 135, 133, 131, 128, 125, 122, 118, 114, 110, 105, 101, 96, 92, 89, 86, 83, 82, 81, 81, 82, 84, 87, 90, 94, 99, 103, 108, 113, 118, 123, 127, 131, 135, 138, 141, 144, 146, 148, 149, 151, 152, 153, 153, 153, 153, 153, 152, 151, 149, 147, 144, 142, 138, 135, 132, 129, 125, 123, 120, 118, 117, 116, 116, 116, 118, 119, 122, 124, 127, 130, 134, 137, 139, 142, 144, 146, 147, 148, 149, 149, 149, 149, 149, 148, 147, 147, 146, 145, 144, 142, 141, 139, 136, 134, 131, 128, 125, 121, 117, 114, 110, 106, 103, 100, 98, 97, 96, 96, 96, 98, 100, 103, 107, 111, 115, 120, 124, 129, 133, 138, 141, 145, 148, 150, 152, 154, 155, 156, 157, 157, 157, 157, 157, 156, 155, 155, 153, 152, 150, 148, 146, 144, 141, 137, 134, 130, 126, 123, 119, 116, 113, 110, 109, 107, 107, 107, 107, 108, 110, 112, 115, 117, 120, 122, 124, 126, 127, 128, 128, 128, 128, 127, 126, 125, 124, 122, 121, 120, 119, 118, 117, 116, 115, 115, 114, 113, 112, 111, 110, 108, 106, 104, 103, 101, 99, 98, 97, 97, 97, 98, 100, 102, 105, 108, 112, 116, 120, 124, 128, 132, 136, 139, 142, 144, 146, 147, 148, 149, 149, 149, 149, 148, 148, 147, 147, 146, 145, 144, 143, 142, 140, 139, 137, 135, 133, 130, 128, 126, 123, 121, 119, 117, 116, 115, 114, 114, 114, 114, 115, 117, 118, 120, 122, 124, 126, 129, 131, 133, 134, 136, 137, 139, 140, 140, 141, 141, 142, 142, 142, 141, 141, 140, 140, 139, 138, 136, 135, 133, 132, 130, 128, 126, 124, 122, 120, 119, 117, 116, 115, 114, 114, 114, 115, 116, 117, 119, 121, 124, 127, 130, 133, 136, 139, 142, 144, 147, 149, 150, 151, 152, 152, 152, 152, 151, 150, 149, 148, 146, 145, 143, 141, 139, 137, 134, 132, 129, 126, 123, 120, 117, 114, 111, 108, 106, 104, 102, 101, 100, 100, 100, 101, 102, 103, 105, 108, 110, 113, 115, 117, 120, 122, 124, 125, 127, 128, 129, 130, 131, 131, 132, 132, 133, 133, 133, 133, 132, 131, 130, 129, 127, 125, 123, 120, 117, 115, 112, 109, 107, 105, 103, 102, 102, 102, 103, 104, 106, 108, 111, 114, 117, 120, 124, 127, 130, 133, 136, 139, 141, 143, 145, 146, 148, 149, 150, 150, 151, 151, 150, 150, 149, 148, 147, 145, 143, 140, 137, 134, 131, 127, 124, 120, 117, 113, 110, 107, 105, 103, 102, 101, 102, 102, 104, 106, 109, 113, 117, 122, 127, 132, 138, 143, 149, 154, 160, 165, 169, 173, 176, 179, 181, 182, 182, 182, 181, 180, 177, 174, 171, 167, 163, 158, 152, 147, 141, 135, 129, 123, 117, 111, 105, 100, 95, 91, 88, 84, 82, 80, 79, 78, 78, 79, 80, 82, 84, 86, 89, 92, 96, 99, 103, 107, 111, 116, 120, 125, 129, 134, 138, 143, 146, 150, 153, 155, 156, 157, 157, 156, 154, 152, 149, 145, 141, 137, 133, 130, 126, 123, 121, 119, 118, 118, 118, 119, 120, 122, 124, 127, 129, 131, 133, 135, 136, 137, 138, 138, 139, 139, 139, 139, 139, 140, 140, 141, 142, 143, 144, 145, 146, 146, 146, 146, 145, 143, 141, 139, 136, 132, 128, 124, 120, 116, 112, 108, 105, 102, 100, 98, 97, 97, 97, 97, 98, 100, 102, 104, 106, 108, 111, 114, 116, 119, 122, 125, 128, 131, 134, 137, 139, 142, 145, 148, 150, 153, 154, 156, 157, 158, 158, 158, 157, 156, 154, 152, 149, 146, 143, 140, 137, 134, 130, 127, 125, 122, 120, 118, 117, 116, 115, 114, 114, 114, 114, 114, 115, 115, 115, 116, 116, 117, 117, 118, 119, 120, 121, 122, 123, 124, 126, 127, 128, 129, 130, 130, 130, 130, 129, 128, 127, 125, 123, 120, 118, 116, 113, 111, 109, 108, 107, 107, 107, 108, 109, 110, 112, 114, 117, 119, 122, 124, 126, 128, 130, 131, 132, 133, 133, 134, 134, 134, 134, 134, 134, 134, 134, 135, 135, 136, 136, 137, 137, 137, 138, 138, 138, 138, 137, 137, 136, 135, 134, 133, 132, 131, 130, 129, 129, 128, 128, 128, 128, 128, 128, 129, 129, 130, 131, 131, 132, 133, 133, 133, 133, 133, 133, 132, 131, 130, 129, 127, 125, 123, 121, 119, 117, 116, 114, 112, 111, 110, 109, 109, 109, 109, 110, 111, 113, 114, 116, 118, 120, 123, 125, 127, 130, 132, 134, 137, 139, 141, 142, 144, 145, 146, 147, 147, 148, 148, 148, 147, 147, 146, 145, 143, 142, 140, 138, 136, 134, 132, 130, 127, 125, 123, 120, 118, 116, 115, 113, 112, 111, 110, 110, 110, 111, 112, 113, 115, 117, 119, 122, 124, 127, 130, 132, 134, 136, 138, 139, 141, 141, 142, 142, 142, 141, 141, 140, 139, 137, 135, 134, 132, 130, 127, 125, 122, 120, 117, 114, 111, 109, 107, 105, 103, 102, 101, 101, 102, 103, 104, 107, 109, 112, 116, 119, 123, 127, 130, 134, 137, 140, 143, 145, 147, 149, 150, 151, 152, 152, 153, 153, 153, 152, 152, 151, 149, 148, 146, 143, 141, 138, 134, 130, 126, 122, 118, 114, 110, 106, 103, 101, 99, 98, 97, 97, 98, 100, 103, 106, 110, 113, 118, 122, 126, 131, 135, 138, 141, 144, 147, 148, 150, 151, 151, 151, 150, 149, 148, 147, 145, 143, 141, 138, 136, 133, 130, 127, 124, 121, 118, 115, 111, 108, 106, 103, 101, 99, 98, 97, 97, 97, 98, 100, 103, 106, 109, 113, 118, 123, 127, 132, 137, 142, 146, 150, 153, 156, 158, 160, 161, 161, 160, 159, 158, 156, 154, 151, 148, 144, 141, 137, 133, 129, 125, 120, 116, 112, 108, 104, 100, 96, 93, 90, 88, 87, 86, 86, 87, 89, 91, 94, 98, 103, 107, 112, 118, 123, 128, 133, 138, 142, 145, 149, 151, 153, 155, 156, 157, 157, 157, 157, 156, 155, 154, 153, 151, 149, 147, 144, 142, 138, 135, 131, 127, 124, 120, 116, 112, 109, 106, 104, 102, 101, 100, 101, 102, 104, 107, 110, 114, 118, 123, 128, 132, 137, 141, 146, 149, 153, 155, 157, 159, 160, 161, 161, 160, 159, 158, 156, 153, 151, 148, 145, 142, 138, 135, 131, 127, 124, 120, 116, 112, 109, 106, 103, 100, 98, 97, 95, 95, 95, 96, 97, 99, 101, 105, 108, 112, 117, 121, 126, 131, 135, 140, 144, 147, 151, 153, 155, 157, 158, 158, 158, 157, 155, 153, 151, 149, 146, 143, 139, 136, 133, 129, 126, 122, 119, 115, 112, 109, 106, 104, 101, 100, 98, 97, 97, 97, 97, 98, 99, 101, 104, 106, 109, 113, 116, 119, 123, 126, 129, 132, 135, 137, 139, 140, 141, 142, 143, 143, 142, 142, 141, 139, 138, 136, 134, 132, 129, 127, 124, 121, 119, 116, 113, 111, 109, 107, 105, 104, 103, 102, 102, 103, 103, 104, 106, 108, 110, 113, 116, 119, 122, 126, 129, 133, 136, 140, 144, 147, 150, 153, 156, 158, 160, 162, 163, 163, 163, 163, 162, 161, 159, 157, 155, 152, 149, 146, 142, 139, 136, 132, 129, 126, 123, 121, 118, 116, 114, 113, 112, 111, 111, 111, 111, 111, 112, 113, 115, 117, 119, 121, 123, 126, 128, 131, 133, 136, 138, 141, 143, 144, 146, 147, 147, 147, 147, 146, 145, 143, 141, 139, 136, 133, 130, 127, 125, 122, 119, 117, 115, 113, 111, 110, 109, 109, 109, 109, 109, 110, 110, 111, 112, 113, 115, 116, 117, 119, 121, 122, 124, 126, 128, 130, 133, 135, 137, 139, 141, 142, 144, 145, 145, 146, 145, 145, 143, 142, 140, 137, 135, 132, 129, 126, 123, 121, 118, 116, 114, 113, 111, 111, 110, 110, 110, 110, 110, 111, 111, 111, 112, 112, 113, 113, 114, 115, 116, 117, 119, 120, 122, 124, 126, 129, 131, 133, 135, 137, 139, 140, 141, 142, 142, 142, 141, 140, 139, 137, 136, 134, 132, 131, 129, 128, 126, 125, 125, 124, 123, 123, 123, 123, 122, 122, 122, 122, 122, 122, 122, 122, 122, 123, 123, 124, 126, 127, 129, 130, 132, 134, 136, 138, 140, 142, 143, 144, 145, 145, 145, 145, 144, 143, 141, 140, 138, 136, 135, 133, 132, 130, 129, 128, 127, 126, 126, 125, 125, 124, 124, 123, 123, 122, 122, 121, 121, 120, 120, 119, 119, 119, 119, 119, 120, 120, 121, 122, 123, 125, 126, 128, 129, 131, 132, 133, 134, 135, 135, 135, 135, 135, 135, 134, 133, 132, 131, 130, 129, 128, 126, 125, 125, 124, 123, 123, 122, 122, 121, 121, 121, 121, 121, 120, 120, 119, 119, 118, 118, 117, 116, 116, 115, 115, 115, 115, 115, 115, 116, 116, 117, 119, 120, 121, 123, 124, 126, 127, 128, 129, 130, 130, 130, 130, 130, 130, 130, 129, 128, 128, 127, 127, 127, 126, 126, 126, 127, 127, 128, 128, 129, 129, 130, 130, 131, 131, 131, 131, 131, 131, 130, 130, 130, 130, 130, 130, 131, 131, 132, 133, 134, 134, 135, 136, 137, 138, 139, 139, 139, 140, 140, 140, 139, 139, 138, 138, 137, 136, 135, 135, 134, 133, 132, 131, 131, 130, 129, 129, 128, 127, 127, 126, 126, 125, 124, 124, 123, 123, 122, 122, 121, 121, 121, 121, 121, 121, 121, 121, 121, 121, 122, 122, 123, 123, 124, 125, 125, 126, 127, 127, 128, 129, 129, 129, 130, 130, 130, 129, 129, 129, 129, 128, 128, 128, 127, 127, 127, 127, 127, 127, 126, 126, 126, 126, 125, 125, 124, 124, 123, 122, 121, 120, 119, 119, 118, 118, 118, 118, 119, 120, 121, 122, 123, 125, 127, 129, 130, 132, 133, 134, 135, 136, 137, 137, 137, 136, 136, 135, 135, 134, 133, 132, 131, 130, 129, 128, 127, 126, 125, 123, 122, 120, 119, 117, 116, 114, 112, 111, 110, 109, 108, 107, 107, 108, 108, 109, 111, 112, 114, 116, 118, 120, 122, 124, 126, 127, 129, 130, 131, 132, 133, 133, 134, 134, 135, 135, 136, 137, 137, 138, 138, 139, 139, 139, 139, 139, 138, 137, 136, 135, 134, 132, 131, 130, 129, 128, 127, 127, 127, 128, 128, 130, 131, 133, 135, 138, 140, 142, 145, 147, 148, 150, 151, 152, 152, 152, 152, 151, 150, 149, 148, 146, 145, 143, 141, 140, 138, 136, 134, 133, 131, 129, 127, 125, 124, 122, 120, 118, 116, 115, 113, 112, 110, 109, 109, 108, 108, 108, 108, 108, 109, 110, 111, 112, 114, 115, 117, 118, 120, 121, 122, 123, 124, 125, 125, 126, 126, 126, 126, 126, 126, 125, 125, 125, 125, 125, 124, 124, 124, 124, 124, 124, 124, 123, 123, 123, 122, 122, 121, 120, 119, 118, 117, 117, 116, 115, 115, 115, 115, 115, 115, 116, 117, 118, 119, 121, 122, 123, 125, 126, 127, 128, 129, 129, 129, 129, 129, 129, 129, 128, 128, 127, 126, 126, 125, 124, 124, 123, 123, 122, 122, 121, 121, 120, 120, 119, 119, 118, 118, 118, 118, 118, 118, 118, 119, 120, 121, 123, 125, 127, 129, 131, 134, 136, 139, 142, 144, 146, 149, 150, 152, 153, 155, 155, 156, 156, 156, 155, 155, 154, 153, 151, 150, 148, 147, 145, 143, 141, 140, 138, 136, 135, 134, 132, 131, 130, 129, 129, 128, 128, 128, 128, 128, 128, 129, 129, 130, 131, 131, 132, 133, 134, 134, 135, 136, 136, 136, 137, 137, 137, 136, 136, 135, 135, 134, 133, 132, 130, 129, 127, 126, 124, 122, 121, 119, 118, 116, 115, 114, 113, 112, 111, 111, 111, 111, 111, 111, 111, 112, 112, 113, 114, 115, 116, 117, 119, 120, 122, 123, 125, 127, 128, 130, 132, 133, 134, 135, 136, 137, 137, 137, 136, 136, 135, 133, 132, 130, 128, 127, 125, 123, 121, 119, 118, 116, 114, 113, 112, 110, 109, 108, 107, 106, 105, 104, 103, 103, 102, 102, 103, 103, 104, 105, 107, 109, 111, 114, 117, 120, 123, 126, 129, 131, 134, 136, 137, 139, 139, 140, 140, 139, 138, 137, 136, 135, 134, 132, 131, 130, 129, 128, 128, 128, 127, 127, 127, 127, 128, 128, 128, 128, 128, 128, 128, 128, 128, 129, 129, 129, 130, 131, 132, 133, 135, 136, 138, 140, 142, 143, 145, 147, 148, 149, 150, 151, 151, 151, 150, 150, 149, 147, 146, 144, 143, 141, 139, 138, 136, 135, 134, 133, 132, 131, 130, 129, 129, 128, 127, 126, 125, 124, 123, 122, 121, 120, 119, 119, 118, 118, 118, 118, 119, 120, 121, 122, 123, 125, 126, 128, 129, 130, 131, 131, 132, 132, 132, 131, 131, 130, 129, 128, 127, 126, 125, 125, 124, 123, 122, 121, 121, 120, 119, 118, 118, 117, 116, 115, 115, 114, 113, 113, 113, 112, 113, 113, 113, 114, 115, 116, 117, 118, 119, 120, 120, 121, 122, 123, 123, 123, 124, 124, 124, 125, 125, 126, 127, 128, 129, 131, 133, 135, 137, 139, 141, 143, 145, 147, 149, 150, 151, 151, 151, 150, 149, 148, 146, 144, 142, 139, 137, 134, 132, 129, 127, 125, 124, 122, 121, 120, 120, 119, 119, 119, 119, 118, 118, 118, 117, 116, 114, 112, 110, 108, 105, 102, 99, 96, 93, 90, 88, 86, 85, 84, 84, 84, 86, 88, 91, 94, 98, 103, 108, 113, 118, 123, 128, 133, 137, 141, 144, 147, 150, 151, 153, 154, 156, 157, 158, 159, 160, 162, 163, 165, 168, 170, 172, 175, 177, 179, 181, 182, 183, 183, 182, 180, 178, 175, 171, 166, 161, 155, 149, 142, 135, 128, 122, 115, 109, 104, 99, 95, 92, 89, 88, 88, 88, 89, 92, 95, 98, 102, 107, 112, 117, 122, 127, 132, 137, 140, 144, 146, 148, 150, 150, 150, 149, 148, 147, 145, 142, 140, 138, 135, 133, 131, 129, 128, 126, 125, 124, 122, 121, 120, 119, 117, 116, 114, 112, 110, 108, 106, 104, 102, 100, 99, 98, 98, 99, 101, 103, 106, 109, 113, 118, 123, 129, 134, 139, 144, 148, 152, 155, 157, 158, 158, 157, 155, 153, 149, 145, 141, 136, 131, 126, 122, 117, 113, 110, 107, 105, 103, 101, 100, 100, 99, 99, 99, 99, 98, 98, 97, 96, 95, 94, 93, 92, 91, 90, 90, 90, 90, 92, 93, 96, 99, 103, 107, 111, 116, 121, 127, 132, 137, 142, 146, 151, 154, 157, 160, 161, 162, 163, 163, 162, 161, 160, 158, 156, 153, 151, 148, 145, 143, 140, 138, 135, 133, 131, 130, 128, 127, 126, 126, 125, 125, 125, 125, 126, 126, 127, 127, 128, 129, 130, 131, 132, 133, 134, 136, 137, 139, 141, 143, 145, 147, 150, 152, 154, 156, 157, 159, 160, 160, 160, 160, 159, 158, 157, 154, 152, 149, 146, 143, 139, 135, 132, 128, 124, 121, 117, 114, 111, 109, 106, 104, 102, 101, 100, 99, 99, 99, 100, 100, 101, 103, 105, 106, 109, 111, 114, 116, 119, 122, 125, 127, 130, 133, 136, 138, 141, 143, 146, 148, 149, 151, 152, 153, 154, 154, 154, 154, 153, 152, 150, 149, 146, 144, 141, 138, 135, 131, 128, 125, 122, 119, 116, 113, 111, 109, 107, 106, 105, 104, 103, 102, 102, 102, 102, 102, 102, 102, 102, 102, 102, 103, 103, 104, 105, 106, 108, 109, 111, 113, 115, 117, 120, 122, 124, 127, 128, 130, 132, 133, 133, 134, 134, 133, 133, 132, 131, 130, 128, 127, 126, 125, 125, 124, 124, 124, 124, 125, 125, 126, 126, 127, 127, 128, 128, 128, 128, 128, 127, 127, 126, 126, 125, 125, 125, 125, 125, 126, 128, 129, 131, 133, 136, 138, 141, 144, 146, 148, 151, 152, 154, 155, 155, 155, 155, 154, 154, 152, 151, 150, 148, 147, 145, 143, 142, 140, 139, 138, 136, 135, 133, 132, 130, 129, 127, 126, 124, 122, 120, 118, 116, 115, 113, 112, 111, 110, 110, 110, 110, 110, 111, 112, 114, 115, 117, 119, 121, 123, 125, 127, 129, 131, 133, 135, 136, 137, 139, 140, 140, 141, 141, 142, 142, 142, 142, 141, 141, 140, 139, 138, 138, 137, 135, 134, 133, 132, 130, 129, 127, 126, 124, 122, 120, 118, 116, 114, 112, 110, 108, 106, 104, 102, 100, 99, 98, 97, 97, 97, 97, 98, 100, 101, 104, 106, 109, 112, 115, 119, 122, 125, 128, 131, 134, 136, 138, 139, 140, 141, 141, 141, 140, 140, 138, 137, 136, 134, 133, 131, 129, 128, 126, 124, 123, 122, 120, 119, 118, 117, 116, 116, 115, 115, 114, 114, 114, 114, 114, 115, 115, 116, 117, 119, 120, 122, 124, 126, 128, 130, 132, 135, 137, 140, 142, 145, 147, 150, 152, 153, 155, 156, 158, 158, 159, 159, 159, 158, 157, 156, 155, 153, 151, 149, 147, 144, 141, 139, 136, 133, 131, 128, 126, 124, 122, 120, 118, 117, 116, 115, 114, 114, 114, 114, 114, 114, 115, 116, 117, 119, 120, 122, 123, 125, 127, 129, 132, 134, 136, 138, 140, 142, 143, 145, 146, 147, 147, 147, 147, 147, 146, 145, 144, 142, 140, 138, 136, 133, 130, 127, 124, 121, 118, 115, 112, 110, 107, 104, 102, 100, 99, 98, 97, 97, 97, 97, 98, 99, 101, 103, 105, 107, 110, 113, 115, 118, 121, 123, 126, 128, 130, 132, 134, 135, 136, 137, 137, 138, 138, 138, 137, 137, 136, 136, 135, 134, 133, 131, 130, 128, 126, 124, 122, 120, 117, 115, 112, 110, 107, 104, 102, 100, 98, 97, 96, 95, 95, 95, 95, 96, 98, 100, 102, 104, 107, 110, 114, 117, 121, 125, 129, 132, 136, 140, 143, 147, 150, 153, 155, 157, 159, 160, 162, 162, 162, 162, 162, 161, 160, 158, 156, 155, 152, 150, 148, 146, 144, 142, 140, 138, 136, 134, 133, 132, 130, 129, 128, 127, 126, 125, 124, 123, 123, 122, 121, 121, 121, 121, 121, 122, 122, 124, 125, 127, 128, 130, 132, 134, 136, 138, 140, 141, 142, 143, 143, 143, 143, 142, 141, 139, 138, 136, 134, 132, 130, 128, 127, 125, 124, 123, 123, 122, 122, 122, 122, 122, 122, 122, 121, 121, 121, 120, 119, 119, 118, 117, 116, 115, 115, 114, 114, 114, 115, 115, 116, 117, 118, 120, 121, 123, 124, 126, 127, 128, 129, 130, 130, 131, 131, 130, 130, 129, 129, 128, 127, 126, 125, 124, 123, 122, 121, 120, 119, 118, 117, 116, 115, 115, 114, 113, 112, 111, 110, 109, 108, 108, 107, 107, 106, 106, 106, 106, 106, 106, 107, 108, 109, 110, 111, 112, 114, 116, 118, 120, 122, 124, 126, 129, 131, 133, 135, 137, 139, 141, 142, 144, 145, 145, 146, 146, 146, 146, 145, 145, 144, 143, 142, 141, 140, 139, 138, 137, 135, 134, 133, 132, 131, 129, 128, 127, 125, 124, 123, 121, 120, 119, 118, 118, 118, 118, 118, 119, 120, 122, 124, 127, 129, 132, 135, 138, 141, 145, 147, 150, 153, 155, 156, 157, 158, 158, 158, 158, 157, 156, 155, 154, 152, 151, 149, 148, 147, 146, 144, 143, 142, 141, 140, 139, 137, 136, 134, 132, 130, 128, 126, 124, 121, 119, 116, 114, 112, 111, 109, 108, 107, 107, 107, 108, 109, 110, 112, 113, 115, 118, 120, 122, 124, 126, 128, 129, 131, 132, 133, 134, 134, 134, 134, 134, 134, 134, 134, 133, 133, 132, 132, 131, 130, 130, 129, 128, 127, 127, 126, 125, 123, 122, 121, 120, 118, 117, 116, 114, 113, 112, 111, 110, 110, 110, 110, 110, 111, 112, 113, 115, 116, 118, 120, 122, 124, 126, 128, 129, 131, 132, 133, 133, 134, 134, 134, 134, 134, 134, 134, 134, 134, 134, 134, 134, 135, 136, 137, 138, 139, 140, 142, 143, 144, 145, 146, 146, 147, 146, 146, 145, 144, 142, 140, 138, 135, 133, 130, 127, 125, 123, 120, 119, 117, 116, 115, 114, 114, 114, 115, 115, 116, 117, 117, 118, 119, 119, 120, 120, 120, 120, 119, 119, 118, 118, 117, 116, 115, 114, 114, 113, 113, 113, 113, 113, 113, 113, 113, 114, 114, 115, 116, 116, 117, 117, 118, 119, 120, 121, 122, 123, 125, 127, 129, 131, 134, 137, 141, 144, 148, 152, 157, 161, 165, 170, 174, 177, 181, 183, 186, 187, 188, 189, 188, 187, 186, 183, 180, 177, 173, 169, 164, 160, 155, 150, 146, 141, 137, 133, 130, 126, 123, 120, 118, 116, 114, 112, 111, 110, 108, 108, 107, 106, 105, 105, 105, 105, 105, 105, 105, 106, 107, 108, 109, 111, 113, 115, 117, 119, 121, 123, 125, 127, 128, 130, 131, 132, 133, 134, 134, 134, 134, 134, 133, 133, 132, 131, 130, 130, 129, 128, 127, 127, 126, 125, 125, 124, 123, 122, 121, 120, 119, 117, 116, 114, 112, 110, 108, 105, 103, 101, 99, 97, 95, 93, 92, 91, 91, 90, 91, 92, 93, 94, 96, 99, 101, 104, 107, 109, 112, 114, 117, 119, 120, 122, 123, 123, 124, 124, 123, 123, 123, 122, 121, 121, 120, 120, 120, 119, 119, 120, 120, 120, 121, 121, 121, 122, 122, 122, 122, 122, 122, 123, 123, 123, 123, 124, 125, 126, 127, 129, 131, 133, 135, 138, 141, 144, 147, 151, 155, 158, 162, 166, 170, 174, 178, 181, 185, 188, 191, 193, 195, 197, 198, 199, 199, 198, 197, 195, 193, 190, 186, 182, 177, 172, 167, 162, 156, 150, 144, 138, 132, 125, 119, 113, 108, 102, 96, 91, 86, 81, 77, 73, 70, 68, 66, 64, 64, 64, 65, 67, 69, 72, 75, 79, 84, 88, 93, 97, 102, 106, 110, 113, 117, 120, 122, 124, 126, 128, 129, 131, 132, 133, 134, 135, 136, 137, 138, 139, 139, 140, 140, 140, 140, 140, 139, 138, 137, 135, 134, 132, 130, 128, 126, 124, 122, 119, 117, 114, 111, 109, 106, 103, 100, 97, 94, 91, 89, 87, 86, 85, 84, 85, 86, 89, 92, 95, 100, 105, 111, 118, 125, 132, 139, 147, 154, 161, 168, 174, 180, 186, 191, 195, 199, 203, 205, 207, 208, 209, 209, 207, 205, 203, 199, 195, 190, 184, 179, 172, 166, 159, 153, 147, 142, 137, 133, 130, 128, 127, 127, 127, 129, 131, 134, 137, 141, 144, 147, 151, 153, 156, 158, 159, 159, 159, 158, 156, 154, 150, 147, 142, 137, 131, 125, 118, 112, 104, 97, 90, 83, 76, 69, 64, 59, 54, 51, 48, 47, 47, 47, 49, 52, 55, 59, 63, 68, 72, 77, 81, 85, 88, 91, 93, 95, 96, 96, 96, 96, 96, 96, 96, 97, 97, 98, 100, 102, 104, 107, 110, 114, 118, 123, 127, 132, 137, 142, 146, 151, 155, 159, 163, 166, 169, 171, 172, 173, 173, 173, 171, 169, 166, 162, 158, 153, 148, 142, 136, 130, 125, 120, 115, 111, 107, 105, 103, 103, 103, 104, 106, 108, 111, 115, 120, 124, 129, 134, 139, 144, 149, 154, 158, 162, 165, 168, 170, 172, 173, 173, 172, 171, 168, 165, 161, 156, 151, 145, 139, 132, 126, 119, 113, 107, 101, 97, 93, 90, 89, 88, 88, 89, 91, 94, 97, 101, 105, 109, 113, 117, 120, 123, 126, 128, 130, 131, 132, 132, 132, 132, 131, 130, 130, 129, 129, 129, 129, 130, 131, 133, 135, 137, 141, 144, 148, 152, 156, 160, 164, 168, 172, 175, 177, 179, 180, 180, 180, 178, 175, 172, 167, 162, 157, 151, 144, 138, 131, 125, 119, 113, 108, 104, 100, 97, 94, 93, 92, 92, 92, 93, 95, 97, 100, 103, 106, 109, 112, 116, 119, 122, 125, 128, 130, 132, 134, 135, 135, 135, 134, 133, 131, 129, 126, 122, 118, 114, 109, 105, 100, 95, 90, 86, 82, 79, 76, 74, 72, 71, 71, 72, 73, 75, 78, 81, 84, 88, 92, 96, 100, 104, 108, 111, 114, 117, 120, 122, 123, 124, 125, 126, 127, 127, 128, 129, 131, 133, 135, 138, 141, 145, 149, 154, 159, 165, 170, 175, 180, 184, 188, 191, 193, 195, 195, 194, 192, 189, 185, 180, 174, 167, 161, 154, 146, 139, 132, 125, 119, 114, 109, 105, 102, 100, 99, 99, 99, 101, 103, 107, 110, 115, 120, 125, 131, 136, 142, 147, 153, 157, 162, 165, 169, 171, 173, 174, 174, 173, 172, 169, 167, 163, 159, 155, 150, 146, 140, 135, 130, 125, 120, 115, 110, 106, 102, 99, 96, 94, 93, 92, 91, 91, 92, 94, 95, 98, 100, 102, 105, 107, 109, 111, 112, 113, 113, 112, 111, 110, 108, 106, 103, 101, 99, 97, 96, 95, 95, 96, 98, 100, 104, 108, 113, 119, 124, 131, 137, 143, 149, 155, 160, 164, 168, 170, 172, 173, 173, 172, 170, 167, 163, 159, 154, 149, 143, 137, 131, 124, 118, 113, 108, 103, 99, 97, 95, 94, 94, 95, 97, 100, 104, 109, 114, 119, 124, 130, 135, 140, 145, 149, 152, 155, 157, 158, 158, 157, 156, 155, 153, 150, 147, 144, 140, 136, 132, 128, 123, 119, 114, 110, 106, 102, 99, 96, 93, 91, 90, 90, 91, 92, 94, 97, 100, 104, 109, 113, 118, 122, 126, 129, 132, 134, 135, 136, 135, 135, 133, 131, 129, 127, 125, 123, 122, 121, 120, 121, 122, 123, 126, 129, 132, 136, 140, 145, 149, 154, 158, 162, 166, 170, 173, 175, 177, 178, 178, 178, 176, 174, 171, 167, 162, 157, 150, 143, 136, 128, 121, 113, 106, 99, 93, 88, 84, 82, 80, 80, 81, 84, 87, 91, 96, 102, 108, 114, 120, 125, 131, 135, 140, 143, 146, 149, 150, 152, 152, 152, 151, 150, 149, 147, 145, 142, 139, 136, 132, 127, 123, 118, 113, 108, 103, 98, 93, 89, 86, 83, 80, 79, 78, 79, 79, 81, 83, 86, 89, 92, 95, 98, 101, 103, 105, 107, 108, 109, 110, 110, 111, 111, 111, 112, 113, 114, 115, 117, 120, 123, 126, 130, 134, 138, 142, 147, 151, 156, 161, 165, 170, 174, 178, 181, 184, 186, 188, 188, 189, 188, 186, 184, 180, 176, 171, 166, 159, 153, 146, 139, 133, 127, 121, 116, 112, 109, 106, 105, 105, 106, 107, 110, 113, 116, 120, 124, 129, 133, 137, 140, 144, 147, 149, 151, 153, 154, 154, 154, 153, 152, 150, 148, 145, 142, 138, 134, 130, 125, 121, 116, 111, 107, 102, 98, 94, 91, 89, 87, 86, 86, 86, 87, 88, 91, 93, 96, 99, 102, 105, 109, 112, 114, 117, 119, 121, 122, 123, 123, 124, 124, 123, 123, 123, 122, 122, 121, 121, 121, 121, 122, 123, 125, 127, 130, 133, 136, 140, 144, 148, 153, 157, 161, 164, 168, 170, 172, 172, 172, 171, 169, 167, 163, 158, 153, 147, 141, 135, 129, 123, 117, 111, 106, 102, 99, 96, 94, 93, 92, 92, 94, 95, 98, 101, 104, 108, 113, 117, 122, 127, 132, 137, 142, 146, 150, 154, 157, 159, 161, 162, 162, 161, 160, 157, 154, 151, 147, 142, 137, 132, 126, 121, 116, 111, 107, 103, 100, 97, 95, 93, 92, 91, 91, 92, 92, 93, 95, 96, 98, 100, 101, 103, 105, 106, 108, 109, 110, 111, 111, 112, 112, 113, 113, 113, 114, 115, 116, 117, 119, 121, 124, 127, 131, 136, 141, 146, 151, 157, 162, 168, 173, 177, 182, 185, 187, 189, 190, 189, 188, 186, 183, 179, 174, 169, 163, 157, 151, 144, 138, 132, 126, 121, 117, 113, 109, 107, 105, 104, 104, 104, 105, 107, 109, 112, 115, 118, 122, 126, 130, 133, 137, 140, 143, 145, 147, 148, 149, 149, 149, 148, 146, 144, 141, 138, 134, 130, 125, 121, 116, 111, 106, 102, 97, 93, 89, 86, 84, 82, 80, 79, 79, 80, 81, 83, 85, 88, 91, 94, 97, 100, 103, 106, 109, 111, 113, 114, 115, 116, 116, 116, 116, 116, 116, 116, 116, 117, 118, 120, 122, 124, 127, 131, 134, 138, 143, 147, 152, 156, 160, 164, 167, 170, 172, 174, 175, 175, 175, 174, 172, 169, 166, 162, 158, 153, 148, 142, 137, 131, 126, 121, 116, 112, 109, 106, 104, 103, 103, 104, 105, 108, 111, 114, 118, 122, 127, 132, 136, 141, 145, 149, 152, 156, 158, 160, 162, 163, 163, 163, 162, 161, 159, 156, 153, 150, 146, 142, 137, 132, 127, 122, 117, 112, 107, 102, 98, 95, 92, 90, 88, 87, 87, 88, 89, 90, 92, 94, 96, 98, 100, 102, 104, 105, 106, 107, 107, 107, 107, 107, 107, 107, 107, 108, 108, 110, 111, 114, 116, 119, 122, 126, 130, 134, 138, 143, 147, 151, 155, 159, 163, 166, 169, 172, 174, 175, 176, 177, 177, 176, 174, 172, 168, 165, 160, 156, 150, 145, 140, 134, 129, 124, 120, 116, 113, 111, 110, 109, 110, 111, 112, 114, 117, 120, 123, 126, 129, 132, 135, 137, 139, 141, 142, 143, 144, 144, 144, 144, 144, 143, 141, 140, 138, 135, 132, 129, 125, 121, 116, 111, 106, 101, 96, 92, 87, 83, 80, 78, 77, 76, 76, 77, 79, 82, 85, 89, 92, 96, 100, 104, 108, 111, 113, 115, 117, 118, 118, 119, 119, 119, 119, 119, 119, 119, 120, 122, 123, 126, 128, 131, 135, 138, 142, 146, 150, 154, 157, 160, 163, 166, 168, 169, 170, 171, 170, 170, 169, 167, 164, 162, 159, 155, 151, 147, 142, 138, 133, 129, 124, 120, 116, 113, 110, 107, 105, 104, 103, 104, 104, 106, 108, 111, 114, 117, 121, 125, 129, 134, 138, 142, 145, 149, 151, 154, 156, 157, 157, 157, 157, 155, 153, 151, 148, 145, 141, 137, 132, 127, 123, 118, 113, 109, 105, 101, 97, 94, 91, 89, 88, 87, 87, 87, 88, 89, 90, 93, 95, 97, 100, 103, 105, 108, 110, 112, 114, 116, 117, 118, 119, 119, 120, 121, 121, 122, 123, 124, 126, 128, 130, 133, 136, 139, 143, 147, 151, 156, 160, 163, 167, 170, 172, 174, 175, 176, 176, 175, 173, 170, 167, 164, 160, 156, 152, 147, 143, 139, 135, 131, 128, 125, 123, 121, 119, 118, 117, 117, 117, 118, 119, 120, 121, 123, 124, 126, 128, 130, 132, 134, 137, 139, 140, 142, 143, 144, 145, 145, 145, 144, 143, 141, 138, 135, 132, 128, 124, 119, 115, 110, 105, 101, 97, 93, 90, 87, 85, 84, 83, 83, 84, 86, 87, 90, 93, 96, 99, 102, 105, 108, 110, 112, 114, 116, 117, 118, 118, 118, 118, 118, 117, 117, 117, 117, 118, 118, 120, 121, 123, 125, 128, 130, 133, 136, 140, 143, 146, 149, 152, 154, 156, 157, 158, 159, 159, 159, 158, 156, 154, 152, 149, 146, 143, 139, 136, 132, 129, 126, 123, 120, 118, 116, 114, 113, 113, 113, 113, 114, 116, 117, 120, 122, 125, 127, 130, 133, 136, 138, 141, 143, 145, 147, 148, 149, 150, 151, 151, 151, 151, 150, 149, 148, 146, 144, 142, 139, 136, 133, 130, 127, 123, 120, 117, 113, 111, 108, 106, 104, 102, 102, 101, 101, 101, 102, 102, 103, 104, 106, 107, 108, 109, 109, 110, 110, 110, 110, 110, 110, 110, 110, 110, 111, 112, 113, 115, 117, 119, 122, 125, 128, 132, 136, 140, 144, 148, 152, 156, 159, 162, 165, 167, 169, 170, 171, 171, 171, 170, 169, 167, 164, 161, 158, 154, 151, 146, 142, 138, 134, 130, 127, 124, 121, 119, 117, 116, 115, 114, 115, 115, 116, 117, 119, 120, 122, 123, 125, 126, 127, 128, 129, 130, 131, 131, 132, 132, 132, 132, 132, 131, 130, 129, 128, 126, 124, 122, 119, 116, 112, 109, 105, 102, 98, 95, 92, 89, 87, 86, 85, 85, 86, 87, 89, 91, 94, 97, 100, 104, 107, 110, 113, 115, 117, 119, 120, 121, 122, 123, 124, 124, 125, 126, 127, 129, 131, 133, 135, 138, 141, 144, 147, 150, 153, 156, 158, 160, 162, 164, 165, 166, 166, 165, 165, 163, 162, 160, 158, 155, 153, 150, 147, 143, 140, 137, 134, 131, 128, 125, 123, 120, 118, 117, 116, 115, 114, 114, 114, 115, 116, 117, 119, 120, 122, 124, 127, 129, 132, 134, 137, 139, 142, 144, 146, 148, 149, 151, 151, 152, 151, 151, 149, 148, 145, 142, 139, 136, 132, 127, 123, 119, 114, 110, 106, 103, 100, 97, 95, 93, 91, 91, 90, 90, 90, 91, 92, 93, 94, 95, 96, 97, 99, 100, 101, 103, 104, 105, 107, 108, 110, 112, 113, 115, 117, 120, 122, 124, 127, 130, 133, 135, 138, 141, 144, 147, 149, 152, 154, 156, 158, 159, 160, 160, 160, 160, 159, 158, 156, 154, 152, 149, 147, 144, 141, 138, 135, 133, 130, 128, 126, 125, 124, 123, 123, 123, 123, 123, 124, 125, 126, 127, 128, 130, 131, 133, 135, 136, 138, 140, 141, 143, 145, 146, 147, 148, 149, 149, 149, 148, 147, 146, 144, 141, 138, 135, 131, 127, 122, 118, 114, 109, 105, 101, 98, 95, 92, 90, 89, 88, 88, 88, 89, 90, 92, 94, 96, 98, 100, 103, 105, 108, 110, 112, 115, 117, 119, 121, 122, 124, 126, 128, 129, 131, 133, 135, 137, 139, 141, 143, 145, 147, 149, 151, 152, 153, 154, 154, 154, 154, 153, 152, 150, 148, 146, 144, 142, 139, 137, 135, 132, 130, 128, 126, 125, 123, 122, 121, 120, 120, 120, 119, 119, 119, 119, 120, 120, 121, 122, 123, 124, 126, 128, 130, 132, 134, 136, 139, 141, 143, 145, 147, 149, 150, 151, 151, 151, 151, 150, 148, 146, 144, 141, 138, 135, 131, 128, 124, 120, 116, 112, 108, 104, 101, 98, 95, 92, 91, 89, 88, 88, 88, 89, 90, 91, 93, 95, 98, 100, 103, 106, 108, 111, 113, 115, 117, 119, 120, 122, 123, 124, 125, 126, 127, 129, 130, 132, 134, 136, 138, 141, 143, 146, 148, 150, 152, 154, 156, 157, 158, 159, 159, 159, 158, 157, 156, 155, 154, 153, 152, 150, 149, 148, 147, 146, 145, 144, 143, 142, 141, 140, 139, 138, 137, 136, 135, 134, 133, 132, 131, 130, 130, 129, 129, 129, 129, 129, 129, 130, 130, 131, 132, 132, 133, 133, 133, 133, 132, 131, 130, 129, 127, 125, 122, 119, 116, 113, 110, 107, 104, 101, 98, 96, 94, 93, 91, 91, 90, 91, 91, 92, 93, 94, 95, 97, 98, 99, 100, 102, 103, 104, 105, 106, 107, 108, 110, 111, 113, 115, 117, 120, 123, 126, 129, 132, 136, 139, 142, 145, 147, 149, 151, 153, 154, 154, 155, 154, 154, 153, 152, 151, 150, 149, 147, 146, 144, 143, 141, 139, 138, 136, 135, 133, 132, 130, 129, 128, 127, 126, 125, 124, 124, 123, 123, 124, 124, 125, 125, 126, 128, 129, 131, 133, 134, 137, 139, 141, 143, 146, 148, 150, 152, 154, 156, 157, 158, 158, 158, 157, 156, 154, 151, 148, 144, 140, 135, 130, 125, 120, 115, 110, 105, 101, 97, 94, 91, 89, 87, 85, 84, 84, 84, 84, 84, 84, 84, 85, 85, 86, 87, 88, 89, 90, 92, 94, 96, 99, 102, 106, 109, 113, 117, 122, 126, 130, 134, 138, 142, 145, 148, 151, 153, 155, 157, 158, 159, 159, 160, 160, 159, 159, 158, 157, 156, 155, 154, 152, 150, 148, 147, 145, 143, 141, 140, 138, 137, 136, 135, 135, 134, 134, 134, 134, 135, 135, 136, 136, 136, 136, 137, 137, 137, 137, 137, 137, 137, 137, 137, 137, 137, 137, 137, 137, 137, 137, 136, 135, 133, 131, 129, 126, 123, 119, 115, 111, 107, 102, 98, 94, 91, 88, 85, 84, 82, 82, 82, 83, 85, 86, 89, 91, 94, 97, 100, 103, 106, 108, 111, 114, 116, 118, 121, 123, 126, 128, 131, 133, 136, 139, 141, 144, 146, 149, 151, 153, 154, 156, 157, 157, 157, 157, 157, 156, 155, 154, 152, 151, 149, 147, 145, 143, 142, 140, 138, 136, 135, 133, 132, 131, 130, 129, 128, 127, 127, 126, 126, 126, 126, 127, 127, 127, 128, 129, 130, 130, 131, 132, 133, 134, 135, 137, 138, 139, 140, 141, 142, 143, 144, 145, 146, 146, 146, 146, 145, 145, 143, 142, 140, 137, 135, 131, 128, 125, 121, 117, 113, 110, 107, 104, 101, 99, 97, 95, 94, 94, 94, 94, 94, 95, 96, 98, 99, 101, 102, 104, 105, 107, 108, 109, 111, 112, 113, 114, 115, 117, 118, 119, 121, 123, 125, 126, 128, 130, 133, 135, 137, 138, 140, 142, 143, 144, 145, 145, 145, 145, 145, 145, 144, 143, 142, 141, 140, 139, 139, 138, 137, 136, 136, 136, 135, 135, 135, 135, 135, 135, 135, 135, 135, 135, 135, 135, 135, 136, 136, 136, 137, 137, 138, 139, 140, 141, 142, 143, 144, 145, 146, 146, 147, 147, 147, 146, 146, 145, 143, 142, 140, 137, 135, 132, 129, 126, 122, 119, 116, 113, 110, 107, 104, 102, 100, 98, 97, 95, 95, 94, 94, 94, 95, 95, 96, 97, 98, 99, 100, 101, 103, 104, 105, 107, 108, 110, 111, 113, 115, 117, 119, 121, 124, 126, 129, 131, 134, 136, 138, 140, 142, 144, 145, 146, 146, 146, 146, 146, 145, 144, 142, 141, 139, 137, 136, 134, 132, 131, 130, 128, 127, 126, 126, 125, 125, 124, 124, 124, 124, 125, 125, 126, 126, 127, 128, 129, 130, 132, 133, 135, 136, 138, 140, 142, 144, 145, 147, 149, 150, 151, 152, 153, 153, 153, 153, 152, 151, 149, 147, 145, 142, 139, 135, 132, 128, 124, 120, 116, 112, 108, 105, 101, 99, 97, 95, 94, 93, 93, 93, 93, 94, 95, 97, 98, 100, 102, 104, 105, 107, 109, 110, 112, 114, 115, 117, 119, 121, 122, 125, 127, 129, 131, 133, 136, 138, 140, 142, 143, 145, 146, 147, 147, 147, 147, 147, 146, 146, 145, 144, 143, 142, 140, 139, 138, 137, 136, 135, 134, 134, 133, 133, 132, 132, 132, 132, 132, 132, 132, 133, 133, 134, 135, 136, 136, 137, 138, 139, 139, 140, 140, 140, 140, 140, 140, 140, 140, 140, 140, 140, 140, 140, 139, 139, 139, 138, 137, 136, 135, 133, 131, 129, 126, 123, 119, 115, 112, 108, 104, 101, 98, 95, 93, 91, 90, 89, 89, 90, 91, 93, 94, 96, 99, 101, 103, 105, 107, 109, 110, 112, 113, 115, 116, 117, 119, 120, 122, 124, 126, 128, 130, 132, 135, 137, 139, 141, 143, 144, 145, 146, 146, 146, 146, 145, 145, 144, 143, 141, 140, 139, 137, 136, 135, 134, 132, 131, 130, 129, 128, 127, 126, 125, 125, 124, 124, 123, 124, 124, 124, 125, 126, 127, 129, 130, 132, 133, 135, 136, 138, 139, 141, 142, 143, 144, 145, 146, 147, 147, 148, 149, 149, 150, 150, 151, 151, 150, 149, 148, 147, 145, 142, 139, 136, 132, 128, 123, 119, 114, 110, 106, 102, 99, 97, 94, 93, 92, 91, 92, 92, 93, 94, 96, 97, 99, 101, 103, 104, 106, 107, 109, 110, 112, 113, 115, 116, 118, 120, 122, 124, 126, 128, 130, 133, 135, 137, 139, 141, 143, 144, 145, 146, 146, 146, 146, 145, 145, 144, 143, 142, 140, 139, 138, 137, 136, 135, 134, 134, 133, 133, 132, 132, 132, 132, 132, 133, 133, 134, 134, 135, 135, 136, 137, 138, 139, 139, 140, 141, 142, 142, 143, 144, 144, 144, 145, 145, 145, 145, 144, 144, 143, 142, 141, 140, 138, 136, 134, 132, 129, 126, 124, 120, 117, 114, 111, 108, 105, 102, 99, 97, 95, 93, 92, 92, 92, 92, 93, 94, 96, 98, 100, 103, 105, 108, 111, 113, 116, 118, 120, 122, 124, 126, 127, 128, 130, 131, 132, 133, 134, 135, 136, 138, 139, 140, 141, 142, 143, 144, 145, 145, 145, 145, 145, 144, 143, 142, 140, 138, 136, 134, 132, 130, 128, 127, 125, 123, 122, 121, 120, 120, 120, 119, 120, 120, 120, 121, 122, 122, 123, 124, 125, 125, 126, 127, 128, 129, 130, 131, 132, 133, 134, 135, 137, 138, 139, 141, 142, 143, 144, 145, 145, 146, 146, 145, 145, 144, 142, 141, 139, 137, 135, 132, 130, 127, 125, 122, 120, 118, 116, 114, 112, 111, 110, 108, 108, 107, 106, 106, 105, 105, 105, 105, 105, 105, 106, 106, 107, 107, 108, 109, 110, 111, 112, 113, 115, 116, 118, 119, 121, 123, 125, 127, 129, 131, 133, 135, 137, 139, 141, 143, 145, 146, 147, 148, 148, 148, 147, 146, 145, 144, 142, 140, 138, 136, 134, 132, 130, 128, 127, 127, 126, 126, 127, 127, 128, 130, 131, 133, 135, 137, 138, 140, 142, 143, 145, 146, 147, 148, 149, 150, 151, 152, 152, 153, 153, 154, 154, 154, 154, 154, 153, 152, 151, 149, 147, 144, 141, 137, 133, 129, 124, 120, 115, 110, 105, 101, 97, 93, 90, 87, 85, 84, 83, 83, 83, 84, 85, 86, 88, 90, 92, 95, 97, 99, 101, 103, 105, 107, 109, 111, 113, 115, 118, 120, 122, 124, 127, 129, 131, 134, 136, 138, 140, 141, 142, 143, 143, 143, 143, 142, 142, 140, 139, 138, 136, 135, 133, 132, 130, 129, 128, 127, 126, 125, 124, 124, 123, 123, 123, 123, 123, 124, 124, 125, 127, 128, 130, 132, 134, 136, 138, 140, 143, 144, 146, 147, 148, 149, 150, 150, 150, 149, 149, 148, 147, 146, 146, 145, 144, 144, 143, 142, 142, 141, 140, 139, 137, 135, 133, 131, 128, 125, 122, 118, 115, 112, 109, 107, 105, 103, 102, 102, 102, 102, 104, 105, 107, 109, 111, 113, 115, 116, 118, 119, 120, 120, 121, 121, 121, 121, 121, 121, 121, 122, 122, 123, 124, 126, 127, 129, 130, 132, 134, 135, 137, 138, 139, 139, 140, 140, 140, 139, 139, 138, 138, 137, 136, 136, 135, 135, 134, 134, 134, 134, 134, 134, 134, 134, 135, 135, 135, 135, 136, 136, 136, 136, 136, 136, 136, 136, 136, 136, 136, 136, 136, 136, 136, 136, 136, 136, 136, 137, 137, 137, 138, 138, 138, 139, 139, 138, 138, 137, 136, 135, 133, 131, 129, 127, 124, 121, 118, 115, 112, 108, 106, 103, 101, 98, 97, 95, 94, 94, 94, 94, 94, 95, 96, 98, 99, 101, 102, 104, 106, 108, 110, 111, 113, 115, 117, 118, 120, 122, 124, 126, 128, 129, 131, 133, 135, 137, 138, 139, 141, 142, 142, 143, 143, 143, 142, 142, 141, 139, 138, 136, 134, 133, 131, 129, 127, 126, 124, 123, 122, 122, 122, 122, 122, 122, 123, 124, 125, 127, 128, 129, 131, 132, 133, 135, 136, 137, 138, 138, 139, 140, 141, 142, 143, 143, 144, 145, 146, 147, 148, 149, 150, 151, 151, 151, 151, 150, 149, 147, 146, 143, 141, 138, 134, 131, 127, 124, 120, 117, 114, 111, 109, 107, 105, 104, 104, 103, 103, 103, 104, 104, 105, 106, 107, 108, 108, 109, 110, 111, 112, 113, 114, 115, 116, 117, 118, 119, 120, 121, 123, 124, 125, 127, 128, 129, 130, 131, 132, 132, 133, 134, 134, 134, 134, 134, 134, 134, 134, 134, 133, 133, 132, 132, 131, 131, 130, 130, 130, 130, 131, 131, 132, 133, 135, 136, 137, 139, 141, 142, 144, 145, 146, 147, 147, 147, 147, 147, 146, 146, 145, 144, 143, 143, 142, 142, 141, 141, 141, 141, 141, 142, 141, 141, 141, 140, 139, 138, 136, 134, 132, 129, 126, 123, 120, 117, 115, 112, 110, 108, 106, 105, 104, 104, 103, 103, 104, 104, 105, 105, 106, 107, 107, 108, 109, 109, 110, 110, 111, 112, 112, 113, 114, 115, 116, 117, 119, 120, 122, 123, 125, 126, 128, 129, 130, 131, 132, 133, 134, 134, 135, 135, 134, 134, 134, 133, 132, 131, 130, 128, 127, 126, 124, 123, 122, 121, 120, 119, 118, 118, 118, 118, 118, 119, 119, 120, 121, 122, 124, 125, 126, 127, 129, 130, 131, 132, 133, 134, 135, 136, 137, 138, 139, 140, 141, 142, 143, 144, 145, 146, 147, 148, 148, 148, 148, 148, 147, 146, 145, 143, 141, 139, 136, 133, 130, 127, 124, 121, 119, 116, 114, 112, 111, 109, 109, 108, 108, 108, 108, 109, 109, 110, 111, 112, 112, 113, 113, 114, 115, 115, 116, 116, 117, 118, 119, 120, 121, 123, 124, 126, 128, 130, 132, 133, 135, 136, 138, 138, 139, 139, 139, 139, 138, 137, 136, 135, 133, 132, 131, 129, 128, 128, 127, 126, 126, 126, 127, 127, 128, 128, 129, 130, 131, 133, 134, 135, 136, 137, 138, 139, 140, 141, 142, 143, 143, 144, 145, 145, 146, 146, 147, 147, 147, 148, 148, 148, 147, 147, 147, 146, 145, 144, 143, 142, 140, 138, 136, 133, 130, 128, 125, 121, 118, 115, 112, 109, 107, 104, 102, 100, 99, 98, 97, 97, 97, 97, 97, 98, 99, 101, 102, 103, 105, 106, 107, 108, 110, 111, 112, 113, 114, 115, 116, 118, 119, 120, 122, 123, 125, 127, 128, 130, 132, 133, 135, 136, 137, 137, 138, 138, 138, 137, 136, 135, 134, 133, 131, 130, 128, 127, 125, 124, 123, 123, 122, 122, 122, 123, 123, 124, 125, 126, 127, 128, 129, 130, 131, 132, 132, 133, 133, 133, 133, 133, 133, 133, 133, 133, 133, 133, 134, 135, 135, 136, 137, 138, 139, 140, 141, 142, 142, 142, 142, 141, 141, 139, 138, 136, 134, 132, 129, 127, 124, 122, 120, 118, 116, 114, 113, 112, 111, 111, 111, 111, 111, 112, 112, 113, 114, 115, 116, 117, 117, 118, 119, 119, 120, 121, 121, 122, 123, 123, 124, 125, 127, 128, 129, 131, 132, 134, 136, 137, 139, 140, 141, 142, 143, 143, 143, 142, 142, 141, 140, 138, 136, 135, 133, 131, 129, 127, 126, 125, 124, 123, 123, 123, 124, 125, 126, 127, 129, 131, 132, 134, 136, 137, 139, 140, 141, 141, 142, 142, 142, 142, 142, 142, 142, 142, 142, 142, 142, 143, 143, 144, 145, 146, 147, 147, 147, 147, 147, 146, 145, 143, 141, 138, 135, 131, 127, 123, 119, 115, 112, 108, 105, 103, 100, 99, 98, 97, 97, 97, 98, 99, 100, 102, 103, 105, 106, 107, 108, 109, 110, 111, 112, 112, 113, 114, 114, 115, 116, 117, 119, 120, 122, 124, 125, 127, 129, 130, 132, 133, 134, 135, 135, 135, 135, 135, 134, 133, 132, 130, 129, 127, 126, 124, 123, 121, 121, 120, 119, 119, 120, 120, 121, 123, 124, 126, 129, 131, 133, 135, 138, 140, 141, 143, 144, 145, 146, 146, 146, 145, 145, 144, 144, 143, 143, 142, 142, 142, 142, 143, 143, 144, 145, 145, 146, 146, 146, 146, 146, 145, 143, 142, 139, 137, 134, 131, 128, 125, 121, 119, 116, 114, 112, 111, 110, 109, 109, 110, 110, 111, 112, 113, 114, 115, 115, 116, 116, 117, 117, 117, 116, 116, 116, 115, 115, 115, 115, 115, 116, 117, 118, 119, 120, 122, 124, 125, 127, 129, 130, 132, 133, 134, 135, 135, 135, 134, 134, 133, 132, 130, 129, 128, 126, 125, 124, 123, 123, 122, 122, 123, 123, 124, 126, 127, 128, 130, 132, 133, 135, 136, 138, 139, 139, 140, 140, 140, 140, 140, 140, 140, 140, 140, 140, 140, 141, 141, 142, 143, 144, 145, 146, 147, 147, 148, 148, 148, 147, 146, 145, 143, 141, 138, 135, 132, 129, 126, 123, 120, 117, 114, 112, 110, 108, 106, 105, 105, 104, 104, 104, 105, 105, 106, 107, 107, 108, 109, 109, 110, 110, 111, 111, 112, 112, 113, 113, 114, 115, 116, 117, 119, 120, 122, 124, 126, 127, 129, 131, 132, 134, 135, 135, 136, 136, 135, 135, 134, 133, 131, 130, 128, 127, 125, 124, 123, 122, 121, 121, 120, 121, 121, 122, 123, 124, 125, 127, 128, 129, 131, 132, 134, 135, 136, 137, 137, 138, 138, 139, 139, 139, 140, 140, 140, 140, 141, 141, 142, 142, 143, 144, 144, 145, 145, 145, 146, 145, 145, 144, 143, 141, 140, 137, 135, 132, 129, 126, 123, 120, 117, 115, 112, 110, 108, 107, 106, 106, 106, 106, 107, 108, 109, 110, 111, 113, 114, 115, 115, 116, 116, 117, 117, 117, 117, 117, 117, 117, 118, 118, 119, 120, 122, 123, 125, 126, 128, 129, 131, 132, 133, 134, 134, 134, 134, 133, 133, 132, 131, 130, 128, 127, 126, 125, 125, 124, 124, 124, 124, 125, 126, 127, 128, 130, 131, 133, 135, 136, 138, 140, 141, 142, 144, 144, 145, 146, 146, 146, 146, 145, 145, 144, 144, 143, 143, 142, 142, 141, 141, 141, 141, 141, 141, 141, 141, 141, 141, 140, 139, 138, 137, 135, 133, 130, 128, 125, 122, 119, 117, 114, 112, 110, 108, 107, 107, 106, 106, 107, 108, 109, 110, 111, 112, 113, 114, 115, 115, 116, 116, 116, 115, 115, 115, 114, 114, 114, 114, 115, 115, 116, 117, 119, 120, 122, 123, 125, 127, 128, 129, 130, 131, 132, 132, 132, 131, 131, 130, 129, 128, 127, 126, 125, 124, 123, 122, 121, 120, 119, 119, 119, 119, 119, 120, 120, 121, 122, 123, 124, 126, 127, 128, 129, 130, 131, 132, 132, 133, 133, 133, 133, 134, 134, 134, 135, 135, 136, 137, 139, 140, 142, 143, 145, 147, 148, 149, 150, 150, 150, 149, 148, 146, 144, 142, 139, 136, 132, 129, 126, 123, 120, 118, 116, 115, 114, 114, 114, 114, 114, 115, 116, 117, 117, 118, 119, 119, 119, 119, 119, 119, 118, 118, 118, 118, 118, 118, 118, 119, 120, 121, 122, 123, 124, 125, 126, 128, 128, 129, 130, 130, 130, 130, 130, 130, 129, 128, 127, 126, 126, 125, 124, 123, 122, 122, 121, 121, 121, 121, 122, 122, 123, 124, 126, 127, 129, 131, 133, 134, 136, 138, 140, 142, 143, 144, 145, 146, 147, 147, 148, 148, 148, 148, 148, 148, 149, 149, 150, 150, 151, 151, 152, 152, 153, 153, 152, 152, 151, 149, 147, 145, 142, 139, 135, 132, 128, 125, 121, 118, 114, 112, 109, 107, 106, 104, 104, 103, 104, 104, 104, 105, 106, 107, 108, 109, 110, 111, 111, 112, 113, 113, 114, 114, 115, 115, 115, 116, 117, 117, 118, 119, 120, 121, 122, 122, 123, 124, 125, 126, 126, 127, 127, 127, 127, 126, 126, 125, 124, 123, 122, 120, 119, 118, 117, 116, 116, 115, 115, 116, 116, 117, 118, 120, 121, 123, 125, 127, 128, 130, 132, 133, 134, 135, 136, 137, 137, 137, 138, 138, 138, 138, 138, 139, 139, 140, 140, 141, 142, 143, 143, 144, 145, 145, 146, 146, 146, 145, 144, 143, 142, 140, 138, 136, 134, 132, 130, 127, 125, 123, 121, 119, 118, 117, 116, 115, 115, 114, 115, 115, 115, 116, 117, 118, 119, 120, 121, 121, 122, 123, 124, 125, 125, 126, 126, 127, 127, 128, 128, 129, 129, 130, 130, 131, 131, 132, 133, 133, 133, 133, 133, 133, 133, 133, 132, 131, 130, 129, 128, 127, 126, 125, 124, 124, 123, 123, 122, 123, 123, 123, 124, 125, 127, 128, 129, 131, 132, 134, 135, 137, 138, 139, 140, 141, 142, 142, 143, 143, 143, 143, 143, 143, 143, 142, 142, 141, 141, 141, 140, 140, 139, 139, 138, 138, 137, 136, 135, 134, 133, 131, 129, 127, 125, 123, 121, 118, 116, 114, 112, 110, 109, 107, 107, 106, 106, 106, 107, 107, 108, 109, 111, 112, 113, 114, 115, 116, 116, 117, 117, 117, 117, 117, 117, 117, 118, 118, 118, 119, 120, 120, 121, 122, 124, 125, 126, 127, 128, 128, 129, 129, 130, 130, 130, 129, 129, 128, 128, 127, 127, 126, 126, 125, 125, 125, 125, 124, 124, 124, 124, 124, 124, 124, 125, 125, 125, 126, 126, 126, 127, 128, 128, 129, 129, 130, 130, 131, 131, 131, 131, 132, 132, 132, 132, 132, 133, 133, 134, 134, 135, 136, 137, 137, 138, 139, 139, 139, 139, 139, 138, 137, 136, 134, 132, 130, 128, 126, 124, 122, 121, 120, 119, 118, 118, 118, 118, 119, 120, 121, 122, 124, 125, 126, 127, 127, 128, 129, 129, 129, 129, 130, 130, 130, 131, 131, 132, 132, 133, 134, 135, 136, 136, 137, 137, 137, 137, 137, 137, 136, 135, 134, 133, 132, 130, 129, 128, 126, 125, 124, 123, 122, 121, 121, 120, 119, 118, 118, 117, 117, 116, 116, 116, 116, 116, 117, 118, 119, 120, 121, 123, 125, 127, 129, 130, 132, 134, 136, 138, 139, 141, 142, 143, 145, 146, 147, 148, 149, 150, 151, 151, 152, 152, 152, 152, 151, 150, 149, 147, 144, 142, 139, 135, 132, 129, 125, 122, 118, 115, 113, 110, 109, 107, 106, 105, 105, 104, 105, 105, 105, 106, 106, 107, 108, 109, 109, 110, 111, 112, 113, 114, 115, 116, 117, 118, 119, 120, 121, 122, 123, 124, 125, 125, 126, 126, 125, 125, 125, 124, 124, 123, 122, 121, 121, 120, 119, 118, 118, 117, 117, 117, 117, 117, 117, 117, 118, 119, 120, 121, 123, 125, 126, 129, 131, 133, 135, 137, 139, 141, 143, 144, 146, 146, 147, 147, 147, 147, 147, 147, 146, 146, 145, 145, 144, 144, 144, 144, 144, 143, 143, 143, 142, 141, 141, 139, 138, 136, 135, 133, 131, 129, 127, 125, 123, 121, 120, 119, 118, 117, 116, 116, 116, 116, 116, 116, 117, 117, 117, 118, 118, 118, 119, 119, 120, 120, 121, 122, 123, 124, 125, 126, 127, 128, 130, 131, 132, 132, 133, 134, 134, 134, 135, 135, 134, 134, 134, 134, 133, 133, 133, 132, 132, 131, 131, 130, 130, 129, 128, 127, 126, 125, 124, 123, 122, 121, 121, 120, 120, 120, 120, 121, 121,
   };
int main(void)
{
	pwm_init();
    75f0:	0e 94 e1 3a 	call	0x75c2	; 0x75c2 <pwm_init>
    75f4:	ff cf       	rjmp	.-2      	; 0x75f4 <main+0x4>

000075f6 <__vector_9>:
	while(1);//do nothing
}
ISR(TIMER0_OVF_vect)
{
    75f6:	1f 92       	push	r1
    75f8:	0f 92       	push	r0
    75fa:	0f b6       	in	r0, 0x3f	; 63
    75fc:	0f 92       	push	r0
    75fe:	11 24       	eor	r1, r1
    7600:	4f 93       	push	r20
    7602:	5f 93       	push	r21
    7604:	6f 93       	push	r22
    7606:	7f 93       	push	r23
    7608:	8f 93       	push	r24
    760a:	9f 93       	push	r25
    760c:	af 93       	push	r26
    760e:	bf 93       	push	r27
    7610:	ef 93       	push	r30
    7612:	ff 93       	push	r31
	sample_count--;
    7614:	80 91 64 00 	lds	r24, 0x0064
    7618:	90 91 65 00 	lds	r25, 0x0065
    761c:	01 97       	sbiw	r24, 0x01	; 1
	if (sample_count == 0)
    761e:	00 97       	sbiw	r24, 0x00	; 0
    7620:	29 f0       	breq	.+10     	; 0x762c <__vector_9+0x36>
	pwm_init();
	while(1);//do nothing
}
ISR(TIMER0_OVF_vect)
{
	sample_count--;
    7622:	90 93 65 00 	sts	0x0065, r25
    7626:	80 93 64 00 	sts	0x0064, r24
    762a:	2d c0       	rjmp	.+90     	; 0x7686 <__vector_9+0x90>
	if (sample_count == 0)
	{
		sample_count = 6;
    762c:	86 e0       	ldi	r24, 0x06	; 6
    762e:	90 e0       	ldi	r25, 0x00	; 0
    7630:	90 93 65 00 	sts	0x0065, r25
    7634:	80 93 64 00 	sts	0x0064, r24
		OCR1A = pgm_read_byte(&pcm_samples[sample++]);
    7638:	e0 91 66 00 	lds	r30, 0x0066
    763c:	f0 91 67 00 	lds	r31, 0x0067
    7640:	cf 01       	movw	r24, r30
    7642:	01 96       	adiw	r24, 0x01	; 1
    7644:	90 93 67 00 	sts	0x0067, r25
    7648:	80 93 66 00 	sts	0x0066, r24
    764c:	ec 5a       	subi	r30, 0xAC	; 172
    764e:	ff 4f       	sbci	r31, 0xFF	; 255
    7650:	e4 91       	lpm	r30, Z
    7652:	f0 e0       	ldi	r31, 0x00	; 0
    7654:	fb bd       	out	0x2b, r31	; 43
    7656:	ea bd       	out	0x2a, r30	; 42
		if(sample>pcm_length)sample=0;
    7658:	40 91 66 00 	lds	r20, 0x0066
    765c:	50 91 67 00 	lds	r21, 0x0067
    7660:	60 e0       	ldi	r22, 0x00	; 0
    7662:	70 e0       	ldi	r23, 0x00	; 0
    7664:	80 91 60 00 	lds	r24, 0x0060
    7668:	90 91 61 00 	lds	r25, 0x0061
    766c:	a0 91 62 00 	lds	r26, 0x0062
    7670:	b0 91 63 00 	lds	r27, 0x0063
    7674:	84 17       	cp	r24, r20
    7676:	95 07       	cpc	r25, r21
    7678:	a6 07       	cpc	r26, r22
    767a:	b7 07       	cpc	r27, r23
    767c:	24 f4       	brge	.+8      	; 0x7686 <__vector_9+0x90>
    767e:	10 92 67 00 	sts	0x0067, r1
    7682:	10 92 66 00 	sts	0x0066, r1
	}
    7686:	ff 91       	pop	r31
    7688:	ef 91       	pop	r30
    768a:	bf 91       	pop	r27
    768c:	af 91       	pop	r26
    768e:	9f 91       	pop	r25
    7690:	8f 91       	pop	r24
    7692:	7f 91       	pop	r23
    7694:	6f 91       	pop	r22
    7696:	5f 91       	pop	r21
    7698:	4f 91       	pop	r20
    769a:	0f 90       	pop	r0
    769c:	0f be       	out	0x3f, r0	; 63
    769e:	0f 90       	pop	r0
    76a0:	1f 90       	pop	r1
    76a2:	18 95       	reti

000076a4 <_exit>:
    76a4:	f8 94       	cli

000076a6 <__stop_program>:
    76a6:	ff cf       	rjmp	.-2      	; 0x76a6 <__stop_program>
